	.file	"ff.c"
	.option nopic
	.attribute arch, "rv32i2p1_m2p0"
	.attribute unaligned_access, 0
	.attribute stack_align, 16
	.text
.Ltext0:
	.cfi_sections	.debug_frame
	.file 0 "/home/mahmoudsamy/grad/ZC702/SW" "thirdparty/FatFs/ff.c"
	.align	2
	.type	get_fileinfo.part.0.constprop.0, @function
get_fileinfo.part.0.constprop.0:
.LFB55:
	.file 1 "thirdparty/FatFs/ff.c"
	.loc 1 2617 13
	.cfi_startproc
.LVL0:
	.loc 1 2734 12
	.loc 1 2735 3
	.loc 1 2735 5 is_stmt 0
	lw	a4,28(a0)
	.loc 1 2736 6
	li	a3,32
	.loc 1 2735 5
	lbu	a5,0(a4)
.LVL1:
	.loc 1 2736 3 is_stmt 1
	.loc 1 2736 6 is_stmt 0
	beq	a5,a3,.L24
	.loc 1 2737 3 is_stmt 1
	.loc 1 2737 6 is_stmt 0
	li	a4,5
	bne	a5,a4,.L3
	.loc 1 2737 21 discriminator 1
	li	a5,229
.LVL2:
.L3:
	.loc 1 2738 3 is_stmt 1
	.loc 1 2739 3
	.loc 1 2739 20 is_stmt 0
	sb	a5,9(a1)
	lw	a4,28(a0)
	.loc 1 2739 16
	li	a5,1
.LVL3:
.L2:
	.loc 1 2734 12 is_stmt 1
	.loc 1 2735 3
	.loc 1 2735 5 is_stmt 0
	lbu	a3,1(a4)
.LVL4:
	.loc 1 2736 3 is_stmt 1
	.loc 1 2736 6 is_stmt 0
	li	a2,32
	beq	a3,a2,.L4
	.loc 1 2737 3 is_stmt 1
	.loc 1 2737 6 is_stmt 0
	li	a4,5
	bne	a3,a4,.L5
	.loc 1 2737 21 discriminator 1
	li	a3,229
.LVL5:
.L5:
	.loc 1 2738 3 is_stmt 1
	.loc 1 2739 3
	.loc 1 2739 20 is_stmt 0
	add	a4,a1,a5
	sb	a3,9(a4)
	lw	a4,28(a0)
	.loc 1 2739 16
	addi	a5,a5,1
.LVL6:
.L4:
	.loc 1 2734 12 is_stmt 1
	.loc 1 2735 3
	.loc 1 2735 5 is_stmt 0
	lbu	a3,2(a4)
.LVL7:
	.loc 1 2736 3 is_stmt 1
	.loc 1 2736 6 is_stmt 0
	li	a2,32
	beq	a3,a2,.L6
	.loc 1 2737 3 is_stmt 1
	.loc 1 2737 6 is_stmt 0
	li	a4,5
	bne	a3,a4,.L7
	.loc 1 2737 21 discriminator 1
	li	a3,229
.LVL8:
.L7:
	.loc 1 2738 3 is_stmt 1
	.loc 1 2739 3
	.loc 1 2739 20 is_stmt 0
	add	a4,a1,a5
	sb	a3,9(a4)
	lw	a4,28(a0)
	.loc 1 2739 16
	addi	a5,a5,1
.LVL9:
.L6:
	.loc 1 2734 12 is_stmt 1
	.loc 1 2735 3
	.loc 1 2735 5 is_stmt 0
	lbu	a3,3(a4)
.LVL10:
	.loc 1 2736 3 is_stmt 1
	.loc 1 2736 6 is_stmt 0
	li	a2,32
	beq	a3,a2,.L8
	.loc 1 2737 3 is_stmt 1
	.loc 1 2737 6 is_stmt 0
	li	a4,5
	bne	a3,a4,.L9
	.loc 1 2737 21 discriminator 1
	li	a3,229
.LVL11:
.L9:
	.loc 1 2738 3 is_stmt 1
	.loc 1 2739 3
	.loc 1 2739 20 is_stmt 0
	add	a4,a1,a5
	sb	a3,9(a4)
	lw	a4,28(a0)
	.loc 1 2739 16
	addi	a5,a5,1
.LVL12:
.L8:
	.loc 1 2734 12 is_stmt 1
	.loc 1 2735 3
	.loc 1 2735 5 is_stmt 0
	lbu	a3,4(a4)
.LVL13:
	.loc 1 2736 3 is_stmt 1
	.loc 1 2736 6 is_stmt 0
	li	a2,32
	beq	a3,a2,.L10
	.loc 1 2737 3 is_stmt 1
	.loc 1 2737 6 is_stmt 0
	li	a4,5
	bne	a3,a4,.L11
	.loc 1 2737 21 discriminator 1
	li	a3,229
.LVL14:
.L11:
	.loc 1 2738 3 is_stmt 1
	.loc 1 2739 3
	.loc 1 2739 20 is_stmt 0
	add	a4,a1,a5
	sb	a3,9(a4)
	lw	a4,28(a0)
	.loc 1 2739 16
	addi	a5,a5,1
.LVL15:
.L10:
	.loc 1 2734 12 is_stmt 1
	.loc 1 2735 3
	.loc 1 2735 5 is_stmt 0
	lbu	a3,5(a4)
.LVL16:
	.loc 1 2736 3 is_stmt 1
	.loc 1 2736 6 is_stmt 0
	li	a2,32
	beq	a3,a2,.L12
	.loc 1 2737 3 is_stmt 1
	.loc 1 2737 6 is_stmt 0
	li	a4,5
	bne	a3,a4,.L13
	.loc 1 2737 21 discriminator 1
	li	a3,229
.LVL17:
.L13:
	.loc 1 2738 3 is_stmt 1
	.loc 1 2739 3
	.loc 1 2739 20 is_stmt 0
	add	a4,a1,a5
	sb	a3,9(a4)
	lw	a4,28(a0)
	.loc 1 2739 16
	addi	a5,a5,1
.LVL18:
.L12:
	.loc 1 2734 12 is_stmt 1
	.loc 1 2735 3
	.loc 1 2735 5 is_stmt 0
	lbu	a3,6(a4)
.LVL19:
	.loc 1 2736 3 is_stmt 1
	.loc 1 2736 6 is_stmt 0
	li	a2,32
	beq	a3,a2,.L14
	.loc 1 2737 3 is_stmt 1
	.loc 1 2737 6 is_stmt 0
	li	a4,5
	bne	a3,a4,.L15
	.loc 1 2737 21 discriminator 1
	li	a3,229
.LVL20:
.L15:
	.loc 1 2738 3 is_stmt 1
	.loc 1 2739 3
	.loc 1 2739 20 is_stmt 0
	add	a4,a1,a5
	sb	a3,9(a4)
	lw	a4,28(a0)
	.loc 1 2739 16
	addi	a5,a5,1
.LVL21:
.L14:
	.loc 1 2734 12 is_stmt 1
	.loc 1 2735 3
	.loc 1 2735 5 is_stmt 0
	lbu	a3,7(a4)
.LVL22:
	.loc 1 2736 3 is_stmt 1
	.loc 1 2736 6 is_stmt 0
	li	a2,32
	beq	a3,a2,.L16
	.loc 1 2737 3 is_stmt 1
	.loc 1 2737 6 is_stmt 0
	li	a4,5
	bne	a3,a4,.L17
	.loc 1 2737 21 discriminator 1
	li	a3,229
.LVL23:
.L17:
	.loc 1 2738 3 is_stmt 1
	.loc 1 2739 3
	.loc 1 2739 20 is_stmt 0
	add	a4,a1,a5
	sb	a3,9(a4)
	lw	a4,28(a0)
	.loc 1 2739 16
	addi	a5,a5,1
.LVL24:
.L16:
	.loc 1 2734 12 is_stmt 1
	.loc 1 2735 3
	.loc 1 2735 5 is_stmt 0
	lbu	a3,8(a4)
.LVL25:
	.loc 1 2736 3 is_stmt 1
	.loc 1 2736 6 is_stmt 0
	li	a2,32
	beq	a3,a2,.L18
	.loc 1 2737 3 is_stmt 1
	.loc 1 2737 6 is_stmt 0
	li	a4,5
	bne	a3,a4,.L19
	.loc 1 2737 21 discriminator 1
	li	a3,229
.LVL26:
.L19:
	.loc 1 2738 3 is_stmt 1
	.loc 1 2738 29 is_stmt 0 discriminator 1
	addi	a4,a5,1
	.loc 1 2738 16 is_stmt 1 discriminator 1
.LVL27:
	.loc 1 2738 33 is_stmt 0 discriminator 1
	add	a2,a1,a5
	li	a6,46
	sb	a6,9(a2)
	.loc 1 2739 3 is_stmt 1
	.loc 1 2739 20 is_stmt 0
	add	a4,a1,a4
.LVL28:
	sb	a3,9(a4)
	lw	a4,28(a0)
	.loc 1 2739 16
	addi	a5,a5,2
.LVL29:
.L18:
	.loc 1 2734 12 is_stmt 1
	.loc 1 2735 3
	.loc 1 2735 5 is_stmt 0
	lbu	a3,9(a4)
.LVL30:
	.loc 1 2736 3 is_stmt 1
	.loc 1 2736 6 is_stmt 0
	li	a2,32
	beq	a3,a2,.L20
	.loc 1 2737 3 is_stmt 1
	.loc 1 2737 6 is_stmt 0
	li	a4,5
	bne	a3,a4,.L21
	.loc 1 2737 21 discriminator 1
	li	a3,229
.LVL31:
.L21:
	.loc 1 2738 3 is_stmt 1
	.loc 1 2739 3
	.loc 1 2739 20 is_stmt 0
	add	a4,a1,a5
	sb	a3,9(a4)
	lw	a4,28(a0)
	.loc 1 2739 16
	addi	a5,a5,1
.LVL32:
.L20:
	.loc 1 2734 12 is_stmt 1
	.loc 1 2735 3
	.loc 1 2735 5 is_stmt 0
	lbu	a4,10(a4)
.LVL33:
	.loc 1 2736 3 is_stmt 1
	.loc 1 2736 6 is_stmt 0
	li	a3,32
	beq	a4,a3,.L22
	.loc 1 2737 3 is_stmt 1
	.loc 1 2737 6 is_stmt 0
	li	a3,5
	bne	a4,a3,.L23
	.loc 1 2737 21 discriminator 1
	li	a4,229
.LVL34:
.L23:
	.loc 1 2738 3 is_stmt 1
	.loc 1 2739 3
	.loc 1 2739 20 is_stmt 0
	add	a3,a1,a5
	sb	a4,9(a3)
	.loc 1 2739 16
	addi	a5,a5,1
.LVL35:
.L22:
	.loc 1 2734 12 is_stmt 1
	.loc 1 2741 2
	.loc 1 2741 17 is_stmt 0
	add	a5,a1,a5
.LVL36:
	sb	zero,9(a5)
	.loc 1 2744 2 is_stmt 1
	.loc 1 2744 24 is_stmt 0
	lw	a5,28(a0)
	.loc 1 2744 35
	lbu	a5,11(a5)
	andi	a5,a5,63
	.loc 1 2744 15
	sb	a5,8(a1)
	.loc 1 2745 2 is_stmt 1
.LVL37:
.LBB234:
.LBB235:
	.loc 1 629 2
	.loc 1 631 2
	.loc 1 634 5 is_stmt 0
	lw	a5,28(a0)
	lbu	a3,29(a5)
	lbu	a2,28(a5)
	lbu	a4,30(a5)
.LVL38:
	lbu	a5,31(a5)
	slli	a3,a3,8
	or	a3,a3,a2
	slli	a4,a4,16
	or	a4,a4,a3
	slli	a5,a5,24
	or	a5,a5,a4
.LVL39:
	.loc 1 632 2 is_stmt 1
	.loc 1 633 2
	.loc 1 634 2
	.loc 1 635 2
.LBE235:
.LBE234:
	.loc 1 2745 13 is_stmt 0 discriminator 1
	sw	a5,0(a1)
	.loc 1 2746 2 is_stmt 1
.LVL40:
	lw	a4,28(a0)
	lbu	a5,23(a4)
	lbu	a4,22(a4)
	slli	a5,a5,8
	or	a5,a5,a4
.LVL41:
	.loc 1 2746 13 is_stmt 0 discriminator 1
	sh	a5,6(a1)
	.loc 1 2747 2 is_stmt 1
.LVL42:
	lw	a4,28(a0)
	lbu	a5,25(a4)
	lbu	a4,24(a4)
	slli	a5,a5,8
	or	a5,a5,a4
.LVL43:
	.loc 1 2747 13 is_stmt 0 discriminator 1
	sh	a5,4(a1)
	.loc 1 2748 1
	ret
.LVL44:
.L24:
	.loc 1 2733 10
	li	a5,0
.LVL45:
	j	.L2
	.cfi_endproc
.LFE55:
	.size	get_fileinfo.part.0.constprop.0, .-get_fileinfo.part.0.constprop.0
	.align	2
	.type	sync_fs, @function
sync_fs:
.LFB9:
	.loc 1 1111 1 is_stmt 1
	.cfi_startproc
.LVL46:
	.loc 1 1112 2
	.loc 1 1115 2
	.loc 1 1111 1 is_stmt 0
	addi	sp,sp,-16
	.cfi_def_cfa_offset 16
	sw	s0,8(sp)
	sw	ra,12(sp)
.LBB250:
.LBB251:
	.loc 1 1062 5
	lbu	a5,4(a0)
	.cfi_offset 8, -8
	.cfi_offset 1, -4
.LBE251:
.LBE250:
	.loc 1 1111 1
	mv	s0,a0
.LVL47:
.LBB257:
.LBB252:
	.loc 1 1059 2 is_stmt 1
	.loc 1 1062 2
	.loc 1 1062 5 is_stmt 0
	bne	a5,zero,.L47
.LVL48:
.L38:
.LBE252:
.LBE257:
.LBB258:
.LBB259:
	.loc 1 1117 3 is_stmt 1
	.loc 1 1117 6 is_stmt 0
	lbu	a4,0(s0)
	li	a5,3
	beq	a4,a5,.L48
.L41:
	.loc 1 1130 3 is_stmt 1
	.loc 1 1130 7 is_stmt 0
	lbu	a0,1(s0)
	li	a2,0
	li	a1,0
	call	disk_ioctl
.LVL49:
.LBE259:
.LBE258:
	.loc 1 1134 1
	lw	ra,12(sp)
	.cfi_remember_state
	.cfi_restore 1
	lw	s0,8(sp)
	.cfi_restore 8
.LVL50:
.LBB288:
.LBB286:
	.loc 1 1130 6 discriminator 1
	snez	a0,a0
.LBE286:
.LBE288:
	.loc 1 1134 1
	addi	sp,sp,16
	.cfi_def_cfa_offset 0
	jr	ra
.LVL51:
.L47:
	.cfi_restore_state
.LBB289:
.LBB253:
	.loc 1 1063 3 is_stmt 1
	sw	s1,4(sp)
	.loc 1 1063 7 is_stmt 0
	lw	a2,44(a0)
	lbu	a0,1(a0)
	.cfi_offset 9, -12
	.loc 1 1063 30
	addi	s1,s0,48
	.loc 1 1063 7
	li	a3,1
	mv	a1,s1
	call	disk_write
.LVL52:
	mv	a5,a0
.LBE253:
.LBE289:
	.loc 1 1115 8
	li	a0,1
.LBB290:
.LBB254:
	.loc 1 1063 6 discriminator 1
	bne	a5,zero,.L44
	.loc 1 1064 4 is_stmt 1
	.loc 1 1065 10 is_stmt 0
	lw	a2,44(s0)
	.loc 1 1065 20
	lw	a5,32(s0)
	.loc 1 1065 38
	lw	a4,24(s0)
	.loc 1 1064 14
	sb	zero,4(s0)
	.loc 1 1065 4 is_stmt 1
	.loc 1 1065 20 is_stmt 0
	sub	a5,a2,a5
	.loc 1 1065 7
	bgeu	a5,a4,.L46
	.loc 1 1066 5 is_stmt 1
	.loc 1 1066 8 is_stmt 0
	lbu	a3,3(s0)
	li	a5,2
	beq	a3,a5,.L49
.L46:
.LBE254:
.LBE290:
.LBB291:
.LBB287:
	.loc 1 1117 6
	lbu	a4,0(s0)
	li	a5,3
	lw	s1,4(sp)
	.cfi_restore 9
.LVL53:
	.loc 1 1117 3 is_stmt 1
	.loc 1 1117 6 is_stmt 0
	bne	a4,a5,.L41
.L48:
	.loc 1 1117 31 discriminator 1
	lbu	a4,5(s0)
	li	a5,1
	bne	a4,a5,.L41
	.loc 1 1119 4 is_stmt 1
	.loc 1 1119 13 is_stmt 0
	addi	a5,s0,48
	.loc 1 1119 4
	li	a2,512
	li	a1,0
	mv	a0,a5
	sw	s1,4(sp)
	.cfi_offset 9, -12
	.loc 1 1119 4
	call	memset
.LVL54:
	.loc 1 1123 4
	lw	a3,16(s0)
	.loc 1 1124 4
	lw	a4,12(s0)
	.loc 1 1125 30
	lw	a2,28(s0)
	.loc 1 1119 4
	mv	a5,a0
	.loc 1 1120 4 is_stmt 1
.LVL55:
.LBB260:
.LBB261:
	.loc 1 658 2
	.loc 1 658 9 is_stmt 0
	li	s1,85
.LBE261:
.LBE260:
	.loc 1 1126 4
	lbu	a0,1(s0)
.LBB263:
.LBB264:
	.loc 1 664 9
	li	t1,82
	.loc 1 666 9
	li	a1,97
	.loc 1 667 9
	li	a6,65
.LBE264:
.LBE263:
.LBB267:
.LBB268:
	.loc 1 664 9
	li	a7,114
.LBE268:
.LBE267:
.LBB271:
.LBB272:
	.loc 1 664 26
	srli	t2,a3,8
	.loc 1 665 26
	srli	t0,a3,16
	.loc 1 666 26
	srli	t6,a3,24
.LBE272:
.LBE271:
	.loc 1 1125 30
	addi	a2,a2,1
.LBB275:
.LBB276:
	.loc 1 664 26
	srli	t5,a4,8
	.loc 1 665 26
	srli	t4,a4,16
	.loc 1 666 26
	srli	t3,a4,24
.LBE276:
.LBE275:
.LBB278:
.LBB262:
	.loc 1 658 9
	sb	s1,558(s0)
	.loc 1 658 22 is_stmt 1
.LVL56:
	.loc 1 659 2
	.loc 1 659 9 is_stmt 0
	li	s1,-86
	sb	s1,559(s0)
.LVL57:
.LBE262:
.LBE278:
	.loc 1 1121 4 is_stmt 1
.LBB279:
.LBB265:
	.loc 1 664 2
	.loc 1 666 9 is_stmt 0
	sb	a1,50(s0)
.LBE265:
.LBE279:
.LBB280:
.LBB269:
	.loc 1 667 9
	sb	a1,535(s0)
.LBE269:
.LBE280:
.LBB281:
.LBB273:
	.loc 1 664 11
	sb	a3,536(s0)
.LBE273:
.LBE281:
.LBB282:
.LBB266:
	.loc 1 664 9
	sb	t1,48(s0)
	.loc 1 664 22 is_stmt 1
.LVL58:
	.loc 1 665 2
	.loc 1 665 9 is_stmt 0
	sb	t1,49(s0)
	.loc 1 665 22 is_stmt 1
.LVL59:
	.loc 1 666 2
	.loc 1 666 22
	.loc 1 667 2
	.loc 1 667 9 is_stmt 0
	sb	a6,51(s0)
.LVL60:
.LBE266:
.LBE282:
	.loc 1 1122 4 is_stmt 1
.LBB283:
.LBB270:
	.loc 1 664 2
	.loc 1 664 9 is_stmt 0
	sb	a7,532(s0)
	.loc 1 664 22 is_stmt 1
.LVL61:
	.loc 1 665 2
	.loc 1 665 9 is_stmt 0
	sb	a7,533(s0)
	.loc 1 665 22 is_stmt 1
.LVL62:
	.loc 1 666 2
	.loc 1 666 9 is_stmt 0
	sb	a6,534(s0)
	.loc 1 666 22 is_stmt 1
.LVL63:
	.loc 1 667 2
.LBE270:
.LBE283:
	.loc 1 1123 4
.LBB284:
.LBB274:
	.loc 1 664 2
	.loc 1 664 22
	.loc 1 665 2
	.loc 1 665 11 is_stmt 0
	sb	t2,537(s0)
	.loc 1 665 22 is_stmt 1
.LVL64:
	.loc 1 666 2
	.loc 1 666 11 is_stmt 0
	sb	t0,538(s0)
	.loc 1 666 22 is_stmt 1
.LVL65:
	.loc 1 667 2
	.loc 1 667 11 is_stmt 0
	sb	t6,539(s0)
.LVL66:
.LBE274:
.LBE284:
	.loc 1 1124 4 is_stmt 1
.LBB285:
.LBB277:
	.loc 1 664 2
	.loc 1 664 11 is_stmt 0
	sb	a4,540(s0)
	.loc 1 664 22 is_stmt 1
.LVL67:
	.loc 1 665 2
	.loc 1 665 11 is_stmt 0
	sb	t5,541(s0)
	.loc 1 665 22 is_stmt 1
.LVL68:
	.loc 1 666 2
	.loc 1 666 11 is_stmt 0
	sb	t4,542(s0)
	.loc 1 666 22 is_stmt 1
.LVL69:
	.loc 1 667 2
	.loc 1 667 11 is_stmt 0
	sb	t3,543(s0)
.LVL70:
.LBE277:
.LBE285:
	.loc 1 1125 4 is_stmt 1
	.loc 1 1125 16 is_stmt 0
	sw	a2,44(s0)
	.loc 1 1126 4 is_stmt 1
	li	a3,1
	mv	a1,a5
	call	disk_write
.LVL71:
	.loc 1 1127 4
	.loc 1 1127 17 is_stmt 0
	sb	zero,5(s0)
	lw	s1,4(sp)
	.cfi_remember_state
	.cfi_restore 9
	j	.L41
.LVL72:
.L44:
	.cfi_restore_state
.LBE287:
.LBE291:
	.loc 1 1134 1
	lw	ra,12(sp)
	.cfi_remember_state
	.cfi_restore 1
	lw	s0,8(sp)
	.cfi_restore 8
.LVL73:
	lw	s1,4(sp)
	.cfi_restore 9
.LVL74:
	addi	sp,sp,16
	.cfi_def_cfa_offset 0
	jr	ra
.LVL75:
.L49:
	.cfi_restore_state
.LBB292:
.LBB255:
	.loc 1 1066 26 is_stmt 1 discriminator 1
	lbu	a0,1(s0)
	mv	a1,s1
	li	a3,1
	add	a2,a2,a4
	call	disk_write
.LVL76:
	.loc 1 1072 2
.LBE255:
.LBE292:
	.loc 1 1116 2
.LBB293:
.LBB256:
	.loc 1 1066 26 is_stmt 0 discriminator 1
	lw	s1,4(sp)
	.cfi_restore 9
	j	.L38
.LBE256:
.LBE293:
	.cfi_endproc
.LFE9:
	.size	sync_fs, .-sync_fs
	.align	2
	.type	move_window, @function
move_window:
.LFB8:
	.loc 1 1081 1 is_stmt 1
	.cfi_startproc
.LVL77:
	.loc 1 1082 2
	.loc 1 1085 2
	.loc 1 1085 16 is_stmt 0
	lw	a2,44(a0)
	.loc 1 1085 5
	bne	a2,a1,.L63
	.loc 1 1082 10
	li	a0,0
.LVL78:
	.loc 1 1098 1
	ret
.LVL79:
.L63:
	.loc 1 1081 1
	addi	sp,sp,-16
	.cfi_def_cfa_offset 16
	sw	s0,8(sp)
	sw	s1,4(sp)
	sw	s2,0(sp)
	sw	ra,12(sp)
	.cfi_offset 8, -8
	.cfi_offset 9, -12
	.cfi_offset 18, -16
	.cfi_offset 1, -4
.LBB298:
.LBB299:
	.loc 1 1062 5
	lbu	a5,4(a0)
	mv	s0,a0
	mv	s1,a1
.LBE299:
.LBE298:
	.loc 1 1087 3 is_stmt 1
.LVL80:
.LBB303:
.LBB300:
	.loc 1 1059 2
	.loc 1 1062 2
	.loc 1 1063 7 is_stmt 0
	lbu	a0,1(a0)
.LVL81:
	.loc 1 1063 30
	addi	s2,s0,48
	.loc 1 1062 5
	bne	a5,zero,.L52
.LVL82:
.L53:
.LBE300:
.LBE303:
.LBB304:
.LBB305:
	.loc 1 1090 4 is_stmt 1
	.loc 1 1090 8 is_stmt 0
	li	a3,1
	mv	a2,s1
	mv	a1,s2
	call	disk_read
.LVL83:
	.loc 1 1090 7 discriminator 1
	bne	a0,zero,.L64
.LVL84:
.L55:
	.loc 1 1094 4 is_stmt 1
	.loc 1 1094 16 is_stmt 0
	sw	s1,44(s0)
	.loc 1 1097 2 is_stmt 1
.LVL85:
.L50:
.LBE305:
.LBE304:
	.loc 1 1098 1 is_stmt 0
	lw	ra,12(sp)
	.cfi_remember_state
	.cfi_restore 1
	lw	s0,8(sp)
	.cfi_restore 8
.LVL86:
	lw	s1,4(sp)
	.cfi_restore 9
	lw	s2,0(sp)
	.cfi_restore 18
.LVL87:
	addi	sp,sp,16
	.cfi_def_cfa_offset 0
	jr	ra
.LVL88:
.L64:
	.cfi_restore_state
.LBB307:
.LBB306:
	.loc 1 1092 9
	li	a0,1
	.loc 1 1091 10
	li	s1,-1
.LVL89:
	j	.L55
.LVL90:
.L52:
.LBE306:
.LBE307:
.LBB308:
.LBB301:
	.loc 1 1063 3 is_stmt 1
	.loc 1 1063 7 is_stmt 0
	li	a3,1
	mv	a1,s2
	call	disk_write
.LVL91:
	mv	a5,a0
.LBE301:
.LBE308:
	.loc 1 1087 9
	li	a0,1
.LBB309:
.LBB302:
	.loc 1 1063 6 discriminator 1
	bne	a5,zero,.L50
	.loc 1 1064 4 is_stmt 1
	.loc 1 1065 10 is_stmt 0
	lw	a2,44(s0)
	.loc 1 1065 20
	lw	a5,32(s0)
	.loc 1 1065 38
	lw	a4,24(s0)
	.loc 1 1064 14
	sb	zero,4(s0)
	.loc 1 1065 4 is_stmt 1
	.loc 1 1065 20 is_stmt 0
	sub	a5,a2,a5
	.loc 1 1066 26 discriminator 1
	lbu	a0,1(s0)
	.loc 1 1065 7
	bgeu	a5,a4,.L53
	.loc 1 1066 5 is_stmt 1
	.loc 1 1066 8 is_stmt 0
	lbu	a3,3(s0)
	li	a5,2
	bne	a3,a5,.L53
	.loc 1 1066 26 is_stmt 1 discriminator 1
	li	a3,1
	add	a2,a2,a4
	mv	a1,s2
	call	disk_write
.LVL92:
	.loc 1 1072 2
.LBE302:
.LBE309:
	.loc 1 1089 3
	lbu	a0,1(s0)
	j	.L53
	.cfi_endproc
.LFE8:
	.size	move_window, .-move_window
	.align	2
	.type	put_fat.part.0, @function
put_fat.part.0:
.LFB52:
	.loc 1 1239 16
	.cfi_startproc
.LVL93:
	.loc 1 1251 3
	.loc 1 1239 16 is_stmt 0
	addi	sp,sp,-48
	.cfi_def_cfa_offset 48
	sw	s0,40(sp)
	sw	s1,36(sp)
	sw	s4,24(sp)
	sw	ra,44(sp)
	sw	s2,32(sp)
	sw	s3,28(sp)
	.cfi_offset 8, -8
	.cfi_offset 9, -12
	.cfi_offset 20, -24
	.cfi_offset 1, -4
	.cfi_offset 18, -16
	.cfi_offset 19, -20
	.loc 1 1251 13
	lbu	s3,0(a0)
	.loc 1 1251 3
	li	a5,2
	.loc 1 1239 16
	mv	s0,a0
	mv	s1,a1
	mv	s4,a2
	.loc 1 1251 3
	beq	s3,a5,.L66
	li	a5,3
	beq	s3,a5,.L67
	li	a5,1
	li	s2,2
	bne	s3,a5,.L65
	.loc 1 1253 4 is_stmt 1
.LVL94:
	.loc 1 1253 21
	sw	s5,20(sp)
	.loc 1 1254 10 is_stmt 0
	lw	a5,32(a0)
	.cfi_offset 21, -28
	.loc 1 1253 30
	srli	s5,a1,1
	.loc 1 1253 24
	add	s5,s5,a1
.LVL95:
	.loc 1 1254 4 is_stmt 1
	.loc 1 1254 44 is_stmt 0
	srli	a1,s5,9
.LVL96:
	.loc 1 1254 10
	add	a1,a1,a5
	call	move_window
.LVL97:
	mv	s2,a0
.LVL98:
	.loc 1 1255 4 is_stmt 1
	.loc 1 1255 7 is_stmt 0
	bne	a0,zero,.L82
	sw	s6,16(sp)
	sw	s7,12(sp)
	.cfi_offset 22, -32
	.cfi_offset 23, -36
	.loc 1 1256 4 is_stmt 1
	.loc 1 1256 8 is_stmt 0
	addi	s6,s0,48
	.loc 1 1256 23
	addi	s7,s5,1
.LVL99:
	.loc 1 1257 15
	andi	s1,s1,1
.LVL100:
	.loc 1 1256 23
	andi	s5,s5,511
	.loc 1 1256 6
	add	s5,s6,s5
.LVL101:
	.loc 1 1257 4 is_stmt 1
	andi	a5,s4,0xff
	.loc 1 1259 44 is_stmt 0
	srli	a3,s7,9
	.loc 1 1257 7
	beq	s1,zero,.L69
	.loc 1 1257 7 discriminator 1
	lbu	a4,0(s5)
	slli	a5,a5,4
	.loc 1 1259 10
	mv	a0,s0
.LVL102:
	.loc 1 1257 7 discriminator 1
	andi	a4,a4,15
	or	a5,a4,a5
	.loc 1 1257 7 discriminator 4
	sb	a5,0(s5)
	.loc 1 1258 4 is_stmt 1
	.loc 1 1259 10 is_stmt 0
	lw	a1,32(s0)
	.loc 1 1258 14
	sb	s3,4(s0)
	.loc 1 1259 4 is_stmt 1
	.loc 1 1259 10 is_stmt 0
	add	a1,a3,a1
	call	move_window
.LVL103:
	.loc 1 1260 4 is_stmt 1
	.loc 1 1260 7 is_stmt 0
	beq	a0,zero,.L83
.LVL104:
.L78:
	.loc 1 1287 9
	lw	s5,20(sp)
	.cfi_restore 21
.LVL105:
	lw	s6,16(sp)
	.cfi_restore 22
.LVL106:
	lw	s7,12(sp)
	.cfi_restore 23
.LVL107:
	.loc 1 1259 10
	mv	s2,a0
.LVL108:
	.loc 1 1287 2 is_stmt 1
.L65:
	.loc 1 1288 1 is_stmt 0
	lw	ra,44(sp)
	.cfi_remember_state
	.cfi_restore 1
	lw	s0,40(sp)
	.cfi_restore 8
.LVL109:
	lw	s1,36(sp)
	.cfi_restore 9
	lw	s3,28(sp)
	.cfi_restore 19
	lw	s4,24(sp)
	.cfi_restore 20
	mv	a0,s2
	lw	s2,32(sp)
	.cfi_restore 18
	addi	sp,sp,48
	.cfi_def_cfa_offset 0
	jr	ra
.LVL110:
.L67:
	.cfi_restore_state
	.loc 1 1277 4 is_stmt 1
	.loc 1 1277 10 is_stmt 0
	lw	a5,32(a0)
	.loc 1 1277 46
	srli	a1,a1,7
	.loc 1 1277 10
	add	a1,a1,a5
	call	move_window
.LVL111:
	mv	s2,a0
.LVL112:
	.loc 1 1278 4 is_stmt 1
	.loc 1 1278 7 is_stmt 0
	bne	a0,zero,.L65
	.loc 1 1279 4 is_stmt 1
	.loc 1 1280 5
	.loc 1 1280 57 is_stmt 0
	slli	s1,s1,2
.LVL113:
	.loc 1 1280 42
	addi	a4,s0,48
	.loc 1 1280 61
	andi	s1,s1,508
	.loc 1 1280 33
	add	a4,a4,s1
.LVL114:
.LBB316:
.LBB317:
	.loc 1 629 2 is_stmt 1
	.loc 1 631 2
	.loc 1 632 2
	.loc 1 633 2
	.loc 1 634 2
	.loc 1 635 2
	.loc 1 634 5 is_stmt 0
	lbu	a5,3(a4)
.LBE317:
.LBE316:
	.loc 1 1280 71 discriminator 1
	li	a3,-268435456
	.loc 1 1280 16
	slli	a2,s4,4
.LBB319:
.LBB318:
	.loc 1 634 5
	slli	a5,a5,24
.LBE318:
.LBE319:
	.loc 1 1280 16
	srli	a2,a2,4
	.loc 1 1280 71 discriminator 1
	and	a5,a5,a3
	.loc 1 1280 9 discriminator 1
	or	a5,a5,a2
.LVL115:
	.loc 1 1282 4 is_stmt 1
.LBB320:
.LBB321:
	.loc 1 664 2
	.loc 1 664 26 is_stmt 0
	srli	a1,a5,8
	.loc 1 665 26
	srli	a2,a5,16
	.loc 1 666 26
	srli	a3,a5,24
	.loc 1 664 11
	sb	a5,0(a4)
	.loc 1 664 22 is_stmt 1
.LVL116:
	.loc 1 665 2
	.loc 1 665 11 is_stmt 0
	sb	a1,1(a4)
	.loc 1 665 22 is_stmt 1
.LVL117:
	.loc 1 666 2
	.loc 1 666 11 is_stmt 0
	sb	a2,2(a4)
	.loc 1 666 22 is_stmt 1
.LVL118:
	.loc 1 667 2
	.loc 1 667 11 is_stmt 0
	sb	a3,3(a4)
.LVL119:
.LBE321:
.LBE320:
	.loc 1 1283 4 is_stmt 1
	.loc 1 1283 14 is_stmt 0
	li	a5,1
.LVL120:
	sb	a5,4(s0)
	.loc 1 1284 4 is_stmt 1
	j	.L65
.LVL121:
.L66:
	.loc 1 1267 4
	.loc 1 1267 10 is_stmt 0
	lw	a5,32(a0)
	.loc 1 1267 46
	srli	a1,a1,8
	.loc 1 1267 10
	add	a1,a1,a5
	call	move_window
.LVL122:
	mv	s2,a0
.LVL123:
	.loc 1 1268 4 is_stmt 1
	.loc 1 1268 7 is_stmt 0
	bne	a0,zero,.L65
	.loc 1 1269 4 is_stmt 1
	.loc 1 1269 27 is_stmt 0
	slli	s1,s1,1
.LVL124:
.LBB322:
.LBB323:
	.loc 1 658 26
	slli	a4,s4,16
.LBE323:
.LBE322:
	.loc 1 1269 12
	addi	a5,s0,48
	.loc 1 1269 31
	andi	s1,s1,510
.LBB326:
.LBB324:
	.loc 1 658 26
	srli	a4,a4,16
.LBE324:
.LBE326:
	.loc 1 1269 4
	add	a5,a5,s1
.LVL125:
.LBB327:
.LBB325:
	.loc 1 658 2 is_stmt 1
	.loc 1 658 26 is_stmt 0
	srli	a4,a4,8
	.loc 1 658 11
	sb	s4,0(a5)
	.loc 1 658 22 is_stmt 1
.LVL126:
	.loc 1 659 2
	.loc 1 659 11 is_stmt 0
	sb	a4,1(a5)
.LVL127:
.LBE325:
.LBE327:
	.loc 1 1270 4 is_stmt 1
	.loc 1 1270 14 is_stmt 0
	li	a5,1
	sb	a5,4(s0)
	.loc 1 1271 4 is_stmt 1
	j	.L65
.LVL128:
.L82:
	.cfi_offset 21, -28
	lw	s5,20(sp)
	.cfi_restore 21
.LVL129:
	j	.L65
.LVL130:
.L69:
	.cfi_offset 21, -28
	.cfi_offset 22, -32
	.cfi_offset 23, -36
	.loc 1 1257 7 is_stmt 0 discriminator 4
	sb	a5,0(s5)
	.loc 1 1258 4 is_stmt 1
	.loc 1 1259 10 is_stmt 0
	lw	a1,32(s0)
	.loc 1 1258 14
	sb	s3,4(s0)
	.loc 1 1259 4 is_stmt 1
	.loc 1 1259 10 is_stmt 0
	mv	a0,s0
.LVL131:
	add	a1,a3,a1
	call	move_window
.LVL132:
	.loc 1 1260 4 is_stmt 1
	.loc 1 1260 7 is_stmt 0
	bne	a0,zero,.L78
	.loc 1 1261 4 is_stmt 1
	.loc 1 1261 21 is_stmt 0
	andi	s7,s7,511
.LVL133:
	.loc 1 1261 6
	add	s6,s6,s7
.LVL134:
	.loc 1 1262 4 is_stmt 1
	.loc 1 1262 7 is_stmt 0 discriminator 2
	lbu	a5,0(s6)
	.loc 1 1262 68 discriminator 2
	srli	a2,s4,8
	.loc 1 1262 74 discriminator 2
	andi	a2,a2,15
	.loc 1 1262 7 discriminator 2
	andi	a5,a5,-16
	or	a5,a5,a2
.LVL135:
.L75:
	.loc 1 1262 7 discriminator 4
	sb	a5,0(s6)
	.loc 1 1263 4 is_stmt 1
	.loc 1 1263 14 is_stmt 0
	li	a5,1
	sb	a5,4(s0)
	.loc 1 1264 4 is_stmt 1
	lw	s5,20(sp)
	.cfi_remember_state
	.cfi_restore 21
	lw	s6,16(sp)
	.cfi_restore 22
.LVL136:
	lw	s7,12(sp)
	.cfi_restore 23
	j	.L65
.LVL137:
.L83:
	.cfi_restore_state
	.loc 1 1261 4
	.loc 1 1261 21 is_stmt 0
	andi	s7,s7,511
.LVL138:
	.loc 1 1262 33 discriminator 1
	srli	a5,s4,4
	.loc 1 1261 6
	add	s6,s6,s7
.LVL139:
	.loc 1 1262 4 is_stmt 1
	.loc 1 1262 7 is_stmt 0 discriminator 1
	andi	a5,a5,0xff
	j	.L75
	.cfi_endproc
.LFE52:
	.size	put_fat.part.0, .-put_fat.part.0
	.align	2
	.type	get_fat.isra.0, @function
get_fat.isra.0:
.LFB58:
	.loc 1 1161 14 is_stmt 1
	.cfi_startproc
.LVL140:
	.loc 1 1166 2
	.loc 1 1167 2
	.loc 1 1168 2
	.loc 1 1171 5 is_stmt 0
	li	a4,1
.LVL141:
	.loc 1 1171 2 is_stmt 1
	.loc 1 1171 5 is_stmt 0
	bleu	a1,a4,.L91
	.loc 1 1161 14
	addi	sp,sp,-32
	.cfi_def_cfa_offset 32
	sw	s0,24(sp)
	sw	s2,16(sp)
	sw	ra,28(sp)
	.loc 1 1171 15 discriminator 1
	lw	a4,20(a0)
	.cfi_offset 8, -8
	.cfi_offset 18, -16
	.cfi_offset 1, -4
	mv	s0,a1
	mv	s2,a0
	.loc 1 1172 7
	li	a5,1
	.loc 1 1171 15 discriminator 1
	bgeu	a1,a4,.L84
	.loc 1 1175 3 is_stmt 1
.LVL142:
	.loc 1 1177 3
	.loc 1 1177 13 is_stmt 0
	lbu	a4,0(a0)
	.loc 1 1177 3
	li	a3,2
	beq	a4,a3,.L86
	li	a3,3
	beq	a4,a3,.L87
	bne	a4,a5,.L84
	.loc 1 1179 4 is_stmt 1
.LVL143:
	.loc 1 1179 21
	sw	s1,20(sp)
	.loc 1 1180 8 is_stmt 0
	lw	a5,32(a0)
	.cfi_offset 9, -12
	.loc 1 1179 30
	srli	s1,a1,1
	.loc 1 1179 24
	add	s1,s1,a1
.LVL144:
	.loc 1 1180 4 is_stmt 1
	.loc 1 1180 42 is_stmt 0
	srli	a1,s1,9
.LVL145:
	.loc 1 1180 8
	add	a1,a1,a5
	call	move_window
.LVL146:
	.loc 1 1180 7 discriminator 1
	beq	a0,zero,.L88
	lw	s1,20(sp)
	.cfi_restore 9
.LVL147:
.L89:
	.loc 1 1175 7
	li	a5,-1
.LVL148:
.L84:
	.loc 1 1229 1
	lw	ra,28(sp)
	.cfi_restore 1
	lw	s0,24(sp)
	.cfi_restore 8
	lw	s2,16(sp)
	.cfi_restore 18
.LVL149:
	mv	a0,a5
	addi	sp,sp,32
	.cfi_def_cfa_offset 0
	jr	ra
.LVL150:
.L91:
	.loc 1 1172 7
	li	a5,1
	.loc 1 1229 1
	mv	a0,a5
.LVL151:
	ret
.LVL152:
.L87:
	.cfi_def_cfa_offset 32
	.cfi_offset 1, -4
	.cfi_offset 8, -8
	.cfi_offset 18, -16
	.loc 1 1193 4 is_stmt 1
	.loc 1 1193 8 is_stmt 0
	lw	a5,32(a0)
	.loc 1 1193 44
	srli	a1,a1,7
	.loc 1 1193 8
	add	a1,a1,a5
	call	move_window
.LVL153:
	.loc 1 1193 7 discriminator 1
	bne	a0,zero,.L89
	.loc 1 1194 4 is_stmt 1
.LVL154:
.LBB336:
.LBB337:
	.loc 1 629 2
	.loc 1 631 2
	.loc 1 632 2
	.loc 1 633 2
	.loc 1 634 2
	.loc 1 635 2
.LBE337:
.LBE336:
	.loc 1 1194 34 is_stmt 0
	slli	s0,s0,2
.LVL155:
	.loc 1 1194 38
	andi	s0,s0,508
.LBB339:
.LBB338:
	.loc 1 634 5
	add	a5,s2,s0
	lbu	a3,49(a5)
	lbu	a2,48(a5)
	lbu	a4,50(a5)
	lbu	a5,51(a5)
	slli	a3,a3,8
	or	a3,a3,a2
	slli	a4,a4,16
	or	a4,a4,a3
	slli	a5,a5,24
	or	a5,a5,a4
.LBE338:
.LBE339:
	.loc 1 1194 8 discriminator 1
	slli	a5,a5,4
	srli	a5,a5,4
.LVL156:
	.loc 1 1195 4 is_stmt 1
	j	.L84
.LVL157:
.L86:
	.loc 1 1188 4
	.loc 1 1188 8 is_stmt 0
	lw	a5,32(a0)
	.loc 1 1188 44
	srli	a1,a1,8
	.loc 1 1188 8
	add	a1,a1,a5
	call	move_window
.LVL158:
	.loc 1 1188 7 discriminator 1
	bne	a0,zero,.L89
	.loc 1 1189 4 is_stmt 1
	.loc 1 1189 33 is_stmt 0
	slli	a0,s0,1
	.loc 1 1189 37
	andi	a0,a0,510
	.loc 1 1189 8 discriminator 1
	add	a0,s2,a0
	lbu	a5,49(a0)
	lbu	a4,48(a0)
	slli	a5,a5,8
	or	a5,a5,a4
.LVL159:
	.loc 1 1190 4 is_stmt 1
	j	.L84
.LVL160:
.L88:
	.cfi_offset 9, -12
	.loc 1 1181 4
	sw	s3,12(sp)
	.cfi_offset 19, -20
	.loc 1 1182 8 is_stmt 0
	lw	a5,32(s2)
	.loc 1 1181 19
	addi	s3,s1,1
.LVL161:
	.loc 1 1182 42
	srli	a1,s3,9
	.loc 1 1181 22
	andi	s1,s1,511
	.loc 1 1181 16
	add	s1,s2,s1
	.loc 1 1182 8
	add	a1,a1,a5
	mv	a0,s2
	.loc 1 1181 16
	lbu	s1,48(s1)
.LVL162:
	.loc 1 1182 4 is_stmt 1
	.loc 1 1182 8 is_stmt 0
	call	move_window
.LVL163:
	.loc 1 1182 7 discriminator 1
	bne	a0,zero,.L98
	.loc 1 1183 4 is_stmt 1
	.loc 1 1183 21 is_stmt 0
	andi	s3,s3,511
.LVL164:
	.loc 1 1183 17
	add	s3,s2,s3
	.loc 1 1183 31
	lbu	a5,48(s3)
	.loc 1 1184 16
	andi	s0,s0,1
.LVL165:
	.loc 1 1183 31
	slli	a5,a5,8
	.loc 1 1183 7
	or	a5,a5,s1
.LVL166:
	.loc 1 1184 4 is_stmt 1
	.loc 1 1184 33 is_stmt 0
	beq	s0,zero,.L90
	lw	s1,20(sp)
	.cfi_remember_state
	.cfi_restore 9
	lw	s3,12(sp)
	.cfi_restore 19
	.loc 1 1184 33 discriminator 1
	srli	a5,a5,4
.LVL167:
	j	.L84
.LVL168:
.L98:
	.cfi_restore_state
	lw	s1,20(sp)
	.cfi_remember_state
	.cfi_restore 9
.LVL169:
	lw	s3,12(sp)
	.cfi_restore 19
.LVL170:
	.loc 1 1175 7
	li	a5,-1
	j	.L84
.LVL171:
.L90:
	.cfi_restore_state
	.loc 1 1184 33 discriminator 2
	slli	a5,a5,20
.LVL172:
	lw	s1,20(sp)
	.cfi_restore 9
.LVL173:
	lw	s3,12(sp)
	.cfi_restore 19
	srli	a5,a5,20
	j	.L84
	.cfi_endproc
.LFE58:
	.size	get_fat.isra.0, .-get_fat.isra.0
	.align	2
	.type	dir_read.constprop.0, @function
dir_read.constprop.0:
.LFB60:
	.loc 1 2306 16 is_stmt 1
	.cfi_startproc
.LVL174:
	.loc 1 2311 2
	.loc 1 2312 2
	.loc 1 2306 16 is_stmt 0
	addi	sp,sp,-48
	.cfi_def_cfa_offset 48
	sw	s0,40(sp)
	sw	ra,44(sp)
	sw	s6,16(sp)
	sw	s10,0(sp)
	.cfi_offset 8, -8
	.cfi_offset 1, -4
	.cfi_offset 22, -32
	.cfi_offset 26, -48
	.loc 1 2318 11
	lw	s10,24(a0)
	.loc 1 2312 9
	lw	s6,0(a0)
.LVL175:
	.loc 1 2313 2 is_stmt 1
	.loc 1 2318 2
	.loc 1 2318 9
	.loc 1 2306 16 is_stmt 0
	mv	s0,a0
	.loc 1 2318 9
	beq	s10,zero,.L101
	sw	s3,28(sp)
	sw	s4,24(sp)
	sw	s5,20(sp)
	sw	s7,12(sp)
	sw	s8,8(sp)
	sw	s9,4(sp)
	sw	s1,36(sp)
	sw	s2,32(sp)
	.cfi_offset 19, -20
	.cfi_offset 20, -24
	.cfi_offset 21, -28
	.cfi_offset 23, -36
	.cfi_offset 24, -40
	.cfi_offset 25, -44
	.cfi_offset 9, -12
	.cfi_offset 18, -16
.LBB356:
.LBB357:
.LBB358:
.LBB359:
	.loc 1 1063 30
	addi	s5,s6,48
.LBE359:
.LBE358:
.LBE357:
.LBE356:
	.loc 1 2363 7
	li	s7,229
	.loc 1 2363 18 discriminator 1
	li	s9,46
	.loc 1 2363 30 discriminator 2
	li	s3,15
	.loc 1 2363 48 discriminator 3
	li	s4,8
.LBB371:
.LBB372:
	.loc 1 1755 5
	li	s8,2097152
.LVL176:
.L100:
.LBE372:
.LBE371:
	.loc 1 2319 3 is_stmt 1
.LBB382:
.LBB368:
	.loc 1 1082 2
	.loc 1 1085 2
	.loc 1 1085 16 is_stmt 0
	lw	a2,44(s6)
	.loc 1 1085 5
	beq	a2,s10,.L102
	.loc 1 1087 3 is_stmt 1
.LVL177:
.LBB362:
.LBB360:
	.loc 1 1059 2
	.loc 1 1062 2
	.loc 1 1062 5 is_stmt 0
	lbu	a5,4(s6)
	.loc 1 1063 7
	lbu	a0,1(s6)
	.loc 1 1062 5
	bne	a5,zero,.L138
.LVL178:
.L104:
.LBE360:
.LBE362:
.LBB363:
.LBB364:
	.loc 1 1090 4 is_stmt 1
	.loc 1 1090 8 is_stmt 0
	li	a3,1
	mv	a2,s10
	mv	a1,s5
	call	disk_read
.LVL179:
	.loc 1 1090 7 discriminator 1
	beq	a0,zero,.L108
	.loc 1 1091 5 is_stmt 1
.LVL180:
	.loc 1 1092 5
	.loc 1 1094 4
	.loc 1 1094 16 is_stmt 0
	li	a5,-1
	sw	a5,44(s6)
	.loc 1 1097 2 is_stmt 1
.LVL181:
.LBE364:
.LBE363:
	.loc 1 1097 2
.LBE368:
.LBE382:
	.loc 1 2320 3
	.loc 1 2372 2
.L106:
	.loc 1 2319 9 is_stmt 0
	li	a0,1
.L137:
.LBB383:
.LBB375:
	lw	s1,36(sp)
	.cfi_restore 9
	lw	s2,32(sp)
	.cfi_restore 18
	lw	s3,28(sp)
	.cfi_restore 19
	lw	s4,24(sp)
	.cfi_restore 20
	lw	s5,20(sp)
	.cfi_restore 21
	lw	s7,12(sp)
	.cfi_restore 23
	lw	s8,8(sp)
	.cfi_restore 24
	lw	s9,4(sp)
	.cfi_restore 25
.L109:
.LBE375:
.LBE383:
	.loc 1 2372 20 is_stmt 1 discriminator 1
	.loc 1 2372 29 is_stmt 0 discriminator 1
	sw	zero,24(s0)
	.loc 1 2373 2 is_stmt 1
	.loc 1 2374 1 is_stmt 0
	lw	ra,44(sp)
	.cfi_restore 1
	lw	s0,40(sp)
	.cfi_restore 8
.LVL182:
	lw	s6,16(sp)
	.cfi_restore 22
.LVL183:
	lw	s10,0(sp)
	.cfi_restore 26
	addi	sp,sp,48
	.cfi_def_cfa_offset 0
	jr	ra
.LVL184:
.L108:
	.cfi_def_cfa_offset 48
	.cfi_offset 1, -4
	.cfi_offset 8, -8
	.cfi_offset 9, -12
	.cfi_offset 18, -16
	.cfi_offset 19, -20
	.cfi_offset 20, -24
	.cfi_offset 21, -28
	.cfi_offset 22, -32
	.cfi_offset 23, -36
	.cfi_offset 24, -40
	.cfi_offset 25, -44
	.cfi_offset 26, -48
.LBB384:
.LBB369:
.LBB366:
.LBB365:
	.loc 1 1094 4 is_stmt 1
	.loc 1 1094 16 is_stmt 0
	sw	s10,44(s6)
	.loc 1 1097 2 is_stmt 1
.LVL185:
.LBE365:
.LBE366:
	.loc 1 1097 2
.LBE369:
.LBE384:
	.loc 1 2320 3
.L102:
	.loc 1 2321 3
	.loc 1 2321 9 is_stmt 0
	lw	a5,28(s0)
	.loc 1 2321 5
	lbu	a4,0(a5)
.LVL186:
	.loc 1 2322 3 is_stmt 1
	.loc 1 2322 6 is_stmt 0
	beq	a4,zero,.L136
	.loc 1 2342 4 is_stmt 1
	.loc 1 2342 24 is_stmt 0
	lbu	a5,11(a5)
	andi	a5,a5,63
.LVL187:
	.loc 1 2342 17
	sb	a5,6(s0)
	.loc 1 2363 4 is_stmt 1
	.loc 1 2363 7 is_stmt 0
	beq	a4,s7,.L111
	.loc 1 2363 18 discriminator 1
	beq	a4,s9,.L111
	.loc 1 2363 30 discriminator 2
	beq	a5,s3,.L111
	.loc 1 2363 63 discriminator 3
	andi	a5,a5,-33
.LVL188:
	.loc 1 2363 48 discriminator 3
	bne	a5,s4,.L123
.L111:
	.loc 1 2368 3 is_stmt 1
.LVL189:
.LBB385:
.LBB376:
	.loc 1 1750 2
	.loc 1 1751 2
	.loc 1 1754 6 is_stmt 0
	lw	s1,16(s0)
	.loc 1 1751 9
	lw	s2,0(s0)
.LVL190:
	.loc 1 1754 2 is_stmt 1
	.loc 1 1754 6 is_stmt 0
	addi	s1,s1,32
.LVL191:
	.loc 1 1755 2 is_stmt 1
	.loc 1 1755 5 is_stmt 0
	bltu	s1,s8,.L139
.LVL192:
.L136:
	lw	s1,36(sp)
	.cfi_restore 9
	lw	s2,32(sp)
	.cfi_restore 18
	lw	s3,28(sp)
	.cfi_restore 19
	lw	s4,24(sp)
	.cfi_restore 20
	lw	s5,20(sp)
	.cfi_restore 21
	lw	s7,12(sp)
	.cfi_restore 23
	lw	s8,8(sp)
	.cfi_restore 24
	lw	s9,4(sp)
	.cfi_restore 25
.LVL193:
.L101:
.LBE376:
.LBE385:
	.loc 1 2311 10
	li	a0,4
	j	.L109
.LVL194:
.L139:
	.cfi_offset 9, -12
	.cfi_offset 18, -16
	.cfi_offset 19, -20
	.cfi_offset 20, -24
	.cfi_offset 21, -28
	.cfi_offset 23, -36
	.cfi_offset 24, -40
	.cfi_offset 25, -44
.LBB386:
.LBB377:
	.loc 1 1756 2 is_stmt 1
	.loc 1 1756 8 is_stmt 0
	lw	s10,24(s0)
	.loc 1 1756 5
	beq	s10,zero,.L136
	.loc 1 1758 2 is_stmt 1
	.loc 1 1758 10 is_stmt 0
	andi	a5,s1,511
	.loc 1 1758 5
	beq	a5,zero,.L115
	.loc 1 1792 2 is_stmt 1
	.loc 1 1793 12 is_stmt 0
	addi	s2,s2,48
.LVL195:
	.loc 1 1793 20
	add	s2,s2,a5
	.loc 1 1792 11
	sw	s1,16(s0)
	.loc 1 1793 2 is_stmt 1
	.loc 1 1793 10 is_stmt 0
	sw	s2,28(s0)
	.loc 1 1795 2 is_stmt 1
.LVL196:
.LBE377:
.LBE386:
	.loc 1 2369 3
	.loc 1 2318 9
	j	.L100
.LVL197:
.L115:
.LBB387:
.LBB378:
	.loc 1 1759 3
	.loc 1 1761 9 is_stmt 0
	lw	a1,20(s0)
	.loc 1 1759 11
	addi	s10,s10,1
	sw	s10,24(s0)
	.loc 1 1761 3 is_stmt 1
	.loc 1 1761 6 is_stmt 0
	bne	a1,zero,.L117
	.loc 1 1762 4 is_stmt 1
	.loc 1 1762 26 is_stmt 0
	lhu	a5,8(s2)
	.loc 1 1762 12
	srli	a4,s1,5
.LVL198:
	.loc 1 1762 7
	bgeu	a4,a5,.L136
.LVL199:
.L118:
	.loc 1 1792 2 is_stmt 1
	.loc 1 1793 12 is_stmt 0
	addi	s2,s2,48
.LVL200:
	.loc 1 1792 11
	sw	s1,16(s0)
	.loc 1 1793 2 is_stmt 1
	.loc 1 1793 10 is_stmt 0
	sw	s2,28(s0)
	.loc 1 1795 2 is_stmt 1
.LVL201:
.LBE378:
.LBE387:
	.loc 1 2369 3
	.loc 1 2318 9
	bne	s10,zero,.L100
.LVL202:
.L123:
	.loc 1 2372 2
	.loc 1 2374 1 is_stmt 0
	lw	ra,44(sp)
	.cfi_remember_state
	.cfi_restore 1
	lw	s0,40(sp)
	.cfi_restore 8
.LVL203:
	lw	s1,36(sp)
	.cfi_restore 9
	lw	s2,32(sp)
	.cfi_restore 18
	lw	s3,28(sp)
	.cfi_restore 19
	lw	s4,24(sp)
	.cfi_restore 20
	lw	s5,20(sp)
	.cfi_restore 21
	lw	s7,12(sp)
	.cfi_restore 23
	lw	s8,8(sp)
	.cfi_restore 24
	lw	s9,4(sp)
	.cfi_restore 25
	lw	s6,16(sp)
	.cfi_restore 22
.LVL204:
	lw	s10,0(sp)
	.cfi_restore 26
	.loc 1 2311 10
	li	a0,0
	.loc 1 2374 1
	addi	sp,sp,48
	.cfi_def_cfa_offset 0
	jr	ra
.LVL205:
.L117:
	.cfi_restore_state
.LBB388:
.LBB379:
	.loc 1 1767 4 is_stmt 1
	.loc 1 1767 27 is_stmt 0
	lhu	a5,10(s2)
	.loc 1 1767 13
	srli	a4,s1,9
.LVL206:
	.loc 1 1767 35
	addi	a5,a5,-1
	.loc 1 1767 22
	and	a5,a5,a4
	.loc 1 1767 7
	bne	a5,zero,.L118
	.loc 1 1768 5 is_stmt 1
	.loc 1 1768 12 is_stmt 0
	mv	a0,s2
	call	get_fat.isra.0
.LVL207:
	.loc 1 1769 5 is_stmt 1
	.loc 1 1769 8 is_stmt 0
	li	a5,1
	bleu	a0,a5,.L124
	.loc 1 1770 5 is_stmt 1
	.loc 1 1770 8 is_stmt 0
	li	a5,-1
	beq	a0,a5,.L106
	.loc 1 1771 5 is_stmt 1
	.loc 1 1771 8 is_stmt 0
	lw	a5,20(s2)
	bgeu	a0,a5,.L136
	.loc 1 1787 5 is_stmt 1
	.loc 1 1787 15 is_stmt 0
	sw	a0,20(s0)
	.loc 1 1788 5 is_stmt 1
.LVL208:
.LBB373:
.LBB374:
	.loc 1 1149 2
	.loc 1 1150 27 is_stmt 0
	lw	a5,20(s2)
	.loc 1 1149 7
	addi	a0,a0,-2
.LVL209:
	.loc 1 1150 2 is_stmt 1
	.loc 1 1150 27 is_stmt 0
	addi	a5,a5,-2
	.loc 1 1150 5
	bgeu	a0,a5,.L140
	.loc 1 1151 2 is_stmt 1
	.loc 1 1151 24 is_stmt 0
	lhu	s10,10(s2)
	.loc 1 1151 22
	lw	a5,40(s2)
	.loc 1 1151 41
	mul	s10,s10,a0
	.loc 1 1151 22
	add	s10,s10,a5
.LVL210:
.LBE374:
.LBE373:
	.loc 1 1788 14 discriminator 1
	sw	s10,24(s0)
	j	.L118
.LVL211:
.L138:
.LBE379:
.LBE388:
.LBB389:
.LBB370:
.LBB367:
.LBB361:
	.loc 1 1063 3 is_stmt 1
	.loc 1 1063 7 is_stmt 0
	li	a3,1
	mv	a1,s5
	call	disk_write
.LVL212:
	.loc 1 1063 6 discriminator 1
	bne	a0,zero,.L106
	.loc 1 1064 4 is_stmt 1
	.loc 1 1065 10 is_stmt 0
	lw	a2,44(s6)
	.loc 1 1065 20
	lw	a5,32(s6)
	.loc 1 1065 38
	lw	a4,24(s6)
	.loc 1 1064 14
	sb	zero,4(s6)
	.loc 1 1065 4 is_stmt 1
	.loc 1 1065 20 is_stmt 0
	sub	a5,a2,a5
	.loc 1 1066 26 discriminator 1
	lbu	a0,1(s6)
	.loc 1 1065 7
	bgeu	a5,a4,.L104
	.loc 1 1066 5 is_stmt 1
	.loc 1 1066 8 is_stmt 0
	lbu	a3,3(s6)
	li	a5,2
	bne	a3,a5,.L104
	.loc 1 1066 26 is_stmt 1 discriminator 1
	li	a3,1
	add	a2,a2,a4
	mv	a1,s5
	call	disk_write
.LVL213:
	.loc 1 1072 2
.LBE361:
.LBE367:
	.loc 1 1089 3
	lbu	a0,1(s6)
	j	.L104
.LVL214:
.L140:
.LBE370:
.LBE389:
.LBB390:
.LBB380:
	.loc 1 1793 12 is_stmt 0
	addi	s2,s2,48
.LVL215:
	.loc 1 1788 14 discriminator 1
	sw	zero,24(s0)
	.loc 1 1792 2 is_stmt 1
	.loc 1 1792 11 is_stmt 0
	sw	s1,16(s0)
	.loc 1 1793 2 is_stmt 1
	.loc 1 1793 10 is_stmt 0
	sw	s2,28(s0)
	.loc 1 1795 2 is_stmt 1
.LVL216:
.LBE380:
.LBE390:
	.loc 1 2369 3
	.loc 1 2318 9
	j	.L123
.LVL217:
.L124:
.LBB391:
.LBB381:
	li	a0,2
.LVL218:
	j	.L137
.LBE381:
.LBE391:
	.cfi_endproc
.LFE60:
	.size	dir_read.constprop.0, .-dir_read.constprop.0
	.section	.rodata.str1.4,"aMS",@progbits,1
	.align	2
.LC0:
	.string	"FAT32   "
	.text
	.align	2
	.type	check_fs, @function
check_fs:
.LFB29:
	.loc 1 3295 1
	.cfi_startproc
.LVL219:
	.loc 1 3296 2
	.loc 1 3297 2
	.loc 1 3300 2
	.loc 1 3295 1 is_stmt 0
	addi	sp,sp,-16
	.cfi_def_cfa_offset 16
	sw	s0,8(sp)
	sw	s2,0(sp)
	sw	ra,12(sp)
	sw	s1,4(sp)
	.cfi_offset 8, -8
	.cfi_offset 18, -16
	.cfi_offset 1, -4
	.cfi_offset 9, -12
	.loc 1 3300 29
	li	s2,-1
	.loc 1 3300 12
	sb	zero,4(a0)
	.loc 1 3300 17 is_stmt 1
	.loc 1 3300 29 is_stmt 0
	sw	s2,44(a0)
	.loc 1 3301 2 is_stmt 1
.LVL220:
.LBB412:
.LBB413:
	.loc 1 1082 2
	.loc 1 1085 2
.LBE413:
.LBE412:
	.loc 1 3295 1 is_stmt 0
	mv	s0,a0
.LBB421:
.LBB418:
	.loc 1 1085 5
	bne	a1,s2,.L177
.LVL221:
.L142:
.LBE418:
.LBE421:
	.loc 1 3302 2 is_stmt 1
	lbu	s1,559(s0)
	lbu	a3,558(s0)
	.loc 1 3306 4 is_stmt 0
	lbu	a5,48(s0)
	slli	s1,s1,8
	.loc 1 3307 5
	li	a4,235
	or	s1,s1,a3
.LVL222:
	.loc 1 3306 2 is_stmt 1
	.loc 1 3307 2
	.loc 1 3307 5 is_stmt 0
	beq	a5,a4,.L145
	.loc 1 3307 16 discriminator 1
	addi	a5,a5,24
.LVL223:
	andi	a5,a5,0xff
.LVL224:
	li	a4,1
	bleu	a5,a4,.L145
.LVL225:
.L146:
	.loc 1 3324 2 is_stmt 1
	.loc 1 3324 28 is_stmt 0
	li	a0,45056
	addi	a0,a0,-1451
	.loc 1 3324 28 discriminator 2
	sub	a0,s1,a0
	snez	a0,a0
	addi	a0,a0,2
.LVL226:
.L141:
	.loc 1 3325 1
	lw	ra,12(sp)
	.cfi_remember_state
	.cfi_restore 1
	lw	s0,8(sp)
	.cfi_restore 8
.LVL227:
	lw	s1,4(sp)
	.cfi_restore 9
	lw	s2,0(sp)
	.cfi_restore 18
	addi	sp,sp,16
	.cfi_def_cfa_offset 0
	jr	ra
.LVL228:
.L145:
	.cfi_restore_state
	.loc 1 3308 3 is_stmt 1
	.loc 1 3308 6 is_stmt 0
	li	a5,45056
	addi	a5,a5,-1451
	beq	s1,a5,.L178
	.loc 1 3312 3 is_stmt 1
.LVL229:
	lbu	a5,60(s0)
	lbu	a4,59(s0)
	.loc 1 3324 28 is_stmt 0 discriminator 2
	li	a0,3
	slli	a5,a5,8
	or	a5,a5,a4
.LVL230:
	.loc 1 3313 3 is_stmt 1
	.loc 1 3314 3
	.loc 1 3314 15 is_stmt 0
	addi	a4,a5,-1
	.loc 1 3314 10
	and	a4,a4,a5
	.loc 1 3314 6
	bne	a4,zero,.L141
	.loc 1 3314 44 discriminator 2
	li	a4,512
	.loc 1 3324 28 discriminator 2
	li	a0,3
	.loc 1 3314 44 discriminator 2
	bne	a5,a4,.L141
.LVL231:
.L152:
	.loc 1 3313 5
	lbu	a5,61(s0)
.LVL232:
	.loc 1 3315 4
	beq	a5,zero,.L141
	.loc 1 3315 25 discriminator 1
	addi	a4,a5,-1
	.loc 1 3315 20 discriminator 1
	and	a5,a4,a5
	.loc 1 3315 14 discriminator 1
	bne	a5,zero,.L141
	.loc 1 3316 4 discriminator 1
	lbu	a5,63(s0)
	lbu	a4,62(s0)
	slli	a5,a5,8
	or	a5,a5,a4
	beq	a5,zero,.L146
	.loc 1 3317 7
	lbu	a5,64(s0)
	.loc 1 3317 4
	li	a4,1
	.loc 1 3317 34
	addi	a5,a5,-1
	.loc 1 3317 4
	bgtu	a5,a4,.L146
	.loc 1 3318 4 discriminator 1
	lbu	a5,66(s0)
	lbu	a4,65(s0)
	slli	a5,a5,8
	or	a5,a5,a4
	beq	a5,zero,.L146
	.loc 1 3319 4 discriminator 1
	lbu	a5,68(s0)
	lbu	a3,67(s0)
	li	a4,127
	slli	a5,a5,8
	or	a5,a5,a3
	bgtu	a5,a4,.L150
.LVL233:
.LBB422:
.LBB423:
	.loc 1 629 2 is_stmt 1
	.loc 1 631 2
	.loc 1 632 2
	.loc 1 633 2
	.loc 1 634 2
	.loc 1 635 2
	.loc 1 634 5 is_stmt 0
	lbu	a3,81(s0)
	lbu	a2,80(s0)
	lbu	a4,82(s0)
	lbu	a5,83(s0)
	slli	a3,a3,8
	or	a3,a3,a2
	slli	a4,a4,16
	or	a4,a4,a3
	slli	a5,a5,24
	or	a5,a5,a4
.LBE423:
.LBE422:
	.loc 1 3319 47 discriminator 1
	li	a4,65536
	bltu	a5,a4,.L146
.L150:
	.loc 1 3320 4 discriminator 1
	lbu	a5,71(s0)
	lbu	a4,70(s0)
	slli	a5,a5,8
	or	a5,a5,a4
	beq	a5,zero,.L146
	.loc 1 3309 11
	li	a0,0
	j	.L141
.LVL234:
.L178:
	.loc 1 3308 26 discriminator 1
	lui	a1,%hi(.LC0)
	li	a2,8
	addi	a1,a1,%lo(.LC0)
	addi	a0,s0,130
	call	memcmp
.LVL235:
	mv	a5,a0
	.loc 1 3309 11
	li	a0,0
	.loc 1 3308 22 discriminator 1
	beq	a5,zero,.L141
	.loc 1 3312 3 is_stmt 1
.LVL236:
	lbu	a5,60(s0)
	lbu	a4,59(s0)
	.loc 1 3324 28 is_stmt 0 discriminator 1
	li	a0,2
	slli	a5,a5,8
	or	a5,a5,a4
.LVL237:
	.loc 1 3313 3 is_stmt 1
	.loc 1 3314 3
	.loc 1 3314 15 is_stmt 0
	addi	a4,a5,-1
	.loc 1 3314 10
	and	a4,a4,a5
	.loc 1 3314 6
	bne	a4,zero,.L141
	.loc 1 3314 44 discriminator 2
	li	a4,512
	bne	a5,a4,.L141
	j	.L152
.LVL238:
.L177:
.LBB424:
.LBB419:
	.loc 1 1087 3 is_stmt 1
	.loc 1 1089 3
.LBB414:
.LBB415:
	.loc 1 1090 4
	.loc 1 1090 8 is_stmt 0
	lbu	a0,1(a0)
	mv	s1,a1
	mv	a2,a1
	li	a3,1
	addi	a1,s0,48
.LVL239:
	call	disk_read
.LVL240:
	.loc 1 1090 7 discriminator 1
	beq	a0,zero,.L143
	.loc 1 1091 5 is_stmt 1
.LVL241:
	.loc 1 1092 5
	.loc 1 1094 4
	.loc 1 1094 16 is_stmt 0
	sw	s2,44(s0)
	.loc 1 1097 2 is_stmt 1
.LVL242:
.LBE415:
.LBE414:
	.loc 1 1097 2
.LBE419:
.LBE424:
	.loc 1 3301 45 is_stmt 0 discriminator 1
	li	a0,4
	j	.L141
.LVL243:
.L143:
.LBB425:
.LBB420:
.LBB417:
.LBB416:
	.loc 1 1094 4 is_stmt 1
	.loc 1 1094 16 is_stmt 0
	sw	s1,44(s0)
	.loc 1 1097 2 is_stmt 1
.LVL244:
.LBE416:
.LBE417:
	.loc 1 1097 2
	j	.L142
.LBE420:
.LBE425:
	.cfi_endproc
.LFE29:
	.size	check_fs, .-check_fs
	.align	2
	.type	mount_volume, @function
mount_volume:
.LFB31:
	.loc 1 3390 1
	.cfi_startproc
.LVL245:
	.loc 1 3391 2
	.loc 1 3392 2
	.loc 1 3393 2
	.loc 1 3394 2
	.loc 1 3395 2
	.loc 1 3396 2
	.loc 1 3397 2
	.loc 1 3401 2
	.loc 1 3401 7 is_stmt 0
	sw	zero,0(a1)
	.loc 1 3402 2 is_stmt 1
.LVL246:
.LBB464:
.LBB465:
	.loc 1 3142 2
	.loc 1 3143 2
	.loc 1 3144 2
	.loc 1 3145 2
	.loc 1 3146 2
	.loc 1 3152 2
	.loc 1 3152 10 is_stmt 0
	lw	t1,0(a0)
.LVL247:
	.loc 1 3153 2 is_stmt 1
	.loc 1 3153 5 is_stmt 0
	beq	t1,zero,.L211
	mv	a7,a0
	.loc 1 3152 5
	mv	a5,t1
	.loc 1 3156 29 discriminator 2
	li	a3,32
	.loc 1 3156 29 discriminator 1
	li	a6,58
	j	.L182
.LVL248:
.L268:
	beq	a4,a6,.L267
.LVL249:
.L182:
	.loc 1 3154 2 is_stmt 1
	.loc 1 3155 3
	.loc 1 3155 6 is_stmt 0
	lbu	a4,0(a5)
	.loc 1 3155 11
	addi	a5,a5,1
.LVL250:
	.loc 1 3156 29 is_stmt 1 discriminator 2
	bgtu	a4,a3,.L268
.LVL251:
.L181:
.LBE465:
.LBE464:
	.loc 1 3406 2
	.loc 1 3390 1 is_stmt 0
	addi	sp,sp,-32
	.cfi_def_cfa_offset 32
	.loc 1 3406 5
	lui	a5,%hi(FatFs)
	.loc 1 3390 1
	sw	s0,24(sp)
	.cfi_offset 8, -8
	.loc 1 3406 5
	lw	s0,%lo(FatFs)(a5)
.LVL252:
	.loc 1 3407 2 is_stmt 1
	.loc 1 3390 1 is_stmt 0
	sw	ra,28(sp)
	.cfi_offset 1, -4
	.loc 1 3407 5
	beq	s0,zero,.L214
	.loc 1 3411 2 is_stmt 1
	sw	s1,20(sp)
	.loc 1 3411 7 is_stmt 0
	sw	s0,0(a1)
	.loc 1 3413 2 is_stmt 1
	.loc 1 3414 5 is_stmt 0
	lbu	a5,0(s0)
	.cfi_offset 9, -12
	.loc 1 3413 7
	andi	s1,a2,254
.LVL253:
	.loc 1 3414 2 is_stmt 1
	.loc 1 3414 5 is_stmt 0
	beq	a5,zero,.L183
	.loc 1 3415 3 is_stmt 1
	.loc 1 3415 10 is_stmt 0
	lbu	a0,1(s0)
	call	disk_status
.LVL254:
	.loc 1 3416 3 is_stmt 1
	.loc 1 3416 6 is_stmt 0
	andi	a5,a0,1
	bne	a5,zero,.L183
	.loc 1 3417 4 is_stmt 1
	.loc 1 3417 7 is_stmt 0
	beq	s1,zero,.L184
	.loc 1 3417 32 discriminator 1
	andi	a0,a0,4
.LVL255:
	bne	a0,zero,.L186
.LVL256:
.L184:
	lw	s1,20(sp)
	.cfi_remember_state
	.cfi_restore 9
	.loc 1 3420 11
	li	a0,0
	j	.L179
.LVL257:
.L183:
	.cfi_restore_state
	.loc 1 3427 2 is_stmt 1
	.loc 1 3428 9 is_stmt 0
	lbu	a0,1(s0)
	.loc 1 3427 14
	sb	zero,0(s0)
	.loc 1 3428 2 is_stmt 1
	.loc 1 3428 9 is_stmt 0
	call	disk_initialize
.LVL258:
	.loc 1 3429 5
	andi	a4,a0,1
	.loc 1 3428 9
	mv	a5,a0
.LVL259:
	.loc 1 3429 2 is_stmt 1
	.loc 1 3430 10 is_stmt 0
	li	a0,3
.LVL260:
	.loc 1 3429 5
	bne	a4,zero,.L260
	.loc 1 3432 2 is_stmt 1
	.loc 1 3432 5 is_stmt 0
	beq	s1,zero,.L185
	.loc 1 3432 30 discriminator 1
	andi	a5,a5,4
	bne	a5,zero,.L186
.L185:
	.loc 1 3441 2 is_stmt 1
.LVL261:
.LBB471:
.LBB472:
	.loc 1 3336 2
	.loc 1 3337 2
	.loc 1 3340 2
	.loc 1 3340 8 is_stmt 0
	li	a1,0
	mv	a0,s0
	call	check_fs
.LVL262:
	.loc 1 3341 2 is_stmt 1
	.loc 1 3341 5 is_stmt 0
	li	a5,2
	beq	a0,a5,.L269
.LVL263:
.LBE472:
.LBE471:
	.loc 1 3442 2 is_stmt 1
	.loc 1 3442 5 is_stmt 0
	li	a5,4
	beq	a0,a5,.L194
	.loc 1 3443 2 is_stmt 1
	.loc 1 3443 5 is_stmt 0
	li	a5,1
	bgtu	a0,a5,.L195
.LVL264:
.L189:
	.loc 1 3444 2 is_stmt 1
	.loc 1 3512 6 is_stmt 0 discriminator 1
	lbu	a5,60(s0)
	lbu	a3,59(s0)
	li	a4,512
	slli	a5,a5,8
	or	a5,a5,a3
	.loc 1 3444 8
	lw	a1,44(s0)
.LVL265:
	.loc 1 3512 3 is_stmt 1
	.loc 1 3512 6 is_stmt 0 discriminator 1
	bne	a5,a4,.L195
	.loc 1 3514 3 is_stmt 1
	.loc 1 3514 10 is_stmt 0 discriminator 1
	lbu	a5,71(s0)
	lbu	a4,70(s0)
	slli	a5,a5,8
	or	a5,a5,a4
.LVL266:
	.loc 1 3515 3 is_stmt 1
	.loc 1 3515 6 is_stmt 0
	bne	a5,zero,.L197
	.loc 1 3515 20 is_stmt 1 discriminator 1
.LVL267:
.LBB484:
.LBB485:
	.loc 1 629 2
	.loc 1 631 2
	.loc 1 634 5 is_stmt 0
	lbu	a5,85(s0)
.LVL268:
	lbu	a2,84(s0)
	lbu	a4,86(s0)
.LVL269:
	lbu	a3,87(s0)
	slli	a5,a5,8
	or	a5,a5,a2
	slli	a4,a4,16
	or	a4,a4,a5
	slli	a5,a3,24
	or	a5,a5,a4
.LVL270:
	.loc 1 632 2 is_stmt 1
	.loc 1 633 2
	.loc 1 634 2
	.loc 1 635 2
.L197:
.LBE485:
.LBE484:
	.loc 1 3516 3
	.loc 1 3518 23 is_stmt 0
	lbu	a4,64(s0)
	.loc 1 3516 13
	sw	a5,24(s0)
	.loc 1 3518 3 is_stmt 1
	.loc 1 3519 6 is_stmt 0
	li	a2,1
	.loc 1 3519 23
	addi	a3,a4,-1
	.loc 1 3518 14
	sb	a4,3(s0)
	.loc 1 3519 3 is_stmt 1
	.loc 1 3519 6 is_stmt 0
	andi	a3,a3,0xff
	bgtu	a3,a2,.L195
	.loc 1 3520 3 is_stmt 1
.LVL271:
	.loc 1 3522 3
	.loc 1 3522 22 is_stmt 0
	lbu	a2,61(s0)
	.loc 1 3522 13
	sh	a2,10(s0)
	.loc 1 3523 3 is_stmt 1
	.loc 1 3523 6 is_stmt 0
	beq	a2,zero,.L195
	.loc 1 3523 49 discriminator 2
	addi	a3,a2,-1
	.loc 1 3523 36 discriminator 2
	and	a3,a3,a2
	.loc 1 3523 22 discriminator 2
	bne	a3,zero,.L195
	.loc 1 3525 3 is_stmt 1
.LVL272:
	lbu	a0,66(s0)
	lbu	a3,65(s0)
	slli	a0,a0,8
	or	a0,a0,a3
.LVL273:
	.loc 1 3525 17 is_stmt 0 discriminator 1
	sh	a0,8(s0)
	.loc 1 3526 3 is_stmt 1
	.loc 1 3526 6 is_stmt 0
	andi	a3,a0,15
	bne	a3,zero,.L195
	.loc 1 3528 3 is_stmt 1
	.loc 1 3528 9 is_stmt 0 discriminator 1
	lbu	a3,68(s0)
	lbu	a6,67(s0)
	slli	a3,a3,8
	or	a3,a3,a6
.LVL274:
	.loc 1 3529 3 is_stmt 1
	.loc 1 3529 6 is_stmt 0
	bne	a3,zero,.L198
	.loc 1 3529 19 is_stmt 1 discriminator 1
.LVL275:
.LBB486:
.LBB487:
	.loc 1 629 2
	.loc 1 631 2
	.loc 1 634 5 is_stmt 0
	lbu	a7,81(s0)
	lbu	t1,80(s0)
	lbu	a6,82(s0)
	lbu	a3,83(s0)
.LVL276:
	slli	a7,a7,8
	or	a7,a7,t1
	slli	a6,a6,16
	or	a6,a6,a7
	slli	a3,a3,24
	or	a3,a3,a6
.LVL277:
	.loc 1 632 2 is_stmt 1
	.loc 1 633 2
	.loc 1 634 2
	.loc 1 635 2
.L198:
.LBE487:
.LBE486:
	.loc 1 3531 3
	lbu	a6,63(s0)
	lbu	a7,62(s0)
	slli	a6,a6,8
	or	a6,a6,a7
.LVL278:
	.loc 1 3532 3
	.loc 1 3532 6 is_stmt 0
	beq	a6,zero,.L195
	.loc 1 3520 10
	mul	a4,a4,a5
.LVL279:
	.loc 1 3535 3 is_stmt 1
	.loc 1 3535 42 is_stmt 0
	srli	a7,a0,4
	.loc 1 3535 10
	add	a7,a7,a6
	add	a7,a7,a4
.LVL280:
	.loc 1 3536 3 is_stmt 1
	.loc 1 3536 6 is_stmt 0
	bltu	a3,a7,.L195
	.loc 1 3537 3 is_stmt 1
	.loc 1 3537 18 is_stmt 0
	sub	a3,a3,a7
.LVL281:
	.loc 1 3537 9
	divu	t1,a3,a2
.LVL282:
	.loc 1 3538 3 is_stmt 1
	.loc 1 3538 6 is_stmt 0
	bltu	a3,a2,.L195
	.loc 1 3539 3 is_stmt 1
.LVL283:
	.loc 1 3540 3
	.loc 1 3540 6 is_stmt 0
	li	a3,268435456
	addi	a3,a3,-11
	bgtu	t1,a3,.L195
	.loc 1 3540 27 is_stmt 1 discriminator 1
.LVL284:
	.loc 1 3541 3
	.loc 1 3541 6 is_stmt 0
	li	a2,65536
	addi	a2,a2,-11
	.loc 1 3549 24
	add	a7,a1,a7
.LVL285:
	.loc 1 3548 23
	add	a6,a6,a1
.LVL286:
	.loc 1 3546 24
	addi	a3,t1,2
	.loc 1 3541 6
	bgtu	t1,a2,.L199
.LVL287:
	.loc 1 3542 3 is_stmt 1
	.loc 1 3542 6 is_stmt 0
	li	a2,4096
	addi	a2,a2,-11
	.loc 1 3546 16
	sw	a3,20(s0)
	.loc 1 3547 3 is_stmt 1
	.loc 1 3547 15 is_stmt 0
	sw	a1,28(s0)
	.loc 1 3548 3 is_stmt 1
	.loc 1 3548 15 is_stmt 0
	sw	a6,32(s0)
	.loc 1 3549 3 is_stmt 1
	.loc 1 3549 16 is_stmt 0
	sw	a7,40(s0)
	.loc 1 3542 6
	bleu	t1,a2,.L270
.LVL288:
	.loc 1 3546 3 is_stmt 1
	.loc 1 3550 3
	.loc 1 3556 4
	.loc 1 3556 7 is_stmt 0
	beq	a0,zero,.L195
	.loc 1 3557 4 is_stmt 1
	.loc 1 3557 30 is_stmt 0
	add	a4,a4,a6
.LVL289:
	.loc 1 3558 4 is_stmt 1
	.loc 1 3559 22 is_stmt 0 discriminator 1
	slli	a3,a3,1
	li	a2,2
.L204:
	.loc 1 3561 27
	addi	a3,a3,511
	.loc 1 3557 16
	sw	a4,36(s0)
.LVL290:
	.loc 1 3561 3 is_stmt 1
	.loc 1 3561 43 is_stmt 0
	srli	a4,a3,9
	.loc 1 3561 6
	bltu	a5,a4,.L195
	.loc 1 3565 3 is_stmt 1
	.loc 1 3565 33 is_stmt 0
	li	a5,-1
.LVL291:
	sw	a5,16(s0)
	.loc 1 3565 17
	sw	a5,12(s0)
	.loc 1 3566 3 is_stmt 1
	.loc 1 3566 16 is_stmt 0
	li	a5,-128
	sb	a5,5(s0)
	.loc 1 3568 3 is_stmt 1
.LVL292:
.L208:
	.loc 1 3589 2
	.loc 1 3590 11 is_stmt 0
	lui	a4,%hi(Fsid)
	lhu	a5,%lo(Fsid)(a4)
	.loc 1 3589 14
	sb	a2,0(s0)
	.loc 1 3590 2 is_stmt 1
	.loc 1 3590 11 is_stmt 0
	addi	a5,a5,1
	slli	a5,a5,16
	srli	a5,a5,16
	.loc 1 3590 9
	sh	a5,%lo(Fsid)(a4)
	sh	a5,6(s0)
	.loc 1 3603 2 is_stmt 1
	.loc 1 3603 9 is_stmt 0
	j	.L184
.LVL293:
.L269:
	sw	s3,12(sp)
.LVL294:
.LBB488:
.LBB481:
	.loc 1 3369 3 is_stmt 1
.LBB473:
.LBB474:
	.loc 1 629 2
	.loc 1 631 2
	sw	s2,16(sp)
	.cfi_offset 19, -20
	.cfi_offset 18, -16
	.loc 1 634 5 is_stmt 0
	lbu	t1,503(s0)
	lbu	t0,502(s0)
	lbu	a2,504(s0)
	lbu	a7,519(s0)
	lbu	a6,535(s0)
	lbu	a0,551(s0)
.LVL295:
	lbu	a1,505(s0)
	lbu	t6,518(s0)
	lbu	a3,520(s0)
	lbu	t5,534(s0)
	lbu	a4,536(s0)
	lbu	t4,550(s0)
	lbu	a5,552(s0)
	lbu	s2,521(s0)
	lbu	s1,537(s0)
.LVL296:
	lbu	t3,553(s0)
	slli	t1,t1,8
	or	t1,t1,t0
	slli	a2,a2,16
	slli	a7,a7,8
	slli	a6,a6,8
	slli	a0,a0,8
	or	a2,a2,t1
	slli	a1,a1,24
	or	a7,a7,t6
	slli	a3,a3,16
	or	a6,a6,t5
	slli	a4,a4,16
	or	a0,a0,t4
	slli	a5,a5,16
	or	a3,a3,a7
	slli	s2,s2,24
	or	a4,a4,a6
	slli	s1,s1,24
	or	a5,a5,a0
	slli	t3,t3,24
	or	a1,a1,a2
.LVL297:
	.loc 1 632 2 is_stmt 1
	.loc 1 633 2
	.loc 1 634 2
	.loc 1 635 2
.LBE474:
.LBE473:
	.loc 1 3368 22 discriminator 3
	.loc 1 3368 16 discriminator 1
	.loc 1 3369 3
.LBB478:
.LBB475:
	.loc 1 629 2
	.loc 1 631 2
	.loc 1 634 5 is_stmt 0
	or	s2,s2,a3
.LVL298:
	.loc 1 632 2 is_stmt 1
	.loc 1 633 2
	.loc 1 634 2
	.loc 1 635 2
.LBE475:
.LBE478:
	.loc 1 3368 22 discriminator 3
	.loc 1 3368 16 discriminator 1
	.loc 1 3369 3
.LBB479:
.LBB476:
	.loc 1 629 2
	.loc 1 631 2
	.loc 1 634 5 is_stmt 0
	or	s1,s1,a4
.LVL299:
	.loc 1 632 2 is_stmt 1
	.loc 1 633 2
	.loc 1 634 2
	.loc 1 635 2
.LBE476:
.LBE479:
	.loc 1 3368 22 discriminator 3
	.loc 1 3368 16 discriminator 1
	.loc 1 3369 3
.LBB480:
.LBB477:
	.loc 1 629 2
	.loc 1 631 2
	.loc 1 634 5 is_stmt 0
	or	s3,t3,a5
.LVL300:
	.loc 1 632 2 is_stmt 1
	.loc 1 633 2
	.loc 1 634 2
	.loc 1 635 2
.LBE477:
.LBE480:
	.loc 1 3368 22 discriminator 3
	.loc 1 3368 16 discriminator 1
	.loc 1 3372 2
	.loc 1 3373 3
	.loc 1 3373 45 is_stmt 0
	bne	a1,zero,.L271
.L188:
.LVL301:
	.loc 1 3372 2 is_stmt 1
	.loc 1 3373 3
	.loc 1 3373 45 is_stmt 0
	bne	s2,zero,.L272
.LVL302:
	.loc 1 3372 2 is_stmt 1
	.loc 1 3373 3
	.loc 1 3373 45 is_stmt 0
	bne	s1,zero,.L273
.L191:
.LVL303:
	.loc 1 3372 2 is_stmt 1
	.loc 1 3373 3
	.loc 1 3373 45 is_stmt 0
	bne	s3,zero,.L274
	lw	s2,16(sp)
	.cfi_restore 18
	lw	s3,12(sp)
	.cfi_restore 19
.LVL304:
.L195:
	lw	s1,20(sp)
	.cfi_restore 9
.LBE481:
.LBE488:
	.loc 1 3443 23 discriminator 1
	li	a0,13
.LVL305:
.L179:
	.loc 1 3604 1
	lw	ra,28(sp)
	.cfi_restore 1
	lw	s0,24(sp)
	.cfi_restore 8
.LVL306:
	addi	sp,sp,32
	.cfi_def_cfa_offset 0
	jr	ra
.LVL307:
.L267:
.LBB489:
.LBB466:
	.loc 1 3158 2 is_stmt 1
	.loc 1 3159 3
	.loc 1 3160 3
	.loc 1 3160 6 is_stmt 0
	lbu	a3,0(t1)
	li	a4,48
.LVL308:
.LBE466:
.LBE489:
	.loc 1 3403 22 discriminator 1
	li	a0,11
.LVL309:
.LBB490:
.LBB467:
	.loc 1 3160 6
	bne	a3,a4,.L258
	.loc 1 3160 26 discriminator 1
	addi	t1,t1,2
.LVL310:
	.loc 1 3160 20 discriminator 1
	beq	a5,t1,.L275
.L258:
.LBE467:
.LBE490:
	.loc 1 3604 1
	ret
.LVL311:
.L260:
	.cfi_def_cfa_offset 32
	.cfi_offset 1, -4
	.cfi_offset 8, -8
	.cfi_offset 9, -12
	lw	ra,28(sp)
	.cfi_restore 1
	lw	s0,24(sp)
	.cfi_restore 8
.LVL312:
	lw	s1,20(sp)
	.cfi_restore 9
.LVL313:
	addi	sp,sp,32
	.cfi_def_cfa_offset 0
	jr	ra
.LVL314:
.L274:
	.cfi_def_cfa_offset 32
	.cfi_offset 1, -4
	.cfi_offset 8, -8
	.cfi_offset 9, -12
	.cfi_offset 18, -16
	.cfi_offset 19, -20
.LBB491:
.LBB482:
	.loc 1 3373 21 discriminator 1
	mv	a1,s3
	mv	a0,s0
	call	check_fs
.LVL315:
	.loc 1 3374 33 is_stmt 1
	.loc 1 3374 21 is_stmt 0 discriminator 1
	li	a5,1
	bleu	a0,a5,.L265
.LVL316:
.LBE482:
.LBE491:
	.loc 1 3442 2 is_stmt 1
	.loc 1 3442 5 is_stmt 0
	li	a5,4
	lw	s2,16(sp)
	.cfi_restore 18
	lw	s3,12(sp)
	.cfi_restore 19
	bne	a0,a5,.L195
.L194:
	lw	s1,20(sp)
	.cfi_remember_state
	.cfi_restore 9
	.loc 1 3442 23 discriminator 1
	li	a0,1
.LVL317:
	j	.L179
.LVL318:
.L186:
	.cfi_restore_state
	lw	s1,20(sp)
	.cfi_restore 9
.LVL319:
	.loc 1 3418 12
	li	a0,10
	j	.L179
.LVL320:
.L214:
	.loc 1 3407 18 discriminator 1
	li	a0,12
	j	.L179
.LVL321:
.L271:
	.cfi_offset 9, -12
	.cfi_offset 18, -16
	.cfi_offset 19, -20
.LBB492:
.LBB483:
	.loc 1 3373 21 discriminator 1
	mv	a0,s0
	call	check_fs
.LVL322:
	.loc 1 3374 33 is_stmt 1
	.loc 1 3374 21 is_stmt 0 discriminator 1
	li	a5,1
	bgtu	a0,a5,.L188
.LVL323:
.L265:
	lw	s2,16(sp)
	.cfi_remember_state
	.cfi_restore 18
	lw	s3,12(sp)
	.cfi_restore 19
	j	.L189
.LVL324:
.L272:
	.cfi_restore_state
	.loc 1 3373 21 discriminator 1
	mv	a1,s2
	mv	a0,s0
	call	check_fs
.LVL325:
	.loc 1 3374 33 is_stmt 1
	.loc 1 3374 21 is_stmt 0 discriminator 1
	li	a5,1
	bleu	a0,a5,.L265
.LVL326:
	.loc 1 3372 2 is_stmt 1
	.loc 1 3373 3
	.loc 1 3373 45 is_stmt 0
	beq	s1,zero,.L191
.L273:
	.loc 1 3373 21 discriminator 1
	mv	a1,s1
	mv	a0,s0
	call	check_fs
.LVL327:
	.loc 1 3374 33 is_stmt 1
	.loc 1 3374 21 is_stmt 0 discriminator 1
	li	a5,1
	bgtu	a0,a5,.L191
	j	.L265
.LVL328:
.L275:
	.cfi_def_cfa_offset 0
	.cfi_restore 1
	.cfi_restore 8
	.cfi_restore 9
	.cfi_restore 18
	.cfi_restore 19
.LBE483:
.LBE492:
.LBB493:
.LBB468:
	.loc 1 3161 4 is_stmt 1
	.loc 1 3176 3
	.loc 1 3177 4
	.loc 1 3178 4
	.loc 1 3178 10 is_stmt 0
	sw	a5,0(a7)
.LVL329:
.LBE468:
.LBE493:
	.loc 1 3403 2 is_stmt 1
	j	.L181
.LVL330:
.L270:
	.cfi_def_cfa_offset 32
	.cfi_offset 1, -4
	.cfi_offset 8, -8
	.cfi_offset 9, -12
	.loc 1 3546 3
	.loc 1 3550 3
	.loc 1 3556 4
	.loc 1 3556 7 is_stmt 0
	beq	a0,zero,.L195
	.loc 1 3557 4 is_stmt 1
	.loc 1 3559 37 is_stmt 0 discriminator 2
	slli	a2,a3,1
	add	a2,a2,a3
	.loc 1 3559 41 discriminator 2
	srli	a2,a2,1
	.loc 1 3559 61 discriminator 2
	andi	a3,a3,1
	.loc 1 3559 22 discriminator 2
	add	a3,a2,a3
	.loc 1 3557 30
	add	a4,a4,a6
.LVL331:
	.loc 1 3558 4 is_stmt 1
	.loc 1 3559 22 is_stmt 0 discriminator 2
	li	a2,1
	j	.L204
.LVL332:
.L199:
	.loc 1 3546 3 is_stmt 1
	.loc 1 3551 7 is_stmt 0 discriminator 1
	lbu	a4,91(s0)
.LVL333:
	lbu	a2,90(s0)
	.loc 1 3546 16
	sw	a3,20(s0)
	.loc 1 3547 3 is_stmt 1
	.loc 1 3551 7 is_stmt 0 discriminator 1
	slli	a4,a4,8
	or	a4,a4,a2
	.loc 1 3547 15
	sw	a1,28(s0)
	.loc 1 3548 3 is_stmt 1
	.loc 1 3548 15 is_stmt 0
	sw	a6,32(s0)
	.loc 1 3549 3 is_stmt 1
	.loc 1 3549 16 is_stmt 0
	sw	a7,40(s0)
	.loc 1 3550 3 is_stmt 1
	.loc 1 3551 4
	.loc 1 3551 7 is_stmt 0 discriminator 1
	or	a0,a0,a4
.LVL334:
	bne	a0,zero,.L195
	.loc 1 3552 4 is_stmt 1
	.loc 1 3553 4
.LVL335:
.LBB494:
.LBB495:
	.loc 1 629 2
	.loc 1 631 2
	.loc 1 632 2
	.loc 1 633 2
	.loc 1 634 2
	.loc 1 635 2
	.loc 1 634 5 is_stmt 0
	lbu	a4,93(s0)
	lbu	a6,92(s0)
	lbu	a0,94(s0)
	lbu	a2,95(s0)
	slli	a4,a4,8
	or	a4,a4,a6
	slli	a0,a0,16
	or	a0,a0,a4
	slli	a2,a2,24
.LBE495:
.LBE494:
	.loc 1 3554 11
	slli	a4,a3,2
	.loc 1 3561 27
	addi	a4,a4,511
.LBB497:
.LBB496:
	.loc 1 634 5
	or	a3,a2,a0
.LBE496:
.LBE497:
	.loc 1 3553 16 discriminator 1
	sw	a3,36(s0)
	.loc 1 3554 4 is_stmt 1
.LVL336:
	.loc 1 3561 3
	.loc 1 3561 43 is_stmt 0
	srli	a4,a4,9
	.loc 1 3561 6
	bltu	a5,a4,.L195
	.loc 1 3565 3 is_stmt 1
	.loc 1 3569 4 is_stmt 0 discriminator 1
	lbu	a5,97(s0)
.LVL337:
	lbu	a3,96(s0)
	.loc 1 3565 33
	li	a4,-1
	.loc 1 3569 4 discriminator 1
	slli	a5,a5,8
	.loc 1 3565 33
	sw	a4,16(s0)
	.loc 1 3565 17
	sw	a4,12(s0)
	.loc 1 3566 3 is_stmt 1
	.loc 1 3566 16 is_stmt 0
	li	a4,-128
	sb	a4,5(s0)
	.loc 1 3568 3 is_stmt 1
	.loc 1 3569 4 is_stmt 0 discriminator 1
	or	a5,a5,a3
	li	a4,1
	beq	a5,a4,.L276
.LVL338:
.L206:
.LBB498:
.LBB469:
	.loc 1 3152 5
	li	a2,3
	j	.L208
.LVL339:
.L276:
.LBE469:
.LBE498:
	.loc 1 3570 7
	addi	a1,a1,1
.LVL340:
	mv	a0,s0
	call	move_window
.LVL341:
	.loc 1 3570 4 discriminator 1
	bne	a0,zero,.L206
	.loc 1 3572 4 is_stmt 1
	.loc 1 3573 7 is_stmt 0 discriminator 1
	lbu	a5,559(s0)
	lbu	a3,558(s0)
	li	a4,45056
	slli	a5,a5,8
	.loc 1 3572 17
	sb	zero,5(s0)
	.loc 1 3573 4 is_stmt 1
	.loc 1 3573 7 is_stmt 0 discriminator 1
	or	a5,a5,a3
	addi	a4,a4,-1451
	bne	a5,a4,.L206
.LVL342:
.LBB499:
.LBB500:
	.loc 1 629 2 is_stmt 1
	.loc 1 631 2
	.loc 1 632 2
	.loc 1 633 2
	.loc 1 634 2
	.loc 1 635 2
	.loc 1 634 5 is_stmt 0
	lbu	a3,49(s0)
	lbu	a2,48(s0)
	lbu	a4,50(s0)
	lbu	a5,51(s0)
	slli	a3,a3,8
	or	a3,a3,a2
	slli	a4,a4,16
	or	a4,a4,a3
	slli	a5,a5,24
.LBE500:
.LBE499:
	.loc 1 3574 5 discriminator 1
	li	a3,1096896512
.LBB502:
.LBB501:
	.loc 1 634 5
	or	a5,a5,a4
.LBE501:
.LBE502:
	.loc 1 3574 5 discriminator 1
	addi	a3,a3,594
	bne	a5,a3,.L206
.LVL343:
.LBB503:
.LBB504:
	.loc 1 629 2 is_stmt 1
	.loc 1 631 2
	.loc 1 632 2
	.loc 1 633 2
	.loc 1 634 2
	.loc 1 635 2
	.loc 1 634 5 is_stmt 0
	lbu	a3,533(s0)
	lbu	a2,532(s0)
	lbu	a4,534(s0)
	lbu	a5,535(s0)
	slli	a3,a3,8
	or	a3,a3,a2
	slli	a4,a4,16
	or	a4,a4,a3
	slli	a5,a5,24
.LBE504:
.LBE503:
	.loc 1 3575 5 discriminator 1
	li	a3,1631678464
.LBB506:
.LBB505:
	.loc 1 634 5
	or	a5,a5,a4
.LBE505:
.LBE506:
	.loc 1 3575 5 discriminator 1
	addi	a3,a3,626
	bne	a5,a3,.L206
	.loc 1 3578 5 is_stmt 1
.LVL344:
.LBB507:
.LBB508:
	.loc 1 634 5 is_stmt 0
	lw	a4,536(s0)
.LVL345:
.LBE508:
.LBE507:
	.loc 1 3581 5 is_stmt 1
.LBB510:
.LBB509:
	.loc 1 629 2
	.loc 1 631 2
	.loc 1 632 2
	.loc 1 633 2
	.loc 1 634 2
	.loc 1 635 2
.LBE509:
.LBE510:
	.loc 1 3581 19 is_stmt 0 discriminator 1
	lw	a5,540(s0)
.LBB511:
.LBB470:
	.loc 1 3152 5
	li	a2,3
.LBE470:
.LBE511:
	.loc 1 3581 19 discriminator 1
	sw	a4,16(s0)
	sw	a5,12(s0)
	j	.L208
.LVL346:
.L211:
	.cfi_def_cfa_offset 0
	.cfi_restore 1
	.cfi_restore 8
	.cfi_restore 9
	.loc 1 3403 22 discriminator 1
	li	a0,11
.LVL347:
	ret
	.cfi_endproc
.LFE31:
	.size	mount_volume, .-mount_volume
	.align	2
	.type	dir_sdi.constprop.0, @function
dir_sdi.constprop.0:
.LFB62:
	.loc 1 1697 16 is_stmt 1
	.cfi_startproc
.LVL348:
	.loc 1 1702 2
	.loc 1 1703 2
	.loc 1 1697 16 is_stmt 0
	addi	sp,sp,-48
	.cfi_def_cfa_offset 48
	sw	s6,16(sp)
	sw	ra,44(sp)
	sw	s0,40(sp)
	sw	s7,12(sp)
	.cfi_offset 22, -32
	.cfi_offset 1, -4
	.cfi_offset 8, -8
	.cfi_offset 23, -36
	.loc 1 1710 7
	lw	s0,8(a0)
	.loc 1 1709 11
	sw	zero,16(a0)
	.loc 1 1703 9
	lw	s7,0(a0)
.LVL349:
	.loc 1 1706 2 is_stmt 1
	.loc 1 1709 2
	.loc 1 1710 2
	.loc 1 1711 2
	.loc 1 1697 16 is_stmt 0
	mv	s6,a0
	.loc 1 1711 5
	bne	s0,zero,.L278
	.loc 1 1711 16 discriminator 1
	lbu	a4,0(s7)
	li	a5,2
	bgtu	a4,a5,.L303
.LVL350:
.L279:
	.loc 1 1717 3 is_stmt 1
	.loc 1 1717 6 is_stmt 0
	lhu	a5,8(s7)
	beq	a5,zero,.L287
	.loc 1 1718 3 is_stmt 1
	.loc 1 1718 16 is_stmt 0
	lw	a4,36(s7)
.L282:
	.loc 1 1718 12
	sw	a4,24(s6)
.LVL351:
	.loc 1 1730 2 is_stmt 1
	.loc 1 1730 12 is_stmt 0
	sw	s0,20(s6)
	.loc 1 1731 2 is_stmt 1
	.loc 1 1731 5 is_stmt 0
	beq	a4,zero,.L287
	.loc 1 1732 2 is_stmt 1
	.loc 1 1733 2
	.loc 1 1733 12 is_stmt 0
	addi	a5,s7,48
	.loc 1 1733 10
	sw	a5,28(s6)
	.loc 1 1735 2 is_stmt 1
	.loc 1 1736 1 is_stmt 0
	lw	ra,44(sp)
	.cfi_remember_state
	.cfi_restore 1
	lw	s0,40(sp)
	.cfi_restore 8
.LVL352:
	lw	s6,16(sp)
	.cfi_restore 22
	lw	s7,12(sp)
	.cfi_restore 23
.LVL353:
	.loc 1 1735 9
	li	a0,0
.LVL354:
	.loc 1 1736 1
	addi	sp,sp,48
	.cfi_def_cfa_offset 0
	jr	ra
.LVL355:
.L303:
	.cfi_restore_state
	.loc 1 1712 3 is_stmt 1
	.loc 1 1712 8 is_stmt 0
	lw	a5,36(s7)
.LVL356:
	.loc 1 1713 3 is_stmt 1
	.loc 1 1716 2
	.loc 1 1716 5 is_stmt 0
	beq	a5,zero,.L279
	mv	s0,a5
.LVL357:
.L278:
	.loc 1 1721 3 is_stmt 1
	.loc 1 1721 9 is_stmt 0
	lhu	a4,10(s7)
.LVL358:
	.loc 1 1722 3 is_stmt 1
	.loc 1 1722 14
	bne	a4,zero,.L283
	.loc 1 1723 4
.LVL359:
.LBB522:
.LBB523:
	.loc 1 1166 2
	.loc 1 1167 2
	.loc 1 1168 2
	.loc 1 1171 2
	.loc 1 1171 5 is_stmt 0
	li	a5,1
	beq	s0,a5,.L287
	sw	s1,36(sp)
	sw	s3,28(sp)
	sw	s4,24(sp)
	sw	s5,20(sp)
	sw	s2,32(sp)
	sw	s8,8(sp)
	.cfi_offset 9, -12
	.cfi_offset 19, -20
	.cfi_offset 20, -24
	.cfi_offset 21, -28
	.cfi_offset 18, -16
	.cfi_offset 24, -40
	.loc 1 1171 5
	mv	s1,s7
	.loc 1 1177 3
	li	s4,2
	li	s5,3
	li	s3,1
.LVL360:
.L292:
	.loc 1 1171 15 discriminator 1
	lw	a4,20(s1)
	bleu	a4,s0,.L302
	.loc 1 1175 3 is_stmt 1
.LVL361:
	.loc 1 1177 3
	.loc 1 1177 13 is_stmt 0
	lbu	a4,0(s1)
	.loc 1 1177 3
	beq	a4,s4,.L285
	beq	a4,s5,.L286
	bne	a4,s3,.L302
	.loc 1 1179 4 is_stmt 1
.LVL362:
	.loc 1 1179 21
	.loc 1 1180 8 is_stmt 0
	lw	a5,32(s1)
	.loc 1 1179 30
	srli	s2,s0,1
	.loc 1 1179 24
	add	s2,s2,s0
.LVL363:
	.loc 1 1180 4 is_stmt 1
	.loc 1 1180 42 is_stmt 0
	srli	a1,s2,9
	.loc 1 1180 8
	add	a1,a1,a5
	mv	a0,s1
	call	move_window
.LVL364:
	.loc 1 1180 7 discriminator 1
	beq	a0,zero,.L288
.LVL365:
.L289:
.LBE523:
.LBE522:
	.loc 1 1736 1
	lw	ra,44(sp)
	.cfi_remember_state
	.cfi_restore 1
	lw	s0,40(sp)
	.cfi_restore 8
.LVL366:
	lw	s1,36(sp)
	.cfi_restore 9
.LVL367:
	lw	s2,32(sp)
	.cfi_restore 18
	lw	s3,28(sp)
	.cfi_restore 19
	lw	s4,24(sp)
	.cfi_restore 20
	lw	s5,20(sp)
	.cfi_restore 21
	lw	s8,8(sp)
	.cfi_restore 24
	lw	s6,16(sp)
	.cfi_restore 22
.LVL368:
	lw	s7,12(sp)
	.cfi_restore 23
.LVL369:
	.loc 1 1724 35 discriminator 1
	li	a0,1
	.loc 1 1736 1
	addi	sp,sp,48
	.cfi_def_cfa_offset 0
	jr	ra
.LVL370:
.L302:
	.cfi_restore_state
	lw	s1,36(sp)
	.cfi_restore 9
	lw	s2,32(sp)
	.cfi_restore 18
	lw	s3,28(sp)
	.cfi_restore 19
	lw	s4,24(sp)
	.cfi_restore 20
	lw	s5,20(sp)
	.cfi_restore 21
	lw	s8,8(sp)
	.cfi_restore 24
.LVL371:
.L287:
	lw	ra,44(sp)
	.cfi_restore 1
	lw	s0,40(sp)
	.cfi_restore 8
	lw	s6,16(sp)
	.cfi_restore 22
.LVL372:
	lw	s7,12(sp)
	.cfi_restore 23
.LVL373:
	.loc 1 1707 10
	li	a0,2
	.loc 1 1736 1
	addi	sp,sp,48
	.cfi_def_cfa_offset 0
	jr	ra
.LVL374:
.L285:
	.cfi_def_cfa_offset 48
	.cfi_offset 1, -4
	.cfi_offset 8, -8
	.cfi_offset 9, -12
	.cfi_offset 18, -16
	.cfi_offset 19, -20
	.cfi_offset 20, -24
	.cfi_offset 21, -28
	.cfi_offset 22, -32
	.cfi_offset 23, -36
	.cfi_offset 24, -40
.LBB532:
.LBB528:
	.loc 1 1188 4 is_stmt 1
	.loc 1 1188 8 is_stmt 0
	lw	a5,32(s1)
	.loc 1 1188 44
	srli	a1,s0,8
	.loc 1 1188 8
	mv	a0,s1
	add	a1,a1,a5
	call	move_window
.LVL375:
	.loc 1 1188 7 discriminator 1
	bne	a0,zero,.L289
	.loc 1 1189 4 is_stmt 1
	.loc 1 1189 33 is_stmt 0
	slli	a4,s0,1
	.loc 1 1189 37
	andi	a4,a4,510
	.loc 1 1189 8 discriminator 1
	add	a4,s1,a4
	lbu	a5,49(a4)
	lbu	s0,48(a4)
.LVL376:
	slli	a5,a5,8
	or	s0,a5,s0
.LVL377:
	.loc 1 1190 4 is_stmt 1
	.loc 1 1228 2
.LBE528:
.LBE532:
	.loc 1 1724 4
.L291:
	.loc 1 1725 4
	.loc 1 1725 7 is_stmt 0
	bleu	s0,s3,.L302
	.loc 1 1725 17 discriminator 2
	lw	a5,20(s7)
	bleu	a5,s0,.L302
	.loc 1 1726 4 is_stmt 1
	.loc 1 1722 14
	.loc 1 1723 4
	lw	s1,0(s6)
.LVL378:
.LBB533:
.LBB529:
	.loc 1 1166 2
	.loc 1 1167 2
	.loc 1 1168 2
	.loc 1 1171 2
	j	.L292
.LVL379:
.L286:
	.loc 1 1193 4
	.loc 1 1193 8 is_stmt 0
	lw	a5,32(s1)
	.loc 1 1193 44
	srli	a1,s0,7
	.loc 1 1193 8
	mv	a0,s1
	add	a1,a1,a5
	call	move_window
.LVL380:
	.loc 1 1193 7 discriminator 1
	bne	a0,zero,.L289
	.loc 1 1194 4 is_stmt 1
.LVL381:
.LBB524:
.LBB525:
	.loc 1 629 2
	.loc 1 631 2
	.loc 1 632 2
	.loc 1 633 2
	.loc 1 634 2
	.loc 1 635 2
.LBE525:
.LBE524:
	.loc 1 1194 34 is_stmt 0
	slli	a4,s0,2
	.loc 1 1194 38
	andi	a4,a4,508
.LBB527:
.LBB526:
	.loc 1 634 5
	add	a4,s1,a4
	lbu	a3,49(a4)
	lbu	a2,48(a4)
	lbu	a5,50(a4)
	lbu	s0,51(a4)
.LVL382:
	slli	a4,a3,8
	or	a4,a4,a2
	slli	a5,a5,16
	or	a5,a5,a4
	slli	s0,s0,24
	or	s0,s0,a5
.LBE526:
.LBE527:
	.loc 1 1194 8 discriminator 1
	slli	s0,s0,4
	srli	s0,s0,4
.LVL383:
	.loc 1 1195 4 is_stmt 1
	.loc 1 1228 2
.LBE529:
.LBE533:
	.loc 1 1724 4
	j	.L291
.LVL384:
.L288:
.LBB534:
.LBB530:
	.loc 1 1181 4
	.loc 1 1182 8 is_stmt 0
	lw	a5,32(s1)
	.loc 1 1181 19
	addi	s8,s2,1
.LVL385:
	.loc 1 1182 42
	srli	a1,s8,9
	.loc 1 1181 22
	andi	s2,s2,511
	.loc 1 1181 16
	add	s2,s1,s2
	.loc 1 1182 8
	add	a1,a1,a5
	mv	a0,s1
	.loc 1 1181 16
	lbu	s2,48(s2)
.LVL386:
	.loc 1 1182 4 is_stmt 1
	.loc 1 1182 8 is_stmt 0
	call	move_window
.LVL387:
	.loc 1 1182 7 discriminator 1
	bne	a0,zero,.L289
	.loc 1 1183 4 is_stmt 1
	.loc 1 1183 21 is_stmt 0
	andi	s8,s8,511
.LVL388:
	.loc 1 1183 17
	add	s8,s1,s8
	.loc 1 1183 31
	lbu	a5,48(s8)
	.loc 1 1184 16
	andi	s0,s0,1
.LVL389:
	.loc 1 1183 31
	slli	a5,a5,8
	.loc 1 1183 7
	or	a5,a5,s2
.LVL390:
	.loc 1 1184 4 is_stmt 1
	.loc 1 1184 33 is_stmt 0
	beq	s0,zero,.L290
	.loc 1 1184 33 discriminator 1
	srli	s0,a5,4
.LVL391:
	.loc 1 1228 2 is_stmt 1
.LBE530:
.LBE534:
	.loc 1 1724 4
	j	.L291
.LVL392:
.L283:
	.cfi_restore 9
	.cfi_restore 18
	.cfi_restore 19
	.cfi_restore 20
	.cfi_restore 21
	.cfi_restore 24
	.loc 1 1728 3
.LBB535:
.LBB536:
	.loc 1 1149 2
	.loc 1 1150 27 is_stmt 0
	lw	a5,20(s7)
	.loc 1 1149 7
	addi	a3,s0,-2
.LVL393:
	.loc 1 1150 2 is_stmt 1
	.loc 1 1150 27 is_stmt 0
	addi	a5,a5,-2
	.loc 1 1150 5
	bgeu	a3,a5,.L304
	.loc 1 1151 2 is_stmt 1
	.loc 1 1151 41 is_stmt 0
	mul	a4,a4,a3
.LVL394:
	.loc 1 1151 22
	lw	a5,40(s7)
	add	a4,a4,a5
.LVL395:
	j	.L282
.LVL396:
.L290:
	.cfi_offset 9, -12
	.cfi_offset 18, -16
	.cfi_offset 19, -20
	.cfi_offset 20, -24
	.cfi_offset 21, -28
	.cfi_offset 24, -40
.LBE536:
.LBE535:
.LBB537:
.LBB531:
	.loc 1 1184 33 discriminator 2
	slli	a5,a5,20
.LVL397:
	srli	s0,a5,20
.LVL398:
	.loc 1 1228 2 is_stmt 1
.LBE531:
.LBE537:
	.loc 1 1724 4
	j	.L291
.LVL399:
.L304:
	.cfi_restore 9
	.cfi_restore 18
	.cfi_restore 19
	.cfi_restore 20
	.cfi_restore 21
	.cfi_restore 24
	.loc 1 1718 12 is_stmt 0
	sw	zero,24(s6)
	.loc 1 1730 2 is_stmt 1
	.loc 1 1730 12 is_stmt 0
	sw	s0,20(s6)
	.loc 1 1731 2 is_stmt 1
	j	.L287
	.cfi_endproc
.LFE62:
	.size	dir_sdi.constprop.0, .-dir_sdi.constprop.0
	.section	.rodata.str1.4
	.align	2
.LC1:
	.string	"*+,:;<=>[]|\"?\177"
	.text
	.align	2
	.type	follow_path, @function
follow_path:
.LFB27:
	.loc 1 3055 1
	.cfi_startproc
.LVL400:
	addi	sp,sp,-80
	.cfi_def_cfa_offset 80
	sw	s0,72(sp)
	sw	s3,60(sp)
	sw	ra,76(sp)
	sw	s1,68(sp)
	sw	s9,36(sp)
	.cfi_offset 8, -8
	.cfi_offset 19, -20
	.cfi_offset 1, -4
	.cfi_offset 9, -12
	.cfi_offset 25, -44
	.loc 1 3058 9 is_stmt 0
	lw	s9,0(a0)
	.loc 1 3055 1
	mv	s0,a0
	.loc 1 3056 2 is_stmt 1
	.loc 1 3057 2
	.loc 1 3058 2
.LVL401:
	.loc 1 3067 3
	.loc 1 3055 1 is_stmt 0
	mv	s3,a1
	.loc 1 3067 10 discriminator 1
	li	a4,47
	.loc 1 3067 10 discriminator 3
	li	a3,92
.LVL402:
.L306:
	.loc 1 3067 30 is_stmt 1 discriminator 4
	.loc 1 3067 10 discriminator 1
	lbu	a5,0(s3)
	beq	a5,a4,.L307
	.loc 1 3067 10 is_stmt 0 discriminator 3
	bne	a5,a3,.L377
.L307:
	.loc 1 3067 34 discriminator 4
	addi	s3,s3,1
.LVL403:
	j	.L306
.LVL404:
.L377:
	.loc 1 3068 3 is_stmt 1
	.loc 1 3068 18 is_stmt 0
	sw	zero,8(s0)
	.loc 1 3087 2 is_stmt 1
	.loc 1 3087 5 is_stmt 0
	lbu	a4,0(s3)
	li	a5,31
	addi	s1,s0,32
	bleu	a4,a5,.L371
	.loc 1 3123 35
	addi	a5,s9,48
	sw	s2,64(sp)
	sw	s7,44(sp)
	sw	s8,40(sp)
	sw	s4,56(sp)
	sw	s5,52(sp)
	sw	s6,48(sp)
	sw	s10,32(sp)
	sw	s11,28(sp)
	.cfi_offset 18, -16
	.cfi_offset 23, -36
	.cfi_offset 24, -40
	.cfi_offset 20, -24
	.cfi_offset 21, -28
	.cfi_offset 22, -32
	.cfi_offset 26, -48
	.cfi_offset 27, -52
.LBB568:
.LBB569:
	.loc 1 2987 2
	li	s2,32
	.loc 1 3005 7 discriminator 1
	li	s7,92
	.loc 1 3009 6
	li	s8,46
.LBE569:
.LBE568:
	.loc 1 3123 35
	sw	a5,0(sp)
.LVL405:
.L308:
	.loc 1 3092 3 is_stmt 1
	.loc 1 3093 4
.LBB577:
.LBB574:
	.loc 1 2980 2
	.loc 1 2981 2
	.loc 1 2982 2
	.loc 1 2983 2
	.loc 1 2986 2
	.loc 1 2986 13
	.loc 1 2987 2
	sb	s2,0(s1)
	sb	s2,1(s1)
	sb	s2,2(s1)
	sb	s2,3(s1)
	sb	s2,4(s1)
	sb	s2,5(s1)
	sb	s2,6(s1)
	sb	s2,7(s1)
	sb	s2,8(s1)
	sb	s2,9(s1)
	sb	s2,10(s1)
	.loc 1 2988 2
.LVL406:
	.loc 1 2988 14
	.loc 1 3002 2
	.loc 1 3003 3
	.loc 1 3003 5 is_stmt 0
	lbu	s4,0(s3)
.LVL407:
	.loc 1 3004 3 is_stmt 1
	.loc 1 3004 6 is_stmt 0
	bleu	s4,s2,.L309
	.loc 1 2988 9
	li	s6,0
	.loc 1 2988 17
	li	s11,8
	.loc 1 3003 17
	li	s5,1
	.loc 1 2988 5
	li	a4,0
	.loc 1 3005 6
	li	s10,47
.LVL408:
.L310:
	.loc 1 3005 3 is_stmt 1
	.loc 1 3005 6 is_stmt 0
	beq	s4,s10,.L312
.L380:
	.loc 1 3005 7 discriminator 1
	beq	s4,s7,.L312
	.loc 1 3009 3 is_stmt 1
	.loc 1 3009 6 is_stmt 0
	beq	s4,s8,.L378
	.loc 1 3009 16 discriminator 1
	bgeu	s6,s11,.L309
	.loc 1 3023 3 is_stmt 1
.LVL409:
.LBB570:
.LBB571:
	.loc 1 700 2
	.loc 1 700 5 is_stmt 0
	li	a5,128
	bleu	s4,a5,.L319
	.loc 1 701 3 is_stmt 1
	.loc 1 701 6 is_stmt 0
	li	a5,159
	bleu	s4,a5,.L320
	.loc 1 702 3 is_stmt 1
	.loc 1 702 6 is_stmt 0
	li	a5,223
	bleu	s4,a5,.L321
	.loc 1 702 22 discriminator 1
	li	a5,252
	bleu	s4,a5,.L320
.LVL410:
.LBE571:
.LBE570:
	.loc 1 3029 4 is_stmt 1
	.loc 1 3029 8 is_stmt 0
	lui	a0,%hi(.LC1)
	mv	a1,s4
	addi	a0,a0,%lo(.LC1)
	call	strchr
.LVL411:
	.loc 1 3029 7 discriminator 1
	beq	a0,zero,.L324
.LVL412:
.L309:
.LBE574:
.LBE577:
	.loc 1 3093 10
	li	s4,6
.LVL413:
.L305:
	.loc 1 3129 1
	lw	ra,76(sp)
	.cfi_remember_state
	.cfi_restore 1
	lw	s0,72(sp)
	.cfi_restore 8
.LVL414:
	lw	s2,64(sp)
	.cfi_restore 18
	lw	s5,52(sp)
	.cfi_restore 21
	lw	s6,48(sp)
	.cfi_restore 22
	lw	s7,44(sp)
	.cfi_restore 23
	lw	s8,40(sp)
	.cfi_restore 24
	lw	s10,32(sp)
	.cfi_restore 26
	lw	s11,28(sp)
	.cfi_restore 27
	lw	s1,68(sp)
	.cfi_restore 9
.LVL415:
	lw	s3,60(sp)
	.cfi_restore 19
	lw	s9,36(sp)
	.cfi_restore 25
.LVL416:
	mv	a0,s4
	lw	s4,56(sp)
	.cfi_restore 20
	addi	sp,sp,80
	.cfi_def_cfa_offset 0
.LVL417:
	jr	ra
.LVL418:
.L320:
	.cfi_restore_state
.LBB578:
.LBB575:
	.loc 1 3024 4 is_stmt 1
	.loc 1 3024 6 is_stmt 0
	add	a5,s3,s5
	lbu	a5,0(a5)
.LVL419:
	.loc 1 3025 4 is_stmt 1
.LBB572:
.LBB573:
	.loc 1 721 2
	.loc 1 721 5 is_stmt 0
	li	a1,63
	bleu	a5,a1,.L309
	.loc 1 722 3 is_stmt 1
	.loc 1 722 6 is_stmt 0
	li	a1,126
	bleu	a5,a1,.L323
	.loc 1 723 3 is_stmt 1
	.loc 1 723 6 is_stmt 0
	xori	a1,a5,128
	li	a0,124
	bgtu	a1,a0,.L309
.L323:
.LVL420:
.LBE573:
.LBE572:
	.loc 1 3025 31 discriminator 2
	addi	a1,s11,-1
	.loc 1 3025 20 discriminator 2
	bleu	a1,s6,.L309
	.loc 1 3026 9
	addi	a1,s6,1
	.loc 1 3026 13
	add	a0,s1,s6
	sb	s4,0(a0)
	.loc 1 3024 18
	addi	a4,a4,2
.LVL421:
	.loc 1 3026 4 is_stmt 1
	.loc 1 3027 4
	.loc 1 3027 13 is_stmt 0
	add	a1,s1,a1
.LVL422:
	sb	a5,0(a1)
	.loc 1 3003 5
	add	a5,s3,a4
.LVL423:
	lbu	s4,0(a5)
.LVL424:
	.loc 1 3027 9
	addi	s6,s6,2
.LVL425:
	.loc 1 3002 2 is_stmt 1
	.loc 1 3003 3
	.loc 1 3003 17 is_stmt 0
	addi	s5,a4,1
.LVL426:
	.loc 1 3004 3 is_stmt 1
	.loc 1 3004 6 is_stmt 0
	bgtu	s4,s2,.L310
.LVL427:
.L311:
	.loc 1 3037 5
	lbu	a4,32(s0)
	li	a5,229
	.loc 1 3034 10
	add	s3,s3,s5
.LVL428:
	.loc 1 3034 2 is_stmt 1
	.loc 1 3035 2
	.loc 1 3037 2
	.loc 1 3037 5 is_stmt 0
	beq	a4,a5,.L379
	.loc 1 3038 14 discriminator 3
	li	a5,4
	j	.L328
.LVL429:
.L378:
	.loc 1 3010 4 is_stmt 1
	.loc 1 3010 7 is_stmt 0
	li	a5,11
	beq	s11,a5,.L309
	.loc 1 3003 17
	mv	a4,s5
	.loc 1 3011 6
	li	s6,8
.LVL430:
	.loc 1 3011 14
	li	s11,11
.LVL431:
.L318:
	.loc 1 3002 2 is_stmt 1
	.loc 1 3003 3
	.loc 1 3003 5 is_stmt 0
	add	a5,s3,a4
	lbu	s4,0(a5)
.LVL432:
	.loc 1 3003 17
	addi	s5,a4,1
.LVL433:
	.loc 1 3004 3 is_stmt 1
	.loc 1 3004 6 is_stmt 0
	bleu	s4,s2,.L311
	.loc 1 3005 3 is_stmt 1
	.loc 1 3005 6 is_stmt 0
	bne	s4,s10,.L380
.L312:
	add	a5,s3,s5
	.loc 1 3006 11 discriminator 1
	li	a3,47
	.loc 1 3006 11 discriminator 3
	li	a2,92
.LVL434:
.L314:
	.loc 1 3006 31 is_stmt 1 discriminator 4
	.loc 1 3006 11 discriminator 1
	lbu	a4,0(a5)
	mv	s3,a5
	beq	a4,a3,.L315
	.loc 1 3006 11 is_stmt 0 discriminator 3
	bne	a4,a2,.L381
.L315:
	addi	a5,a5,1
.LVL435:
	j	.L314
.LVL436:
.L319:
	.loc 1 3029 4 is_stmt 1
	.loc 1 3029 8 is_stmt 0
	lui	a5,%hi(.LC1)
	mv	a1,s4
	addi	a0,a5,%lo(.LC1)
	call	strchr
.LVL437:
	.loc 1 3029 7 discriminator 1
	bne	a0,zero,.L309
	.loc 1 3030 4 is_stmt 1
	.loc 1 3030 8 is_stmt 0
	addi	a5,s4,-97
	.loc 1 3030 7
	andi	a5,a5,0xff
	li	a4,25
	bgtu	a5,a4,.L324
	.loc 1 3030 20 is_stmt 1 discriminator 1
	.loc 1 3030 22 is_stmt 0 discriminator 1
	addi	s4,s4,-32
.LVL438:
	andi	s4,s4,0xff
.LVL439:
.L324:
	.loc 1 3031 4 is_stmt 1
	.loc 1 3031 13 is_stmt 0
	add	a5,s1,s6
	sb	s4,0(a5)
	.loc 1 3031 9
	addi	s6,s6,1
.LVL440:
	.loc 1 3003 17
	mv	a4,s5
	j	.L318
.LVL441:
.L321:
	.loc 1 3029 4 is_stmt 1
	.loc 1 3029 8 is_stmt 0
	lui	a5,%hi(.LC1)
	mv	a1,s4
	addi	a0,a5,%lo(.LC1)
	call	strchr
.LVL442:
	.loc 1 3029 7 discriminator 1
	beq	a0,zero,.L324
	j	.L309
.LVL443:
.L381:
	.loc 1 3034 2 is_stmt 1
	.loc 1 3035 2
	.loc 1 3035 5 is_stmt 0
	beq	s6,zero,.L309
	.loc 1 3037 2 is_stmt 1
	.loc 1 3037 5 is_stmt 0
	lbu	a3,32(s0)
	li	a4,229
	beq	a3,a4,.L382
.L356:
	.loc 1 3038 26 discriminator 2
	lbu	a5,0(a5)
.LVL444:
	sltiu	a5,a5,33
	slli	a5,a5,2
.L328:
	.loc 1 3038 14 discriminator 6
	sb	a5,43(s0)
	.loc 1 3040 2 is_stmt 1
.LVL445:
.LBE575:
.LBE578:
	.loc 1 3094 4
	.loc 1 3095 4
.LBB579:
.LBB580:
	.loc 1 2388 2
	.loc 1 2389 2
	.loc 1 2395 8 is_stmt 0
	mv	a0,s0
	.loc 1 2389 9
	lw	s11,0(s0)
.LVL446:
	.loc 1 2390 2 is_stmt 1
	.loc 1 2395 2
	.loc 1 2395 8 is_stmt 0
	call	dir_sdi.constprop.0
.LVL447:
	mv	s4,a0
.LVL448:
	.loc 1 2396 2 is_stmt 1
	.loc 1 2396 5 is_stmt 0
	bne	a0,zero,.L342
	.loc 1 2422 9
	lw	s10,24(s0)
.LBB581:
.LBB582:
.LBB583:
.LBB584:
	.loc 1 1063 30
	addi	s6,s11,48
.LBE584:
.LBE583:
.LBE582:
.LBE581:
.LBB596:
.LBB597:
	.loc 1 1755 5
	li	s5,2097152
.LVL449:
.L349:
.LBE597:
.LBE596:
	.loc 1 2421 2 is_stmt 1
	.loc 1 2422 3
.LBB605:
.LBB593:
	.loc 1 1082 2
	.loc 1 1085 2
	.loc 1 1085 16 is_stmt 0
	lw	a2,44(s11)
	.loc 1 1085 5
	beq	a2,s10,.L330
	.loc 1 1087 3 is_stmt 1
.LVL450:
.LBB587:
.LBB585:
	.loc 1 1059 2
	.loc 1 1062 2
	.loc 1 1062 5 is_stmt 0
	lbu	a5,4(s11)
	.loc 1 1063 7
	lbu	a0,1(s11)
	.loc 1 1062 5
	bne	a5,zero,.L383
.LVL451:
.L332:
.LBE585:
.LBE587:
.LBB588:
.LBB589:
	.loc 1 1090 4 is_stmt 1
	.loc 1 1090 8 is_stmt 0
	li	a3,1
	mv	a2,s10
	mv	a1,s6
	call	disk_read
.LVL452:
	.loc 1 1090 7 discriminator 1
	beq	a0,zero,.L335
	.loc 1 1091 5 is_stmt 1
.LVL453:
	.loc 1 1092 5
	.loc 1 1094 4
	.loc 1 1094 16 is_stmt 0
	li	a5,-1
	sw	a5,44(s11)
	.loc 1 1097 2 is_stmt 1
.LVL454:
.LBE589:
.LBE588:
	.loc 1 1097 2
.LBE593:
.LBE605:
	.loc 1 2423 3
.LBE580:
.LBE579:
	.loc 1 3096 4
	.loc 1 3097 4
	.loc 1 3098 5
.LBB618:
.LBB613:
	.loc 1 2422 9 is_stmt 0
	li	s4,1
	j	.L305
.LVL455:
.L335:
.LBB606:
.LBB594:
.LBB591:
.LBB590:
	.loc 1 1094 4 is_stmt 1
	.loc 1 1094 16 is_stmt 0
	sw	s10,44(s11)
	.loc 1 1097 2 is_stmt 1
.LVL456:
.LBE590:
.LBE591:
	.loc 1 1097 2
.LBE594:
.LBE606:
	.loc 1 2423 3
.L330:
	.loc 1 2424 3
	.loc 1 2424 9 is_stmt 0
	lw	a0,28(s0)
.LVL457:
	.loc 1 2425 3 is_stmt 1
	.loc 1 2425 6 is_stmt 0
	lbu	a5,0(a0)
	beq	a5,zero,.L338
	.loc 1 2448 3 is_stmt 1
	.loc 1 2448 25 is_stmt 0
	lbu	s10,11(a0)
	.loc 1 2448 36
	andi	a5,s10,63
	.loc 1 2448 16
	sb	a5,6(s0)
.LVL458:
	.loc 1 2449 3 is_stmt 1
	.loc 1 2449 6 is_stmt 0
	lbu	a5,11(a0)
	andi	a5,a5,8
	bne	a5,zero,.L339
	.loc 1 2449 41 discriminator 1
	li	a2,11
	mv	a1,s1
	call	memcmp
.LVL459:
	.loc 1 2449 37 discriminator 1
	beq	a0,zero,.L340
.L339:
	.loc 1 2451 3 is_stmt 1
.LVL460:
.LBB607:
.LBB600:
	.loc 1 1750 2
	.loc 1 1751 2
	.loc 1 1754 6 is_stmt 0
	lw	a5,16(s0)
	.loc 1 1751 9
	lw	a4,0(s0)
.LVL461:
	.loc 1 1754 2 is_stmt 1
	.loc 1 1754 6 is_stmt 0
	addi	a5,a5,32
.LVL462:
	.loc 1 1755 2 is_stmt 1
	.loc 1 1755 5 is_stmt 0
	bltu	a5,s5,.L341
	.loc 1 1755 87 is_stmt 1 discriminator 1
	.loc 1 1755 96 is_stmt 0 discriminator 1
	sw	zero,24(s0)
	.loc 1 1756 2 is_stmt 1
.LVL463:
.L338:
.LBE600:
.LBE607:
	.loc 1 2451 9 is_stmt 0
	li	s4,4
.LVL464:
.L342:
.LBE613:
.LBE618:
	.loc 1 3096 4 is_stmt 1
	.loc 1 3098 8 is_stmt 0
	li	a4,4
	.loc 1 3096 7
	lbu	a5,43(s0)
.LVL465:
	.loc 1 3097 4 is_stmt 1
	.loc 1 3098 5
	.loc 1 3098 8 is_stmt 0
	bne	s4,a4,.L305
.LVL466:
.L354:
	.loc 1 3099 6 is_stmt 1
	.loc 1 3104 7
	.loc 1 3104 10 is_stmt 0
	andi	a5,a5,4
.LVL467:
	.loc 1 3095 10
	li	s4,4
	.loc 1 3104 10
	bne	a5,zero,.L305
.LVL468:
.L352:
	.loc 1 3104 32 discriminator 1
	li	s4,5
	j	.L305
.LVL469:
.L341:
.LBB619:
.LBB614:
.LBB608:
.LBB601:
	.loc 1 1756 2 is_stmt 1
	.loc 1 1756 8 is_stmt 0
	lw	s10,24(s0)
	.loc 1 1756 5
	beq	s10,zero,.L338
	.loc 1 1758 2 is_stmt 1
	.loc 1 1758 10 is_stmt 0
	andi	a3,a5,511
	.loc 1 1758 5
	bne	a3,zero,.L344
	.loc 1 1759 3 is_stmt 1
	.loc 1 1761 9 is_stmt 0
	lw	a1,20(s0)
	.loc 1 1759 11
	addi	s10,s10,1
	sw	s10,24(s0)
	.loc 1 1761 3 is_stmt 1
	.loc 1 1761 6 is_stmt 0
	bne	a1,zero,.L345
	.loc 1 1762 4 is_stmt 1
	.loc 1 1762 26 is_stmt 0
	lhu	a2,8(a4)
	.loc 1 1762 12
	srli	a1,a5,5
	.loc 1 1762 7
	bgeu	a1,a2,.L376
.LVL470:
.L344:
	.loc 1 1792 2 is_stmt 1
	.loc 1 1793 12 is_stmt 0
	addi	a4,a4,48
	.loc 1 1793 20
	add	a4,a4,a3
	.loc 1 1792 11
	sw	a5,16(s0)
	.loc 1 1793 2 is_stmt 1
	.loc 1 1793 10 is_stmt 0
	sw	a4,28(s0)
	.loc 1 1795 2 is_stmt 1
.LVL471:
.LBE601:
.LBE608:
	.loc 1 2452 15
	j	.L349
.LVL472:
.L345:
.LBB609:
.LBB602:
	.loc 1 1767 4
	.loc 1 1767 27 is_stmt 0
	lhu	a2,10(a4)
	.loc 1 1767 13
	srli	a0,a5,9
	.loc 1 1767 35
	addi	a2,a2,-1
	.loc 1 1767 22
	and	a2,a2,a0
	.loc 1 1767 7
	bne	a2,zero,.L344
	.loc 1 1768 12
	mv	a0,a4
	sw	a3,12(sp)
	sw	a5,8(sp)
	.loc 1 1768 5 is_stmt 1
	.loc 1 1768 12 is_stmt 0
	sw	a4,4(sp)
	call	get_fat.isra.0
.LVL473:
	.loc 1 1769 5 is_stmt 1
	.loc 1 1769 8 is_stmt 0
	li	a2,1
	bleu	a0,a2,.L357
	.loc 1 1770 5 is_stmt 1
	.loc 1 1770 8 is_stmt 0
	li	a2,-1
	beq	a0,a2,.L333
	.loc 1 1771 5 is_stmt 1
	.loc 1 1771 8 is_stmt 0
	lw	a4,4(sp)
	lw	a5,8(sp)
	lw	a3,12(sp)
	lw	a2,20(a4)
	bgeu	a0,a2,.L376
	.loc 1 1787 5 is_stmt 1
	.loc 1 1787 15 is_stmt 0
	sw	a0,20(s0)
	.loc 1 1788 5 is_stmt 1
.LVL474:
.LBB598:
.LBB599:
	.loc 1 1149 2
	.loc 1 1150 27 is_stmt 0
	lw	a2,20(a4)
	.loc 1 1149 7
	addi	a0,a0,-2
.LVL475:
	.loc 1 1150 2 is_stmt 1
	.loc 1 1150 39 is_stmt 0 discriminator 1
	li	s10,0
	.loc 1 1150 27
	addi	a2,a2,-2
	.loc 1 1150 5
	bgeu	a0,a2,.L348
	.loc 1 1151 2 is_stmt 1
	.loc 1 1151 24 is_stmt 0
	lhu	a7,10(a4)
	.loc 1 1151 22
	lw	a2,40(a4)
	.loc 1 1151 41
	mul	a7,a7,a0
	.loc 1 1151 22
	add	s10,a7,a2
.L348:
.LVL476:
.LBE599:
.LBE598:
	.loc 1 1788 14 discriminator 1
	sw	s10,24(s0)
	j	.L344
.LVL477:
.L383:
.LBE602:
.LBE609:
.LBB610:
.LBB595:
.LBB592:
.LBB586:
	.loc 1 1063 3 is_stmt 1
	.loc 1 1063 7 is_stmt 0
	li	a3,1
	mv	a1,s6
	call	disk_write
.LVL478:
	.loc 1 1063 6 discriminator 1
	bne	a0,zero,.L333
	.loc 1 1064 4 is_stmt 1
	.loc 1 1065 10 is_stmt 0
	lw	a2,44(s11)
	.loc 1 1065 20
	lw	a5,32(s11)
	.loc 1 1065 38
	lw	a4,24(s11)
	.loc 1 1064 14
	sb	zero,4(s11)
	.loc 1 1065 4 is_stmt 1
	.loc 1 1065 20 is_stmt 0
	sub	a5,a2,a5
	.loc 1 1066 26 discriminator 1
	lbu	a0,1(s11)
	.loc 1 1065 7
	bgeu	a5,a4,.L332
	.loc 1 1066 5 is_stmt 1
	.loc 1 1066 8 is_stmt 0
	lbu	a3,3(s11)
	li	a5,2
	bne	a3,a5,.L332
	.loc 1 1066 26 is_stmt 1 discriminator 1
	li	a3,1
	add	a2,a2,a4
	mv	a1,s6
	call	disk_write
.LVL479:
	.loc 1 1072 2
.LBE586:
.LBE592:
	.loc 1 1089 3
	lbu	a0,1(s11)
	j	.L332
.LVL480:
.L340:
.LBE595:
.LBE610:
.LBE614:
.LBE619:
	.loc 1 3096 4
	.loc 1 3097 4
	.loc 1 3109 4
	.loc 1 3109 7 is_stmt 0
	lbu	a5,43(s0)
	andi	a5,a5,4
	bne	a5,zero,.L305
	.loc 1 3111 4 is_stmt 1
	.loc 1 3111 7 is_stmt 0
	andi	a4,s10,16
	beq	a4,zero,.L352
	.loc 1 3123 5 is_stmt 1
	.loc 1 3123 54 is_stmt 0
	lw	a5,16(s0)
	.loc 1 3123 22
	lw	a4,0(sp)
.LBB620:
.LBB621:
	.loc 1 1856 5
	lbu	a2,0(s9)
.LBE621:
.LBE620:
	.loc 1 3123 54
	andi	a5,a5,511
	.loc 1 3123 22
	add	a5,a4,a5
.LVL481:
.LBB624:
.LBB622:
	.loc 1 1853 2 is_stmt 1
	.loc 1 1855 2
	.loc 1 1855 5 is_stmt 0 discriminator 1
	lbu	a4,27(a5)
	lbu	a1,26(a5)
	.loc 1 1856 5
	li	a3,3
	.loc 1 1855 5 discriminator 1
	slli	a4,a4,8
	or	a4,a4,a1
.LVL482:
	.loc 1 1856 2 is_stmt 1
	.loc 1 1856 5 is_stmt 0
	beq	a2,a3,.L384
	.loc 1 1860 2 is_stmt 1
.LVL483:
.LBE622:
.LBE624:
	.loc 1 3123 20 is_stmt 0 discriminator 1
	sw	a4,8(s0)
.LVL484:
	.loc 1 3092 3 is_stmt 1
	.loc 1 3093 8 is_stmt 0
	j	.L308
.LVL485:
.L384:
.LBB625:
.LBB623:
	.loc 1 1857 3 is_stmt 1
	.loc 1 1857 9 is_stmt 0 discriminator 1
	lbu	a3,21(a5)
	lbu	a2,20(a5)
	slli	a5,a3,8
.LVL486:
	or	a5,a5,a2
	.loc 1 1857 45 discriminator 1
	slli	a5,a5,16
	.loc 1 1857 6 discriminator 1
	or	a4,a4,a5
.LVL487:
	.loc 1 1860 2 is_stmt 1
.LBE623:
.LBE625:
	.loc 1 3123 20 is_stmt 0 discriminator 1
	sw	a4,8(s0)
.LVL488:
	.loc 1 3092 3 is_stmt 1
	j	.L308
.LVL489:
.L333:
.LBB626:
.LBB615:
	.loc 1 2422 9 is_stmt 0
	li	s4,1
	j	.L342
.LVL490:
.L376:
.LBB611:
.LBB603:
	.loc 1 1773 6 is_stmt 1
	.loc 1 1774 7
.LBE603:
.LBE611:
.LBE615:
.LBE626:
	.loc 1 3096 7 is_stmt 0
	lbu	a5,43(s0)
.LBB627:
.LBB616:
.LBB612:
.LBB604:
	.loc 1 1774 16
	sw	zero,24(s0)
	.loc 1 1774 21 is_stmt 1
.LVL491:
.LBE604:
.LBE612:
	.loc 1 2452 15
.LBE616:
.LBE627:
	.loc 1 3096 4
	.loc 1 3097 4
	j	.L354
.LVL492:
.L357:
.LBB628:
.LBB617:
	.loc 1 2451 9 is_stmt 0
	li	s4,2
	j	.L342
.LVL493:
.L371:
	.cfi_restore 18
	.cfi_restore 20
	.cfi_restore 21
	.cfi_restore 22
	.cfi_restore 23
	.cfi_restore 24
	.cfi_restore 26
	.cfi_restore 27
.LBE617:
.LBE628:
	.loc 1 3088 3 is_stmt 1
	.loc 1 3088 18 is_stmt 0
	li	a5,-128
	sb	a5,43(s0)
	.loc 1 3089 3 is_stmt 1
	.loc 1 3089 9 is_stmt 0
	mv	a0,s0
	.loc 1 3129 1
	lw	s0,72(sp)
	.cfi_restore 8
.LVL494:
	lw	ra,76(sp)
	.cfi_restore 1
	lw	s1,68(sp)
	.cfi_restore 9
.LVL495:
	lw	s3,60(sp)
	.cfi_restore 19
.LVL496:
	lw	s9,36(sp)
	.cfi_restore 25
.LVL497:
	addi	sp,sp,80
	.cfi_def_cfa_offset 0
	.loc 1 3089 9
	tail	dir_sdi.constprop.0
.LVL498:
.L382:
	.cfi_def_cfa_offset 80
	.cfi_offset 1, -4
	.cfi_offset 8, -8
	.cfi_offset 9, -12
	.cfi_offset 18, -16
	.cfi_offset 19, -20
	.cfi_offset 20, -24
	.cfi_offset 21, -28
	.cfi_offset 22, -32
	.cfi_offset 23, -36
	.cfi_offset 24, -40
	.cfi_offset 25, -44
	.cfi_offset 26, -48
	.cfi_offset 27, -52
.LBB629:
.LBB576:
	.loc 1 3037 22 is_stmt 1 discriminator 1
	.loc 1 3037 29 is_stmt 0 discriminator 1
	li	a4,5
	sb	a4,32(s0)
	.loc 1 3038 2 is_stmt 1
	j	.L356
.LVL499:
.L379:
	.loc 1 3037 22 discriminator 1
	.loc 1 3037 29 is_stmt 0 discriminator 1
	li	a5,5
	sb	a5,32(s0)
	.loc 1 3038 2 is_stmt 1
	.loc 1 3038 14 is_stmt 0 discriminator 3
	li	a5,4
	j	.L328
.LBE576:
.LBE629:
	.cfi_endproc
.LFE27:
	.size	follow_path, .-follow_path
	.align	2
	.type	create_chain, @function
create_chain:
.LFB14:
	.loc 1 1528 1 is_stmt 1
	.cfi_startproc
.LVL500:
	.loc 1 1529 2
	.loc 1 1530 2
	.loc 1 1531 2
	.loc 1 1528 1 is_stmt 0
	addi	sp,sp,-48
	.cfi_def_cfa_offset 48
	sw	s2,32(sp)
	sw	s6,16(sp)
	sw	ra,44(sp)
	sw	s0,40(sp)
	sw	s1,36(sp)
	sw	s3,28(sp)
	sw	s4,24(sp)
	.cfi_offset 18, -16
	.cfi_offset 22, -32
	.cfi_offset 1, -4
	.cfi_offset 8, -8
	.cfi_offset 9, -12
	.cfi_offset 19, -20
	.cfi_offset 20, -24
	.loc 1 1531 9
	lw	s1,0(a0)
.LVL501:
	.loc 1 1534 2 is_stmt 1
	.loc 1 1528 1 is_stmt 0
	mv	s2,a0
	mv	s6,a1
	.loc 1 1534 5
	bne	a1,zero,.L386
	.loc 1 1535 3 is_stmt 1
	.loc 1 1535 7 is_stmt 0
	lw	s4,12(s1)
.LVL502:
	.loc 1 1536 3 is_stmt 1
	.loc 1 1545 8 is_stmt 0
	lw	a5,16(s1)
	.loc 1 1536 6
	bne	s4,zero,.L464
.L387:
	.loc 1 1536 40 is_stmt 1 discriminator 3
.LVL503:
	.loc 1 1545 2
	.loc 1 1545 5 is_stmt 0
	beq	a5,zero,.L389
.LVL504:
	.loc 1 1586 3 is_stmt 1
	.loc 1 1588 4
	.loc 1 1589 5
	.loc 1 1590 5
	.loc 1 1590 8 is_stmt 0
	lw	a4,20(s1)
	li	a5,2
	bgtu	a4,a5,.L465
.LVL505:
.L389:
	.loc 1 1545 33 discriminator 1
	li	s0,0
.L385:
	.loc 1 1615 1
	lw	ra,44(sp)
	.cfi_remember_state
	.cfi_restore 1
	mv	a0,s0
	lw	s0,40(sp)
	.cfi_restore 8
	lw	s1,36(sp)
	.cfi_restore 9
.LVL506:
	lw	s2,32(sp)
	.cfi_restore 18
.LVL507:
	lw	s3,28(sp)
	.cfi_restore 19
	lw	s4,24(sp)
	.cfi_restore 20
	lw	s6,16(sp)
	.cfi_restore 22
.LVL508:
	addi	sp,sp,48
	.cfi_def_cfa_offset 0
	jr	ra
.LVL509:
.L464:
	.cfi_restore_state
	.loc 1 1536 28 discriminator 2
	lw	a4,20(s1)
	.loc 1 1536 16 discriminator 2
	bleu	a4,s4,.L387
	.loc 1 1545 2 is_stmt 1
	.loc 1 1545 5 is_stmt 0
	beq	a5,zero,.L389
.LVL510:
	.loc 1 1588 4 is_stmt 1
	.loc 1 1589 5
	.loc 1 1589 8 is_stmt 0
	addi	s0,s4,1
.LVL511:
	.loc 1 1590 5 is_stmt 1
	.loc 1 1590 8 is_stmt 0
	bgtu	a4,s0,.L466
.LVL512:
.L415:
	.loc 1 1591 6 is_stmt 1
	.loc 1 1592 6
	.loc 1 1592 9 is_stmt 0
	li	a5,1
	beq	s4,a5,.L389
	sw	s5,20(sp)
.LVL513:
	.cfi_offset 21, -28
.L421:
	.loc 1 1594 5 is_stmt 1
	lw	s3,0(s2)
.LVL514:
.LBB640:
.LBB641:
	.loc 1 1166 2
	.loc 1 1167 2
	.loc 1 1168 2
	.loc 1 1171 2
.LBE641:
.LBE640:
	.loc 1 1591 10 is_stmt 0
	li	s0,2
.LVL515:
.L403:
.LBB654:
.LBB646:
	.loc 1 1171 15 discriminator 1
	lw	a5,20(s3)
	bleu	a5,s0,.L457
	.loc 1 1175 3 is_stmt 1
.LVL516:
	.loc 1 1177 3
	.loc 1 1177 13 is_stmt 0
	lbu	s5,0(s3)
	.loc 1 1177 3
	li	a5,2
	beq	s5,a5,.L405
	li	a5,3
	beq	s5,a5,.L406
	li	a5,1
	bne	s5,a5,.L457
	.loc 1 1179 4 is_stmt 1
.LVL517:
	.loc 1 1179 21
	sw	s7,12(sp)
	.loc 1 1180 8 is_stmt 0
	lw	a5,32(s3)
	.cfi_offset 23, -36
	.loc 1 1179 30
	srli	s7,s0,1
	.loc 1 1179 24
	add	s7,s7,s0
.LVL518:
	.loc 1 1180 4 is_stmt 1
	.loc 1 1180 42 is_stmt 0
	srli	a1,s7,9
	.loc 1 1180 8
	add	a1,a1,a5
	mv	a0,s3
	call	move_window
.LVL519:
	.loc 1 1180 7 discriminator 1
	bne	a0,zero,.L453
	.loc 1 1181 4 is_stmt 1
	sw	s8,8(sp)
	.loc 1 1182 8 is_stmt 0
	lw	a5,32(s3)
	.cfi_offset 24, -40
	.loc 1 1181 19
	addi	s8,s7,1
.LVL520:
	.loc 1 1182 42
	srli	a1,s8,9
	.loc 1 1181 22
	andi	s7,s7,511
	.loc 1 1181 16
	add	s7,s3,s7
	.loc 1 1182 8
	add	a1,a1,a5
	mv	a0,s3
	.loc 1 1181 16
	lbu	s7,48(s7)
.LVL521:
	.loc 1 1182 4 is_stmt 1
	.loc 1 1182 8 is_stmt 0
	call	move_window
.LVL522:
	.loc 1 1182 7 discriminator 1
	bne	a0,zero,.L454
	.loc 1 1183 4 is_stmt 1
	.loc 1 1183 21 is_stmt 0
	andi	s8,s8,511
.LVL523:
	.loc 1 1183 17
	add	s8,s3,s8
	.loc 1 1183 31
	lbu	a5,48(s8)
	.loc 1 1184 16
	andi	a4,s0,1
	.loc 1 1183 31
	slli	a5,a5,8
	.loc 1 1183 7
	or	a5,a5,s7
.LVL524:
	.loc 1 1184 4 is_stmt 1
	.loc 1 1184 33 is_stmt 0
	beq	a4,zero,.L408
	.loc 1 1184 33 discriminator 1
	srli	a5,a5,4
.LVL525:
	.loc 1 1228 2 is_stmt 1
.LBE646:
.LBE654:
	.loc 1 1595 5
	.loc 1 1595 8 is_stmt 0
	beq	a5,zero,.L463
	.loc 1 1596 5 is_stmt 1
	.loc 1 1596 8 is_stmt 0
	bne	a5,s5,.L459
.LVL526:
.L461:
	lw	s5,20(sp)
	.cfi_restore 21
	lw	s7,12(sp)
	.cfi_restore 23
	lw	s8,8(sp)
	.cfi_restore 24
.L407:
	.loc 1 1540 22 discriminator 1
	li	s0,1
	j	.L385
.LVL527:
.L386:
	.loc 1 1539 3 is_stmt 1
	.loc 1 1539 8 is_stmt 0
	mv	a0,s1
.LVL528:
	call	get_fat.isra.0
.LVL529:
	.loc 1 1540 6
	li	a5,1
	.loc 1 1539 8
	mv	s0,a0
.LVL530:
	.loc 1 1540 3 is_stmt 1
	.loc 1 1540 6 is_stmt 0
	bleu	a0,a5,.L407
	.loc 1 1541 3 is_stmt 1
	.loc 1 1541 6 is_stmt 0
	li	a5,-1
	beq	a0,a5,.L394
	.loc 1 1542 3 is_stmt 1
	.loc 1 1542 14 is_stmt 0
	lw	a5,20(s1)
	.loc 1 1542 6
	bgtu	a5,a0,.L385
.LVL531:
	.loc 1 1545 2 is_stmt 1
	.loc 1 1545 5 is_stmt 0
	lw	a4,16(s1)
	beq	a4,zero,.L389
	.loc 1 1574 3 is_stmt 1
.LVL532:
	.loc 1 1575 3
	.loc 1 1576 4
	.loc 1 1576 8 is_stmt 0
	addi	s3,s6,1
	mv	s0,s3
.LVL533:
	.loc 1 1577 4 is_stmt 1
	.loc 1 1577 7 is_stmt 0
	bgtu	a5,s3,.L395
	.loc 1 1577 33 discriminator 1
	li	s0,2
.LVL534:
.L395:
	.loc 1 1578 4 is_stmt 1
	.loc 1 1578 9 is_stmt 0
	lw	a0,0(s2)
.LVL535:
	mv	a1,s0
	call	get_fat.isra.0
.LVL536:
	.loc 1 1579 4 is_stmt 1
	.loc 1 1579 7 is_stmt 0
	li	a5,1
	beq	a0,a5,.L407
	.loc 1 1579 16 discriminator 2
	li	a4,-1
	beq	a0,a4,.L394
	.loc 1 1580 4 is_stmt 1
	.loc 1 1582 27 is_stmt 0 discriminator 1
	lw	a4,20(s1)
	.loc 1 1580 7
	bne	a0,zero,.L467
	.loc 1 1586 3 is_stmt 1
	.loc 1 1586 6 is_stmt 0
	beq	s0,zero,.L398
.LVL537:
.L401:
.LBB655:
.LBB656:
	.loc 1 1250 16 discriminator 1
	bleu	a4,s0,.L407
	li	a2,-1
	mv	a1,s0
	mv	a0,s1
	call	put_fat.part.0
.LVL538:
	.loc 1 1287 2 is_stmt 1
.LBE656:
.LBE655:
	.loc 1 1601 3
	.loc 1 1601 6 is_stmt 0
	bne	a0,zero,.L416
	.loc 1 1601 20 discriminator 1
	beq	s6,zero,.L420
	.loc 1 1602 4 is_stmt 1
.LVL539:
.LBB657:
.LBB658:
	.loc 1 1245 2
	.loc 1 1246 2
	.loc 1 1247 2
	.loc 1 1250 2
	.loc 1 1250 5 is_stmt 0
	li	a5,1
	beq	s6,a5,.L407
	.loc 1 1250 16 discriminator 1
	lw	a5,20(s1)
	bgeu	s6,a5,.L407
	mv	a2,s0
	mv	a1,s6
	mv	a0,s1
.LVL540:
	call	put_fat.part.0
.LVL541:
	.loc 1 1287 2 is_stmt 1
.LBE658:
.LBE657:
	.loc 1 1606 2
	.loc 1 1606 5 is_stmt 0
	beq	a0,zero,.L420
.L416:
.LVL542:
	.loc 1 1611 3 is_stmt 1
	.loc 1 1611 43 is_stmt 0
	li	a5,1
	bne	a0,a5,.L407
.L394:
	.loc 1 1541 32 discriminator 1
	li	s0,-1
	j	.L385
.LVL543:
.L420:
	.loc 1 1607 3 is_stmt 1
	.loc 1 1608 37 is_stmt 0
	lw	a5,20(s1)
	.loc 1 1608 9
	lw	a4,16(s1)
	.loc 1 1607 17
	sw	s0,12(s1)
	.loc 1 1608 3 is_stmt 1
	.loc 1 1608 37 is_stmt 0
	addi	a5,a5,-2
	.loc 1 1608 6
	bgtu	a4,a5,.L419
	.loc 1 1608 42 is_stmt 1 discriminator 1
	.loc 1 1608 55 is_stmt 0 discriminator 1
	addi	a4,a4,-1
	sw	a4,16(s1)
.L419:
	.loc 1 1609 3 is_stmt 1
	.loc 1 1609 16 is_stmt 0
	lbu	a5,5(s1)
	ori	a5,a5,1
	sb	a5,5(s1)
	j	.L385
.LVL544:
.L406:
	.cfi_offset 21, -28
.LBB659:
.LBB647:
	.loc 1 1193 4 is_stmt 1
	.loc 1 1193 8 is_stmt 0
	lw	a5,32(s3)
	.loc 1 1193 44
	srli	a1,s0,7
	.loc 1 1193 8
	mv	a0,s3
	add	a1,a1,a5
	call	move_window
.LVL545:
	.loc 1 1193 7 discriminator 1
	bne	a0,zero,.L456
	.loc 1 1194 4 is_stmt 1
.LVL546:
.LBB642:
.LBB643:
	.loc 1 629 2
	.loc 1 631 2
	.loc 1 632 2
	.loc 1 633 2
	.loc 1 634 2
	.loc 1 635 2
.LBE643:
.LBE642:
	.loc 1 1194 34 is_stmt 0
	slli	a5,s0,2
	.loc 1 1194 38
	andi	a5,a5,508
.LBB645:
.LBB644:
	.loc 1 634 5
	add	a5,s3,a5
	lbu	a3,49(a5)
	lbu	a2,48(a5)
	lbu	a4,50(a5)
	lbu	a5,51(a5)
	slli	a3,a3,8
	or	a3,a3,a2
	slli	a4,a4,16
	or	a4,a4,a3
	slli	a5,a5,24
	or	a5,a5,a4
.LBE644:
.LBE645:
	.loc 1 1194 8 discriminator 1
	slli	a5,a5,4
	srli	a4,a5,4
.LVL547:
	.loc 1 1195 4 is_stmt 1
	.loc 1 1228 2
.LBE647:
.LBE659:
	.loc 1 1595 5
	.loc 1 1595 8 is_stmt 0
	beq	a5,zero,.L462
	.loc 1 1596 5 is_stmt 1
	.loc 1 1596 8 is_stmt 0
	li	a5,1
	bne	a4,a5,.L414
.LVL548:
.L457:
	lw	s5,20(sp)
	.cfi_remember_state
	.cfi_restore 21
	.loc 1 1540 22 discriminator 1
	li	s0,1
	j	.L385
.LVL549:
.L405:
	.cfi_restore_state
.LBB660:
.LBB648:
	.loc 1 1188 4 is_stmt 1
	.loc 1 1188 8 is_stmt 0
	lw	a5,32(s3)
	.loc 1 1188 44
	srli	a1,s0,8
	.loc 1 1188 8
	mv	a0,s3
	add	a1,a1,a5
	call	move_window
.LVL550:
	.loc 1 1188 7 discriminator 1
	bne	a0,zero,.L456
	.loc 1 1189 4 is_stmt 1
	.loc 1 1189 33 is_stmt 0
	slli	a5,s0,1
	.loc 1 1189 37
	andi	a5,a5,510
	.loc 1 1189 8 discriminator 1
	add	a5,s3,a5
	lbu	a4,49(a5)
	lbu	a3,48(a5)
	slli	a5,a4,8
	or	a5,a5,a3
.LVL551:
	.loc 1 1190 4 is_stmt 1
	.loc 1 1228 2
.LBE648:
.LBE660:
	.loc 1 1595 5
	.loc 1 1595 8 is_stmt 0
	beq	a5,zero,.L462
	.loc 1 1596 5 is_stmt 1
	.loc 1 1596 8 is_stmt 0
	li	a4,1
	beq	a5,a4,.L457
.LVL552:
.L414:
	.loc 1 1597 5 is_stmt 1
	.loc 1 1597 8 is_stmt 0
	beq	s4,s0,.L468
.LVL553:
	.loc 1 1588 4 is_stmt 1
	.loc 1 1589 5
	.loc 1 1590 8 is_stmt 0
	lw	a5,20(s1)
	.loc 1 1589 8
	addi	s0,s0,1
.LVL554:
	.loc 1 1590 5 is_stmt 1
	.loc 1 1590 8 is_stmt 0
	bltu	s0,a5,.L400
	lw	s5,20(sp)
	.cfi_restore 21
	j	.L415
.LVL555:
.L465:
	sw	s5,20(sp)
	.loc 1 1536 44 discriminator 3
	li	s4,1
	.loc 1 1589 8
	li	s0,2
.LVL556:
	.cfi_offset 21, -28
.L400:
	.loc 1 1594 5 is_stmt 1
	lw	s3,0(s2)
.LVL557:
.LBB661:
.LBB649:
	.loc 1 1166 2
	.loc 1 1167 2
	.loc 1 1168 2
	.loc 1 1171 2
	j	.L403
.LVL558:
.L456:
	lw	s5,20(sp)
	.cfi_restore 21
.LBE649:
.LBE661:
	.loc 1 1541 32 is_stmt 0 discriminator 1
	li	s0,-1
.LVL559:
	j	.L385
.LVL560:
.L453:
	.cfi_offset 21, -28
	.cfi_offset 23, -36
	lw	s5,20(sp)
	.cfi_restore 21
	lw	s7,12(sp)
	.cfi_restore 23
.LVL561:
	li	s0,-1
.LVL562:
	j	.L385
.LVL563:
.L467:
	.loc 1 1581 5 is_stmt 1
	.loc 1 1581 8 is_stmt 0
	lw	s4,12(s1)
.LVL564:
	.loc 1 1582 5 is_stmt 1
	.loc 1 1582 8 is_stmt 0
	bleu	s4,a5,.L398
	.loc 1 1582 17 discriminator 1
	bltu	s4,a4,.L399
.LVL565:
.L398:
	.loc 1 1588 4 is_stmt 1
	.loc 1 1589 5
	.loc 1 1589 8 is_stmt 0
	mv	s0,s3
.LVL566:
	.loc 1 1590 5 is_stmt 1
	.loc 1 1590 8 is_stmt 0
	bltu	s3,a4,.L402
	mv	s4,s6
	j	.L415
.LVL567:
.L408:
	.cfi_offset 21, -28
	.cfi_offset 23, -36
	.cfi_offset 24, -40
.LBB662:
.LBB650:
	.loc 1 1184 33 discriminator 2
	slli	a5,a5,20
.LVL568:
	srli	a4,a5,20
.LVL569:
	.loc 1 1228 2 is_stmt 1
.LBE650:
.LBE662:
	.loc 1 1595 5
	.loc 1 1595 8 is_stmt 0
	beq	a5,zero,.L463
	.loc 1 1596 5 is_stmt 1
	.loc 1 1596 8 is_stmt 0
	beq	a4,s5,.L461
.LVL570:
.L459:
	lw	s7,12(sp)
	.cfi_restore 23
	lw	s8,8(sp)
	.cfi_restore 24
	j	.L414
.LVL571:
.L402:
	.cfi_restore 21
	.loc 1 1594 5 is_stmt 1
.LBB663:
.LBB651:
	.loc 1 1171 5 is_stmt 0
	li	a5,1
	lw	s3,0(s2)
.LVL572:
	.loc 1 1166 2 is_stmt 1
	.loc 1 1167 2
	.loc 1 1168 2
	.loc 1 1171 2
	.loc 1 1171 5 is_stmt 0
	bleu	s0,a5,.L407
	sw	s5,20(sp)
	mv	s4,s6
	.cfi_offset 21, -28
	j	.L403
.LVL573:
.L468:
	lw	s5,20(sp)
	.cfi_restore 21
.LBE651:
.LBE663:
	.loc 1 1545 33 discriminator 1
	li	s0,0
	j	.L385
.LVL574:
.L454:
	.cfi_offset 21, -28
	.cfi_offset 23, -36
	.cfi_offset 24, -40
	lw	s5,20(sp)
	.cfi_restore 21
	lw	s7,12(sp)
	.cfi_restore 23
.LVL575:
	lw	s8,8(sp)
	.cfi_restore 24
.LVL576:
	.loc 1 1541 32 discriminator 1
	li	s0,-1
.LVL577:
	j	.L385
.LVL578:
.L399:
	sw	s5,20(sp)
.LVL579:
	.loc 1 1588 4 is_stmt 1
	.loc 1 1589 5
	.loc 1 1589 8 is_stmt 0
	addi	s0,s4,1
.LVL580:
	.loc 1 1590 5 is_stmt 1
	.cfi_offset 21, -28
	.loc 1 1590 8 is_stmt 0
	bgeu	s0,a4,.L421
	.loc 1 1594 5 is_stmt 1
	lw	s3,0(s2)
.LVL581:
.LBB664:
.LBB652:
	.loc 1 1166 2
	.loc 1 1167 2
	.loc 1 1168 2
	.loc 1 1171 2
	j	.L403
.LVL582:
.L462:
	lw	a4,20(s1)
	lw	s5,20(sp)
	.cfi_restore 21
	j	.L401
.L463:
	.cfi_offset 21, -28
	.cfi_offset 23, -36
	.cfi_offset 24, -40
	lw	a4,20(s1)
	lw	s5,20(sp)
	.cfi_restore 21
	lw	s7,12(sp)
	.cfi_restore 23
	lw	s8,8(sp)
	.cfi_restore 24
	j	.L401
.LVL583:
.L466:
	sw	s5,20(sp)
	.cfi_offset 21, -28
.LBE652:
.LBE664:
	.loc 1 1594 5
	lw	s3,0(s2)
.LVL584:
.LBB665:
.LBB653:
	.loc 1 1166 2
	.loc 1 1167 2
	.loc 1 1168 2
	.loc 1 1171 2
	j	.L403
.LBE653:
.LBE665:
	.cfi_endproc
.LFE14:
	.size	create_chain, .-create_chain
	.align	2
	.type	dir_register, @function
dir_register:
.LFB23:
	.loc 1 2468 1
	.cfi_startproc
.LVL585:
	.loc 1 2469 2
	.loc 1 2470 2
	.loc 1 2468 1 is_stmt 0
	addi	sp,sp,-80
	.cfi_def_cfa_offset 80
	sw	s0,72(sp)
	sw	ra,76(sp)
	sw	s1,68(sp)
	sw	s8,40(sp)
	.cfi_offset 8, -8
	.cfi_offset 1, -4
	.cfi_offset 9, -12
	.cfi_offset 24, -40
	.loc 1 2470 9
	lw	s8,0(a0)
.LVL586:
	.loc 1 2542 2 is_stmt 1
	.loc 1 2468 1 is_stmt 0
	mv	s0,a0
.LVL587:
.LBB686:
.LBB687:
	.loc 1 1811 2 is_stmt 1
	.loc 1 1812 2
	.loc 1 1813 2
	.loc 1 1816 2
	.loc 1 1816 8 is_stmt 0
	call	dir_sdi.constprop.0
.LVL588:
	.loc 1 1817 2 is_stmt 1
	.loc 1 1817 5 is_stmt 0
	bne	a0,zero,.L470
	sw	s6,48(sp)
	sw	s9,36(sp)
	sw	s10,32(sp)
	sw	s2,64(sp)
	sw	s3,60(sp)
	sw	s4,56(sp)
	sw	s5,52(sp)
	sw	s7,44(sp)
	.cfi_offset 22, -32
	.cfi_offset 25, -44
	.cfi_offset 26, -48
	.cfi_offset 18, -16
	.cfi_offset 19, -20
	.cfi_offset 20, -24
	.cfi_offset 21, -28
	.cfi_offset 23, -36
	lw	s4,24(s0)
.LBB688:
.LBB689:
.LBB690:
.LBB691:
	.loc 1 1063 30
	addi	s6,s8,48
.LBE691:
.LBE690:
.LBE689:
.LBE688:
	.loc 1 1825 7
	li	s9,229
.LBB703:
.LBB704:
	.loc 1 1755 5
	li	s10,2097152
.LVL589:
.L501:
.LBE704:
.LBE703:
	.loc 1 1819 3 is_stmt 1
	.loc 1 1820 4
.LBB726:
.LBB700:
	.loc 1 1082 2
	.loc 1 1085 2
	.loc 1 1085 16 is_stmt 0
	lw	a2,44(s8)
	.loc 1 1085 5
	beq	s4,a2,.L471
	.loc 1 1087 3 is_stmt 1
.LVL590:
.LBB694:
.LBB692:
	.loc 1 1059 2
	.loc 1 1062 2
	.loc 1 1062 5 is_stmt 0
	lbu	a5,4(s8)
	.loc 1 1063 7
	lbu	a0,1(s8)
	.loc 1 1062 5
	bne	a5,zero,.L530
.LVL591:
.L473:
.LBE692:
.LBE694:
.LBB695:
.LBB696:
	.loc 1 1090 4 is_stmt 1
	.loc 1 1090 8 is_stmt 0
	li	a3,1
	mv	a2,s4
	mv	a1,s6
	call	disk_read
.LVL592:
	.loc 1 1090 7 discriminator 1
	beq	a0,zero,.L476
	.loc 1 1091 5 is_stmt 1
.LVL593:
	.loc 1 1092 5
	.loc 1 1094 4
	.loc 1 1094 16 is_stmt 0
	li	a5,-1
	sw	a5,44(s8)
	.loc 1 1097 2 is_stmt 1
.LVL594:
.LBE696:
.LBE695:
	.loc 1 1097 2
.LBE700:
.LBE726:
	.loc 1 1821 4
	.loc 1 1835 2
	.loc 1 1836 2
.LBE687:
.LBE686:
	.loc 1 2547 2
.L502:
.LBB741:
.LBB734:
	.loc 1 1820 10 is_stmt 0
	li	s1,1
.L528:
	lw	s2,64(sp)
	.cfi_restore 18
	lw	s3,60(sp)
	.cfi_restore 19
	lw	s4,56(sp)
	.cfi_restore 20
	lw	s5,52(sp)
	.cfi_restore 21
	lw	s6,48(sp)
	.cfi_restore 22
	lw	s7,44(sp)
	.cfi_restore 23
	lw	s9,36(sp)
	.cfi_restore 25
	lw	s10,32(sp)
	.cfi_restore 26
.L469:
.LBE734:
.LBE741:
	.loc 1 2560 1
	lw	ra,76(sp)
	.cfi_restore 1
	lw	s0,72(sp)
	.cfi_restore 8
.LVL595:
	lw	s8,40(sp)
	.cfi_restore 24
.LVL596:
	mv	a0,s1
	lw	s1,68(sp)
	.cfi_restore 9
	addi	sp,sp,80
	.cfi_def_cfa_offset 0
	jr	ra
.LVL597:
.L476:
	.cfi_def_cfa_offset 80
	.cfi_offset 1, -4
	.cfi_offset 8, -8
	.cfi_offset 9, -12
	.cfi_offset 18, -16
	.cfi_offset 19, -20
	.cfi_offset 20, -24
	.cfi_offset 21, -28
	.cfi_offset 22, -32
	.cfi_offset 23, -36
	.cfi_offset 24, -40
	.cfi_offset 25, -44
	.cfi_offset 26, -48
.LBB742:
.LBB735:
.LBB727:
.LBB701:
.LBB698:
.LBB697:
	.loc 1 1094 4 is_stmt 1
	.loc 1 1094 16 is_stmt 0
	sw	s4,44(s8)
	.loc 1 1097 2 is_stmt 1
.LVL598:
.LBE697:
.LBE698:
	.loc 1 1097 2
.LBE701:
.LBE727:
	.loc 1 1821 4
.L471:
	.loc 1 1825 4
	.loc 1 1825 15 is_stmt 0
	lw	a5,28(s0)
	lbu	a5,0(a5)
	.loc 1 1825 7
	beq	a5,s9,.L478
	.loc 1 1825 34 discriminator 1
	bne	a5,zero,.L531
.L478:
.LVL599:
	.loc 1 1835 2 is_stmt 1
	.loc 1 1836 2
.LBE735:
.LBE742:
	.loc 1 2547 2
	.loc 1 2548 3
	.loc 1 2548 9 is_stmt 0
	lw	a1,24(s0)
	mv	a0,s8
	call	move_window
.LVL600:
	mv	s1,a0
.LVL601:
	.loc 1 2549 3 is_stmt 1
	.loc 1 2549 6 is_stmt 0
	bne	a0,zero,.L528
	.loc 1 2550 4 is_stmt 1
	lw	a0,28(s0)
	li	a2,32
	li	a1,0
	call	memset
.LVL602:
	.loc 1 2551 4
	lw	a5,28(s0)
	lbu	t5,32(s0)
	lbu	t4,33(s0)
	lbu	t3,34(s0)
	lbu	t1,35(s0)
	lbu	a7,36(s0)
	lbu	a6,37(s0)
	lbu	a0,38(s0)
	lbu	a1,39(s0)
	lbu	a2,40(s0)
	lbu	a3,41(s0)
	lbu	a4,42(s0)
	sb	t5,0(a5)
	sb	t4,1(a5)
	sb	t3,2(a5)
	sb	t1,3(a5)
	sb	a7,4(a5)
	sb	a6,5(a5)
	sb	a0,6(a5)
	sb	a1,7(a5)
	sb	a2,8(a5)
	sb	a3,9(a5)
	sb	a4,10(a5)
	.loc 1 2555 4
	.loc 1 2555 14 is_stmt 0
	li	a5,1
	sb	a5,4(s8)
	j	.L528
.LVL603:
.L531:
.LBB743:
.LBB736:
	.loc 1 1831 4 is_stmt 1
.LBB728:
.LBB721:
	.loc 1 1750 2
	.loc 1 1751 2
	.loc 1 1754 6 is_stmt 0
	lw	s1,16(s0)
	.loc 1 1751 9
	lw	s5,0(s0)
.LVL604:
	.loc 1 1754 2 is_stmt 1
	.loc 1 1754 6 is_stmt 0
	addi	s1,s1,32
.LVL605:
	.loc 1 1755 2 is_stmt 1
	.loc 1 1755 5 is_stmt 0
	bgeu	s1,s10,.L519
	.loc 1 1756 2 is_stmt 1
	.loc 1 1756 8 is_stmt 0
	lw	s4,24(s0)
	.loc 1 1756 5
	beq	s4,zero,.L521
	.loc 1 1758 2 is_stmt 1
	.loc 1 1758 10 is_stmt 0
	andi	s3,s1,511
	.loc 1 1758 5
	bne	s3,zero,.L527
	.loc 1 1759 3 is_stmt 1
	.loc 1 1761 9 is_stmt 0
	lw	a1,20(s0)
	.loc 1 1759 11
	addi	s4,s4,1
	sw	s4,24(s0)
	.loc 1 1761 3 is_stmt 1
	.loc 1 1761 6 is_stmt 0
	bne	a1,zero,.L484
	.loc 1 1762 4 is_stmt 1
	.loc 1 1762 26 is_stmt 0
	lhu	a5,8(s5)
	.loc 1 1762 12
	srli	a4,s1,5
	.loc 1 1762 7
	bgeu	a4,a5,.L519
.L527:
	addi	s2,s5,48
.L483:
	.loc 1 1792 2 is_stmt 1
	.loc 1 1793 20 is_stmt 0
	add	s2,s2,s3
	.loc 1 1792 11
	sw	s1,16(s0)
	.loc 1 1793 2 is_stmt 1
	.loc 1 1793 10 is_stmt 0
	sw	s2,28(s0)
	.loc 1 1795 2 is_stmt 1
.LVL606:
.LBE721:
.LBE728:
	.loc 1 1832 16
	j	.L501
.LVL607:
.L519:
.LBB729:
.LBB722:
	.loc 1 1763 5
	.loc 1 1763 14 is_stmt 0
	sw	zero,24(s0)
	.loc 1 1763 19 is_stmt 1
.LVL608:
.LBE722:
.LBE729:
	.loc 1 1832 16
	.loc 1 1835 2
.L521:
	lw	s2,64(sp)
	.cfi_restore 18
	lw	s3,60(sp)
	.cfi_restore 19
	lw	s4,56(sp)
	.cfi_restore 20
	lw	s5,52(sp)
	.cfi_restore 21
	lw	s6,48(sp)
	.cfi_restore 22
	lw	s7,44(sp)
	.cfi_restore 23
	lw	s9,36(sp)
	.cfi_restore 25
	lw	s10,32(sp)
	.cfi_restore 26
.L490:
.LBE736:
.LBE743:
	.loc 1 2542 8 is_stmt 0
	li	s1,7
.LVL609:
	.loc 1 2559 2 is_stmt 1
	.loc 1 2559 9 is_stmt 0
	j	.L469
.LVL610:
.L484:
	.cfi_offset 18, -16
	.cfi_offset 19, -20
	.cfi_offset 20, -24
	.cfi_offset 21, -28
	.cfi_offset 22, -32
	.cfi_offset 23, -36
	.cfi_offset 25, -44
	.cfi_offset 26, -48
.LBB744:
.LBB737:
.LBB730:
.LBB723:
	.loc 1 1767 4 is_stmt 1
	.loc 1 1767 27 is_stmt 0
	lhu	s7,10(s5)
	.loc 1 1767 13
	srli	a5,s1,9
	addi	s2,s5,48
	.loc 1 1767 35
	addi	s7,s7,-1
	.loc 1 1767 22
	and	s7,s7,a5
	.loc 1 1767 7
	bne	s7,zero,.L483
	.loc 1 1768 12
	mv	a0,s5
	sw	s11,28(sp)
	.cfi_offset 27, -52
	.loc 1 1768 5 is_stmt 1
	.loc 1 1768 12 is_stmt 0
	call	get_fat.isra.0
.LVL611:
	.loc 1 1769 8
	li	a4,1
	.loc 1 1768 12
	mv	s11,a0
.LVL612:
	.loc 1 1769 5 is_stmt 1
	.loc 1 1769 8 is_stmt 0
	bleu	a0,a4,.L491
	.loc 1 1770 5 is_stmt 1
	.loc 1 1770 8 is_stmt 0
	li	a4,-1
	beq	a0,a4,.L526
	.loc 1 1771 5 is_stmt 1
	.loc 1 1771 8 is_stmt 0
	lw	a4,20(s5)
	bgeu	a0,a4,.L488
.LBB705:
.LBB706:
	.loc 1 1149 7
	addi	a5,a0,-2
	sw	a5,12(sp)
	addi	s2,s5,48
.LVL613:
.L489:
.LBE706:
.LBE705:
	.loc 1 1787 5 is_stmt 1
	.loc 1 1787 15 is_stmt 0
	sw	s11,20(s0)
	.loc 1 1788 5 is_stmt 1
.LVL614:
.LBB708:
.LBB707:
	.loc 1 1149 2
	.loc 1 1150 2
	.loc 1 1150 27 is_stmt 0
	lw	a5,20(s5)
	.loc 1 1150 5
	lw	a4,12(sp)
	.loc 1 1150 27
	addi	a5,a5,-2
	.loc 1 1150 5
	bgeu	a4,a5,.L500
	.loc 1 1151 2 is_stmt 1
	.loc 1 1151 24 is_stmt 0
	lhu	s7,10(s5)
	.loc 1 1151 22
	lw	a5,40(s5)
	.loc 1 1151 41
	mul	s7,s7,a4
	.loc 1 1151 22
	add	s7,s7,a5
.L500:
.LVL615:
.LBE707:
.LBE708:
	.loc 1 1788 14 discriminator 1
	sw	s7,24(s0)
	lw	s11,28(sp)
	.cfi_restore 27
.LVL616:
	mv	s4,s7
	j	.L483
.LVL617:
.L530:
.LBE723:
.LBE730:
.LBB731:
.LBB702:
.LBB699:
.LBB693:
	.loc 1 1063 3 is_stmt 1
	.loc 1 1063 7 is_stmt 0
	li	a3,1
	mv	a1,s6
	call	disk_write
.LVL618:
	.loc 1 1063 6 discriminator 1
	bne	a0,zero,.L502
	.loc 1 1064 4 is_stmt 1
	.loc 1 1065 10 is_stmt 0
	lw	a2,44(s8)
	.loc 1 1065 20
	lw	a5,32(s8)
	.loc 1 1065 38
	lw	a4,24(s8)
	.loc 1 1064 14
	sb	zero,4(s8)
	.loc 1 1065 4 is_stmt 1
	.loc 1 1065 20 is_stmt 0
	sub	a5,a2,a5
	.loc 1 1066 26 discriminator 1
	lbu	a0,1(s8)
	.loc 1 1065 7
	bgeu	a5,a4,.L473
	.loc 1 1066 5 is_stmt 1
	.loc 1 1066 8 is_stmt 0
	lbu	a3,3(s8)
	li	a5,2
	bne	a3,a5,.L473
	.loc 1 1066 26 is_stmt 1 discriminator 1
	li	a3,1
	add	a2,a2,a4
	mv	a1,s6
	call	disk_write
.LVL619:
	.loc 1 1072 2
.LBE693:
.LBE699:
	.loc 1 1089 3
	lbu	a0,1(s8)
	j	.L473
.LVL620:
.L470:
	.cfi_restore 18
	.cfi_restore 19
	.cfi_restore 20
	.cfi_restore 21
	.cfi_restore 22
	.cfi_restore 23
	.cfi_restore 25
	.cfi_restore 26
.LBE702:
.LBE731:
	.loc 1 1835 5 is_stmt 0
	li	a5,4
	mv	s1,a0
.LVL621:
	.loc 1 1835 2 is_stmt 1
	.loc 1 1835 5 is_stmt 0
	beq	a0,a5,.L490
.LBE737:
.LBE744:
	.loc 1 2560 1
	lw	ra,76(sp)
	.cfi_restore 1
	lw	s0,72(sp)
	.cfi_restore 8
.LVL622:
	lw	s8,40(sp)
	.cfi_restore 24
.LVL623:
	mv	a0,s1
	lw	s1,68(sp)
	.cfi_restore 9
.LVL624:
	addi	sp,sp,80
	.cfi_def_cfa_offset 0
	jr	ra
.LVL625:
.L488:
	.cfi_def_cfa_offset 80
	.cfi_offset 1, -4
	.cfi_offset 8, -8
	.cfi_offset 9, -12
	.cfi_offset 18, -16
	.cfi_offset 19, -20
	.cfi_offset 20, -24
	.cfi_offset 21, -28
	.cfi_offset 22, -32
	.cfi_offset 23, -36
	.cfi_offset 24, -40
	.cfi_offset 25, -44
	.cfi_offset 26, -48
	.cfi_offset 27, -52
.LBB745:
.LBB738:
.LBB732:
.LBB724:
	.loc 1 1773 6 is_stmt 1
	.loc 1 1776 6
	.loc 1 1776 13 is_stmt 0
	lw	a1,20(s0)
	mv	a0,s0
.LVL626:
	call	create_chain
.LVL627:
	mv	s11,a0
	.loc 1 1777 6 is_stmt 1
	.loc 1 1777 9 is_stmt 0
	beq	a0,zero,.L523
	.loc 1 1778 6 is_stmt 1
	.loc 1 1778 9 is_stmt 0
	li	a4,1
	beq	a0,a4,.L491
	.loc 1 1779 6 is_stmt 1
	.loc 1 1779 9 is_stmt 0
	li	a4,-1
	beq	a0,a4,.L526
	.loc 1 1780 6 is_stmt 1
.LVL628:
.LBB709:
.LBB710:
	.loc 1 1663 2
	.loc 1 1664 2
	.loc 1 1665 2
	.loc 1 1668 2
.LBB711:
.LBB712:
	.loc 1 1059 2
	.loc 1 1062 2
	.loc 1 1062 5 is_stmt 0
	lbu	a4,4(s5)
	addi	s2,s5,48
	bne	a4,zero,.L532
.LVL629:
.L493:
.LBE712:
.LBE711:
.LBB714:
.LBB715:
	.loc 1 1669 2 is_stmt 1
.LBB716:
.LBB717:
	.loc 1 1149 2
	.loc 1 1150 27 is_stmt 0
	lw	a4,20(s5)
	.loc 1 1149 7
	addi	a5,s11,-2
	sw	a5,12(sp)
.LVL630:
	.loc 1 1150 2 is_stmt 1
	.loc 1 1150 39 is_stmt 0 discriminator 1
	sw	zero,8(sp)
	.loc 1 1150 27
	addi	a4,a4,-2
	.loc 1 1150 5
	bgeu	a5,a4,.L495
	.loc 1 1151 2 is_stmt 1
	.loc 1 1151 24 is_stmt 0
	lhu	s4,10(s5)
	.loc 1 1151 22
	lw	a4,40(s5)
	.loc 1 1151 41
	mul	s4,s4,a5
	.loc 1 1151 22
	add	a5,s4,a4
.LVL631:
	sw	a5,8(sp)
.L495:
.LVL632:
.LBE717:
.LBE716:
	.loc 1 1670 2 is_stmt 1
	.loc 1 1670 14 is_stmt 0
	lw	a5,8(sp)
	.loc 1 1671 2
	li	a2,512
	li	a1,0
	.loc 1 1670 14
	sw	a5,44(s5)
	.loc 1 1671 2 is_stmt 1
	mv	a0,s2
	call	memset
.LVL633:
	.loc 1 1683 3
	.loc 1 1683 19
	.loc 1 1684 3
	.loc 1 1684 29 discriminator 1
	lhu	a3,10(s5)
	.loc 1 1684 10 is_stmt 0
	li	s4,0
	.loc 1 1684 29 discriminator 1
	bne	a3,zero,.L496
	j	.L489
.LVL634:
.L499:
	.loc 1 1684 87 discriminator 4
	addi	s4,s4,1
.LVL635:
	.loc 1 1684 29 is_stmt 1 discriminator 1
	bgeu	s4,a3,.L498
.LVL636:
.L496:
	.loc 1 1684 32 is_stmt 0 discriminator 3
	lw	a5,8(sp)
	lbu	a0,1(s5)
	li	a3,1
	add	a2,a5,s4
	mv	a1,s2
	call	disk_write
.LVL637:
	.loc 1 1684 87 is_stmt 1 discriminator 4
	.loc 1 1684 21 is_stmt 0 discriminator 1
	lhu	a3,10(s5)
	.loc 1 1684 29 discriminator 1
	beq	a0,zero,.L499
.L498:
	.loc 1 1686 2 is_stmt 1
.LVL638:
.LBE715:
.LBE714:
.LBE710:
.LBE709:
	.loc 1 1780 9 is_stmt 0 discriminator 1
	beq	s4,a3,.L489
.L526:
	lw	s11,28(sp)
	.cfi_remember_state
	.cfi_restore 27
.LVL639:
.LBE724:
.LBE732:
	.loc 1 1820 10
	li	s1,1
.LVL640:
	j	.L528
.LVL641:
.L491:
	.cfi_restore_state
	.loc 1 1835 2 is_stmt 1
	.loc 1 1836 2
.LBE738:
.LBE745:
	.loc 1 2547 2
	lw	s2,64(sp)
	.cfi_remember_state
	.cfi_restore 18
	lw	s3,60(sp)
	.cfi_restore 19
	lw	s4,56(sp)
	.cfi_restore 20
	lw	s5,52(sp)
	.cfi_restore 21
	lw	s6,48(sp)
	.cfi_restore 22
	lw	s7,44(sp)
	.cfi_restore 23
	lw	s9,36(sp)
	.cfi_restore 25
	lw	s10,32(sp)
	.cfi_restore 26
	lw	s11,28(sp)
	.cfi_restore 27
.LBB746:
.LBB739:
	.loc 1 1831 10 is_stmt 0
	li	s1,2
	j	.L469
.LVL642:
.L523:
	.cfi_restore_state
	lw	s2,64(sp)
	.cfi_remember_state
	.cfi_restore 18
	lw	s3,60(sp)
	.cfi_restore 19
	lw	s4,56(sp)
	.cfi_restore 20
	lw	s5,52(sp)
	.cfi_restore 21
.LVL643:
	lw	s6,48(sp)
	.cfi_restore 22
	lw	s7,44(sp)
	.cfi_restore 23
	lw	s9,36(sp)
	.cfi_restore 25
	lw	s10,32(sp)
	.cfi_restore 26
	lw	s11,28(sp)
	.cfi_restore 27
.LBE739:
.LBE746:
	.loc 1 2542 8
	li	s1,7
.LVL644:
	.loc 1 2559 2 is_stmt 1
	j	.L469
.LVL645:
.L532:
	.cfi_restore_state
.LBB747:
.LBB740:
.LBB733:
.LBB725:
.LBB720:
.LBB719:
.LBB718:
.LBB713:
	.loc 1 1063 3
	.loc 1 1063 7 is_stmt 0
	lw	a2,44(s5)
	lbu	a0,1(s5)
.LVL646:
	.loc 1 1063 30
	addi	s2,s5,48
	.loc 1 1063 7
	li	a3,1
	mv	a1,s2
	call	disk_write
.LVL647:
	.loc 1 1063 6 discriminator 1
	bne	a0,zero,.L526
	.loc 1 1064 4 is_stmt 1
	.loc 1 1065 10 is_stmt 0
	lw	a1,44(s5)
	.loc 1 1065 20
	lw	a4,32(s5)
	.loc 1 1065 38
	lw	a2,24(s5)
	.loc 1 1064 14
	sb	zero,4(s5)
	.loc 1 1065 4 is_stmt 1
	.loc 1 1065 20 is_stmt 0
	sub	a4,a1,a4
	.loc 1 1065 7
	bgeu	a4,a2,.L493
	.loc 1 1066 5 is_stmt 1
	.loc 1 1066 8 is_stmt 0
	lbu	a3,3(s5)
	li	a4,2
	bne	a3,a4,.L493
	.loc 1 1066 26 is_stmt 1 discriminator 1
	lbu	a0,1(s5)
	add	a2,a1,a2
	li	a3,1
	mv	a1,s2
	call	disk_write
.LVL648:
	.loc 1 1072 2
	j	.L493
.LBE713:
.LBE718:
.LBE719:
.LBE720:
.LBE725:
.LBE733:
.LBE740:
.LBE747:
	.cfi_endproc
.LFE23:
	.size	dir_register, .-dir_register
	.align	2
	.type	remove_chain, @function
remove_chain:
.LFB13:
	.loc 1 1434 1
	.cfi_startproc
.LVL649:
	.loc 1 1435 2
	.loc 1 1436 2
	.loc 1 1437 2
	.loc 1 1434 1 is_stmt 0
	addi	sp,sp,-48
	.cfi_def_cfa_offset 48
	sw	s0,40(sp)
	sw	ra,44(sp)
	sw	s5,20(sp)
	.loc 1 1445 5
	li	a4,1
	.cfi_offset 8, -8
	.cfi_offset 1, -4
	.cfi_offset 21, -28
	.loc 1 1437 9
	lw	s5,0(a0)
.LVL650:
	.loc 1 1445 2 is_stmt 1
	.loc 1 1434 1 is_stmt 0
	mv	s0,a1
	.loc 1 1445 5
	bleu	a1,a4,.L556
	.loc 1 1445 28 discriminator 2
	lw	a5,20(s5)
	.loc 1 1445 15 discriminator 2
	bleu	a5,a1,.L556
	sw	s6,16(sp)
	sw	s1,36(sp)
	.cfi_offset 22, -32
	.cfi_offset 9, -12
	mv	s6,a0
	mv	a1,a2
.LVL651:
	.loc 1 1448 2 is_stmt 1
	.loc 1 1448 5 is_stmt 0
	beq	a2,zero,.L559
	.loc 1 1449 3 is_stmt 1
.LVL652:
.LBB766:
.LBB767:
	.loc 1 1245 2
	.loc 1 1246 2
	.loc 1 1247 2
	.loc 1 1250 2
	.loc 1 1250 5 is_stmt 0
	beq	a2,a4,.L575
	.loc 1 1250 16 discriminator 1
	bleu	a5,a2,.L575
	li	a2,-1
.LVL653:
	mv	a0,s5
.LVL654:
	call	put_fat.part.0
.LVL655:
	.loc 1 1287 2 is_stmt 1
.LBE767:
.LBE766:
	.loc 1 1450 3
	.loc 1 1450 6 is_stmt 0
	bne	a0,zero,.L576
	sw	s2,32(sp)
	sw	s3,28(sp)
	sw	s4,24(sp)
	lw	s1,0(s6)
	.cfi_offset 18, -16
	.cfi_offset 19, -20
	.cfi_offset 20, -24
.LBB768:
.LBB769:
.LBB770:
.LBB771:
	.loc 1 1251 3
	li	s2,2
	li	s4,3
.LBE771:
.LBE770:
.LBE769:
.LBE768:
.LBB799:
.LBB800:
	.loc 1 1171 28 discriminator 1
	lw	a5,20(s1)
.LBE800:
.LBE799:
.LBB812:
.LBB792:
.LBB785:
.LBB778:
	.loc 1 1283 14
	li	s3,1
.LVL656:
.L555:
.LBE778:
.LBE785:
.LBE792:
.LBE812:
	.loc 1 1454 2 is_stmt 1
	.loc 1 1455 3
.LBB813:
.LBB805:
	.loc 1 1166 2
	.loc 1 1167 2
	.loc 1 1168 2
	.loc 1 1171 2
	.loc 1 1171 15 is_stmt 0 discriminator 1
	bgeu	s0,a5,.L577
.LVL657:
.L590:
	sw	s7,12(sp)
	sw	s8,8(sp)
.LVL658:
	.loc 1 1175 3 is_stmt 1
	.loc 1 1177 3
	.cfi_offset 23, -36
	.cfi_offset 24, -40
	.loc 1 1177 13 is_stmt 0
	lbu	s8,0(s1)
	.loc 1 1177 3
	li	a5,2
	beq	s8,a5,.L537
	li	a5,3
	beq	s8,a5,.L538
	li	a5,1
	bne	s8,a5,.L582
	.loc 1 1179 4 is_stmt 1
.LVL659:
	.loc 1 1179 21
	.loc 1 1180 8 is_stmt 0
	lw	a5,32(s1)
	.loc 1 1179 30
	srli	s7,s0,1
	.loc 1 1179 24
	add	s7,s7,s0
.LVL660:
	.loc 1 1180 4 is_stmt 1
	.loc 1 1180 42 is_stmt 0
	srli	a1,s7,9
	.loc 1 1180 8
	add	a1,a1,a5
	mv	a0,s1
	call	move_window
.LVL661:
	.loc 1 1180 7 discriminator 1
	beq	a0,zero,.L540
.LVL662:
.L541:
.LBE805:
.LBE813:
	.loc 1 1458 33 discriminator 1
	li	a0,1
.LVL663:
.L585:
	.loc 1 1515 1
	lw	ra,44(sp)
	.cfi_restore 1
	lw	s0,40(sp)
	.cfi_restore 8
	lw	s1,36(sp)
	.cfi_restore 9
	lw	s2,32(sp)
	.cfi_restore 18
	lw	s3,28(sp)
	.cfi_restore 19
	lw	s4,24(sp)
	.cfi_restore 20
	lw	s6,16(sp)
	.cfi_restore 22
.LVL664:
	lw	s7,12(sp)
	.cfi_restore 23
	lw	s8,8(sp)
	.cfi_restore 24
	lw	s5,20(sp)
	.cfi_restore 21
.LVL665:
	addi	sp,sp,48
	.cfi_def_cfa_offset 0
	jr	ra
.LVL666:
.L559:
	.cfi_def_cfa_offset 48
	.cfi_offset 1, -4
	.cfi_offset 8, -8
	.cfi_offset 9, -12
	.cfi_offset 21, -28
	.cfi_offset 22, -32
	sw	s2,32(sp)
	sw	s3,28(sp)
	sw	s4,24(sp)
	mv	s1,s5
	.cfi_offset 18, -16
	.cfi_offset 19, -20
	.cfi_offset 20, -24
.LBB814:
.LBB793:
.LBB786:
.LBB779:
	.loc 1 1251 3
	li	s2,2
	li	s4,3
	.loc 1 1283 14
	li	s3,1
.LBE779:
.LBE786:
.LBE793:
.LBE814:
	.loc 1 1454 2 is_stmt 1
	.loc 1 1455 3
.LVL667:
.LBB815:
.LBB806:
	.loc 1 1166 2
	.loc 1 1167 2
	.loc 1 1168 2
	.loc 1 1171 2
	.loc 1 1171 15 is_stmt 0 discriminator 1
	bltu	s0,a5,.L590
.LVL668:
.L577:
	lw	s1,36(sp)
	.cfi_restore 9
	lw	s2,32(sp)
	.cfi_restore 18
	lw	s3,28(sp)
	.cfi_restore 19
	lw	s4,24(sp)
	.cfi_restore 20
	lw	s6,16(sp)
	.cfi_restore 22
.LVL669:
.L556:
.LBE806:
.LBE815:
	.loc 1 1445 47 discriminator 3
	li	a0,2
.LVL670:
.L533:
	.loc 1 1515 1
	lw	ra,44(sp)
	.cfi_restore 1
	lw	s0,40(sp)
	.cfi_restore 8
	lw	s5,20(sp)
	.cfi_restore 21
.LVL671:
	addi	sp,sp,48
	.cfi_def_cfa_offset 0
	jr	ra
.LVL672:
.L575:
	.cfi_def_cfa_offset 48
	.cfi_offset 1, -4
	.cfi_offset 8, -8
	.cfi_offset 9, -12
	.cfi_offset 21, -28
	.cfi_offset 22, -32
	lw	s1,36(sp)
	.cfi_restore 9
	lw	s6,16(sp)
	.cfi_restore 22
	j	.L556
.LVL673:
.L538:
	.cfi_offset 9, -12
	.cfi_offset 18, -16
	.cfi_offset 19, -20
	.cfi_offset 20, -24
	.cfi_offset 22, -32
	.cfi_offset 23, -36
	.cfi_offset 24, -40
.LBB816:
.LBB807:
	.loc 1 1193 4 is_stmt 1
	.loc 1 1193 8 is_stmt 0
	lw	a5,32(s1)
	.loc 1 1193 44
	srli	a1,s0,7
	.loc 1 1193 8
	mv	a0,s1
	add	a1,a1,a5
	call	move_window
.LVL674:
	.loc 1 1193 7 discriminator 1
	bne	a0,zero,.L541
	.loc 1 1194 4 is_stmt 1
.LVL675:
.LBB801:
.LBB802:
	.loc 1 629 2
	.loc 1 631 2
	.loc 1 632 2
	.loc 1 633 2
	.loc 1 634 2
	.loc 1 635 2
.LBE802:
.LBE801:
	.loc 1 1194 34 is_stmt 0
	slli	a5,s0,2
	.loc 1 1194 38
	andi	a5,a5,508
.LBB804:
.LBB803:
	.loc 1 634 5
	add	a5,s1,a5
	lbu	a3,49(a5)
	lbu	a2,48(a5)
	lbu	a4,50(a5)
	lbu	a5,51(a5)
	slli	a3,a3,8
	or	a3,a3,a2
	slli	a4,a4,16
	or	a4,a4,a3
	slli	a5,a5,24
	or	a5,a5,a4
.LBE803:
.LBE804:
	.loc 1 1194 8 discriminator 1
	slli	a5,a5,4
	srli	s7,a5,4
.LVL676:
	.loc 1 1195 4 is_stmt 1
	.loc 1 1228 2
.LBE807:
.LBE816:
	.loc 1 1456 3
	.loc 1 1456 6 is_stmt 0
	beq	a5,zero,.L544
.L570:
	.loc 1 1457 3 is_stmt 1
	.loc 1 1457 6 is_stmt 0
	li	a5,1
	beq	s7,a5,.L582
.L547:
	.loc 1 1459 3 is_stmt 1
	.loc 1 1460 4
.LVL677:
.LBB817:
.LBB794:
	.loc 1 1245 2
	.loc 1 1246 2
	.loc 1 1247 2
	.loc 1 1250 2
	.loc 1 1250 16 is_stmt 0 discriminator 1
	lw	a5,20(s5)
	bgeu	s0,a5,.L582
.LVL678:
.LBB787:
.LBB780:
	.loc 1 1251 3 is_stmt 1
	.loc 1 1251 13 is_stmt 0
	lbu	s1,0(s5)
	.loc 1 1251 3
	beq	s1,s2,.L548
	beq	s1,s4,.L549
	li	a5,1
	bne	s1,a5,.L582
	.loc 1 1253 4 is_stmt 1
.LVL679:
	.loc 1 1253 21
	.loc 1 1254 10 is_stmt 0
	lw	a5,32(s5)
	.loc 1 1253 30
	srli	s8,s0,1
	.loc 1 1253 24
	add	s8,s8,s0
.LVL680:
	.loc 1 1254 4 is_stmt 1
	.loc 1 1254 44 is_stmt 0
	srli	a1,s8,9
	.loc 1 1254 10
	add	a1,a1,a5
	mv	a0,s5
	call	move_window
.LVL681:
	.loc 1 1255 4 is_stmt 1
	.loc 1 1255 7 is_stmt 0
	bne	a0,zero,.L585
	sw	s9,4(sp)
	sw	s10,0(sp)
	.loc 1 1256 4 is_stmt 1
	.cfi_offset 25, -44
	.cfi_offset 26, -48
	.loc 1 1256 8 is_stmt 0
	addi	s9,s5,48
	.loc 1 1256 23
	addi	s10,s8,1
.LVL682:
	.loc 1 1257 15
	andi	s0,s0,1
.LVL683:
	.loc 1 1256 23
	andi	s8,s8,511
	.loc 1 1256 6
	add	s8,s9,s8
.LVL684:
	.loc 1 1257 4 is_stmt 1
	.loc 1 1259 44 is_stmt 0
	srli	a5,s10,9
	.loc 1 1257 7
	bne	s0,zero,.L591
	.loc 1 1257 7 discriminator 4
	sb	zero,0(s8)
	.loc 1 1258 4 is_stmt 1
	.loc 1 1259 10 is_stmt 0
	lw	a1,32(s5)
	.loc 1 1258 14
	sb	s1,4(s5)
	.loc 1 1259 4 is_stmt 1
	.loc 1 1259 10 is_stmt 0
	mv	a0,s5
.LVL685:
	add	a1,a5,a1
	call	move_window
.LVL686:
	.loc 1 1260 4 is_stmt 1
	.loc 1 1260 7 is_stmt 0
	bne	a0,zero,.L586
	.loc 1 1261 4 is_stmt 1
	.loc 1 1261 21 is_stmt 0
	andi	s10,s10,511
.LVL687:
	.loc 1 1261 6
	add	s9,s9,s10
.LVL688:
	.loc 1 1262 4 is_stmt 1
	lbu	a5,0(s9)
	andi	a5,a5,240
.L557:
	.loc 1 1262 7 is_stmt 0 discriminator 4
	sb	a5,0(s9)
	.loc 1 1263 4 is_stmt 1
	.loc 1 1264 4
.LVL689:
	.loc 1 1287 2
.LBE780:
.LBE787:
	.loc 1 1287 2
.LBE794:
.LBE817:
	.loc 1 1461 4
	lw	s9,4(sp)
	.cfi_restore 25
	lw	s10,0(sp)
	.cfi_restore 26
	j	.L553
.LVL690:
.L582:
	lw	s1,36(sp)
	.cfi_remember_state
	.cfi_restore 9
	lw	s2,32(sp)
	.cfi_restore 18
	lw	s3,28(sp)
	.cfi_restore 19
	lw	s4,24(sp)
	.cfi_restore 20
	lw	s6,16(sp)
	.cfi_restore 22
.LVL691:
	lw	s7,12(sp)
	.cfi_restore 23
	lw	s8,8(sp)
	.cfi_restore 24
	j	.L556
.LVL692:
.L549:
	.cfi_restore_state
.LBB818:
.LBB795:
.LBB788:
.LBB781:
	.loc 1 1277 4
	.loc 1 1277 10 is_stmt 0
	lw	a5,32(s5)
	.loc 1 1277 46
	srli	a1,s0,7
	.loc 1 1277 10
	mv	a0,s5
	add	a1,a1,a5
	call	move_window
.LVL693:
	.loc 1 1278 4 is_stmt 1
	.loc 1 1278 7 is_stmt 0
	bne	a0,zero,.L585
	.loc 1 1279 4 is_stmt 1
	.loc 1 1280 5
	.loc 1 1280 57 is_stmt 0
	slli	s0,s0,2
.LVL694:
	.loc 1 1280 42
	addi	a5,s5,48
	.loc 1 1280 61
	andi	s0,s0,508
	.loc 1 1280 33
	add	a5,a5,s0
.LVL695:
.LBB772:
.LBB773:
	.loc 1 629 2 is_stmt 1
	.loc 1 631 2
	.loc 1 632 2
	.loc 1 633 2
	.loc 1 634 2
	.loc 1 635 2
.LBE773:
.LBE772:
	.loc 1 1282 4
.LBB774:
.LBB775:
	.loc 1 664 2
	.loc 1 666 26 is_stmt 0
	lbu	a4,3(a5)
	.loc 1 664 9
	sb	zero,0(a5)
	.loc 1 664 22 is_stmt 1
	.loc 1 665 2
.LVL696:
	.loc 1 665 9 is_stmt 0
	sb	zero,1(a5)
	.loc 1 665 22 is_stmt 1
	.loc 1 666 2
.LVL697:
	.loc 1 666 26 is_stmt 0
	andi	a4,a4,240
	.loc 1 666 9
	sb	zero,2(a5)
	.loc 1 666 22 is_stmt 1
	.loc 1 667 2
.LVL698:
	.loc 1 667 11 is_stmt 0
	sb	a4,3(a5)
.LVL699:
.LBE775:
.LBE774:
	.loc 1 1283 4 is_stmt 1
	.loc 1 1284 4
	.loc 1 1287 2
.LBE781:
.LBE788:
	.loc 1 1287 2
.LBE795:
.LBE818:
	.loc 1 1461 4
.L553:
	.loc 1 1463 25 is_stmt 0
	lw	a4,20(s5)
	.loc 1 1463 9
	lw	a5,16(s5)
.LBB819:
.LBB796:
.LBB789:
.LBB782:
	.loc 1 1283 14
	sb	s3,4(s5)
.LBE782:
.LBE789:
.LBE796:
.LBE819:
	.loc 1 1463 3 is_stmt 1
	.loc 1 1463 36 is_stmt 0
	addi	a3,a4,-2
	.loc 1 1463 6
	bgeu	a5,a3,.L554
	.loc 1 1464 4 is_stmt 1
	.loc 1 1465 17 is_stmt 0
	lbu	a3,5(s5)
	.loc 1 1464 17
	addi	a5,a5,1
	sw	a5,16(s5)
	.loc 1 1465 4 is_stmt 1
	.loc 1 1465 17 is_stmt 0
	ori	a5,a3,1
	sb	a5,5(s5)
.L554:
	.loc 1 1485 3 is_stmt 1
.LVL700:
	.loc 1 1486 16
	bleu	a4,s7,.L544
	lw	s1,0(s6)
	.loc 1 1485 8 is_stmt 0
	mv	s0,s7
	lw	s8,8(sp)
	.cfi_remember_state
	.cfi_restore 24
.LBB820:
.LBB808:
	.loc 1 1171 28 discriminator 1
	lw	a5,20(s1)
	lw	s7,12(sp)
	.cfi_restore 23
.LVL701:
	j	.L555
.LVL702:
.L548:
	.cfi_restore_state
.LBE808:
.LBE820:
.LBB821:
.LBB797:
.LBB790:
.LBB783:
	.loc 1 1267 4 is_stmt 1
	.loc 1 1267 10 is_stmt 0
	lw	a5,32(s5)
	.loc 1 1267 46
	srli	a1,s0,8
	.loc 1 1267 10
	mv	a0,s5
	add	a1,a1,a5
	call	move_window
.LVL703:
	.loc 1 1268 4 is_stmt 1
	.loc 1 1268 7 is_stmt 0
	bne	a0,zero,.L585
	.loc 1 1269 4 is_stmt 1
	.loc 1 1269 27 is_stmt 0
	slli	s0,s0,1
.LVL704:
	.loc 1 1269 12
	addi	a5,s5,48
	.loc 1 1269 31
	andi	s0,s0,510
	.loc 1 1269 4
	add	a5,a5,s0
.LVL705:
.LBB776:
.LBB777:
	.loc 1 658 2 is_stmt 1
	.loc 1 658 9 is_stmt 0
	sb	zero,0(a5)
	.loc 1 658 22 is_stmt 1
	.loc 1 659 2
.LVL706:
	.loc 1 659 9 is_stmt 0
	sb	zero,1(a5)
.LVL707:
.LBE777:
.LBE776:
	.loc 1 1270 4 is_stmt 1
	.loc 1 1271 4
	.loc 1 1287 2
.LBE783:
.LBE790:
	.loc 1 1287 2
.LBE797:
.LBE821:
	.loc 1 1461 4
	j	.L553
.LVL708:
.L537:
.LBB822:
.LBB809:
	.loc 1 1188 4
	.loc 1 1188 8 is_stmt 0
	lw	a5,32(s1)
	.loc 1 1188 44
	srli	a1,s0,8
	.loc 1 1188 8
	mv	a0,s1
	add	a1,a1,a5
	call	move_window
.LVL709:
	.loc 1 1188 7 discriminator 1
	bne	a0,zero,.L541
	.loc 1 1189 4 is_stmt 1
	.loc 1 1189 33 is_stmt 0
	slli	a5,s0,1
	.loc 1 1189 37
	andi	a5,a5,510
	.loc 1 1189 8 discriminator 1
	add	a5,s1,a5
	lbu	s7,49(a5)
	lbu	a5,48(a5)
	slli	s7,s7,8
	or	s7,s7,a5
.LVL710:
	.loc 1 1190 4 is_stmt 1
	.loc 1 1228 2
.LBE809:
.LBE822:
	.loc 1 1456 3
	.loc 1 1456 6 is_stmt 0
	bne	s7,zero,.L570
.LVL711:
.L544:
	.loc 1 1514 9
	li	a0,0
	j	.L585
.LVL712:
.L576:
	.cfi_restore 18
	.cfi_restore 19
	.cfi_restore 20
	.cfi_restore 23
	.cfi_restore 24
	lw	s1,36(sp)
	.cfi_restore 9
	lw	s6,16(sp)
	.cfi_restore 22
.LVL713:
	j	.L533
.LVL714:
.L591:
	.cfi_offset 9, -12
	.cfi_offset 18, -16
	.cfi_offset 19, -20
	.cfi_offset 20, -24
	.cfi_offset 22, -32
	.cfi_offset 23, -36
	.cfi_offset 24, -40
	.cfi_offset 25, -44
	.cfi_offset 26, -48
.LBB823:
.LBB798:
.LBB791:
.LBB784:
	.loc 1 1257 7 discriminator 4
	lbu	a4,0(s8)
	.loc 1 1259 10
	mv	a0,s5
.LVL715:
	.loc 1 1257 7 discriminator 4
	andi	a4,a4,15
	sb	a4,0(s8)
	.loc 1 1258 4 is_stmt 1
	.loc 1 1259 10 is_stmt 0
	lw	a1,32(s5)
	.loc 1 1258 14
	sb	s1,4(s5)
	.loc 1 1259 4 is_stmt 1
	.loc 1 1259 10 is_stmt 0
	add	a1,a5,a1
	call	move_window
.LVL716:
	.loc 1 1260 4 is_stmt 1
	.loc 1 1260 7 is_stmt 0
	bne	a0,zero,.L586
	.loc 1 1261 4 is_stmt 1
	.loc 1 1261 21 is_stmt 0
	andi	s10,s10,511
.LVL717:
	.loc 1 1261 6
	add	s9,s9,s10
.LVL718:
	.loc 1 1262 4 is_stmt 1
	.loc 1 1262 7 is_stmt 0 discriminator 1
	li	a5,0
	j	.L557
.LVL719:
.L540:
	.cfi_restore 25
	.cfi_restore 26
.LBE784:
.LBE791:
.LBE798:
.LBE823:
.LBB824:
.LBB810:
	.loc 1 1181 4 is_stmt 1
	sw	s9,4(sp)
	.cfi_offset 25, -44
	.loc 1 1182 8 is_stmt 0
	lw	a5,32(s1)
	.loc 1 1181 19
	addi	s9,s7,1
.LVL720:
	.loc 1 1182 42
	srli	a1,s9,9
	.loc 1 1181 22
	andi	s7,s7,511
	.loc 1 1181 16
	add	s7,s1,s7
	.loc 1 1182 8
	add	a1,a1,a5
	mv	a0,s1
	.loc 1 1181 16
	lbu	s7,48(s7)
.LVL721:
	.loc 1 1182 4 is_stmt 1
	.loc 1 1182 8 is_stmt 0
	call	move_window
.LVL722:
	.loc 1 1182 7 discriminator 1
	bne	a0,zero,.L578
	.loc 1 1183 4 is_stmt 1
	.loc 1 1183 21 is_stmt 0
	andi	s9,s9,511
.LVL723:
	.loc 1 1183 17
	add	s9,s1,s9
	.loc 1 1183 31
	lbu	a5,48(s9)
	.loc 1 1184 16
	andi	a4,s0,1
	.loc 1 1183 31
	slli	a5,a5,8
	.loc 1 1183 7
	or	a5,a5,s7
.LVL724:
	.loc 1 1184 4 is_stmt 1
	.loc 1 1184 33 is_stmt 0
	beq	a4,zero,.L542
	.loc 1 1184 33 discriminator 1
	srli	s7,a5,4
.LVL725:
	.loc 1 1228 2 is_stmt 1
.LBE810:
.LBE824:
	.loc 1 1456 3
	.loc 1 1456 6 is_stmt 0
	beq	s7,zero,.L588
.L569:
	.loc 1 1457 3 is_stmt 1
	.loc 1 1457 6 is_stmt 0
	beq	s7,s8,.L592
	lw	s9,4(sp)
	.cfi_remember_state
	.cfi_restore 25
	j	.L547
.LVL726:
.L542:
	.cfi_restore_state
.LBB825:
.LBB811:
	.loc 1 1184 33 discriminator 2
	slli	a5,a5,20
.LVL727:
	srli	s7,a5,20
.LVL728:
	.loc 1 1228 2 is_stmt 1
.LBE811:
.LBE825:
	.loc 1 1456 3
	.loc 1 1456 6 is_stmt 0
	bne	a5,zero,.L569
.L588:
	lw	s9,4(sp)
	.cfi_restore 25
	.loc 1 1514 9
	li	a0,0
	j	.L585
.LVL729:
.L586:
	.cfi_offset 25, -44
	.cfi_offset 26, -48
	lw	s1,36(sp)
	.cfi_restore 9
	lw	s2,32(sp)
	.cfi_restore 18
	lw	s3,28(sp)
	.cfi_restore 19
	lw	s4,24(sp)
	.cfi_restore 20
	lw	s6,16(sp)
	.cfi_restore 22
.LVL730:
	lw	s7,12(sp)
	.cfi_restore 23
.LVL731:
	lw	s8,8(sp)
	.cfi_restore 24
.LVL732:
	lw	s9,4(sp)
	.cfi_restore 25
.LVL733:
	lw	s10,0(sp)
	.cfi_restore 26
.LVL734:
	j	.L533
.LVL735:
.L578:
	.cfi_offset 9, -12
	.cfi_offset 18, -16
	.cfi_offset 19, -20
	.cfi_offset 20, -24
	.cfi_offset 22, -32
	.cfi_offset 23, -36
	.cfi_offset 24, -40
	.cfi_offset 25, -44
	lw	s9,4(sp)
	.cfi_remember_state
	.cfi_restore 25
.LVL736:
	j	.L541
.LVL737:
.L592:
	.cfi_restore_state
	lw	s1,36(sp)
	.cfi_restore 9
	lw	s2,32(sp)
	.cfi_restore 18
	lw	s3,28(sp)
	.cfi_restore 19
	lw	s4,24(sp)
	.cfi_restore 20
	lw	s6,16(sp)
	.cfi_restore 22
.LVL738:
	lw	s7,12(sp)
	.cfi_restore 23
.LVL739:
	lw	s8,8(sp)
	.cfi_restore 24
	lw	s9,4(sp)
	.cfi_restore 25
	j	.L556
	.cfi_endproc
.LFE13:
	.size	remove_chain, .-remove_chain
	.align	2
	.globl	f_mount
	.type	f_mount, @function
f_mount:
.LFB33:
	.loc 1 3662 1 is_stmt 1
	.cfi_startproc
.LVL740:
	.loc 1 3663 2
	.loc 1 3664 2
	.loc 1 3665 2
	.loc 1 3666 2
	.loc 1 3662 1 is_stmt 0
	addi	sp,sp,-32
	.cfi_def_cfa_offset 32
	sw	ra,28(sp)
	.cfi_offset 1, -4
	.loc 1 3662 1
	sw	a0,12(sp)
	sw	a1,8(sp)
.LVL741:
	.loc 1 3670 2 is_stmt 1
.LBB828:
.LBB829:
	.loc 1 3142 2
	.loc 1 3143 2
	.loc 1 3144 2
	.loc 1 3145 2
	.loc 1 3146 2
	.loc 1 3152 2
	.loc 1 3153 2
	.loc 1 3153 5 is_stmt 0
	beq	a1,zero,.L599
	.loc 1 3152 5
	mv	a5,a1
	.loc 1 3156 29 discriminator 2
	li	a3,32
	.loc 1 3156 29 discriminator 1
	li	a0,58
.LVL742:
	j	.L596
.LVL743:
.L613:
	beq	a4,a0,.L612
.LVL744:
.L596:
	.loc 1 3154 2 is_stmt 1
	.loc 1 3155 3
	.loc 1 3155 6 is_stmt 0
	lbu	a4,0(a5)
	.loc 1 3155 11
	addi	a5,a5,1
.LVL745:
	.loc 1 3156 29 is_stmt 1 discriminator 2
	bgtu	a4,a3,.L613
.LVL746:
.L595:
.LBE829:
.LBE828:
	.loc 1 3672 2
	.loc 1 3672 6 is_stmt 0
	lui	a5,%hi(FatFs)
	lw	a4,%lo(FatFs)(a5)
.LVL747:
	.loc 1 3674 2 is_stmt 1
	.loc 1 3674 5 is_stmt 0
	beq	a4,zero,.L597
	.loc 1 3675 3 is_stmt 1
	.loc 1 3675 14 is_stmt 0
	sw	zero,%lo(FatFs)(a5)
	.loc 1 3682 3 is_stmt 1
	.loc 1 3682 16 is_stmt 0
	sb	zero,0(a4)
.L597:
	.loc 1 3685 2 is_stmt 1
	.loc 1 3685 6 is_stmt 0
	lw	a4,12(sp)
.LVL748:
	.loc 1 3685 5
	beq	a4,zero,.L598
	.loc 1 3686 3 is_stmt 1
	.loc 1 3700 3
	.loc 1 3700 15 is_stmt 0
	sh	zero,0(a4)
	.loc 1 3701 3 is_stmt 1
	.loc 1 3701 14 is_stmt 0
	sw	a4,%lo(FatFs)(a5)
.L598:
	.loc 1 3704 2 is_stmt 1
	.loc 1 3704 23 is_stmt 0 discriminator 1
	li	a0,0
	.loc 1 3704 5
	bne	a2,zero,.L614
.LVL749:
.L593:
	.loc 1 3708 1
	lw	ra,28(sp)
	.cfi_remember_state
	.cfi_restore 1
	addi	sp,sp,32
	.cfi_def_cfa_offset 0
.LVL750:
	jr	ra
.LVL751:
.L614:
	.cfi_restore_state
	.loc 1 3706 2 is_stmt 1
	.loc 1 3706 8 is_stmt 0
	addi	a1,sp,12
.LVL752:
	addi	a0,sp,8
.LVL753:
	li	a2,0
.LVL754:
	call	mount_volume
.LVL755:
	.loc 1 3707 2 is_stmt 1
	.loc 1 3708 1 is_stmt 0
	lw	ra,28(sp)
	.cfi_remember_state
	.cfi_restore 1
	addi	sp,sp,32
	.cfi_def_cfa_offset 0
	jr	ra
.LVL756:
.L612:
	.cfi_restore_state
.LBB832:
.LBB830:
	.loc 1 3158 2 is_stmt 1
	.loc 1 3159 3
	.loc 1 3160 3
	.loc 1 3160 6 is_stmt 0
	lbu	a3,0(a1)
	li	a4,48
.LVL757:
.LBE830:
.LBE832:
	.loc 1 3671 22 discriminator 1
	li	a0,11
.LBB833:
.LBB831:
	.loc 1 3160 6
	bne	a3,a4,.L593
	.loc 1 3160 26 discriminator 1
	addi	a1,a1,2
.LVL758:
	.loc 1 3160 20 discriminator 1
	bne	a5,a1,.L593
	j	.L595
.LVL759:
.L599:
.LBE831:
.LBE833:
	.loc 1 3671 22 discriminator 1
	li	a0,11
.LVL760:
	j	.L593
	.cfi_endproc
.LFE33:
	.size	f_mount, .-f_mount
	.align	2
	.globl	f_open
	.type	f_open, @function
f_open:
.LFB34:
	.loc 1 3722 1 is_stmt 1
	.cfi_startproc
.LVL761:
	.loc 1 3723 2
	.loc 1 3724 2
	.loc 1 3725 2
	.loc 1 3727 2
	.loc 1 3728 2
	.loc 1 3729 2
	.loc 1 3734 2
	.loc 1 3722 1 is_stmt 0
	addi	sp,sp,-96
	.cfi_def_cfa_offset 96
	sw	ra,92(sp)
	sw	s1,84(sp)
	sw	a1,12(sp)
	.cfi_offset 1, -4
	.cfi_offset 9, -12
	.loc 1 3734 5
	beq	a0,zero,.L636
	.loc 1 3737 2 is_stmt 1
	sw	s3,76(sp)
	.cfi_offset 19, -20
	.loc 1 3737 7 is_stmt 0
	andi	s3,a2,63
.LVL762:
	.loc 1 3738 2 is_stmt 1
	sw	s0,88(sp)
	sw	s2,80(sp)
	.cfi_offset 8, -8
	.cfi_offset 18, -16
	mv	s0,a0
	mv	s2,a2
	.loc 1 3738 8 is_stmt 0
	addi	a1,sp,16
.LVL763:
	mv	a2,s3
	addi	a0,sp,12
.LVL764:
	call	mount_volume
.LVL765:
	mv	s1,a0
.LVL766:
	.loc 1 3739 2 is_stmt 1
	.loc 1 3739 5 is_stmt 0
	beq	a0,zero,.L676
.LVL767:
.L617:
	.loc 1 3902 20 is_stmt 1 discriminator 1
	.loc 1 3902 31 is_stmt 0 discriminator 1
	sw	zero,0(s0)
	lw	s0,88(sp)
	.cfi_restore 8
.LVL768:
	lw	s2,80(sp)
	.cfi_restore 18
	lw	s3,76(sp)
	.cfi_restore 19
.L615:
	.loc 1 3905 1
	lw	ra,92(sp)
	.cfi_restore 1
	mv	a0,s1
	lw	s1,84(sp)
	.cfi_restore 9
	addi	sp,sp,96
	.cfi_def_cfa_offset 0
	jr	ra
.LVL769:
.L676:
	.cfi_def_cfa_offset 96
	.cfi_offset 1, -4
	.cfi_offset 8, -8
	.cfi_offset 9, -12
	.cfi_offset 18, -16
	.cfi_offset 19, -20
	.loc 1 3740 3 is_stmt 1
	sw	s4,72(sp)
	.loc 1 3742 9 is_stmt 0
	lw	a1,12(sp)
	.cfi_offset 20, -24
	.loc 1 3740 13
	lw	s4,16(sp)
	.loc 1 3742 9
	addi	a0,sp,20
	.loc 1 3740 13
	sw	s4,20(sp)
	.loc 1 3741 18 is_stmt 1
	.loc 1 3742 3
	.loc 1 3742 9 is_stmt 0
	call	follow_path
.LVL770:
	.loc 1 3744 3 is_stmt 1
	.loc 1 3744 6 is_stmt 0
	bne	a0,zero,.L677
	.loc 1 3745 4 is_stmt 1
	.loc 1 3745 7 is_stmt 0
	lb	a5,63(sp)
	blt	a5,zero,.L637
.LVL771:
	.loc 1 3755 3 is_stmt 1
	.loc 1 3755 6 is_stmt 0
	andi	a4,s2,28
	.loc 1 3767 15
	lbu	a5,26(sp)
	.loc 1 3755 6
	beq	a4,zero,.L678
	.loc 1 3767 5 is_stmt 1
	.loc 1 3767 8 is_stmt 0
	andi	a5,a5,17
	bne	a5,zero,.L644
	.loc 1 3770 6 is_stmt 1
	.loc 1 3770 9 is_stmt 0
	andi	a5,s2,4
	beq	a5,zero,.L679
	lw	s4,72(sp)
	.cfi_restore 20
	.loc 1 3770 36 discriminator 1
	li	s1,8
	j	.L617
.LVL772:
.L677:
	.cfi_offset 20, -24
	.loc 1 3755 3 is_stmt 1
	.loc 1 3755 6 is_stmt 0
	andi	a2,s2,28
	beq	a2,zero,.L639
	.loc 1 3756 4 is_stmt 1
	.loc 1 3757 5
	.loc 1 3757 8 is_stmt 0
	li	a5,4
	beq	a0,a5,.L680
.LVL773:
.L639:
	lw	s4,72(sp)
	.cfi_remember_state
	.cfi_restore 20
	mv	s1,a0
	j	.L617
.LVL774:
.L678:
	.cfi_restore_state
	.loc 1 3814 4 is_stmt 1
	.loc 1 3815 5
	.loc 1 3815 8 is_stmt 0
	andi	a4,a5,16
	bne	a4,zero,.L643
	.loc 1 3818 6 is_stmt 1
	.loc 1 3818 9 is_stmt 0
	andi	a2,s2,2
	beq	a2,zero,.L675
	.loc 1 3818 28 discriminator 1
	andi	a5,a5,1
	beq	a5,zero,.L675
.L644:
	.loc 1 3768 10
	lw	s4,72(sp)
	.cfi_restore 20
	li	s1,7
	j	.L617
.LVL775:
.L636:
	.cfi_restore 8
	.cfi_restore 18
	.cfi_restore 19
	.loc 1 3905 1
	lw	ra,92(sp)
	.cfi_restore 1
	.loc 1 3734 18 discriminator 1
	li	s1,9
	.loc 1 3905 1
	mv	a0,s1
.LVL776:
	lw	s1,84(sp)
	.cfi_restore 9
	addi	sp,sp,96
	.cfi_def_cfa_offset 0
	jr	ra
.LVL777:
.L637:
	.cfi_def_cfa_offset 96
	.cfi_offset 1, -4
	.cfi_offset 8, -8
	.cfi_offset 9, -12
	.cfi_offset 18, -16
	.cfi_offset 19, -20
	.cfi_offset 20, -24
	lw	s4,72(sp)
	.cfi_remember_state
	.cfi_restore 20
	.loc 1 3746 9
	li	s1,6
	j	.L617
.LVL778:
.L643:
	.cfi_restore_state
	lw	s4,72(sp)
	.cfi_remember_state
	.cfi_restore 20
	.loc 1 3816 10
	li	s1,4
	j	.L617
.LVL779:
.L680:
	.cfi_restore_state
	.loc 1 3761 6 is_stmt 1
	.loc 1 3761 12 is_stmt 0
	addi	a0,sp,20
.LVL780:
	call	dir_register
.LVL781:
	.loc 1 3764 5 is_stmt 1
	.loc 1 3773 4
	.loc 1 3773 7 is_stmt 0
	bne	a0,zero,.L639
	.loc 1 3795 17
	lw	a4,48(sp)
	.loc 1 3764 10
	ori	s3,s3,8
.LVL782:
.L622:
	.loc 1 3794 6 is_stmt 1
	.loc 1 3795 6
.LBB866:
.LBB867:
	.loc 1 664 2
	.loc 1 666 9 is_stmt 0
	li	a2,102
	.loc 1 667 9
	li	a3,85
	.loc 1 664 9
	sb	zero,14(a4)
.LVL783:
	.loc 1 664 22 is_stmt 1
	.loc 1 665 2
	.loc 1 665 9 is_stmt 0
	sb	zero,15(a4)
	.loc 1 665 22 is_stmt 1
.LVL784:
	.loc 1 666 2
	.loc 1 666 9 is_stmt 0
	sb	a2,16(a4)
	.loc 1 666 22 is_stmt 1
.LVL785:
	.loc 1 667 2
	.loc 1 667 9 is_stmt 0
	sb	a3,17(a4)
.LVL786:
.LBE867:
.LBE866:
	.loc 1 3796 6 is_stmt 1
	.loc 1 3796 17 is_stmt 0
	lw	a5,48(sp)
.LVL787:
.LBB868:
.LBB869:
	.loc 1 664 2 is_stmt 1
.LBE869:
.LBE868:
.LBB871:
.LBB872:
	.loc 1 1856 5 is_stmt 0
	li	a4,3
.LBE872:
.LBE871:
.LBB874:
.LBB870:
	.loc 1 666 9
	sb	a2,24(a5)
	.loc 1 664 9
	sb	zero,22(a5)
	.loc 1 664 22 is_stmt 1
.LVL788:
	.loc 1 665 2
	.loc 1 665 9 is_stmt 0
	sb	zero,23(a5)
	.loc 1 665 22 is_stmt 1
.LVL789:
	.loc 1 666 2
	.loc 1 666 22
	.loc 1 667 2
	.loc 1 667 9 is_stmt 0
	sb	a3,25(a5)
.LVL790:
.LBE870:
.LBE874:
	.loc 1 3797 6 is_stmt 1
	.loc 1 3797 26 is_stmt 0
	lw	a5,48(sp)
.LVL791:
.LBB875:
.LBB873:
	.loc 1 1853 2 is_stmt 1
	.loc 1 1855 2
	.loc 1 1856 5 is_stmt 0
	lbu	a3,0(s4)
	.loc 1 1855 5 discriminator 1
	lbu	s2,27(a5)
	lbu	a2,26(a5)
	slli	s2,s2,8
	or	s2,s2,a2
.LVL792:
	.loc 1 1856 2 is_stmt 1
	.loc 1 1856 5 is_stmt 0
	bne	a3,a4,.L624
	.loc 1 1857 3 is_stmt 1
	.loc 1 1857 9 is_stmt 0 discriminator 1
	lbu	a4,21(a5)
	lbu	a3,20(a5)
	slli	a4,a4,8
	or	a4,a4,a3
	.loc 1 1857 45 discriminator 1
	slli	a4,a4,16
	.loc 1 1857 6 discriminator 1
	or	s2,s2,a4
.LVL793:
.L624:
	.loc 1 1860 2 is_stmt 1
.LBE873:
.LBE875:
	.loc 1 3798 6
	.loc 1 3798 23 is_stmt 0
	li	a4,32
	sb	a4,11(a5)
	.loc 1 3799 6 is_stmt 1
	lw	a5,48(sp)
.LVL794:
.LBB876:
.LBB877:
	.loc 1 1871 2
.LBB878:
.LBB879:
	.loc 1 658 2
.LBE879:
.LBE878:
	.loc 1 1872 5 is_stmt 0
	li	a4,3
.LBB881:
.LBB880:
	.loc 1 658 9
	sb	zero,26(a5)
	.loc 1 658 22 is_stmt 1
	.loc 1 659 2
.LVL795:
	.loc 1 659 9 is_stmt 0
	sb	zero,27(a5)
.LVL796:
.LBE880:
.LBE881:
	.loc 1 1872 2 is_stmt 1
	.loc 1 1872 5 is_stmt 0
	lbu	a3,0(s4)
	bne	a3,a4,.L625
.LVL797:
.LBB882:
.LBB883:
	.loc 1 1873 3 is_stmt 1
.LBB884:
.LBB885:
	.loc 1 658 2
	.loc 1 658 9 is_stmt 0
	sb	zero,20(a5)
	.loc 1 658 22 is_stmt 1
	.loc 1 659 2
.LVL798:
	.loc 1 659 9 is_stmt 0
	sb	zero,21(a5)
.LVL799:
.L625:
.LBE885:
.LBE884:
.LBE883:
.LBE882:
.LBE877:
.LBE876:
	.loc 1 3800 6 is_stmt 1
	.loc 1 3800 17 is_stmt 0
	lw	a5,48(sp)
.LVL800:
.LBB886:
.LBB887:
	.loc 1 664 2 is_stmt 1
	.loc 1 664 9 is_stmt 0
	sb	zero,28(a5)
	.loc 1 664 22 is_stmt 1
	.loc 1 665 2
.LVL801:
	.loc 1 665 9 is_stmt 0
	sb	zero,29(a5)
	.loc 1 665 22 is_stmt 1
	.loc 1 666 2
.LVL802:
	.loc 1 666 9 is_stmt 0
	sb	zero,30(a5)
	.loc 1 666 22 is_stmt 1
	.loc 1 667 2
.LVL803:
	.loc 1 667 9 is_stmt 0
	sb	zero,31(a5)
.LVL804:
.LBE887:
.LBE886:
	.loc 1 3801 6 is_stmt 1
	.loc 1 3801 16 is_stmt 0
	li	a5,1
	sb	a5,4(s4)
	.loc 1 3802 6 is_stmt 1
	.loc 1 3802 9 is_stmt 0
	bne	s2,zero,.L681
.LVL805:
.L626:
	.loc 1 3825 4 is_stmt 1
	.loc 1 3825 33 discriminator 1
	lw	a5,48(sp)
	.loc 1 3825 38 is_stmt 0 discriminator 1
	ori	s3,s3,64
.LVL806:
.L623:
	.loc 1 3826 4 is_stmt 1
	.loc 1 3826 21 is_stmt 0
	lw	a3,44(s4)
	.loc 1 3827 16
	sw	a5,36(s0)
.LBB888:
.LBB889:
	.loc 1 1856 5
	li	a4,3
.LBE889:
.LBE888:
	.loc 1 3826 17
	sw	a3,32(s0)
	.loc 1 3827 4 is_stmt 1
	.loc 1 3845 3
	.loc 1 3855 5
.LVL807:
.LBB891:
.LBB890:
	.loc 1 1853 2
	.loc 1 1855 2
	.loc 1 1855 5 is_stmt 0 discriminator 1
	lbu	a1,27(a5)
	lbu	a2,26(a5)
	.loc 1 1856 5
	lbu	a3,0(s4)
	.loc 1 1855 5 discriminator 1
	slli	a1,a1,8
	or	a1,a1,a2
.LVL808:
	.loc 1 1856 2 is_stmt 1
	.loc 1 1856 5 is_stmt 0
	bne	a3,a4,.L627
	.loc 1 1857 3 is_stmt 1
	.loc 1 1857 9 is_stmt 0 discriminator 1
	lbu	a4,21(a5)
	lbu	a3,20(a5)
	slli	a4,a4,8
	or	a4,a4,a3
	.loc 1 1857 45 discriminator 1
	slli	a4,a4,16
	.loc 1 1857 6 discriminator 1
	or	a1,a1,a4
.LVL809:
.L627:
	.loc 1 1860 2 is_stmt 1
.LBE890:
.LBE891:
	.loc 1 3855 20 is_stmt 0 discriminator 1
	sw	a1,8(s0)
	.loc 1 3856 5 is_stmt 1
.LVL810:
.LBB892:
.LBB893:
	.loc 1 629 2
	.loc 1 631 2
	.loc 1 634 5 is_stmt 0
	lbu	a3,29(a5)
	lbu	a2,28(a5)
	lbu	a4,30(a5)
	lbu	s2,31(a5)
	slli	a3,a3,8
	slli	a5,a4,16
	or	a3,a3,a2
	or	a5,a5,a3
	slli	s2,s2,24
	or	s2,s2,a5
.LVL811:
	.loc 1 632 2 is_stmt 1
	.loc 1 633 2
	.loc 1 634 2
	.loc 1 635 2
.LBE893:
.LBE892:
	.loc 1 3856 21 is_stmt 0 discriminator 1
	sw	s2,12(s0)
	.loc 1 3861 4 is_stmt 1
	.loc 1 3861 15 is_stmt 0
	sw	s4,0(s0)
	.loc 1 3862 4 is_stmt 1
	.loc 1 3862 19 is_stmt 0
	lhu	a4,6(s4)
	.loc 1 3871 7
	andi	a5,s3,32
	.loc 1 3863 13
	sb	s3,16(s0)
	.loc 1 3862 15
	sh	a4,4(s0)
	.loc 1 3863 4 is_stmt 1
	.loc 1 3864 4
	.loc 1 3864 12 is_stmt 0
	sb	zero,17(s0)
	.loc 1 3865 4 is_stmt 1
	.loc 1 3865 13 is_stmt 0
	sw	zero,28(s0)
	.loc 1 3866 4 is_stmt 1
	.loc 1 3866 13 is_stmt 0
	sw	zero,20(s0)
	.loc 1 3871 4 is_stmt 1
	.loc 1 3871 7 is_stmt 0
	beq	a5,zero,.L674
	.loc 1 3871 28 discriminator 1
	beq	s2,zero,.L674
	.loc 1 3872 5 is_stmt 1
	.loc 1 3872 14 is_stmt 0
	sw	s2,20(s0)
	.loc 1 3873 5 is_stmt 1
	.loc 1 3873 11 is_stmt 0
	lhu	s3,10(s4)
.LVL812:
	.loc 1 3873 9
	slli	s3,s3,9
.LVL813:
	.loc 1 3874 5 is_stmt 1
	.loc 1 3875 5
	.loc 1 3875 46 discriminator 1
	.loc 1 3875 46 is_stmt 0 discriminator 3
	bgeu	s3,s2,.L631
	sw	s5,68(sp)
.LVL814:
	sw	s6,64(sp)
	mv	a0,s4
	.cfi_offset 21, -28
	.cfi_offset 22, -32
	.loc 1 3877 9
	li	s5,1
	.loc 1 3875 46 discriminator 1
	li	s6,-1
	j	.L634
.LVL815:
.L632:
	.loc 1 3875 64 discriminator 2
	sub	s2,s2,s3
.LVL816:
	.loc 1 3875 46 is_stmt 1 discriminator 1
	beq	a0,s6,.L633
	.loc 1 3875 46 is_stmt 0 discriminator 3
	bgeu	s3,s2,.L673
	lw	a0,0(s0)
.LVL817:
.L634:
	.loc 1 3876 6 is_stmt 1
	.loc 1 3876 13 is_stmt 0
	call	get_fat.isra.0
.LVL818:
	.loc 1 3878 6 is_stmt 1
	.loc 1 3876 13 is_stmt 0
	mv	a1,a0
.LVL819:
	.loc 1 3877 6 is_stmt 1
	.loc 1 3875 64 discriminator 2
	.loc 1 3877 9 is_stmt 0
	bgtu	a0,s5,.L632
.LVL820:
	.loc 1 3875 64 is_stmt 1 discriminator 2
	.loc 1 3875 46 discriminator 1
	.loc 1 3880 5
	.loc 1 3880 15 is_stmt 0
	sw	a0,24(s0)
	.loc 1 3881 5 is_stmt 1
	.loc 1 3880 15 is_stmt 0
	lw	s5,68(sp)
	.cfi_restore 21
	lw	s6,64(sp)
	.cfi_restore 22
.LVL821:
.L635:
	lw	s4,72(sp)
	.cfi_remember_state
	.cfi_restore 20
	.loc 1 3877 25 discriminator 1
	li	s1,2
	j	.L617
.LVL822:
.L675:
	.cfi_restore_state
	lw	a5,48(sp)
	j	.L623
.LVL823:
.L674:
	lw	s0,88(sp)
	.cfi_remember_state
	.cfi_restore 8
.LVL824:
	lw	s2,80(sp)
	.cfi_restore 18
	lw	s3,76(sp)
	.cfi_restore 19
	lw	s4,72(sp)
	.cfi_restore 20
	j	.L615
.LVL825:
.L679:
	.cfi_restore_state
	.loc 1 3795 17
	lw	a5,48(sp)
	.loc 1 3773 21 discriminator 1
	andi	a2,s2,8
	.loc 1 3795 17
	mv	a4,a5
	.loc 1 3773 21 discriminator 1
	beq	a2,zero,.L623
	j	.L622
.LVL826:
.L681:
	sw	s5,68(sp)
	.cfi_offset 21, -28
	.loc 1 3803 7 is_stmt 1
	.loc 1 3804 13 is_stmt 0
	li	a2,0
	mv	a1,s2
	addi	a0,sp,20
	.loc 1 3803 10
	lw	s5,44(s4)
.LVL827:
	.loc 1 3804 7 is_stmt 1
	.loc 1 3804 13 is_stmt 0
	call	remove_chain
.LVL828:
	.loc 1 3805 7 is_stmt 1
	.loc 1 3805 10 is_stmt 0
	beq	a0,zero,.L682
.LVL829:
.L642:
	lw	s4,72(sp)
	.cfi_restore 20
	lw	s5,68(sp)
	.cfi_restore 21
.LVL830:
	.loc 1 3804 13
	mv	s1,a0
	j	.L617
.LVL831:
.L673:
	.cfi_offset 20, -24
	.cfi_offset 21, -28
	.cfi_offset 22, -32
	lw	s5,68(sp)
	.cfi_restore 21
	lw	s6,64(sp)
	.cfi_restore 22
.LVL832:
.L631:
	.loc 1 3880 15
	sw	a1,24(s0)
	.loc 1 3881 29 discriminator 1
	andi	a5,s2,511
	.loc 1 3881 22 discriminator 1
	beq	a5,zero,.L674
	.loc 1 3882 6 is_stmt 1
.LVL833:
.LBB894:
.LBB895:
	.loc 1 1149 2
	.loc 1 1150 27 is_stmt 0
	lw	a5,20(s4)
	.loc 1 1149 7
	addi	a1,a1,-2
.LVL834:
	.loc 1 1150 2 is_stmt 1
	.loc 1 1150 27 is_stmt 0
	addi	a5,a5,-2
	.loc 1 1150 5
	bgeu	a1,a5,.L635
	.loc 1 1151 2 is_stmt 1
	.loc 1 1151 24 is_stmt 0
	lhu	a4,10(s4)
	.loc 1 1151 22
	lw	a5,40(s4)
	.loc 1 1151 41
	mul	a4,a4,a1
	.loc 1 1151 22
	add	a4,a4,a5
.LVL835:
.LBE895:
.LBE894:
	.loc 1 3883 6 is_stmt 1
	.loc 1 3883 9 is_stmt 0
	beq	a4,zero,.L635
	.loc 1 3886 7 is_stmt 1
	.loc 1 3886 23 is_stmt 0
	srli	a5,s2,9
	.loc 1 3886 21
	add	a5,a5,a4
	.loc 1 3886 16
	sw	a5,28(s0)
	lw	s0,88(sp)
	.cfi_restore 8
.LVL836:
	lw	s2,80(sp)
	.cfi_restore 18
	lw	s3,76(sp)
	.cfi_restore 19
.LVL837:
	lw	s4,72(sp)
	.cfi_restore 20
	j	.L615
.LVL838:
.L682:
	.cfi_offset 8, -8
	.cfi_offset 18, -16
	.cfi_offset 19, -20
	.cfi_offset 20, -24
	.cfi_offset 21, -28
	.loc 1 3806 8 is_stmt 1
	.loc 1 3806 14 is_stmt 0
	mv	a1,s5
	mv	a0,s4
.LVL839:
	.loc 1 3807 27
	addi	s2,s2,-1
.LVL840:
	.loc 1 3806 14
	call	move_window
.LVL841:
	.loc 1 3807 8 is_stmt 1
	.loc 1 3807 22 is_stmt 0
	sw	s2,12(s4)
.LVL842:
	.loc 1 3824 3 is_stmt 1
	.loc 1 3824 6 is_stmt 0
	bne	a0,zero,.L642
	lw	s5,68(sp)
	.cfi_restore 21
.LVL843:
	j	.L626
.LVL844:
.L633:
	.cfi_offset 21, -28
	.cfi_offset 22, -32
	.loc 1 3880 5 is_stmt 1
	.loc 1 3880 15 is_stmt 0
	sw	a0,24(s0)
	.loc 1 3881 5 is_stmt 1
	lw	s4,72(sp)
	.cfi_restore 20
	lw	s5,68(sp)
	.cfi_restore 21
	lw	s6,64(sp)
	.cfi_restore 22
	.loc 1 3880 15 is_stmt 0
	li	s1,1
	j	.L617
	.cfi_endproc
.LFE34:
	.size	f_open, .-f_open
	.align	2
	.globl	f_read
	.type	f_read, @function
f_read:
.LFB35:
	.loc 1 3920 1 is_stmt 1
	.cfi_startproc
.LVL845:
	.loc 1 3921 2
	.loc 1 3922 2
	.loc 1 3923 2
	.loc 1 3924 2
	.loc 1 3925 2
	.loc 1 3926 2
	.loc 1 3927 2
	.loc 1 3920 1 is_stmt 0
	addi	sp,sp,-80
	.cfi_def_cfa_offset 80
	sw	ra,76(sp)
	sw	s10,32(sp)
	.loc 1 3930 6
	sw	zero,0(a3)
.LVL846:
	.loc 1 3930 2 is_stmt 1
	.loc 1 3931 2
.LBB900:
.LBB901:
	.loc 1 3618 2
	.loc 1 3621 2
	.cfi_offset 1, -4
	.cfi_offset 26, -48
	.loc 1 3621 5 is_stmt 0
	beq	a0,zero,.L686
	sw	s0,72(sp)
	.loc 1 3621 16 discriminator 1
	lw	a5,0(a0)
	.cfi_offset 8, -8
	mv	s0,a0
	.loc 1 3621 10 discriminator 1
	beq	a5,zero,.L722
	.loc 1 3621 21 discriminator 2
	lbu	a4,0(a5)
	beq	a4,zero,.L722
	sw	s7,44(sp)
	.loc 1 3621 41 discriminator 3
	lhu	a4,6(a5)
	.cfi_offset 23, -36
	mv	s7,a3
	lhu	a3,4(a0)
.LVL847:
	beq	a3,a4,.L727
	lw	s0,72(sp)
	.cfi_restore 8
	lw	s7,44(sp)
	.cfi_restore 23
.LVL848:
.L686:
.LBE901:
.LBE900:
	.loc 1 4004 1
	lw	ra,76(sp)
	.cfi_restore 1
	.loc 1 3931 8
	li	s10,9
	.loc 1 4004 1
	mv	a0,s10
	lw	s10,32(sp)
	.cfi_restore 26
	addi	sp,sp,80
	.cfi_def_cfa_offset 0
	jr	ra
.LVL849:
.L722:
	.cfi_def_cfa_offset 80
	.cfi_offset 1, -4
	.cfi_offset 8, -8
	.cfi_offset 26, -48
	lw	s0,72(sp)
	.cfi_restore 8
.LVL850:
	j	.L686
.LVL851:
.L727:
	.cfi_offset 8, -8
	.cfi_offset 23, -36
.LBB904:
.LBB902:
	.loc 1 3633 3 is_stmt 1
	sw	s3,60(sp)
	sw	s1,68(sp)
	sw	s2,64(sp)
	sw	s4,56(sp)
	sw	s5,52(sp)
	sw	s6,48(sp)
	sw	s8,40(sp)
	sw	s9,36(sp)
	sw	s11,28(sp)
	.cfi_offset 19, -20
	.cfi_offset 9, -12
	.cfi_offset 18, -16
	.cfi_offset 20, -24
	.cfi_offset 21, -28
	.cfi_offset 22, -32
	.cfi_offset 24, -40
	.cfi_offset 25, -44
	.cfi_offset 27, -52
	.loc 1 3633 9 is_stmt 0
	lbu	a0,1(a5)
	mv	s3,a1
	sw	a2,12(sp)
	call	disk_status
.LVL852:
	.loc 1 3633 6 discriminator 1
	andi	a0,a0,1
	bne	a0,zero,.L724
	.loc 1 3634 4 is_stmt 1
.LVL853:
	.loc 1 3638 2
	.loc 1 3639 2
.LBE902:
.LBE904:
	.loc 1 3932 2
	.loc 1 3932 27 is_stmt 0 discriminator 2
	lbu	s10,17(s0)
.LVL854:
	.loc 1 3932 19 discriminator 2
	bne	s10,zero,.L726
	.loc 1 3933 2 is_stmt 1
	.loc 1 3933 5 is_stmt 0
	lbu	a5,16(s0)
	andi	a5,a5,1
	beq	a5,zero,.L705
	.loc 1 3934 31
	lw	s1,20(s0)
	.loc 1 3934 9
	lw	s8,12(s0)
	.loc 1 3935 5
	lw	a2,12(sp)
.LBB905:
.LBB903:
	.loc 1 3638 34 discriminator 1
	lw	s11,0(s0)
.LBE903:
.LBE905:
	.loc 1 3934 2 is_stmt 1
.LVL855:
	.loc 1 3935 2
	.loc 1 3934 9 is_stmt 0
	sub	s8,s8,s1
.LVL856:
	.loc 1 3935 5
	bleu	s8,a2,.L687
	mv	s8,a2
.LVL857:
.L687:
	.loc 1 3937 14 is_stmt 1 discriminator 1
	beq	s8,zero,.L726
	.loc 1 3993 8 is_stmt 0
	li	s4,512
	.loc 1 3997 17
	addi	s5,s11,48
	.loc 1 3961 7
	li	s6,511
.LVL858:
.L688:
	.loc 1 3938 3 is_stmt 1
	.loc 1 3938 16 is_stmt 0
	andi	a5,s1,511
	.loc 1 3938 6
	bne	a5,zero,.L728
	.loc 1 3939 4 is_stmt 1
	.loc 1 3939 42 is_stmt 0
	lhu	s9,10(s11)
	.loc 1 3939 28
	srli	a5,s1,9
	.loc 1 3939 50
	addi	s9,s9,-1
	.loc 1 3939 10
	and	s9,s9,a5
.LVL859:
	.loc 1 3940 4 is_stmt 1
	.loc 1 3940 7 is_stmt 0
	beq	s9,zero,.L691
	.loc 1 3950 14
	lw	a0,24(s0)
	.loc 1 3957 4 is_stmt 1
.LVL860:
.LBB906:
.LBB907:
	.loc 1 1149 2
	.loc 1 1150 27 is_stmt 0
	lw	a5,20(s11)
	.loc 1 1149 7
	addi	a0,a0,-2
.LVL861:
	.loc 1 1150 2 is_stmt 1
	.loc 1 1150 27 is_stmt 0
	addi	a5,a5,-2
	.loc 1 1150 5
	bgeu	a0,a5,.L697
.L729:
	.loc 1 1151 2 is_stmt 1
	.loc 1 1151 24 is_stmt 0
	lhu	a5,10(s11)
	.loc 1 1151 22
	lw	a4,40(s11)
	.loc 1 1151 41
	mul	a0,a0,a5
.LVL862:
	.loc 1 1151 22
	add	s2,a0,a4
.LVL863:
.LBE907:
.LBE906:
	.loc 1 3958 4 is_stmt 1
	.loc 1 3958 7 is_stmt 0
	beq	s2,zero,.L697
	.loc 1 3958 40 is_stmt 1 discriminator 2
	.loc 1 3959 4
	.loc 1 3959 9 is_stmt 0
	add	s2,s9,s2
.LVL864:
	.loc 1 3960 4 is_stmt 1
	.loc 1 3961 4
	.loc 1 3961 7 is_stmt 0
	bleu	s8,s6,.L698
	.loc 1 3960 7
	srli	s1,s8,9
.LVL865:
	.loc 1 3962 5 is_stmt 1
	.loc 1 3962 15 is_stmt 0
	add	a4,s9,s1
	.loc 1 3962 8
	bleu	a4,a5,.L699
	.loc 1 3963 6 is_stmt 1
	.loc 1 3963 9 is_stmt 0
	sub	s1,a5,s9
.LVL866:
.L699:
	.loc 1 3965 5 is_stmt 1
	.loc 1 3965 9 is_stmt 0
	lbu	a0,1(s11)
	mv	a3,s1
	mv	a2,s2
	mv	a1,s3
	call	disk_read
.LVL867:
	.loc 1 3965 8 discriminator 1
	bne	a0,zero,.L700
	.loc 1 3965 79 is_stmt 1 discriminator 2
	.loc 1 3968 5
	.loc 1 3968 8 is_stmt 0
	lbu	a5,4(s11)
	beq	a5,zero,.L701
	.loc 1 3968 34 discriminator 1
	lw	a5,44(s11)
	sub	a5,a5,s2
	.loc 1 3968 19 discriminator 1
	bgeu	a5,s1,.L701
	.loc 1 3969 6 is_stmt 1
	.loc 1 3969 43 is_stmt 0
	slli	a5,a5,9
	.loc 1 3969 6
	li	a2,512
	addi	a1,s11,48
	add	a0,s3,a5
	call	memcpy
.LVL868:
.L701:
	.loc 1 3977 5 is_stmt 1
	.loc 1 3977 10 is_stmt 0
	slli	s1,s1,9
.LVL869:
	.loc 1 3978 5 is_stmt 1
.L702:
	.loc 1 3937 58
	.loc 1 3937 36 is_stmt 0
	lw	a5,0(s7)
	.loc 1 3937 23
	sub	s8,s8,s1
.LVL870:
	.loc 1 3937 51
	add	s3,s3,s1
.LVL871:
	.loc 1 3937 36
	add	a5,a5,s1
	sw	a5,0(s7)
	.loc 1 3937 69
	lw	a5,20(s0)
	add	s1,s1,a5
.LVL872:
	sw	s1,20(s0)
	.loc 1 3937 14 is_stmt 1 discriminator 1
	bne	s8,zero,.L688
.LVL873:
.L726:
	lw	s0,72(sp)
	.cfi_remember_state
	.cfi_restore 8
.LVL874:
	.loc 1 4004 1 is_stmt 0
	lw	ra,76(sp)
	.cfi_restore 1
	lw	s1,68(sp)
	.cfi_restore 9
	lw	s2,64(sp)
	.cfi_restore 18
	lw	s3,60(sp)
	.cfi_restore 19
	lw	s4,56(sp)
	.cfi_restore 20
	lw	s5,52(sp)
	.cfi_restore 21
	lw	s6,48(sp)
	.cfi_restore 22
	lw	s7,44(sp)
	.cfi_restore 23
.LVL875:
	lw	s8,40(sp)
	.cfi_restore 24
	lw	s9,36(sp)
	.cfi_restore 25
	lw	s11,28(sp)
	.cfi_restore 27
	mv	a0,s10
	lw	s10,32(sp)
	.cfi_restore 26
	addi	sp,sp,80
	.cfi_def_cfa_offset 0
	jr	ra
.LVL876:
.L691:
	.cfi_restore_state
	.loc 1 3941 5 is_stmt 1
	.loc 1 3941 8 is_stmt 0
	bne	s1,zero,.L693
	.loc 1 3942 6 is_stmt 1
	.loc 1 3942 11 is_stmt 0
	lw	a0,8(s0)
.LVL877:
.L694:
	.loc 1 3953 5 is_stmt 1
	.loc 1 3953 8 is_stmt 0
	li	a5,1
	bleu	a0,a5,.L697
	.loc 1 3953 40 is_stmt 1 discriminator 2
	.loc 1 3954 5
	.loc 1 3954 8 is_stmt 0
	li	a5,-1
	beq	a0,a5,.L700
	.loc 1 3954 51 is_stmt 1 discriminator 2
	.loc 1 3955 5
	.loc 1 3955 15 is_stmt 0
	sw	a0,24(s0)
	.loc 1 3957 4 is_stmt 1
.LVL878:
.LBB909:
.LBB908:
	.loc 1 1149 2
	.loc 1 1150 27 is_stmt 0
	lw	a5,20(s11)
	.loc 1 1149 7
	addi	a0,a0,-2
.LVL879:
	.loc 1 1150 2 is_stmt 1
	.loc 1 1150 27 is_stmt 0
	addi	a5,a5,-2
	.loc 1 1150 5
	bltu	a0,a5,.L729
.LVL880:
.L697:
.LBE908:
.LBE909:
	.loc 1 3953 19 is_stmt 1 discriminator 1
	li	a5,2
	sb	a5,17(s0)
	.loc 1 3953 19 discriminator 1
	li	s10,2
.LVL881:
	j	.L726
.LVL882:
.L728:
	.loc 1 3996 7 is_stmt 0
	lw	s2,28(s0)
.L690:
	.loc 1 3993 3 is_stmt 1
.LVL883:
	.loc 1 3994 3
	.loc 1 3993 8 is_stmt 0
	sub	s1,s4,a5
	.loc 1 3994 6
	bleu	s1,s8,.L703
	mv	s1,s8
.L703:
.LVL884:
	.loc 1 3996 3 is_stmt 1
	.loc 1 3996 7 is_stmt 0
	mv	a1,s2
	mv	a0,s11
	call	move_window
.LVL885:
	.loc 1 3996 6 discriminator 1
	bne	a0,zero,.L700
	.loc 1 3996 65 is_stmt 1 discriminator 2
	.loc 1 3997 3
	.loc 1 3997 36 is_stmt 0
	lw	a1,20(s0)
	.loc 1 3997 3
	mv	a2,s1
	mv	a0,s3
	.loc 1 3997 36
	andi	a1,a1,511
	.loc 1 3997 3
	add	a1,s5,a1
	call	memcpy
.LVL886:
	j	.L702
.LVL887:
.L698:
	.loc 1 3991 4 is_stmt 1
	.loc 1 3993 34 is_stmt 0
	lw	a5,20(s0)
	.loc 1 3991 13
	sw	s2,28(s0)
	.loc 1 3993 34
	andi	a5,a5,511
	j	.L690
.LVL888:
.L700:
	.loc 1 3954 29 is_stmt 1 discriminator 1
	li	a5,1
	sb	a5,17(s0)
	.loc 1 3954 29 discriminator 1
	li	s10,1
.LVL889:
	j	.L726
.LVL890:
.L693:
	.loc 1 3950 7
	.loc 1 3950 14 is_stmt 0
	lw	a1,24(s0)
	lw	a0,0(s0)
	call	get_fat.isra.0
.LVL891:
	j	.L694
.LVL892:
.L705:
	.loc 1 3933 29 discriminator 1
	li	s10,7
.LVL893:
	j	.L726
.LVL894:
.L724:
	lw	s0,72(sp)
	.cfi_restore 8
.LVL895:
	lw	s1,68(sp)
	.cfi_restore 9
	lw	s2,64(sp)
	.cfi_restore 18
	lw	s3,60(sp)
	.cfi_restore 19
.LVL896:
	lw	s4,56(sp)
	.cfi_restore 20
	lw	s5,52(sp)
	.cfi_restore 21
	lw	s6,48(sp)
	.cfi_restore 22
	lw	s7,44(sp)
	.cfi_restore 23
.LVL897:
	lw	s8,40(sp)
	.cfi_restore 24
	lw	s9,36(sp)
	.cfi_restore 25
	lw	s11,28(sp)
	.cfi_restore 27
	j	.L686
	.cfi_endproc
.LFE35:
	.size	f_read, .-f_read
	.align	2
	.globl	f_write
	.type	f_write, @function
f_write:
.LFB36:
	.loc 1 4020 1 is_stmt 1
	.cfi_startproc
.LVL898:
	.loc 1 4021 2
	.loc 1 4022 2
	.loc 1 4023 2
	.loc 1 4024 2
	.loc 1 4025 2
	.loc 1 4026 2
	.loc 1 4020 1 is_stmt 0
	addi	sp,sp,-64
	.cfi_def_cfa_offset 64
	sw	ra,60(sp)
	sw	s8,24(sp)
	.loc 1 4029 6
	sw	zero,0(a3)
.LVL899:
	.loc 1 4029 2 is_stmt 1
	.loc 1 4030 2
.LBB918:
.LBB919:
	.loc 1 3618 2
	.loc 1 3621 2
	.cfi_offset 1, -4
	.cfi_offset 24, -40
	.loc 1 3621 5 is_stmt 0
	beq	a0,zero,.L733
	sw	s0,56(sp)
	.loc 1 3621 16 discriminator 1
	lw	a5,0(a0)
	.cfi_offset 8, -8
	mv	s0,a0
	.loc 1 3621 10 discriminator 1
	beq	a5,zero,.L782
	.loc 1 3621 21 discriminator 2
	lbu	a4,0(a5)
	beq	a4,zero,.L782
	sw	s9,20(sp)
	.loc 1 3621 41 discriminator 3
	lhu	a4,6(a5)
	.cfi_offset 25, -44
	mv	s9,a3
	lhu	a3,4(a0)
.LVL900:
	beq	a3,a4,.L787
	lw	s0,56(sp)
	.cfi_restore 8
	lw	s9,20(sp)
	.cfi_restore 25
.LVL901:
.L733:
.LBE919:
.LBE918:
	.loc 1 4126 1
	lw	ra,60(sp)
	.cfi_restore 1
	.loc 1 4030 8
	li	s8,9
	.loc 1 4126 1
	mv	a0,s8
	lw	s8,24(sp)
	.cfi_restore 24
	addi	sp,sp,64
	.cfi_def_cfa_offset 0
	jr	ra
.LVL902:
.L782:
	.cfi_def_cfa_offset 64
	.cfi_offset 1, -4
	.cfi_offset 8, -8
	.cfi_offset 24, -40
	lw	s0,56(sp)
	.cfi_restore 8
.LVL903:
	j	.L733
.LVL904:
.L787:
	.cfi_offset 8, -8
	.cfi_offset 25, -44
.LBB922:
.LBB920:
	.loc 1 3633 3 is_stmt 1
	sw	s2,48(sp)
	sw	s4,40(sp)
	sw	s1,52(sp)
	sw	s3,44(sp)
	sw	s5,36(sp)
	sw	s6,32(sp)
	sw	s7,28(sp)
	sw	s10,16(sp)
	sw	s11,12(sp)
	.cfi_offset 18, -16
	.cfi_offset 20, -24
	.cfi_offset 9, -12
	.cfi_offset 19, -20
	.cfi_offset 21, -28
	.cfi_offset 22, -32
	.cfi_offset 23, -36
	.cfi_offset 26, -48
	.cfi_offset 27, -52
	.loc 1 3633 9 is_stmt 0
	lbu	a0,1(a5)
	mv	s4,a1
	mv	s2,a2
	call	disk_status
.LVL905:
	.loc 1 3633 6 discriminator 1
	andi	a0,a0,1
	bne	a0,zero,.L784
	.loc 1 3634 4 is_stmt 1
.LVL906:
	.loc 1 3638 2
	.loc 1 3639 2
.LBE920:
.LBE922:
	.loc 1 4031 2
	.loc 1 4031 27 is_stmt 0 discriminator 2
	lbu	s8,17(s0)
.LVL907:
	.loc 1 4031 19 discriminator 2
	bne	s8,zero,.L785
	.loc 1 4032 2 is_stmt 1
	.loc 1 4032 10 is_stmt 0
	lbu	a3,16(s0)
	.loc 1 4032 5
	andi	a5,a3,2
	beq	a5,zero,.L760
	.loc 1 4035 2 is_stmt 1
	.loc 1 4035 61 is_stmt 0
	lw	a5,20(s0)
	.loc 1 4035 51
	add	a2,a5,s2
	.loc 1 4035 5
	bleu	a5,a2,.L734
	.loc 1 4036 3 is_stmt 1
	.loc 1 4036 7 is_stmt 0
	not	s2,a5
.LVL908:
.L734:
.LBB923:
.LBB921:
	.loc 1 3638 34 discriminator 1
	lw	s10,0(s0)
.LBE921:
.LBE923:
	.loc 1 4039 14 is_stmt 1 discriminator 1
	beq	s2,zero,.L735
	.loc 1 4111 8 is_stmt 0
	li	s5,512
	.loc 1 4115 10
	addi	s7,s10,48
	.loc 1 4116 13
	li	s6,1
.LVL909:
.L759:
	.loc 1 4040 3 is_stmt 1
	.loc 1 4040 16 is_stmt 0
	andi	a3,a5,511
	.loc 1 4040 6
	bne	a3,zero,.L788
	.loc 1 4041 4 is_stmt 1
	.loc 1 4041 43 is_stmt 0
	lhu	s11,10(s10)
	.loc 1 4041 28
	srli	a3,a5,9
	.loc 1 4041 51
	addi	s11,s11,-1
	.loc 1 4041 10
	and	s11,s11,a3
.LVL910:
	.loc 1 4042 4 is_stmt 1
	.loc 1 4042 7 is_stmt 0
	bne	s11,zero,.L739
	.loc 1 4043 5 is_stmt 1
	.loc 1 4043 8 is_stmt 0
	bne	a5,zero,.L740
	.loc 1 4044 6 is_stmt 1
	.loc 1 4044 11 is_stmt 0
	lw	a0,8(s0)
.LVL911:
	.loc 1 4045 6 is_stmt 1
	.loc 1 4045 9 is_stmt 0
	beq	a0,zero,.L789
.L741:
.LVL912:
	.loc 1 4059 5 is_stmt 1
	.loc 1 4059 8 is_stmt 0
	li	a5,1
	beq	a0,a5,.L749
	.loc 1 4059 41 is_stmt 1 discriminator 2
	.loc 1 4060 5
	.loc 1 4060 8 is_stmt 0
	li	a5,-1
	beq	a0,a5,.L747
	.loc 1 4060 51 is_stmt 1 discriminator 2
	.loc 1 4061 5
	.loc 1 4062 8 is_stmt 0
	lw	a5,8(s0)
	.loc 1 4061 15
	sw	a0,24(s0)
	.loc 1 4062 5 is_stmt 1
	.loc 1 4062 8 is_stmt 0
	bne	a5,zero,.L739
	.loc 1 4062 30 is_stmt 1 discriminator 1
	.loc 1 4062 45 is_stmt 0 discriminator 1
	sw	a0,8(s0)
.L739:
	.loc 1 4065 4 is_stmt 1
	.loc 1 4065 10 is_stmt 0
	lw	a2,44(s10)
	.loc 1 4065 7
	lw	a5,28(s0)
	beq	a2,a5,.L790
.L748:
	.loc 1 4065 83 is_stmt 1 discriminator 4
	.loc 1 4072 4
.LVL913:
.LBB924:
.LBB925:
	.loc 1 1149 2
	.loc 1 1149 7 is_stmt 0
	lw	s3,24(s0)
	.loc 1 1150 27
	lw	a5,20(s10)
	.loc 1 1149 7
	addi	s3,s3,-2
.LVL914:
	.loc 1 1150 2 is_stmt 1
	.loc 1 1150 27 is_stmt 0
	addi	a5,a5,-2
	.loc 1 1150 5
	bgeu	s3,a5,.L749
	.loc 1 1151 2 is_stmt 1
	.loc 1 1151 24 is_stmt 0
	lhu	a5,10(s10)
	.loc 1 1151 22
	lw	a3,40(s10)
	.loc 1 1151 41
	mul	s3,s3,a5
.LVL915:
	.loc 1 1151 22
	add	s3,s3,a3
.LVL916:
.LBE925:
.LBE924:
	.loc 1 4073 4 is_stmt 1
	.loc 1 4073 7 is_stmt 0
	beq	s3,zero,.L749
	.loc 1 4073 40 is_stmt 1 discriminator 2
	.loc 1 4074 4
	.loc 1 4076 7 is_stmt 0
	li	a4,511
	.loc 1 4074 9
	add	s3,s11,s3
.LVL917:
	.loc 1 4075 4 is_stmt 1
	.loc 1 4076 4
	.loc 1 4076 7 is_stmt 0
	bleu	s2,a4,.L750
	.loc 1 4075 7
	srli	s1,s2,9
.LVL918:
	.loc 1 4077 5 is_stmt 1
	.loc 1 4077 15 is_stmt 0
	add	a3,s11,s1
	.loc 1 4077 8
	bleu	a3,a5,.L751
	.loc 1 4078 6 is_stmt 1
	.loc 1 4078 9 is_stmt 0
	sub	s1,a5,s11
.LVL919:
.L751:
	.loc 1 4080 5 is_stmt 1
	.loc 1 4080 9 is_stmt 0
	lbu	a0,1(s10)
	mv	a3,s1
	mv	a2,s3
	mv	a1,s4
	call	disk_write
.LVL920:
	.loc 1 4080 8 discriminator 1
	bne	a0,zero,.L747
	.loc 1 4080 80 is_stmt 1 discriminator 2
	.loc 1 4083 5
	.loc 1 4083 21 is_stmt 0
	lw	a1,44(s10)
	sub	a1,a1,s3
	.loc 1 4083 8
	bltu	a1,s1,.L791
.L752:
	.loc 1 4094 5 is_stmt 1
	.loc 1 4094 10 is_stmt 0
	slli	s1,s1,9
.LVL921:
	.loc 1 4095 5 is_stmt 1
.L753:
	.loc 1 4039 76
	.loc 1 4039 36 is_stmt 0
	lw	a5,0(s9)
	.loc 1 4039 23
	sub	s2,s2,s1
.LVL922:
	.loc 1 4039 51
	add	s4,s4,s1
.LVL923:
	.loc 1 4039 36
	add	a5,a5,s1
	sw	a5,0(s9)
	.loc 1 4039 69
	lw	a5,20(s0)
	.loc 1 4039 136
	lw	a3,12(s0)
	.loc 1 4039 69
	add	a5,s1,a5
	sw	a5,20(s0)
	.loc 1 4039 136
	bgeu	a3,a5,.L758
	mv	a3,a5
.L758:
	.loc 1 4039 94
	sw	a3,12(s0)
	.loc 1 4039 14 is_stmt 1 discriminator 1
	bne	s2,zero,.L759
.LVL924:
.L786:
	.loc 1 4123 4 is_stmt 0
	lbu	a3,16(s0)
.L735:
	.loc 1 4123 2 is_stmt 1
	.loc 1 4123 11 is_stmt 0
	ori	a3,a3,64
	sb	a3,16(s0)
	.loc 1 4125 2 is_stmt 1
.LVL925:
.L785:
	lw	s0,56(sp)
	.cfi_remember_state
	.cfi_restore 8
.LVL926:
	.loc 1 4126 1 is_stmt 0
	lw	ra,60(sp)
	.cfi_restore 1
	lw	s1,52(sp)
	.cfi_restore 9
	lw	s2,48(sp)
	.cfi_restore 18
.LVL927:
	lw	s3,44(sp)
	.cfi_restore 19
	lw	s4,40(sp)
	.cfi_restore 20
	lw	s5,36(sp)
	.cfi_restore 21
	lw	s6,32(sp)
	.cfi_restore 22
	lw	s7,28(sp)
	.cfi_restore 23
	lw	s9,20(sp)
	.cfi_restore 25
.LVL928:
	lw	s10,16(sp)
	.cfi_restore 26
	lw	s11,12(sp)
	.cfi_restore 27
	mv	a0,s8
	lw	s8,24(sp)
	.cfi_restore 24
	addi	sp,sp,64
	.cfi_def_cfa_offset 0
	jr	ra
.LVL929:
.L788:
	.cfi_restore_state
	.loc 1 4065 25
	lw	s3,28(s0)
.L737:
	.loc 1 4111 3 is_stmt 1
.LVL930:
	.loc 1 4112 3
	.loc 1 4111 8 is_stmt 0
	sub	s1,s5,a3
	.loc 1 4112 6
	bleu	s1,s2,.L757
	mv	s1,s2
.L757:
.LVL931:
	.loc 1 4114 3 is_stmt 1
	.loc 1 4114 7 is_stmt 0
	mv	a1,s3
	mv	a0,s10
	call	move_window
.LVL932:
	.loc 1 4114 6 discriminator 1
	bne	a0,zero,.L747
	.loc 1 4114 65 is_stmt 1 discriminator 2
	.loc 1 4115 3
	.loc 1 4115 29 is_stmt 0
	lw	a0,20(s0)
	.loc 1 4115 3
	mv	a2,s1
	mv	a1,s4
	.loc 1 4115 29
	andi	a0,a0,511
	.loc 1 4115 3
	add	a0,s7,a0
	call	memcpy
.LVL933:
	.loc 1 4116 3 is_stmt 1
	.loc 1 4116 13 is_stmt 0
	sb	s6,4(s10)
	j	.L753
.LVL934:
.L749:
	.loc 1 4059 20 is_stmt 1 discriminator 1
	li	a5,2
	sb	a5,17(s0)
	.loc 1 4059 20 discriminator 1
	li	s8,2
.LVL935:
	j	.L785
.LVL936:
.L750:
	.loc 1 4098 4
	.loc 1 4098 10 is_stmt 0
	lw	a3,20(s0)
	.loc 1 4098 7
	lw	a5,12(s0)
	bgeu	a3,a5,.L792
.L754:
	.loc 1 4109 4 is_stmt 1
	.loc 1 4109 13 is_stmt 0
	sw	s3,28(s0)
	.loc 1 4111 34
	andi	a3,a3,511
	j	.L737
.LVL937:
.L747:
	.loc 1 4060 29 is_stmt 1 discriminator 1
	li	a5,1
	sb	a5,17(s0)
	.loc 1 4060 29 discriminator 1
	li	s8,1
.LVL938:
	j	.L785
.LVL939:
.L790:
.LBB926:
.LBB927:
	.loc 1 1059 2
	.loc 1 1062 2
	.loc 1 1062 5 is_stmt 0
	lbu	a5,4(s10)
	beq	a5,zero,.L748
	.loc 1 1063 3 is_stmt 1
	.loc 1 1063 7 is_stmt 0
	lbu	a0,1(s10)
	.loc 1 1063 30
	addi	s1,s10,48
	.loc 1 1063 7
	li	a3,1
	mv	a1,s1
	call	disk_write
.LVL940:
	.loc 1 1063 6 discriminator 1
	bne	a0,zero,.L747
	.loc 1 1064 4 is_stmt 1
	.loc 1 1065 10 is_stmt 0
	lw	a1,44(s10)
	.loc 1 1065 20
	lw	a5,32(s10)
	.loc 1 1065 38
	lw	a2,24(s10)
	.loc 1 1064 14
	sb	zero,4(s10)
	.loc 1 1065 4 is_stmt 1
	.loc 1 1065 20 is_stmt 0
	sub	a5,a1,a5
	.loc 1 1065 7
	bgeu	a5,a2,.L748
	.loc 1 1066 5 is_stmt 1
	.loc 1 1066 8 is_stmt 0
	lbu	a3,3(s10)
	li	a5,2
	bne	a3,a5,.L748
	.loc 1 1066 26 is_stmt 1 discriminator 1
	lbu	a0,1(s10)
	add	a2,a1,a2
	li	a3,1
	mv	a1,s1
	call	disk_write
.LVL941:
	.loc 1 1072 2
	j	.L748
.L740:
.LBE927:
.LBE926:
	.loc 1 4055 7
	.loc 1 4055 14 is_stmt 0
	lw	a1,24(s0)
	mv	a0,s0
	call	create_chain
.LVL942:
	.loc 1 4058 5 is_stmt 1
	.loc 1 4058 8 is_stmt 0
	bne	a0,zero,.L741
	j	.L786
.LVL943:
.L760:
	.loc 1 4032 30 discriminator 1
	li	s8,7
.LVL944:
	j	.L785
.LVL945:
.L789:
	.loc 1 4046 7 is_stmt 1
	.loc 1 4046 14 is_stmt 0
	li	a1,0
	mv	a0,s0
.LVL946:
	call	create_chain
.LVL947:
	.loc 1 4058 5 is_stmt 1
	.loc 1 4058 8 is_stmt 0
	bne	a0,zero,.L741
	j	.L786
.LVL948:
.L792:
	.loc 1 4099 5 is_stmt 1
.LBB928:
.LBB929:
	.loc 1 1059 2
	.loc 1 1062 2
	.loc 1 1062 5 is_stmt 0
	lbu	a5,4(s10)
	bne	a5,zero,.L793
.LVL949:
.L756:
.LBE929:
.LBE928:
	.loc 1 4099 57 is_stmt 1 discriminator 2
	.loc 1 4100 5
	.loc 1 4100 17 is_stmt 0
	sw	s3,44(s10)
	.loc 1 4111 27
	lw	a3,20(s0)
	j	.L754
.LVL950:
.L791:
	.loc 1 4084 6 is_stmt 1
	.loc 1 4084 52 is_stmt 0
	slli	a1,a1,9
	.loc 1 4084 6
	li	a2,512
	add	a1,s4,a1
	addi	a0,s10,48
	call	memcpy
.LVL951:
	.loc 1 4085 6 is_stmt 1
	.loc 1 4085 16 is_stmt 0
	sb	zero,4(s10)
	j	.L752
.LVL952:
.L793:
.LBB931:
.LBB930:
	.loc 1 1063 3 is_stmt 1
	.loc 1 1063 7 is_stmt 0
	lw	a2,44(s10)
	lbu	a0,1(s10)
	.loc 1 1063 30
	addi	s1,s10,48
	.loc 1 1063 7
	li	a3,1
	mv	a1,s1
	call	disk_write
.LVL953:
	.loc 1 1063 6 discriminator 1
	bne	a0,zero,.L747
	.loc 1 1064 4 is_stmt 1
	.loc 1 1065 10 is_stmt 0
	lw	a1,44(s10)
	.loc 1 1065 20
	lw	a5,32(s10)
	.loc 1 1065 38
	lw	a2,24(s10)
	.loc 1 1064 14
	sb	zero,4(s10)
	.loc 1 1065 4 is_stmt 1
	.loc 1 1065 20 is_stmt 0
	sub	a5,a1,a5
	.loc 1 1065 7
	bgeu	a5,a2,.L756
	.loc 1 1066 5 is_stmt 1
	.loc 1 1066 8 is_stmt 0
	lbu	a3,3(s10)
	li	a5,2
	bne	a3,a5,.L756
	.loc 1 1066 26 is_stmt 1 discriminator 1
	lbu	a0,1(s10)
	add	a2,a1,a2
	li	a3,1
	mv	a1,s1
	call	disk_write
.LVL954:
	.loc 1 1072 2
	j	.L756
.LVL955:
.L784:
	lw	s0,56(sp)
	.cfi_restore 8
.LVL956:
	lw	s1,52(sp)
	.cfi_restore 9
	lw	s2,48(sp)
	.cfi_restore 18
.LVL957:
	lw	s3,44(sp)
	.cfi_restore 19
	lw	s4,40(sp)
	.cfi_restore 20
.LVL958:
	lw	s5,36(sp)
	.cfi_restore 21
	lw	s6,32(sp)
	.cfi_restore 22
	lw	s7,28(sp)
	.cfi_restore 23
	lw	s9,20(sp)
	.cfi_restore 25
.LVL959:
	lw	s10,16(sp)
	.cfi_restore 26
	lw	s11,12(sp)
	.cfi_restore 27
	j	.L733
.LBE930:
.LBE931:
	.cfi_endproc
.LFE36:
	.size	f_write, .-f_write
	.align	2
	.globl	f_sync
	.type	f_sync, @function
f_sync:
.LFB37:
	.loc 1 4138 1
	.cfi_startproc
.LVL960:
	.loc 1 4139 2
	.loc 1 4140 2
	.loc 1 4141 2
	.loc 1 4142 2
	.loc 1 4145 2
.LBB960:
.LBB961:
	.loc 1 3618 2
	.loc 1 3621 2
	.loc 1 3621 5 is_stmt 0
	beq	a0,zero,.L813
.LBE961:
.LBE960:
	.loc 1 4138 1
	addi	sp,sp,-16
	.cfi_def_cfa_offset 16
	sw	s0,8(sp)
	sw	ra,12(sp)
.LBB965:
.LBB962:
	.loc 1 3621 16 discriminator 1
	lw	a5,0(a0)
	.cfi_offset 8, -8
	.cfi_offset 1, -4
	mv	s0,a0
	.loc 1 3621 10 discriminator 1
	beq	a5,zero,.L797
	.loc 1 3621 21 discriminator 2
	lbu	a4,0(a5)
	beq	a4,zero,.L797
	.loc 1 3621 41 discriminator 3
	lhu	a3,4(a0)
	lhu	a4,6(a5)
	beq	a3,a4,.L814
.LVL961:
.L797:
.LBE962:
.LBE965:
	.loc 1 4145 8
	li	a0,9
.LVL962:
.L794:
	.loc 1 4205 1
	lw	ra,12(sp)
	.cfi_remember_state
	.cfi_restore 1
	lw	s0,8(sp)
	.cfi_restore 8
.LVL963:
	addi	sp,sp,16
	.cfi_def_cfa_offset 0
	jr	ra
.LVL964:
.L814:
	.cfi_restore_state
.LBB966:
.LBB963:
	.loc 1 3633 3 is_stmt 1
	sw	s1,4(sp)
	.cfi_offset 9, -12
	.loc 1 3633 9 is_stmt 0
	lbu	a0,1(a5)
	call	disk_status
.LVL965:
	.loc 1 3633 6 discriminator 1
	andi	a0,a0,1
	bne	a0,zero,.L810
	.loc 1 3634 4 is_stmt 1
.LVL966:
	.loc 1 3638 2
	.loc 1 3639 2
.LBE963:
.LBE966:
	.loc 1 4146 2
	.loc 1 4147 3
	.loc 1 4147 6 is_stmt 0
	lbu	a5,16(s0)
	andi	a5,a5,64
	bne	a5,zero,.L815
.LVL967:
.L812:
	.loc 1 4205 1
	lw	ra,12(sp)
	.cfi_remember_state
	.cfi_restore 1
	lw	s0,8(sp)
	.cfi_restore 8
.LVL968:
	lw	s1,4(sp)
	.cfi_restore 9
	addi	sp,sp,16
	.cfi_def_cfa_offset 0
	jr	ra
.LVL969:
.L815:
	.cfi_restore_state
.LBB967:
.LBB964:
	.loc 1 3638 34 discriminator 1
	lw	s1,0(s0)
.LBE964:
.LBE967:
	.loc 1 4155 4 is_stmt 1
.LVL970:
	.loc 1 4188 5
	.loc 1 4188 11 is_stmt 0
	lw	a1,32(s0)
	mv	a0,s1
	call	move_window
.LVL971:
	.loc 1 4189 5 is_stmt 1
	.loc 1 4189 8 is_stmt 0
	bne	a0,zero,.L812
	.loc 1 4190 6 is_stmt 1
	.loc 1 4190 10 is_stmt 0
	lw	a5,36(s0)
.LVL972:
	.loc 1 4191 6 is_stmt 1
.LBB968:
.LBB969:
	.loc 1 1872 5 is_stmt 0
	li	a2,3
.LBE969:
.LBE968:
	.loc 1 4191 20
	lbu	a4,11(a5)
	ori	a4,a4,32
	sb	a4,11(a5)
	.loc 1 4192 6 is_stmt 1
	lw	a4,8(s0)
.LVL973:
.LBB980:
.LBB978:
	.loc 1 1871 2
.LBB970:
.LBB971:
	.loc 1 658 2
.LBE971:
.LBE970:
.LBE978:
.LBE980:
	.loc 1 4192 6 is_stmt 0
	lw	a1,0(s0)
.LBB981:
.LBB979:
.LBB973:
.LBB972:
	.loc 1 658 26
	slli	a3,a4,16
	srli	a3,a3,16
	srli	a3,a3,8
	.loc 1 658 11
	sb	a4,26(a5)
.LVL974:
	.loc 1 658 22 is_stmt 1
	.loc 1 659 2
	.loc 1 659 11 is_stmt 0
	sb	a3,27(a5)
.LVL975:
.LBE972:
.LBE973:
	.loc 1 1872 2 is_stmt 1
	.loc 1 1872 5 is_stmt 0
	lbu	a3,0(a1)
	bne	a3,a2,.L798
.LVL976:
.LBB974:
.LBB975:
	.loc 1 1873 3 is_stmt 1
	.loc 1 1873 42 is_stmt 0
	srli	a4,a4,16
.LVL977:
.LBB976:
.LBB977:
	.loc 1 658 2 is_stmt 1
	.loc 1 658 26 is_stmt 0
	srli	a3,a4,8
	.loc 1 658 11
	sb	a4,20(a5)
	.loc 1 658 22 is_stmt 1
.LVL978:
	.loc 1 659 2
	.loc 1 659 11 is_stmt 0
	sb	a3,21(a5)
.LVL979:
.L798:
.LBE977:
.LBE976:
.LBE975:
.LBE974:
.LBE979:
.LBE981:
	.loc 1 4193 6 is_stmt 1
	.loc 1 4193 49 is_stmt 0
	lw	a4,12(s0)
.LVL980:
.LBB982:
.LBB983:
	.loc 1 664 2 is_stmt 1
.LBE983:
.LBE982:
.LBB986:
.LBB987:
	.loc 1 664 9 is_stmt 0
	sb	zero,22(a5)
	.loc 1 665 9
	sb	zero,23(a5)
.LBE987:
.LBE986:
.LBB990:
.LBB984:
	.loc 1 664 11
	sb	a4,28(a5)
	.loc 1 664 26
	srli	a1,a4,8
	.loc 1 665 26
	srli	a2,a4,16
	.loc 1 666 26
	srli	a3,a4,24
	.loc 1 664 22 is_stmt 1
.LVL981:
	.loc 1 665 2
.LBE984:
.LBE990:
.LBB991:
.LBB988:
	.loc 1 666 9 is_stmt 0
	li	a4,102
.LVL982:
	sb	a4,24(a5)
	.loc 1 667 9
	li	a4,85
.LBE988:
.LBE991:
.LBB992:
.LBB985:
	.loc 1 665 11
	sb	a1,29(a5)
	.loc 1 665 22 is_stmt 1
	.loc 1 666 2
.LVL983:
	.loc 1 666 11 is_stmt 0
	sb	a2,30(a5)
	.loc 1 666 22 is_stmt 1
	.loc 1 667 2
.LVL984:
	.loc 1 667 11 is_stmt 0
	sb	a3,31(a5)
.LVL985:
.LBE985:
.LBE992:
	.loc 1 4194 6 is_stmt 1
.LBB993:
.LBB989:
	.loc 1 664 2
	.loc 1 664 22
	.loc 1 665 2
	.loc 1 665 22
	.loc 1 666 2
	.loc 1 666 22
	.loc 1 667 2
	.loc 1 667 9 is_stmt 0
	sb	a4,25(a5)
.LVL986:
.LBE989:
.LBE993:
	.loc 1 4195 6 is_stmt 1
.LBB994:
.LBB995:
	.loc 1 658 2
	.loc 1 658 9 is_stmt 0
	sb	zero,18(a5)
	.loc 1 658 22 is_stmt 1
	.loc 1 659 2
.LVL987:
	.loc 1 659 9 is_stmt 0
	sb	zero,19(a5)
.LVL988:
.LBE995:
.LBE994:
	.loc 1 4196 6 is_stmt 1
	.loc 1 4196 16 is_stmt 0
	li	a5,1
.LVL989:
	sb	a5,4(s1)
	.loc 1 4197 6 is_stmt 1
	.loc 1 4197 12 is_stmt 0
	mv	a0,s1
.LVL990:
	call	sync_fs
.LVL991:
	.loc 1 4198 15
	lbu	a5,16(s0)
.LVL992:
	.loc 1 4198 6 is_stmt 1
	.loc 1 4198 15 is_stmt 0
	andi	a5,a5,-65
	sb	a5,16(s0)
	lw	s1,4(sp)
	.cfi_restore 9
	j	.L794
.LVL993:
.L813:
	.cfi_def_cfa_offset 0
	.cfi_restore 1
	.cfi_restore 8
	.loc 1 4145 8
	li	a0,9
.LVL994:
	.loc 1 4205 1
	ret
.LVL995:
.L810:
	.cfi_def_cfa_offset 16
	.cfi_offset 1, -4
	.cfi_offset 8, -8
	.cfi_offset 9, -12
	lw	s1,4(sp)
	.cfi_restore 9
	j	.L797
	.cfi_endproc
.LFE37:
	.size	f_sync, .-f_sync
	.align	2
	.globl	f_close
	.type	f_close, @function
f_close:
.LFB38:
	.loc 1 4219 1 is_stmt 1
	.cfi_startproc
.LVL996:
	.loc 1 4220 2
	.loc 1 4221 2
	.loc 1 4224 2
.LBB1018:
.LBB1019:
	.loc 1 4139 2
	.loc 1 4140 2
	.loc 1 4141 2
	.loc 1 4142 2
	.loc 1 4145 2
.LBB1020:
.LBB1021:
	.loc 1 3618 2
	.loc 1 3621 2
	.loc 1 3621 5 is_stmt 0
	beq	a0,zero,.L847
.LBE1021:
.LBE1020:
.LBE1019:
.LBE1018:
	.loc 1 4219 1
	addi	sp,sp,-16
	.cfi_def_cfa_offset 16
	sw	s0,8(sp)
	sw	ra,12(sp)
.LBB1059:
.LBB1056:
.LBB1025:
.LBB1022:
	.loc 1 3621 16 discriminator 1
	lw	a5,0(a0)
	.cfi_offset 8, -8
	.cfi_offset 1, -4
	mv	s0,a0
	.loc 1 3621 10 discriminator 1
	beq	a5,zero,.L819
	.loc 1 3621 21 discriminator 2
	lbu	a4,0(a5)
	beq	a4,zero,.L819
	.loc 1 3621 41 discriminator 3
	lhu	a3,4(a0)
	lhu	a4,6(a5)
	beq	a3,a4,.L848
.LVL997:
.L819:
.LBE1022:
.LBE1025:
.LBE1056:
.LBE1059:
	.loc 1 4242 1
	lw	ra,12(sp)
	.cfi_restore 1
	lw	s0,8(sp)
	.cfi_restore 8
.LVL998:
	.loc 1 4224 8
	li	a0,9
	.loc 1 4242 1
	addi	sp,sp,16
	.cfi_def_cfa_offset 0
	jr	ra
.LVL999:
.L847:
	.loc 1 4224 8
	li	a0,9
.LVL1000:
	.loc 1 4242 1
	ret
.LVL1001:
.L848:
	.cfi_def_cfa_offset 16
	.cfi_offset 1, -4
	.cfi_offset 8, -8
.LBB1060:
.LBB1057:
.LBB1026:
.LBB1023:
	.loc 1 3633 3 is_stmt 1
	sw	s1,4(sp)
	.cfi_offset 9, -12
	.loc 1 3633 9 is_stmt 0
	lbu	a0,1(a5)
	call	disk_status
.LVL1002:
	.loc 1 3633 6 discriminator 1
	andi	a0,a0,1
	bne	a0,zero,.L846
	.loc 1 3634 4 is_stmt 1
.LVL1003:
	.loc 1 3638 2
.LBE1023:
.LBE1026:
	.loc 1 4147 6 is_stmt 0
	lbu	a5,16(s0)
.LBB1027:
.LBB1024:
	.loc 1 3638 34 discriminator 1
	lw	s1,0(s0)
.LVL1004:
	.loc 1 3639 2 is_stmt 1
.LBE1024:
.LBE1027:
	.loc 1 4146 2
	.loc 1 4147 3
	.loc 1 4147 6 is_stmt 0
	andi	a5,a5,64
	bne	a5,zero,.L849
.LVL1005:
.L820:
.LBE1057:
.LBE1060:
	.loc 1 4228 3 is_stmt 1
.LBB1061:
.LBB1062:
	.loc 1 3618 2
	.loc 1 3621 2
	.loc 1 3621 10 is_stmt 0 discriminator 1
	beq	s1,zero,.L846
	.loc 1 3621 21 discriminator 2
	lbu	a5,0(s1)
	beq	a5,zero,.L846
	.loc 1 3621 41 discriminator 3
	lhu	a4,4(s0)
	lhu	a5,6(s1)
	beq	a4,a5,.L850
.L846:
	lw	s1,4(sp)
	.cfi_remember_state
	.cfi_restore 9
	j	.L819
.LVL1006:
.L849:
	.cfi_restore_state
.LBE1062:
.LBE1061:
.LBB1065:
.LBB1058:
	.loc 1 4155 4 is_stmt 1
	.loc 1 4188 5
	.loc 1 4188 11 is_stmt 0
	lw	a1,32(s0)
	mv	a0,s1
	call	move_window
.LVL1007:
	.loc 1 4189 5 is_stmt 1
	.loc 1 4189 8 is_stmt 0
	bne	a0,zero,.L842
	.loc 1 4190 6 is_stmt 1
	.loc 1 4190 10 is_stmt 0
	lw	a5,36(s0)
.LVL1008:
	.loc 1 4191 6 is_stmt 1
.LBB1028:
.LBB1029:
	.loc 1 1872 5 is_stmt 0
	li	a2,3
.LBE1029:
.LBE1028:
	.loc 1 4191 20
	lbu	a4,11(a5)
	ori	a4,a4,32
	sb	a4,11(a5)
	.loc 1 4192 6 is_stmt 1
	lw	a4,8(s0)
.LVL1009:
.LBB1040:
.LBB1038:
	.loc 1 1871 2
.LBB1030:
.LBB1031:
	.loc 1 658 2
.LBE1031:
.LBE1030:
.LBE1038:
.LBE1040:
	.loc 1 4192 6 is_stmt 0
	lw	a1,0(s0)
.LBB1041:
.LBB1039:
.LBB1033:
.LBB1032:
	.loc 1 658 26
	slli	a3,a4,16
	srli	a3,a3,16
	srli	a3,a3,8
	.loc 1 658 11
	sb	a4,26(a5)
.LVL1010:
	.loc 1 658 22 is_stmt 1
	.loc 1 659 2
	.loc 1 659 11 is_stmt 0
	sb	a3,27(a5)
.LVL1011:
.LBE1032:
.LBE1033:
	.loc 1 1872 2 is_stmt 1
	.loc 1 1872 5 is_stmt 0
	lbu	a3,0(a1)
	bne	a3,a2,.L821
.LVL1012:
.LBB1034:
.LBB1035:
	.loc 1 1873 3 is_stmt 1
	.loc 1 1873 42 is_stmt 0
	srli	a4,a4,16
.LVL1013:
.LBB1036:
.LBB1037:
	.loc 1 658 2 is_stmt 1
	.loc 1 658 26 is_stmt 0
	srli	a3,a4,8
	.loc 1 658 11
	sb	a4,20(a5)
	.loc 1 658 22 is_stmt 1
.LVL1014:
	.loc 1 659 2
	.loc 1 659 11 is_stmt 0
	sb	a3,21(a5)
.LVL1015:
.L821:
.LBE1037:
.LBE1036:
.LBE1035:
.LBE1034:
.LBE1039:
.LBE1041:
	.loc 1 4193 6 is_stmt 1
	.loc 1 4193 49 is_stmt 0
	lw	a4,12(s0)
.LVL1016:
.LBB1042:
.LBB1043:
	.loc 1 664 2 is_stmt 1
.LBE1043:
.LBE1042:
.LBB1046:
.LBB1047:
	.loc 1 664 9 is_stmt 0
	sb	zero,22(a5)
	.loc 1 665 9
	sb	zero,23(a5)
.LBE1047:
.LBE1046:
.LBB1050:
.LBB1044:
	.loc 1 664 11
	sb	a4,28(a5)
	.loc 1 664 26
	srli	a1,a4,8
	.loc 1 665 26
	srli	a2,a4,16
	.loc 1 666 26
	srli	a3,a4,24
	.loc 1 664 22 is_stmt 1
.LVL1017:
	.loc 1 665 2
.LBE1044:
.LBE1050:
.LBB1051:
.LBB1048:
	.loc 1 666 9 is_stmt 0
	li	a4,102
.LVL1018:
	sb	a4,24(a5)
	.loc 1 667 9
	li	a4,85
.LBE1048:
.LBE1051:
.LBB1052:
.LBB1045:
	.loc 1 665 11
	sb	a1,29(a5)
	.loc 1 665 22 is_stmt 1
	.loc 1 666 2
.LVL1019:
	.loc 1 666 11 is_stmt 0
	sb	a2,30(a5)
	.loc 1 666 22 is_stmt 1
	.loc 1 667 2
.LVL1020:
	.loc 1 667 11 is_stmt 0
	sb	a3,31(a5)
.LVL1021:
.LBE1045:
.LBE1052:
	.loc 1 4194 6 is_stmt 1
.LBB1053:
.LBB1049:
	.loc 1 664 2
	.loc 1 664 22
	.loc 1 665 2
	.loc 1 665 22
	.loc 1 666 2
	.loc 1 666 22
	.loc 1 667 2
	.loc 1 667 9 is_stmt 0
	sb	a4,25(a5)
.LVL1022:
.LBE1049:
.LBE1053:
	.loc 1 4195 6 is_stmt 1
.LBB1054:
.LBB1055:
	.loc 1 658 2
	.loc 1 658 9 is_stmt 0
	sb	zero,18(a5)
	.loc 1 658 22 is_stmt 1
	.loc 1 659 2
.LVL1023:
	.loc 1 659 9 is_stmt 0
	sb	zero,19(a5)
.LVL1024:
.LBE1055:
.LBE1054:
	.loc 1 4196 6 is_stmt 1
	.loc 1 4196 16 is_stmt 0
	li	a5,1
.LVL1025:
	sb	a5,4(s1)
	.loc 1 4197 6 is_stmt 1
	.loc 1 4197 12 is_stmt 0
	mv	a0,s1
.LVL1026:
	call	sync_fs
.LVL1027:
	.loc 1 4198 15
	lbu	a5,16(s0)
.LVL1028:
	.loc 1 4198 6 is_stmt 1
	.loc 1 4198 15 is_stmt 0
	andi	a5,a5,-65
	sb	a5,16(s0)
.LVL1029:
	.loc 1 4204 2 is_stmt 1
.LBE1058:
.LBE1065:
	.loc 1 4225 2
	.loc 1 4225 5 is_stmt 0
	bne	a0,zero,.L842
.LBB1066:
.LBB1063:
	.loc 1 3621 16 discriminator 1
	lw	s1,0(s0)
	j	.L820
.LVL1030:
.L842:
.LBE1063:
.LBE1066:
	.loc 1 4242 1
	lw	ra,12(sp)
	.cfi_remember_state
	.cfi_restore 1
	lw	s0,8(sp)
	.cfi_restore 8
.LVL1031:
	lw	s1,4(sp)
	.cfi_restore 9
	addi	sp,sp,16
	.cfi_def_cfa_offset 0
	jr	ra
.LVL1032:
.L850:
	.cfi_restore_state
.LBB1067:
.LBB1064:
	.loc 1 3633 3 is_stmt 1
	.loc 1 3633 9 is_stmt 0
	lbu	a0,1(s1)
	call	disk_status
.LVL1033:
	.loc 1 3633 6 discriminator 1
	andi	a0,a0,1
	bne	a0,zero,.L846
	.loc 1 3634 4 is_stmt 1
.LVL1034:
	.loc 1 3638 2
	.loc 1 3639 2
.LBE1064:
.LBE1067:
	.loc 1 4229 3
	.loc 1 4234 4
	.loc 1 4234 15 is_stmt 0
	sw	zero,0(s0)
.LVL1035:
	.loc 1 4241 2 is_stmt 1
	.loc 1 4242 1 is_stmt 0
	lw	ra,12(sp)
	.cfi_restore 1
	lw	s0,8(sp)
	.cfi_restore 8
.LVL1036:
	.loc 1 4234 15
	lw	s1,4(sp)
	.cfi_restore 9
	.loc 1 4242 1
	addi	sp,sp,16
	.cfi_def_cfa_offset 0
	jr	ra
	.cfi_endproc
.LFE38:
	.size	f_close, .-f_close
	.align	2
	.globl	f_lseek
	.type	f_lseek, @function
f_lseek:
.LFB39:
	.loc 1 4437 1 is_stmt 1
	.cfi_startproc
.LVL1037:
	.loc 1 4438 2
	.loc 1 4439 2
	.loc 1 4440 2
	.loc 1 4441 2
	.loc 1 4442 2
	.loc 1 4449 2
.LBB1072:
.LBB1073:
	.loc 1 3618 2
	.loc 1 3621 2
.LBE1073:
.LBE1072:
	.loc 1 4437 1 is_stmt 0
	addi	sp,sp,-32
	.cfi_def_cfa_offset 32
	sw	ra,28(sp)
	sw	s5,4(sp)
	.cfi_offset 1, -4
	.cfi_offset 21, -28
.LBB1077:
.LBB1074:
	.loc 1 3621 5
	beq	a0,zero,.L854
	sw	s0,24(sp)
	.loc 1 3621 16 discriminator 1
	lw	a5,0(a0)
	.cfi_offset 8, -8
	mv	s0,a0
	.loc 1 3621 10 discriminator 1
	beq	a5,zero,.L901
	.loc 1 3621 21 discriminator 2
	lbu	a4,0(a5)
	beq	a4,zero,.L901
	.loc 1 3621 41 discriminator 3
	lhu	a3,4(a0)
	lhu	a4,6(a5)
	beq	a3,a4,.L911
.L901:
	lw	s0,24(sp)
	.cfi_restore 8
.LVL1038:
.L854:
.LBE1074:
.LBE1077:
	.loc 1 4449 8
	li	s5,9
.LVL1039:
.L851:
	.loc 1 4588 1
	lw	ra,28(sp)
	.cfi_restore 1
	mv	a0,s5
	lw	s5,4(sp)
	.cfi_restore 21
	addi	sp,sp,32
	.cfi_def_cfa_offset 0
	jr	ra
.LVL1040:
.L911:
	.cfi_def_cfa_offset 32
	.cfi_offset 1, -4
	.cfi_offset 8, -8
	.cfi_offset 21, -28
.LBB1078:
.LBB1075:
	.loc 1 3633 3 is_stmt 1
	sw	s1,20(sp)
	sw	s2,16(sp)
	sw	s6,0(sp)
	.loc 1 3633 9 is_stmt 0
	lbu	a0,1(a5)
	.cfi_offset 9, -12
	.cfi_offset 18, -16
	.cfi_offset 22, -32
	mv	s1,a1
	call	disk_status
.LVL1041:
	.loc 1 3633 6 discriminator 1
	andi	a0,a0,1
	bne	a0,zero,.L902
	.loc 1 3634 4 is_stmt 1
.LVL1042:
	.loc 1 3638 2
	.loc 1 3639 2
.LBE1075:
.LBE1078:
	.loc 1 4450 2
	.loc 1 4450 20 discriminator 1
	.loc 1 4450 24 is_stmt 0 discriminator 1
	lbu	s5,17(s0)
.LVL1043:
	.loc 1 4456 2 is_stmt 1
	.loc 1 4456 5 is_stmt 0
	bne	s5,zero,.L910
	.loc 1 4515 20
	lw	a4,12(s0)
.LBB1079:
.LBB1076:
	.loc 1 3638 34 discriminator 1
	lw	s6,0(s0)
.LBE1076:
.LBE1079:
	.loc 1 4515 3 is_stmt 1
	.loc 1 4518 9 is_stmt 0
	lw	a5,20(s0)
	.loc 1 4515 6
	bgeu	a4,s1,.L855
	.loc 1 4515 29 discriminator 1
	lbu	a3,16(s0)
	andi	a3,a3,2
	beq	a3,zero,.L878
	.loc 1 4518 3 is_stmt 1
.LVL1044:
	.loc 1 4519 3
	.loc 1 4519 12 is_stmt 0
	sw	zero,20(s0)
	.loc 1 4520 3 is_stmt 1
.LVL1045:
.L856:
	.loc 1 4521 4
	.loc 1 4521 10 is_stmt 0
	lhu	s2,10(s6)
	.loc 1 4521 8
	slli	s2,s2,9
.LVL1046:
	.loc 1 4522 4 is_stmt 1
	.loc 1 4522 7 is_stmt 0
	beq	a5,zero,.L858
	.loc 1 4523 31
	addi	a5,a5,-1
	.loc 1 4523 10
	addi	a4,s1,-1
	.loc 1 4523 15
	divu	a4,a4,s2
	.loc 1 4523 36
	divu	a3,a5,s2
	.loc 1 4522 18 discriminator 1
	bltu	a4,a3,.L858
	.loc 1 4524 5 is_stmt 1
	.loc 1 4524 30 is_stmt 0
	neg	a4,s2
	.loc 1 4526 10
	lw	a1,24(s0)
	.loc 1 4524 28
	and	a4,a4,a5
	.loc 1 4524 14
	sw	a4,20(s0)
	.loc 1 4525 5 is_stmt 1
	.loc 1 4525 9 is_stmt 0
	sub	s1,s1,a4
.LVL1047:
	.loc 1 4526 5 is_stmt 1
.L859:
	.loc 1 4539 4
	.loc 1 4539 7 is_stmt 0
	bne	a1,zero,.L912
.LVL1048:
.L866:
	.loc 1 4569 3 is_stmt 1
	.loc 1 4569 6 is_stmt 0
	lw	a5,12(s0)
	bgeu	a5,a4,.L876
	.loc 1 4570 4 is_stmt 1
	.loc 1 4571 13 is_stmt 0
	lbu	a5,16(s0)
	.loc 1 4570 20
	sw	a4,12(s0)
	.loc 1 4571 4 is_stmt 1
	.loc 1 4571 13 is_stmt 0
	ori	a5,a5,64
	sb	a5,16(s0)
.L876:
.LVL1049:
	.loc 1 4573 3 is_stmt 1
	.loc 1 4573 16 is_stmt 0
	andi	a4,a4,511
	.loc 1 4573 6
	beq	a4,zero,.L910
	.loc 1 4573 25 discriminator 1
	lw	a5,28(s0)
	beq	a5,a1,.L910
	.loc 1 4583 4 is_stmt 1
	.loc 1 4583 13 is_stmt 0
	sw	a1,28(s0)
	lw	s0,24(sp)
	.cfi_remember_state
	.cfi_restore 8
.LVL1050:
	.loc 1 4588 1
	lw	ra,28(sp)
	.cfi_restore 1
	.loc 1 4583 13
	lw	s1,20(sp)
	.cfi_restore 9
	lw	s2,16(sp)
	.cfi_restore 18
.LVL1051:
	lw	s6,0(sp)
	.cfi_restore 22
.LVL1052:
	.loc 1 4588 1
	mv	a0,s5
	lw	s5,4(sp)
	.cfi_restore 21
.LVL1053:
	addi	sp,sp,32
	.cfi_def_cfa_offset 0
	jr	ra
.LVL1054:
.L878:
	.cfi_restore_state
	.loc 1 4516 8
	mv	s1,a4
.LVL1055:
.L855:
	.loc 1 4518 3 is_stmt 1
	.loc 1 4519 3
	.loc 1 4519 12 is_stmt 0
	sw	zero,20(s0)
.LVL1056:
	.loc 1 4520 3 is_stmt 1
	.loc 1 4520 6 is_stmt 0
	bne	s1,zero,.L856
.LVL1057:
.L910:
	lw	s0,24(sp)
	.cfi_remember_state
	.cfi_restore 8
.LVL1058:
	.loc 1 4588 1
	lw	ra,28(sp)
	.cfi_restore 1
	lw	s1,20(sp)
	.cfi_restore 9
	lw	s2,16(sp)
	.cfi_restore 18
	lw	s6,0(sp)
	.cfi_restore 22
	mv	a0,s5
	lw	s5,4(sp)
	.cfi_restore 21
.LVL1059:
	addi	sp,sp,32
	.cfi_def_cfa_offset 0
	jr	ra
.LVL1060:
.L858:
	.cfi_restore_state
	.loc 1 4528 5 is_stmt 1
	.loc 1 4528 10 is_stmt 0
	lw	a1,8(s0)
.LVL1061:
	.loc 1 4530 5 is_stmt 1
	.loc 1 4530 8 is_stmt 0
	beq	a1,zero,.L860
	sw	s3,12(sp)
	sw	s4,8(sp)
	.loc 1 4537 5 is_stmt 1
	.loc 1 4537 15 is_stmt 0
	sw	a1,24(s0)
	.loc 1 4539 4 is_stmt 1
	.loc 1 4537 15 is_stmt 0
	li	a4,0
	.cfi_offset 19, -20
	.cfi_offset 20, -24
.L865:
	.loc 1 4540 16 is_stmt 1
	.loc 1 4557 9 is_stmt 0
	li	s3,-1
	.loc 1 4558 9
	li	s4,1
	.loc 1 4540 16
	bgeu	s2,s1,.L897
.L861:
	.loc 1 4541 6 is_stmt 1
	.loc 1 4544 7
	.loc 1 4548 7
	.loc 1 4555 7
	.loc 1 4543 9 is_stmt 0
	lbu	a5,16(s0)
	.loc 1 4541 27
	add	a4,s2,a4
	sw	a4,20(s0)
	.loc 1 4543 9
	andi	a5,a5,2
	.loc 1 4548 14
	mv	a0,s0
	.loc 1 4541 10
	sub	s1,s1,s2
.LVL1062:
	.loc 1 4541 18 is_stmt 1
	.loc 1 4543 6
	.loc 1 4543 9 is_stmt 0
	beq	a5,zero,.L867
	.loc 1 4548 14
	call	create_chain
.LVL1063:
	mv	a1,a0
.LVL1064:
	.loc 1 4549 7 is_stmt 1
	.loc 1 4549 10 is_stmt 0
	beq	a0,zero,.L913
.L868:
	.loc 1 4557 6 is_stmt 1
	.loc 1 4557 52 discriminator 2
	.loc 1 4558 6
	.loc 1 4558 66 discriminator 4
	.loc 1 4559 6
	.loc 1 4557 9 is_stmt 0
	beq	a1,s3,.L905
	.loc 1 4558 9
	bleu	a1,s4,.L909
	.loc 1 4558 20 discriminator 2
	lw	a5,20(s6)
	bleu	a5,a1,.L909
	.loc 1 4559 16
	sw	a1,24(s0)
	.loc 1 4540 16 is_stmt 1
	.loc 1 4561 7 is_stmt 0
	lw	a4,20(s0)
	.loc 1 4540 16
	bltu	s2,s1,.L861
.LVL1065:
.L897:
	.loc 1 4561 14
	add	a4,a4,s1
	.loc 1 4562 13
	andi	a5,s1,511
	.loc 1 4561 5 is_stmt 1
	.loc 1 4561 14 is_stmt 0
	sw	a4,20(s0)
	.loc 1 4562 5 is_stmt 1
	.loc 1 4562 8 is_stmt 0
	beq	a5,zero,.L879
	.loc 1 4563 6 is_stmt 1
.LVL1066:
.LBB1080:
.LBB1081:
	.loc 1 1149 2
	.loc 1 1150 27 is_stmt 0
	lw	a5,20(s6)
	.loc 1 1149 7
	addi	a0,a1,-2
.LVL1067:
	.loc 1 1150 2 is_stmt 1
	.loc 1 1150 27 is_stmt 0
	addi	a5,a5,-2
	.loc 1 1150 5
	bgeu	a0,a5,.L909
	.loc 1 1151 2 is_stmt 1
	.loc 1 1151 24 is_stmt 0
	lhu	a5,10(s6)
	.loc 1 1151 22
	lw	a3,40(s6)
	.loc 1 1151 41
	mul	a5,a5,a0
	.loc 1 1151 22
	add	a5,a5,a3
.LVL1068:
.LBE1081:
.LBE1080:
	.loc 1 4564 6 is_stmt 1
	.loc 1 4564 9 is_stmt 0
	beq	a5,zero,.L909
	.loc 1 4564 43 is_stmt 1 discriminator 2
	.loc 1 4565 6
	.loc 1 4565 15 is_stmt 0
	srli	s1,s1,9
.LVL1069:
	lw	s3,12(sp)
	.cfi_remember_state
	.cfi_restore 19
	lw	s4,8(sp)
	.cfi_restore 20
	.loc 1 4565 12
	add	a1,s1,a5
.LVL1070:
	j	.L866
.LVL1071:
.L867:
	.cfi_restore_state
	.loc 1 4555 14
	lw	a0,0(s0)
	call	get_fat.isra.0
.LVL1072:
	mv	a1,a0
.LVL1073:
	j	.L868
.LVL1074:
.L860:
	.cfi_restore 19
	.cfi_restore 20
	.loc 1 4531 6 is_stmt 1
	.loc 1 4531 13 is_stmt 0
	li	a1,0
.LVL1075:
	mv	a0,s0
	call	create_chain
.LVL1076:
	.loc 1 4532 9
	li	a5,1
	.loc 1 4531 13
	mv	a1,a0
.LVL1077:
	.loc 1 4532 6 is_stmt 1
	.loc 1 4532 9 is_stmt 0
	beq	a0,a5,.L871
	.loc 1 4532 42 is_stmt 1 discriminator 2
	.loc 1 4533 6
	.loc 1 4533 9 is_stmt 0
	li	a5,-1
	beq	a0,a5,.L869
	.loc 1 4533 52 is_stmt 1 discriminator 2
	.loc 1 4534 6
	.loc 1 4569 28 is_stmt 0
	lw	a4,20(s0)
	.loc 1 4534 21
	sw	a0,8(s0)
	.loc 1 4537 5 is_stmt 1
	.loc 1 4537 15 is_stmt 0
	sw	a0,24(s0)
	j	.L859
.LVL1078:
.L909:
	.cfi_offset 19, -20
	.cfi_offset 20, -24
	lw	s3,12(sp)
	.cfi_restore 19
	lw	s4,8(sp)
	.cfi_restore 20
.L871:
	.loc 1 4532 21 is_stmt 1 discriminator 1
	li	a5,2
	sb	a5,17(s0)
	.loc 1 4532 21 discriminator 1
	.loc 1 4532 21 is_stmt 0
	lw	s0,24(sp)
	.cfi_restore 8
.LVL1079:
	lw	s1,20(sp)
	.cfi_restore 9
.LVL1080:
	lw	s2,16(sp)
	.cfi_restore 18
.LVL1081:
	lw	s6,0(sp)
	.cfi_restore 22
.LVL1082:
	.loc 1 4532 21 discriminator 1
	li	s5,2
.LVL1083:
	.loc 1 4532 21
	j	.L851
.LVL1084:
.L913:
	.cfi_offset 8, -8
	.cfi_offset 9, -12
	.cfi_offset 18, -16
	.cfi_offset 19, -20
	.cfi_offset 20, -24
	.cfi_offset 22, -32
	.loc 1 4561 7
	lw	a4,20(s0)
.LVL1085:
	.loc 1 4561 5 is_stmt 1
	.loc 1 4562 5
	lw	s3,12(sp)
	.cfi_restore 19
	lw	s4,8(sp)
	.cfi_restore 20
	j	.L866
.LVL1086:
.L902:
	lw	s0,24(sp)
	.cfi_restore 8
.LVL1087:
	lw	s1,20(sp)
	.cfi_restore 9
.LVL1088:
	lw	s2,16(sp)
	.cfi_restore 18
	lw	s6,0(sp)
	.cfi_restore 22
	j	.L854
.LVL1089:
.L905:
	.cfi_offset 8, -8
	.cfi_offset 9, -12
	.cfi_offset 18, -16
	.cfi_offset 19, -20
	.cfi_offset 20, -24
	.cfi_offset 22, -32
	lw	s3,12(sp)
	.cfi_restore 19
	lw	s4,8(sp)
	.cfi_restore 20
.L869:
	.loc 1 4533 30 discriminator 1
	li	a5,1
	sb	a5,17(s0)
	.loc 1 4533 30 discriminator 1
	.loc 1 4533 30 is_stmt 0
	lw	s0,24(sp)
	.cfi_remember_state
	.cfi_restore 8
.LVL1090:
	lw	s1,20(sp)
	.cfi_restore 9
.LVL1091:
	lw	s2,16(sp)
	.cfi_restore 18
.LVL1092:
	lw	s6,0(sp)
	.cfi_restore 22
.LVL1093:
	.loc 1 4533 30 discriminator 1
	li	s5,1
.LVL1094:
	.loc 1 4533 30
	j	.L851
.LVL1095:
.L912:
	.cfi_restore_state
	sw	s3,12(sp)
	sw	s4,8(sp)
	.cfi_offset 19, -20
	.cfi_offset 20, -24
	j	.L865
.L879:
	.loc 1 4519 20
	lw	s3,12(sp)
	.cfi_restore 19
	lw	s4,8(sp)
	.cfi_restore 20
	li	a1,0
.LVL1096:
	j	.L866
	.cfi_endproc
.LFE39:
	.size	f_lseek, .-f_lseek
	.align	2
	.globl	f_opendir
	.type	f_opendir, @function
f_opendir:
.LFB40:
	.loc 1 4601 1 is_stmt 1
	.cfi_startproc
.LVL1097:
	.loc 1 4602 2
	.loc 1 4603 2
	.loc 1 4607 2
	.loc 1 4601 1 is_stmt 0
	addi	sp,sp,-48
	.cfi_def_cfa_offset 48
	sw	ra,44(sp)
	sw	a1,12(sp)
	.cfi_offset 1, -4
	.loc 1 4607 5
	beq	a0,zero,.L921
	.loc 1 4610 2 is_stmt 1
	sw	s0,40(sp)
	.loc 1 4610 8 is_stmt 0
	li	a2,0
	.cfi_offset 8, -8
	mv	s0,a0
	addi	a1,sp,28
.LVL1098:
	addi	a0,sp,12
.LVL1099:
	call	mount_volume
.LVL1100:
	.loc 1 4611 2 is_stmt 1
	.loc 1 4611 5 is_stmt 0
	beq	a0,zero,.L931
.LVL1101:
.L916:
	.loc 1 4651 20 is_stmt 1 discriminator 1
	.loc 1 4651 31 is_stmt 0 discriminator 1
	sw	zero,0(s0)
	lw	s0,40(sp)
	.cfi_restore 8
.LVL1102:
.L914:
	.loc 1 4654 1
	lw	ra,44(sp)
	.cfi_restore 1
	addi	sp,sp,48
	.cfi_def_cfa_offset 0
	jr	ra
.LVL1103:
.L931:
	.cfi_def_cfa_offset 48
	.cfi_offset 1, -4
	.cfi_offset 8, -8
	.loc 1 4612 3 is_stmt 1
	sw	s1,36(sp)
	.cfi_offset 9, -12
	.loc 1 4612 14 is_stmt 0
	lw	s1,28(sp)
	.loc 1 4614 9
	lw	a1,12(sp)
	mv	a0,s0
.LVL1104:
	.loc 1 4612 14
	sw	s1,0(s0)
	.loc 1 4613 18 is_stmt 1
	.loc 1 4614 3
	.loc 1 4614 9 is_stmt 0
	call	follow_path
.LVL1105:
	.loc 1 4615 3 is_stmt 1
	.loc 1 4615 6 is_stmt 0
	bne	a0,zero,.L932
	.loc 1 4616 4 is_stmt 1
	.loc 1 4616 7 is_stmt 0
	lb	a5,43(s0)
	blt	a5,zero,.L918
	.loc 1 4617 5 is_stmt 1
	.loc 1 4617 8 is_stmt 0
	lbu	a5,6(s0)
	andi	a5,a5,16
	beq	a5,zero,.L919
	.loc 1 4627 7 is_stmt 1
	.loc 1 4627 39 is_stmt 0
	lw	a4,28(s0)
.LVL1106:
.LBB1082:
.LBB1083:
	.loc 1 1853 2 is_stmt 1
	.loc 1 1855 2
	.loc 1 1856 5 is_stmt 0
	lbu	a2,0(s1)
	li	a3,3
	.loc 1 1855 5 discriminator 1
	lbu	a5,27(a4)
	lbu	a1,26(a4)
	slli	a5,a5,8
	or	a5,a5,a1
.LVL1107:
	.loc 1 1856 2 is_stmt 1
	.loc 1 1856 5 is_stmt 0
	beq	a2,a3,.L933
	.loc 1 1860 2 is_stmt 1
.LVL1108:
.LBE1083:
.LBE1082:
	.loc 1 4627 22 is_stmt 0 discriminator 1
	sw	a5,8(s0)
.L918:
.LVL1109:
	.loc 1 4633 4 is_stmt 1
	.loc 1 4634 5
	.loc 1 4634 20 is_stmt 0
	lhu	a5,6(s1)
	.loc 1 4635 11
	mv	a0,s0
	.loc 1 4634 16
	sh	a5,4(s0)
	.loc 1 4635 5 is_stmt 1
	.loc 1 4635 11 is_stmt 0
	call	dir_sdi.constprop.0
.LVL1110:
	.loc 1 4648 16 is_stmt 1
	.loc 1 4649 3
	.loc 1 4649 6 is_stmt 0
	li	a5,4
	beq	a0,a5,.L919
	.loc 1 4651 2 is_stmt 1
	.loc 1 4651 5 is_stmt 0
	bne	a0,zero,.L929
	lw	s0,40(sp)
	.cfi_remember_state
	.cfi_restore 8
.LVL1111:
	lw	s1,36(sp)
	.cfi_restore 9
	j	.L914
.LVL1112:
.L932:
	.cfi_restore_state
	.loc 1 4648 16 is_stmt 1
	.loc 1 4649 3
	.loc 1 4649 6 is_stmt 0
	li	a5,4
	beq	a0,a5,.L919
.L929:
	lw	s1,36(sp)
	.cfi_remember_state
	.cfi_restore 9
	j	.L916
.L919:
	.cfi_restore_state
	lw	s1,36(sp)
	.cfi_restore 9
	.loc 1 4649 30 discriminator 1
	li	a0,5
.LVL1113:
	j	.L916
.LVL1114:
.L921:
	.cfi_restore 8
	.loc 1 4654 1
	lw	ra,44(sp)
	.cfi_restore 1
	.loc 1 4607 18 discriminator 1
	li	a0,9
.LVL1115:
	.loc 1 4654 1
	addi	sp,sp,48
	.cfi_def_cfa_offset 0
	jr	ra
.LVL1116:
.L933:
	.cfi_def_cfa_offset 48
	.cfi_offset 1, -4
	.cfi_offset 8, -8
	.cfi_offset 9, -12
.LBB1085:
.LBB1084:
	.loc 1 1857 3 is_stmt 1
	.loc 1 1857 9 is_stmt 0 discriminator 1
	lbu	a3,21(a4)
	lbu	a2,20(a4)
	slli	a4,a3,8
.LVL1117:
	or	a4,a4,a2
	.loc 1 1857 45 discriminator 1
	slli	a4,a4,16
	.loc 1 1857 6 discriminator 1
	or	a5,a5,a4
.LVL1118:
	.loc 1 1860 2 is_stmt 1
.LBE1084:
.LBE1085:
	.loc 1 4627 22 is_stmt 0 discriminator 1
	sw	a5,8(s0)
	j	.L918
	.cfi_endproc
.LFE40:
	.size	f_opendir, .-f_opendir
	.align	2
	.globl	f_closedir
	.type	f_closedir, @function
f_closedir:
.LFB41:
	.loc 1 4666 1 is_stmt 1
	.cfi_startproc
.LVL1119:
	.loc 1 4667 2
	.loc 1 4668 2
	.loc 1 4671 2
.LBB1088:
.LBB1089:
	.loc 1 3618 2
	.loc 1 3621 2
	.loc 1 3621 5 is_stmt 0
	beq	a0,zero,.L947
.LBE1089:
.LBE1088:
	.loc 1 4666 1
	addi	sp,sp,-16
	.cfi_def_cfa_offset 16
	sw	s0,8(sp)
	sw	ra,12(sp)
	.cfi_offset 8, -8
	.cfi_offset 1, -4
.LBB1094:
.LBB1090:
	.loc 1 3621 16 discriminator 1
	lw	a5,0(a0)
	mv	s0,a0
	.loc 1 3621 10 discriminator 1
	beq	a5,zero,.L937
	.loc 1 3621 21 discriminator 2
	lbu	a4,0(a5)
	beq	a4,zero,.L937
	.loc 1 3621 41 discriminator 3
	lhu	a3,4(a0)
	lhu	a4,6(a5)
	beq	a3,a4,.L948
.LVL1120:
.L937:
.LBE1090:
.LBE1094:
	.loc 1 4684 1
	lw	ra,12(sp)
	.cfi_remember_state
	.cfi_restore 1
	lw	s0,8(sp)
	.cfi_restore 8
.LVL1121:
.LBB1095:
.LBB1091:
	.loc 1 3618 10
	li	a0,9
.LBE1091:
.LBE1095:
	.loc 1 4684 1
	addi	sp,sp,16
	.cfi_def_cfa_offset 0
	jr	ra
.LVL1122:
.L948:
	.cfi_restore_state
.LBB1096:
.LBB1092:
	.loc 1 3633 3 is_stmt 1
	.loc 1 3633 9 is_stmt 0
	lbu	a0,1(a5)
	call	disk_status
.LVL1123:
	.loc 1 3633 6 discriminator 1
	andi	a0,a0,1
	bne	a0,zero,.L937
	.loc 1 3634 4 is_stmt 1
.LVL1124:
	.loc 1 3638 2
	.loc 1 3639 2
.LBE1092:
.LBE1096:
	.loc 1 4672 2
	.loc 1 4677 3
	.loc 1 4677 14 is_stmt 0
	sw	zero,0(s0)
.LVL1125:
	.loc 1 4683 2 is_stmt 1
	.loc 1 4684 1 is_stmt 0
	lw	ra,12(sp)
	.cfi_restore 1
	lw	s0,8(sp)
	.cfi_restore 8
.LVL1126:
	addi	sp,sp,16
	.cfi_def_cfa_offset 0
	jr	ra
.LVL1127:
.L947:
.LBB1097:
.LBB1093:
	.loc 1 3618 10
	li	a0,9
.LVL1128:
.LBE1093:
.LBE1097:
	.loc 1 4684 1
	ret
	.cfi_endproc
.LFE41:
	.size	f_closedir, .-f_closedir
	.align	2
	.globl	f_readdir
	.type	f_readdir, @function
f_readdir:
.LFB42:
	.loc 1 4697 1 is_stmt 1
	.cfi_startproc
.LVL1129:
	.loc 1 4698 2
	.loc 1 4699 2
	.loc 1 4703 2
.LBB1114:
.LBB1115:
	.loc 1 3618 2
	.loc 1 3621 2
	.loc 1 3621 5 is_stmt 0
	beq	a0,zero,.L982
.LBE1115:
.LBE1114:
	.loc 1 4697 1
	addi	sp,sp,-32
	.cfi_def_cfa_offset 32
	sw	s0,24(sp)
	sw	ra,28(sp)
.LBB1118:
.LBB1116:
	.loc 1 3621 16 discriminator 1
	lw	a5,0(a0)
	.cfi_offset 8, -8
	.cfi_offset 1, -4
	mv	s0,a0
	.loc 1 3621 10 discriminator 1
	beq	a5,zero,.L952
	.loc 1 3621 21 discriminator 2
	lbu	a4,0(a5)
	beq	a4,zero,.L952
	.loc 1 3621 41 discriminator 3
	lhu	a3,4(a0)
	lhu	a4,6(a5)
	beq	a3,a4,.L983
.LVL1130:
.L952:
.LBE1116:
.LBE1118:
	.loc 1 4703 8
	li	a0,9
.LVL1131:
.L949:
	.loc 1 4720 1
	lw	ra,28(sp)
	.cfi_remember_state
	.cfi_restore 1
	lw	s0,24(sp)
	.cfi_restore 8
.LVL1132:
	addi	sp,sp,32
	.cfi_def_cfa_offset 0
	jr	ra
.LVL1133:
.L983:
	.cfi_restore_state
.LBB1119:
.LBB1117:
	.loc 1 3633 3 is_stmt 1
	sw	s1,20(sp)
	sw	s2,16(sp)
	sw	s3,12(sp)
	.loc 1 3633 9 is_stmt 0
	lbu	a0,1(a5)
	.cfi_offset 9, -12
	.cfi_offset 18, -16
	.cfi_offset 19, -20
	mv	s1,a1
	call	disk_status
.LVL1134:
	.loc 1 3633 6 discriminator 1
	andi	a0,a0,1
	bne	a0,zero,.L977
	.loc 1 3634 4 is_stmt 1
.LVL1135:
	.loc 1 3638 2
	.loc 1 3639 2
.LBE1117:
.LBE1119:
	.loc 1 4704 2
	.loc 1 4705 3
	.loc 1 4706 10 is_stmt 0
	mv	a0,s0
	.loc 1 4705 6
	beq	s1,zero,.L984
	.loc 1 4708 19 is_stmt 1
	.loc 1 4709 4
	.loc 1 4709 10 is_stmt 0
	call	dir_read.constprop.0
.LVL1136:
	.loc 1 4710 4 is_stmt 1
	.loc 1 4710 7 is_stmt 0
	andi	a5,a0,-5
	beq	a5,zero,.L985
	.loc 1 4720 1
	lw	ra,28(sp)
	.cfi_remember_state
	.cfi_restore 1
	lw	s0,24(sp)
	.cfi_restore 8
.LVL1137:
	lw	s1,20(sp)
	.cfi_restore 9
.LVL1138:
	lw	s2,16(sp)
	.cfi_restore 18
	lw	s3,12(sp)
	.cfi_restore 19
	addi	sp,sp,32
	.cfi_def_cfa_offset 0
	jr	ra
.LVL1139:
.L985:
	.cfi_restore_state
	.loc 1 4712 5 is_stmt 1
.LBB1120:
.LBB1121:
	.loc 1 2622 2
	.loc 1 2629 2
	.loc 1 2633 2
	.loc 1 2633 16 is_stmt 0
	sb	zero,9(s1)
	.loc 1 2634 2 is_stmt 1
	.loc 1 2634 5 is_stmt 0
	lw	a5,24(s0)
	beq	a5,zero,.L954
	mv	a1,s1
	mv	a0,s0
	call	get_fileinfo.part.0.constprop.0
.LVL1140:
.LBE1121:
.LBE1120:
	.loc 1 4713 5 is_stmt 1
.LBB1122:
.LBB1123:
	.loc 1 1750 2
	.loc 1 1751 2
	.loc 1 1754 6 is_stmt 0
	lw	s2,16(s0)
	.loc 1 1755 5
	li	a5,2097152
	.loc 1 1751 9
	lw	s1,0(s0)
.LVL1141:
	.loc 1 1754 2 is_stmt 1
	.loc 1 1754 6 is_stmt 0
	addi	s2,s2,32
.LVL1142:
	.loc 1 1755 2 is_stmt 1
	.loc 1 1755 5 is_stmt 0
	bgeu	s2,a5,.L961
	.loc 1 1756 2 is_stmt 1
	.loc 1 1756 8 is_stmt 0
	lw	a5,24(s0)
	.loc 1 1756 5
	beq	a5,zero,.L957
	.loc 1 1758 2 is_stmt 1
	.loc 1 1758 10 is_stmt 0
	andi	s3,s2,511
	.loc 1 1758 5
	bne	s3,zero,.L959
	.loc 1 1759 3 is_stmt 1
	.loc 1 1761 9 is_stmt 0
	lw	a1,20(s0)
	.loc 1 1759 11
	addi	a5,a5,1
	sw	a5,24(s0)
	.loc 1 1761 3 is_stmt 1
	.loc 1 1761 6 is_stmt 0
	beq	a1,zero,.L986
	sw	s4,8(sp)
	.cfi_offset 20, -24
	.loc 1 1767 4 is_stmt 1
	.loc 1 1767 27 is_stmt 0
	lhu	s4,10(s1)
	.loc 1 1767 13
	srli	a5,s2,9
	.loc 1 1767 35
	addi	s4,s4,-1
	.loc 1 1767 22
	and	s4,s4,a5
	.loc 1 1767 7
	beq	s4,zero,.L987
	lw	s4,8(sp)
	.cfi_restore 20
.L959:
	.loc 1 1792 2 is_stmt 1
	.loc 1 1793 12 is_stmt 0
	addi	s1,s1,48
.LVL1143:
	.loc 1 1793 20
	add	s1,s1,s3
.LVL1144:
	.loc 1 1792 11
	sw	s2,16(s0)
	.loc 1 1793 2 is_stmt 1
	.loc 1 1793 10 is_stmt 0
	sw	s1,28(s0)
	.loc 1 1795 2 is_stmt 1
.LVL1145:
.LBE1123:
.LBE1122:
	.loc 1 4714 5
.L957:
	.loc 1 4720 1 is_stmt 0
	lw	ra,28(sp)
	.cfi_restore 1
	lw	s0,24(sp)
	.cfi_restore 8
.LVL1146:
	lw	s1,20(sp)
	.cfi_restore 9
	lw	s2,16(sp)
	.cfi_restore 18
	lw	s3,12(sp)
	.cfi_restore 19
	.loc 1 4714 32 discriminator 1
	li	a0,0
	.loc 1 4720 1
	addi	sp,sp,32
	.cfi_def_cfa_offset 0
	jr	ra
.LVL1147:
.L982:
	.loc 1 4703 8
	li	a0,9
.LVL1148:
	.loc 1 4720 1
	ret
.LVL1149:
.L984:
	.cfi_def_cfa_offset 32
	.cfi_offset 1, -4
	.cfi_offset 8, -8
	.cfi_offset 9, -12
	.cfi_offset 18, -16
	.cfi_offset 19, -20
	.loc 1 4706 4 is_stmt 1
	.loc 1 4720 1 is_stmt 0
	lw	s0,24(sp)
	.cfi_remember_state
	.cfi_restore 8
.LVL1150:
	.loc 1 4706 10
	lw	s1,20(sp)
	.cfi_restore 9
.LVL1151:
	lw	s2,16(sp)
	.cfi_restore 18
	lw	s3,12(sp)
	.cfi_restore 19
	.loc 1 4720 1
	lw	ra,28(sp)
	.cfi_restore 1
	addi	sp,sp,32
	.cfi_def_cfa_offset 0
	.loc 1 4706 10
	tail	dir_sdi.constprop.0
.LVL1152:
.L954:
	.cfi_restore_state
	.loc 1 4713 5 is_stmt 1
.LBB1128:
.LBB1126:
	.loc 1 1750 2
	.loc 1 1751 2
	.loc 1 1754 2
	.loc 1 1755 2
	.loc 1 1754 6 is_stmt 0
	lw	a5,16(s0)
	.loc 1 1755 5
	li	a4,2097152
	.loc 1 1754 6
	addi	a5,a5,32
.LVL1153:
	.loc 1 1755 5
	bltu	a5,a4,.L957
.LVL1154:
.L961:
	.loc 1 1755 87 is_stmt 1 discriminator 1
	.loc 1 1755 96 is_stmt 0 discriminator 1
	sw	zero,24(s0)
	.loc 1 1756 2 is_stmt 1
	j	.L957
.LVL1155:
.L986:
	.loc 1 1762 4
	.loc 1 1762 26 is_stmt 0
	lhu	a5,8(s1)
	.loc 1 1762 12
	srli	a4,s2,5
	.loc 1 1762 7
	bltu	a4,a5,.L959
	.loc 1 1755 87 is_stmt 1 discriminator 1
	.loc 1 1755 96 is_stmt 0 discriminator 1
	sw	zero,24(s0)
	.loc 1 1756 2 is_stmt 1
	j	.L957
.LVL1156:
.L977:
	lw	s1,20(sp)
	.cfi_restore 9
.LVL1157:
	lw	s2,16(sp)
	.cfi_restore 18
	lw	s3,12(sp)
	.cfi_restore 19
	j	.L952
.LVL1158:
.L987:
	.cfi_offset 9, -12
	.cfi_offset 18, -16
	.cfi_offset 19, -20
	.cfi_offset 20, -24
	.loc 1 1768 5
	.loc 1 1768 12 is_stmt 0
	mv	a0,s1
	call	get_fat.isra.0
.LVL1159:
	.loc 1 1769 8
	li	a4,1
	.loc 1 1768 12
	mv	a5,a0
.LVL1160:
	.loc 1 1769 5 is_stmt 1
	.loc 1 1769 8 is_stmt 0
	bleu	a0,a4,.L966
	.loc 1 1770 5 is_stmt 1
	.loc 1 1770 8 is_stmt 0
	li	a4,-1
.LBE1126:
.LBE1128:
	.loc 1 4713 11
	li	a0,1
.LVL1161:
.LBB1129:
.LBB1127:
	.loc 1 1770 8
	beq	a5,a4,.L980
	.loc 1 1771 5 is_stmt 1
	.loc 1 1771 8 is_stmt 0
	lw	a4,20(s1)
	bgeu	a5,a4,.L981
	.loc 1 1787 5 is_stmt 1
	.loc 1 1787 15 is_stmt 0
	sw	a5,20(s0)
	.loc 1 1788 5 is_stmt 1
.LVL1162:
.LBB1124:
.LBB1125:
	.loc 1 1149 2
	.loc 1 1150 27 is_stmt 0
	lw	a4,20(s1)
	.loc 1 1149 7
	addi	a5,a5,-2
.LVL1163:
	.loc 1 1150 2 is_stmt 1
	.loc 1 1150 27 is_stmt 0
	addi	a4,a4,-2
	.loc 1 1150 5
	bgeu	a5,a4,.L963
	.loc 1 1151 2 is_stmt 1
	.loc 1 1151 24 is_stmt 0
	lhu	s4,10(s1)
	.loc 1 1151 22
	lw	a4,40(s1)
	.loc 1 1151 41
	mul	s4,s4,a5
	.loc 1 1151 22
	add	s4,s4,a4
.L963:
.LVL1164:
.LBE1125:
.LBE1124:
	.loc 1 1788 14 discriminator 1
	sw	s4,24(s0)
	lw	s4,8(sp)
	.cfi_remember_state
	.cfi_restore 20
	j	.L959
.LVL1165:
.L981:
	.cfi_restore_state
	lw	s4,8(sp)
	.cfi_remember_state
	.cfi_restore 20
	.loc 1 1755 87 is_stmt 1 discriminator 1
	.loc 1 1755 96 is_stmt 0 discriminator 1
	sw	zero,24(s0)
	.loc 1 1756 2 is_stmt 1
	j	.L957
.L980:
	.cfi_restore_state
	lw	s1,20(sp)
	.cfi_remember_state
	.cfi_restore 9
.LVL1166:
	lw	s2,16(sp)
	.cfi_restore 18
.LVL1167:
	lw	s3,12(sp)
	.cfi_restore 19
	lw	s4,8(sp)
	.cfi_restore 20
	j	.L949
.LVL1168:
.L966:
	.cfi_restore_state
	lw	s1,20(sp)
	.cfi_restore 9
.LVL1169:
	lw	s2,16(sp)
	.cfi_restore 18
.LVL1170:
	lw	s3,12(sp)
	.cfi_restore 19
	lw	s4,8(sp)
	.cfi_restore 20
.LBE1127:
.LBE1129:
	.loc 1 4713 11 is_stmt 0
	li	a0,2
.LVL1171:
	j	.L949
	.cfi_endproc
.LFE42:
	.size	f_readdir, .-f_readdir
	.align	2
	.globl	f_stat
	.type	f_stat, @function
f_stat:
.LFB43:
	.loc 1 4785 1 is_stmt 1
	.cfi_startproc
.LVL1172:
	.loc 1 4786 2
	.loc 1 4787 2
	.loc 1 4792 2
	.loc 1 4785 1 is_stmt 0
	addi	sp,sp,-80
	.cfi_def_cfa_offset 80
	sw	s1,68(sp)
	sw	a0,12(sp)
	.cfi_offset 9, -12
	mv	s1,a1
	.loc 1 4792 8
	li	a2,0
	addi	a1,sp,20
.LVL1173:
	addi	a0,sp,12
.LVL1174:
	.loc 1 4785 1
	sw	s0,72(sp)
	sw	ra,76(sp)
	.cfi_offset 8, -8
	.cfi_offset 1, -4
	.loc 1 4792 8
	call	mount_volume
.LVL1175:
	mv	s0,a0
.LVL1176:
	.loc 1 4793 2 is_stmt 1
	.loc 1 4793 5 is_stmt 0
	beq	a0,zero,.L998
.LVL1177:
.L988:
	.loc 1 4807 1
	lw	ra,76(sp)
	.cfi_remember_state
	.cfi_restore 1
	mv	a0,s0
	lw	s0,72(sp)
	.cfi_restore 8
	lw	s1,68(sp)
	.cfi_restore 9
.LVL1178:
	addi	sp,sp,80
	.cfi_def_cfa_offset 0
	jr	ra
.LVL1179:
.L998:
	.cfi_restore_state
	.loc 1 4794 25 is_stmt 1
	.loc 1 4795 3
	.loc 1 4795 9 is_stmt 0
	lw	a1,12(sp)
	addi	a0,sp,20
	call	follow_path
.LVL1180:
	mv	s0,a0
.LVL1181:
	.loc 1 4796 3 is_stmt 1
	.loc 1 4796 6 is_stmt 0
	bne	a0,zero,.L988
	.loc 1 4797 4 is_stmt 1
	.loc 1 4797 7 is_stmt 0
	lb	a5,63(sp)
	blt	a5,zero,.L993
	.loc 1 4800 5 is_stmt 1
	.loc 1 4800 8 is_stmt 0
	beq	s1,zero,.L988
	.loc 1 4800 14 is_stmt 1 discriminator 1
.LVL1182:
.LBB1130:
.LBB1131:
	.loc 1 2622 2
	.loc 1 2629 2
	.loc 1 2633 2
	.loc 1 2634 5 is_stmt 0
	lw	a5,44(sp)
	.loc 1 2633 16
	sb	zero,9(s1)
	.loc 1 2634 2 is_stmt 1
	.loc 1 2634 5 is_stmt 0
	beq	a5,zero,.L988
	mv	a1,s1
	addi	a0,sp,20
.LVL1183:
	call	get_fileinfo.part.0.constprop.0
.LVL1184:
	j	.L988
.LVL1185:
.L993:
.LBE1131:
.LBE1130:
	.loc 1 4798 9
	li	s0,6
.LVL1186:
	.loc 1 4803 16 is_stmt 1
	.loc 1 4806 2
	j	.L988
	.cfi_endproc
.LFE43:
	.size	f_stat, .-f_stat
	.align	2
	.globl	f_getfree
	.type	f_getfree, @function
f_getfree:
.LFB44:
	.loc 1 4821 1
	.cfi_startproc
.LVL1187:
	.loc 1 4822 2
	.loc 1 4823 2
	.loc 1 4824 2
	.loc 1 4825 2
	.loc 1 4826 2
	.loc 1 4827 2
	.loc 1 4831 2
	.loc 1 4821 1 is_stmt 0
	addi	sp,sp,-80
	.cfi_def_cfa_offset 80
	sw	s0,72(sp)
	sw	s2,64(sp)
	sw	a0,12(sp)
	.cfi_offset 8, -8
	.cfi_offset 18, -16
	mv	s2,a1
	mv	s0,a2
	.loc 1 4831 8
	addi	a1,sp,28
.LVL1188:
	li	a2,0
.LVL1189:
	addi	a0,sp,12
.LVL1190:
	.loc 1 4821 1
	sw	s1,68(sp)
	sw	ra,76(sp)
	.cfi_offset 9, -12
	.cfi_offset 1, -4
	.loc 1 4831 8
	call	mount_volume
.LVL1191:
	mv	s1,a0
.LVL1192:
	.loc 1 4832 2 is_stmt 1
	.loc 1 4832 5 is_stmt 0
	bne	a0,zero,.L999
	sw	s3,60(sp)
	.cfi_offset 19, -20
	.loc 1 4833 10
	lw	s3,28(sp)
	sw	s4,56(sp)
	.loc 1 4833 3 is_stmt 1
	.loc 1 4833 10 is_stmt 0
	sw	s3,0(s0)
	.loc 1 4835 3 is_stmt 1
	.cfi_offset 20, -24
	.loc 1 4835 26 is_stmt 0
	lw	s4,20(s3)
	.loc 1 4835 9
	lw	a5,16(s3)
	.loc 1 4835 37
	addi	a4,s4,-2
	.loc 1 4835 6
	bgtu	a5,a4,.L1001
	.loc 1 4836 4 is_stmt 1
	.loc 1 4836 11 is_stmt 0
	sw	a5,0(s2)
	lw	s3,60(sp)
	.cfi_restore 19
	lw	s4,56(sp)
	.cfi_restore 20
.LVL1193:
.L999:
	.loc 1 4903 1
	lw	ra,76(sp)
	.cfi_restore 1
	lw	s0,72(sp)
	.cfi_restore 8
	lw	s2,64(sp)
	.cfi_restore 18
.LVL1194:
	mv	a0,s1
	lw	s1,68(sp)
	.cfi_restore 9
	addi	sp,sp,80
	.cfi_def_cfa_offset 0
	jr	ra
.LVL1195:
.L1001:
	.cfi_def_cfa_offset 80
	.cfi_offset 1, -4
	.cfi_offset 8, -8
	.cfi_offset 9, -12
	.cfi_offset 18, -16
	.cfi_offset 19, -20
	.cfi_offset 20, -24
	sw	s5,52(sp)
	sw	s6,48(sp)
	.loc 1 4839 4 is_stmt 1
.LVL1196:
	.loc 1 4840 4
	.loc 1 4840 10 is_stmt 0
	lbu	a2,0(s3)
	.loc 1 4840 7
	li	a5,1
	.cfi_offset 21, -28
	.cfi_offset 22, -32
	beq	a2,a5,.L1020
	sw	s7,44(sp)
	sw	s8,40(sp)
	.cfi_offset 23, -36
	.cfi_offset 24, -40
	.loc 1 4875 6 is_stmt 1
.LVL1197:
	.loc 1 4876 6
	.loc 1 4876 11 is_stmt 0
	lw	s8,32(s3)
.LVL1198:
	.loc 1 4877 6 is_stmt 1
	.loc 1 4887 35 is_stmt 0 discriminator 1
	li	s7,268435456
	.loc 1 4877 8
	li	s0,0
.LVL1199:
	.loc 1 4839 10
	li	s5,0
	.loc 1 4883 10
	li	s6,2
	.loc 1 4887 35 discriminator 1
	addi	s7,s7,-1
.LVL1200:
.L1012:
	.loc 1 4878 6 is_stmt 1
	.loc 1 4879 7
	.loc 1 4879 10 is_stmt 0
	beq	s0,zero,.L1021
.LVL1201:
.L1007:
	.loc 1 4883 7 is_stmt 1
	.loc 1 4887 8
.LBB1132:
.LBB1133:
	.loc 1 629 2
	.loc 1 631 2
	.loc 1 632 2
	.loc 1 633 2
	.loc 1 634 2
	.loc 1 635 2
	.loc 1 634 5 is_stmt 0
	add	a5,s3,s0
.LBE1133:
.LBE1132:
	.loc 1 4883 10
	beq	a2,s6,.L1022
.LBB1135:
.LBB1134:
	.loc 1 634 5
	lbu	a3,49(a5)
	lbu	a0,48(a5)
	lbu	a4,50(a5)
	lbu	a5,51(a5)
	slli	a3,a3,8
	or	a3,a3,a0
	slli	a4,a4,16
	or	a4,a4,a3
	slli	a5,a5,24
	or	a5,a5,a4
.LBE1134:
.LBE1135:
	.loc 1 4887 35 discriminator 1
	and	a5,a5,s7
	.loc 1 4887 60 discriminator 1
	seqz	a5,a5
	.loc 1 4888 10
	addi	s0,s0,4
	.loc 1 4887 60 discriminator 1
	add	s5,s5,a5
.LVL1202:
	.loc 1 4888 8 is_stmt 1
.L1010:
	.loc 1 4890 7
	.loc 1 4891 15 is_stmt 0
	addi	s4,s4,-1
.LVL1203:
	.loc 1 4890 9
	andi	s0,s0,511
.LVL1204:
	.loc 1 4891 15 is_stmt 1
	bne	s4,zero,.L1012
	lw	s7,44(sp)
	.cfi_restore 23
	lw	s8,40(sp)
	.cfi_restore 24
.LVL1205:
.L1006:
	.loc 1 4894 4
	.loc 1 4895 5
	.loc 1 4895 12 is_stmt 0
	sw	s5,0(s2)
	.loc 1 4896 5 is_stmt 1
	.loc 1 4897 18 is_stmt 0
	lbu	a5,5(s3)
	.loc 1 4896 19
	sw	s5,16(s3)
	.loc 1 4897 5 is_stmt 1
	.loc 1 4903 1 is_stmt 0
	mv	a0,s1
	.loc 1 4897 18
	ori	a5,a5,1
	sb	a5,5(s3)
	.loc 1 4903 1
	lw	ra,76(sp)
	.cfi_remember_state
	.cfi_restore 1
	lw	s0,72(sp)
	.cfi_restore 8
	lw	s3,60(sp)
	.cfi_restore 19
	lw	s4,56(sp)
	.cfi_restore 20
	lw	s5,52(sp)
	.cfi_restore 21
.LVL1206:
	lw	s6,48(sp)
	.cfi_restore 22
	lw	s1,68(sp)
	.cfi_restore 9
	lw	s2,64(sp)
	.cfi_restore 18
.LVL1207:
	addi	sp,sp,80
	.cfi_def_cfa_offset 0
	jr	ra
.LVL1208:
.L1020:
	.cfi_restore_state
	.loc 1 4839 10
	li	s5,0
	.loc 1 4841 10
	li	s0,2
.LVL1209:
	.loc 1 4844 9
	li	s4,-1
	.loc 1 4847 9
	li	s6,1
	j	.L1005
.LVL1210:
.L1023:
	beq	a0,s6,.L1015
	.loc 1 4851 21
	lw	a4,20(s3)
	.loc 1 4850 26 discriminator 1
	add	s5,s5,a5
.LVL1211:
	.loc 1 4851 21 is_stmt 1
	bleu	a4,s0,.L1006
.LVL1212:
.L1005:
	.loc 1 4842 5
	.loc 1 4843 6
	.loc 1 4843 13 is_stmt 0
	mv	a1,s0
	mv	a0,s3
	call	get_fat.isra.0
.LVL1213:
	.loc 1 4847 6 is_stmt 1
	.loc 1 4850 6
	.loc 1 4844 6
	.loc 1 4850 26 is_stmt 0 discriminator 1
	seqz	a5,a0
	.loc 1 4851 21
	addi	s0,s0,1
.LVL1214:
	.loc 1 4844 9
	bne	a0,s4,.L1023
	lw	s3,60(sp)
	.cfi_restore 19
	lw	s4,56(sp)
	.cfi_restore 20
	lw	s5,52(sp)
	.cfi_restore 21
.LVL1215:
	lw	s6,48(sp)
	.cfi_restore 22
	.loc 1 4845 11
	li	s1,1
.LVL1216:
	j	.L999
.LVL1217:
.L1022:
	.cfi_offset 19, -20
	.cfi_offset 20, -24
	.cfi_offset 21, -28
	.cfi_offset 22, -32
	.cfi_offset 23, -36
	.cfi_offset 24, -40
	.loc 1 4884 8 is_stmt 1
	.loc 1 4884 11 is_stmt 0 discriminator 1
	mv	a4,a5
	lbu	a5,49(a5)
	lbu	a4,48(a4)
	.loc 1 4885 10
	addi	s0,s0,2
	.loc 1 4884 11 discriminator 1
	slli	a5,a5,8
	or	a5,a5,a4
	.loc 1 4884 44 discriminator 1
	seqz	a5,a5
	add	s5,s5,a5
.LVL1218:
	.loc 1 4885 8 is_stmt 1
	j	.L1010
.L1021:
.LVL1219:
	.loc 1 4880 8
	.loc 1 4880 14 is_stmt 0
	mv	a1,s8
	mv	a0,s3
	addi	s8,s8,1
.LVL1220:
	call	move_window
.LVL1221:
	.loc 1 4881 8 is_stmt 1
	.loc 1 4881 11 is_stmt 0
	bne	a0,zero,.L1016
	.loc 1 4883 13
	lbu	a2,0(s3)
	j	.L1007
.L1016:
	.loc 1 4880 14
	lw	s3,60(sp)
	.cfi_restore 19
	lw	s4,56(sp)
	.cfi_restore 20
.LVL1222:
	lw	s5,52(sp)
	.cfi_restore 21
.LVL1223:
	lw	s6,48(sp)
	.cfi_restore 22
	lw	s7,44(sp)
	.cfi_restore 23
	lw	s8,40(sp)
	.cfi_restore 24
.LVL1224:
	mv	s1,a0
.LVL1225:
	.loc 1 4894 4 is_stmt 1
	j	.L999
.LVL1226:
.L1015:
	.cfi_offset 19, -20
	.cfi_offset 20, -24
	.cfi_offset 21, -28
	.cfi_offset 22, -32
	lw	s3,60(sp)
	.cfi_restore 19
	lw	s4,56(sp)
	.cfi_restore 20
	lw	s5,52(sp)
	.cfi_restore 21
.LVL1227:
	lw	s6,48(sp)
	.cfi_restore 22
	.loc 1 4848 11 is_stmt 0
	li	s1,2
.LVL1228:
	j	.L999
	.cfi_endproc
.LFE44:
	.size	f_getfree, .-f_getfree
	.align	2
	.globl	f_truncate
	.type	f_truncate, @function
f_truncate:
.LFB45:
	.loc 1 4915 1 is_stmt 1
	.cfi_startproc
.LVL1229:
	.loc 1 4916 2
	.loc 1 4917 2
	.loc 1 4918 2
	.loc 1 4921 2
.LBB1138:
.LBB1139:
	.loc 1 3618 2
	.loc 1 3621 2
.LBE1139:
.LBE1138:
	.loc 1 4915 1 is_stmt 0
	addi	sp,sp,-16
	.cfi_def_cfa_offset 16
	sw	ra,12(sp)
	sw	s1,4(sp)
	.cfi_offset 1, -4
	.cfi_offset 9, -12
.LBB1143:
.LBB1140:
	.loc 1 3621 5
	beq	a0,zero,.L1027
	sw	s0,8(sp)
	.loc 1 3621 16 discriminator 1
	lw	a5,0(a0)
	.cfi_offset 8, -8
	mv	s0,a0
	.loc 1 3621 10 discriminator 1
	beq	a5,zero,.L1052
	.loc 1 3621 21 discriminator 2
	lbu	a4,0(a5)
	beq	a4,zero,.L1052
	.loc 1 3621 41 discriminator 3
	lhu	a3,4(a0)
	lhu	a4,6(a5)
	beq	a3,a4,.L1057
.L1052:
	lw	s0,8(sp)
	.cfi_restore 8
.LVL1230:
.L1027:
.LBE1140:
.LBE1143:
	.loc 1 4921 8
	li	s1,9
.LVL1231:
.L1024:
	.loc 1 4953 1
	lw	ra,12(sp)
	.cfi_restore 1
	mv	a0,s1
	lw	s1,4(sp)
	.cfi_restore 9
	addi	sp,sp,16
	.cfi_def_cfa_offset 0
	jr	ra
.LVL1232:
.L1057:
	.cfi_def_cfa_offset 16
	.cfi_offset 1, -4
	.cfi_offset 8, -8
	.cfi_offset 9, -12
.LBB1144:
.LBB1141:
	.loc 1 3633 3 is_stmt 1
	sw	s2,0(sp)
	.cfi_offset 18, -16
	.loc 1 3633 9 is_stmt 0
	lbu	a0,1(a5)
	call	disk_status
.LVL1233:
	.loc 1 3633 6 discriminator 1
	andi	a0,a0,1
	bne	a0,zero,.L1053
	.loc 1 3634 4 is_stmt 1
.LVL1234:
	.loc 1 3638 2
	.loc 1 3639 2
.LBE1141:
.LBE1144:
	.loc 1 4922 2
	.loc 1 4922 27 is_stmt 0 discriminator 2
	lbu	s1,17(s0)
.LVL1235:
	.loc 1 4922 19 discriminator 2
	bne	s1,zero,.L1056
	.loc 1 4923 2 is_stmt 1
	.loc 1 4923 5 is_stmt 0
	lbu	a5,16(s0)
	andi	a5,a5,2
	beq	a5,zero,.L1038
	.loc 1 4925 8
	lw	a5,20(s0)
	.loc 1 4925 5
	lw	a4,12(s0)
.LBB1145:
.LBB1142:
	.loc 1 3638 34 discriminator 1
	lw	s2,0(s0)
.LBE1142:
.LBE1145:
	.loc 1 4925 2 is_stmt 1
	.loc 1 4925 5 is_stmt 0
	bgeu	a5,a4,.L1056
	.loc 1 4926 3 is_stmt 1
	.loc 1 4926 6 is_stmt 0
	bne	a5,zero,.L1029
	.loc 1 4927 4 is_stmt 1
	.loc 1 4927 10 is_stmt 0
	lw	a1,8(s0)
	li	a2,0
	mv	a0,s0
	call	remove_chain
.LVL1236:
	.loc 1 4928 4 is_stmt 1
	.loc 1 4928 19 is_stmt 0
	sw	zero,8(s0)
.L1030:
	.loc 1 4938 3 is_stmt 1
	.loc 1 4939 12 is_stmt 0
	lbu	a5,16(s0)
	.loc 1 4938 19
	lw	a4,20(s0)
	.loc 1 4939 12
	ori	a5,a5,64
	.loc 1 4938 19
	sw	a4,12(s0)
	.loc 1 4939 3 is_stmt 1
	.loc 1 4939 12 is_stmt 0
	sb	a5,16(s0)
	.loc 1 4949 3 is_stmt 1
	.loc 1 4949 6 is_stmt 0
	bne	a0,zero,.L1058
.LVL1237:
.L1056:
	lw	s0,8(sp)
	.cfi_remember_state
	.cfi_restore 8
.LVL1238:
	.loc 1 4953 1
	lw	ra,12(sp)
	.cfi_restore 1
	lw	s2,0(sp)
	.cfi_restore 18
	mv	a0,s1
	lw	s1,4(sp)
	.cfi_restore 9
	addi	sp,sp,16
	.cfi_def_cfa_offset 0
	jr	ra
.LVL1239:
.L1038:
	.cfi_restore_state
	.loc 1 4923 30 discriminator 1
	lw	s0,8(sp)
	.cfi_remember_state
	.cfi_restore 8
.LVL1240:
	lw	s2,0(sp)
	.cfi_restore 18
	li	s1,7
.LVL1241:
	j	.L1024
.LVL1242:
.L1029:
	.cfi_restore_state
	.loc 1 4930 4 is_stmt 1
	.loc 1 4930 10 is_stmt 0
	lw	a1,24(s0)
	mv	a0,s2
	call	get_fat.isra.0
.LVL1243:
	.loc 1 4931 4 is_stmt 1
	.loc 1 4932 4
	.loc 1 4932 7 is_stmt 0
	li	a5,-1
	beq	a0,a5,.L1031
	.loc 1 4933 4 is_stmt 1
	.loc 1 4933 7 is_stmt 0
	li	a5,1
	beq	a0,a5,.L1059
	.loc 1 4934 4 is_stmt 1
	.loc 1 4934 21 is_stmt 0 discriminator 1
	lw	a5,20(s2)
	bleu	a5,a0,.L1060
	.loc 1 4935 5 is_stmt 1
	.loc 1 4935 11 is_stmt 0
	lw	a2,24(s0)
	mv	a1,a0
	mv	a0,s0
.LVL1244:
	call	remove_chain
.LVL1245:
	j	.L1030
.LVL1246:
.L1059:
	.loc 1 4938 3 is_stmt 1
	.loc 1 4939 12 is_stmt 0
	lbu	a5,16(s0)
	.loc 1 4938 19
	lw	a3,20(s0)
	.loc 1 4939 12
	li	a4,2
	ori	a5,a5,64
	.loc 1 4938 19
	sw	a3,12(s0)
	.loc 1 4939 3 is_stmt 1
	.loc 1 4939 12 is_stmt 0
	sb	a5,16(s0)
	.loc 1 4949 3 is_stmt 1
	.loc 1 4933 22 is_stmt 0 discriminator 1
	li	s1,2
.LVL1247:
.L1033:
	.loc 1 4949 21 is_stmt 1 discriminator 1
	sb	a4,17(s0)
	.loc 1 4949 21 discriminator 1
	.loc 1 4949 21 is_stmt 0
	lw	s0,8(sp)
	.cfi_remember_state
	.cfi_restore 8
.LVL1248:
	lw	s2,0(sp)
	.cfi_restore 18
.LVL1249:
	j	.L1024
.LVL1250:
.L1053:
	.cfi_restore_state
	lw	s0,8(sp)
	.cfi_remember_state
	.cfi_restore 8
.LVL1251:
	lw	s2,0(sp)
	.cfi_restore 18
	j	.L1027
.LVL1252:
.L1031:
	.cfi_restore_state
	.loc 1 4934 4 is_stmt 1
	.loc 1 4938 3
	.loc 1 4939 12 is_stmt 0
	lbu	a5,16(s0)
	.loc 1 4938 19
	lw	a3,20(s0)
	.loc 1 4939 12
	li	a4,1
	ori	a5,a5,64
	.loc 1 4938 19
	sw	a3,12(s0)
	.loc 1 4939 3 is_stmt 1
	.loc 1 4939 12 is_stmt 0
	sb	a5,16(s0)
	.loc 1 4949 3 is_stmt 1
	.loc 1 4939 12 is_stmt 0
	li	s1,1
	j	.L1033
.LVL1253:
.L1060:
	.loc 1 4938 3 is_stmt 1
	.loc 1 4939 12 is_stmt 0
	lbu	a5,16(s0)
	.loc 1 4938 19
	lw	a4,20(s0)
	.loc 1 4939 12
	ori	a5,a5,64
	.loc 1 4938 19
	sw	a4,12(s0)
	.loc 1 4939 3 is_stmt 1
	.loc 1 4939 12 is_stmt 0
	sb	a5,16(s0)
	.loc 1 4949 3 is_stmt 1
	lw	s0,8(sp)
	.cfi_remember_state
	.cfi_restore 8
.LVL1254:
	lw	s2,0(sp)
	.cfi_restore 18
.LVL1255:
	j	.L1024
.LVL1256:
.L1058:
	.cfi_restore_state
	.loc 1 4949 21 is_stmt 0 discriminator 1
	andi	a4,a0,0xff
	mv	s1,a0
	j	.L1033
	.cfi_endproc
.LFE45:
	.size	f_truncate, .-f_truncate
	.align	2
	.globl	f_unlink
	.type	f_unlink, @function
f_unlink:
.LFB46:
	.loc 1 4965 1 is_stmt 1
	.cfi_startproc
.LVL1257:
	.loc 1 4966 2
	.loc 1 4967 2
	.loc 1 4968 2
	.loc 1 4969 2
	.loc 1 4977 2
	.loc 1 4965 1 is_stmt 0
	addi	sp,sp,-144
	.cfi_def_cfa_offset 144
	sw	a0,12(sp)
	.loc 1 4977 8
	li	a2,2
	addi	a1,sp,20
	addi	a0,sp,12
.LVL1258:
	.loc 1 4965 1
	sw	ra,140(sp)
	.cfi_offset 1, -4
	.loc 1 4977 8
	call	mount_volume
.LVL1259:
	.loc 1 4978 2 is_stmt 1
	.loc 1 4978 5 is_stmt 0
	beq	a0,zero,.L1086
.LVL1260:
.L1061:
	.loc 1 5047 1
	lw	ra,140(sp)
	.cfi_remember_state
	.cfi_restore 1
	addi	sp,sp,144
	.cfi_def_cfa_offset 0
	jr	ra
.LVL1261:
.L1086:
	.cfi_restore_state
	.loc 1 4979 3 is_stmt 1
	sw	s0,136(sp)
	.loc 1 4981 9 is_stmt 0
	lw	a1,12(sp)
	.cfi_offset 8, -8
	.loc 1 4979 13
	lw	s0,20(sp)
	.loc 1 4981 9
	addi	a0,sp,24
.LVL1262:
	.loc 1 4979 13
	sw	s0,24(sp)
	.loc 1 4980 18 is_stmt 1
	.loc 1 4981 3
	.loc 1 4981 9 is_stmt 0
	call	follow_path
.LVL1263:
	.loc 1 4982 3 is_stmt 1
	.loc 1 4988 3
	.loc 1 4988 6 is_stmt 0
	bne	a0,zero,.L1080
	.loc 1 4989 4 is_stmt 1
	.loc 1 4989 7 is_stmt 0
	lb	a5,67(sp)
	.loc 1 4990 9
	li	a0,6
.LVL1264:
	.loc 1 4989 7
	blt	a5,zero,.L1080
	.loc 1 4992 5 is_stmt 1
	.loc 1 4992 15 is_stmt 0
	lbu	a5,30(sp)
	.loc 1 4992 8
	andi	a4,a5,1
	bne	a4,zero,.L1067
.LVL1265:
	.loc 1 4996 4 is_stmt 1
	.loc 1 5005 6
	sw	s2,128(sp)
	.cfi_offset 18, -16
	.loc 1 5005 29 is_stmt 0
	lw	s2,52(sp)
.LVL1266:
.LBB1146:
.LBB1147:
	.loc 1 1853 2 is_stmt 1
	.loc 1 1855 2
	sw	s1,132(sp)
	.loc 1 1856 5 is_stmt 0
	lbu	a3,0(s0)
	.cfi_offset 9, -12
	.loc 1 1855 5 discriminator 1
	lbu	s1,27(s2)
	lbu	a2,26(s2)
	.loc 1 1856 5
	li	a4,3
	.loc 1 1855 5 discriminator 1
	slli	s1,s1,8
	or	s1,s1,a2
.LVL1267:
	.loc 1 1856 2 is_stmt 1
	.loc 1 1856 5 is_stmt 0
	beq	a3,a4,.L1087
.L1064:
	.loc 1 1860 2 is_stmt 1
.LVL1268:
.LBE1147:
.LBE1146:
	.loc 1 5007 5
	.loc 1 5007 8 is_stmt 0
	andi	a5,a5,16
	bne	a5,zero,.L1065
.LVL1269:
.L1084:
	.loc 1 5032 5 is_stmt 1
.LBB1149:
.LBB1150:
	.loc 1 2575 2
	.loc 1 2576 2
	sw	s3,124(sp)
	.cfi_offset 19, -20
	.loc 1 2576 9 is_stmt 0
	lw	s3,24(sp)
.LVL1270:
	.loc 1 2598 2 is_stmt 1
	.loc 1 2598 8 is_stmt 0
	lw	a1,48(sp)
	mv	a0,s3
	call	move_window
.LVL1271:
	.loc 1 2599 2 is_stmt 1
	.loc 1 2599 5 is_stmt 0
	bne	a0,zero,.L1085
	.loc 1 2600 3 is_stmt 1
	.loc 1 2600 21 is_stmt 0
	li	a5,-27
	sb	a5,0(s2)
	.loc 1 2601 3 is_stmt 1
	.loc 1 2601 13 is_stmt 0
	li	a5,1
	sb	a5,4(s3)
	.loc 1 2605 2 is_stmt 1
.LVL1272:
.LBE1150:
.LBE1149:
	.loc 1 5033 5
	.loc 1 5033 22 is_stmt 0 discriminator 1
	bne	s1,zero,.L1069
.LVL1273:
.L1070:
	.loc 1 5040 23 is_stmt 1 discriminator 1
	.loc 1 5040 29 is_stmt 0 discriminator 1
	mv	a0,s0
	call	sync_fs
.LVL1274:
	lw	s0,136(sp)
	.cfi_restore 8
	lw	s1,132(sp)
	.cfi_restore 9
	lw	s2,128(sp)
	.cfi_restore 18
	lw	s3,124(sp)
	.cfi_restore 19
	j	.L1061
.LVL1275:
.L1080:
	.cfi_offset 8, -8
	lw	s0,136(sp)
	.cfi_restore 8
	.loc 1 5047 1
	lw	ra,140(sp)
	.cfi_restore 1
	addi	sp,sp,144
	.cfi_def_cfa_offset 0
	jr	ra
.LVL1276:
.L1087:
	.cfi_def_cfa_offset 144
	.cfi_offset 1, -4
	.cfi_offset 8, -8
	.cfi_offset 9, -12
	.cfi_offset 18, -16
.LBB1151:
.LBB1148:
	.loc 1 1857 3 is_stmt 1
	.loc 1 1857 9 is_stmt 0 discriminator 1
	lbu	a4,21(s2)
	lbu	a3,20(s2)
	slli	a4,a4,8
	or	a4,a4,a3
	.loc 1 1857 45 discriminator 1
	slli	a4,a4,16
	.loc 1 1857 6 discriminator 1
	or	s1,s1,a4
.LVL1277:
	j	.L1064
.LVL1278:
.L1065:
.LBE1148:
.LBE1151:
	.loc 1 5014 7 is_stmt 1
	.loc 1 5022 13 is_stmt 0
	addi	a0,sp,68
	.loc 1 5014 18
	sw	s0,68(sp)
	.loc 1 5015 7 is_stmt 1
	.loc 1 5015 22 is_stmt 0
	sw	s1,76(sp)
	.loc 1 5022 7 is_stmt 1
	.loc 1 5022 13 is_stmt 0
	call	dir_sdi.constprop.0
.LVL1279:
	.loc 1 5023 7 is_stmt 1
	.loc 1 5023 10 is_stmt 0
	beq	a0,zero,.L1088
.L1083:
	lw	s0,136(sp)
	.cfi_restore 8
	lw	s1,132(sp)
	.cfi_restore 9
.LVL1280:
	lw	s2,128(sp)
	.cfi_restore 18
	j	.L1061
.LVL1281:
.L1069:
	.cfi_offset 8, -8
	.cfi_offset 9, -12
	.cfi_offset 18, -16
	.cfi_offset 19, -20
	.loc 1 5037 6 is_stmt 1
	.loc 1 5037 12 is_stmt 0
	li	a2,0
	mv	a1,s1
	addi	a0,sp,24
	call	remove_chain
.LVL1282:
	.loc 1 5040 5 is_stmt 1
	.loc 1 5040 8 is_stmt 0
	beq	a0,zero,.L1070
.LVL1283:
.L1085:
	lw	s0,136(sp)
	.cfi_restore 8
	lw	s1,132(sp)
	.cfi_restore 9
	lw	s2,128(sp)
	.cfi_restore 18
	lw	s3,124(sp)
	.cfi_restore 19
	j	.L1061
.LVL1284:
.L1082:
	.cfi_offset 8, -8
	.cfi_offset 9, -12
	.cfi_offset 18, -16
	lw	s1,132(sp)
	.cfi_restore 9
.LVL1285:
	lw	s2,128(sp)
	.cfi_restore 18
.LVL1286:
.L1067:
	lw	s0,136(sp)
	.cfi_restore 8
	.loc 1 4990 9
	li	a0,7
	j	.L1061
.LVL1287:
.L1088:
	.cfi_offset 8, -8
	.cfi_offset 9, -12
	.cfi_offset 18, -16
	.loc 1 5024 8 is_stmt 1
	.loc 1 5024 14 is_stmt 0
	addi	a0,sp,68
.LVL1288:
	call	dir_read.constprop.0
.LVL1289:
	.loc 1 5025 8 is_stmt 1
	.loc 1 5025 11 is_stmt 0
	beq	a0,zero,.L1082
	.loc 1 5026 8 is_stmt 1
	.loc 1 5026 11 is_stmt 0
	li	a5,4
	bne	a0,a5,.L1083
	j	.L1084
	.cfi_endproc
.LFE46:
	.size	f_unlink, .-f_unlink
	.align	2
	.globl	f_mkdir
	.type	f_mkdir, @function
f_mkdir:
.LFB47:
	.loc 1 5059 1 is_stmt 1
	.cfi_startproc
.LVL1290:
	.loc 1 5060 2
	.loc 1 5061 2
	.loc 1 5062 2
	.loc 1 5063 2
	.loc 1 5064 2
	.loc 1 5068 2
	.loc 1 5059 1 is_stmt 0
	addi	sp,sp,-128
	.cfi_def_cfa_offset 128
	sw	a0,12(sp)
	.loc 1 5068 8
	li	a2,2
	addi	a1,sp,16
	addi	a0,sp,12
.LVL1291:
	.loc 1 5059 1
	sw	s0,120(sp)
	sw	ra,124(sp)
	.cfi_offset 8, -8
	.cfi_offset 1, -4
	.loc 1 5068 8
	call	mount_volume
.LVL1292:
	mv	s0,a0
.LVL1293:
	.loc 1 5069 2 is_stmt 1
	.loc 1 5069 5 is_stmt 0
	beq	a0,zero,.L1118
.LVL1294:
.L1089:
	.loc 1 5131 1
	lw	ra,124(sp)
	.cfi_remember_state
	.cfi_restore 1
	mv	a0,s0
	lw	s0,120(sp)
	.cfi_restore 8
	addi	sp,sp,128
	.cfi_def_cfa_offset 0
	jr	ra
.LVL1295:
.L1118:
	.cfi_restore_state
	.loc 1 5070 3 is_stmt 1
	.loc 1 5070 13 is_stmt 0
	lw	a5,16(sp)
	.loc 1 5072 9
	lw	a1,12(sp)
	addi	a0,sp,36
	.loc 1 5070 13
	sw	a5,36(sp)
	.loc 1 5071 18 is_stmt 1
	.loc 1 5072 3
	.loc 1 5072 9 is_stmt 0
	call	follow_path
.LVL1296:
	.loc 1 5073 3 is_stmt 1
	.loc 1 5073 6 is_stmt 0
	beq	a0,zero,.L1106
	.loc 1 5074 3 is_stmt 1
	.loc 1 5077 3
	.loc 1 5077 6 is_stmt 0
	li	a5,4
	beq	a0,a5,.L1119
	mv	s0,a0
	.loc 1 5127 16 is_stmt 1
	.loc 1 5130 2
	.loc 1 5131 1 is_stmt 0
	lw	ra,124(sp)
	.cfi_remember_state
	.cfi_restore 1
	mv	a0,s0
.LVL1297:
	lw	s0,120(sp)
	.cfi_restore 8
.LVL1298:
	addi	sp,sp,128
	.cfi_def_cfa_offset 0
	jr	ra
.L1106:
	.cfi_restore_state
	.loc 1 5073 25 discriminator 1
	li	s0,8
	.loc 1 5131 1
	lw	ra,124(sp)
	.cfi_remember_state
	.cfi_restore 1
	mv	a0,s0
.LVL1299:
	lw	s0,120(sp)
	.cfi_restore 8
	addi	sp,sp,128
	.cfi_def_cfa_offset 0
	jr	ra
.LVL1300:
.L1119:
	.cfi_restore_state
	.loc 1 5078 12
	lw	a5,16(sp)
	.loc 1 5079 10
	li	a1,0
	addi	a0,sp,20
.LVL1301:
	sw	s1,116(sp)
	.loc 1 5078 4 is_stmt 1
	.loc 1 5078 12 is_stmt 0
	sw	a5,20(sp)
	.loc 1 5079 4 is_stmt 1
	.cfi_offset 9, -12
	.loc 1 5079 10 is_stmt 0
	call	create_chain
.LVL1302:
	mv	s1,a0
.LVL1303:
	.loc 1 5080 4 is_stmt 1
	.loc 1 5081 4
	.loc 1 5081 7 is_stmt 0
	beq	a0,zero,.L1108
	.loc 1 5082 4 is_stmt 1
	.loc 1 5082 7 is_stmt 0
	li	a5,1
	beq	a0,a5,.L1109
	.loc 1 5083 4 is_stmt 1
	.loc 1 5083 7 is_stmt 0
	li	a5,-1
	bne	a0,a5,.L1092
.LVL1304:
.L1095:
	.loc 1 5083 31 discriminator 1
	li	s0,1
.L1091:
	.loc 1 5124 5 is_stmt 1
	mv	a1,s1
	li	a2,0
	addi	a0,sp,20
	call	remove_chain
.LVL1305:
	lw	s1,116(sp)
	.cfi_remember_state
	.cfi_restore 9
.LVL1306:
	j	.L1089
.LVL1307:
.L1092:
	.cfi_restore_state
	sw	s2,112(sp)
	.cfi_offset 18, -16
	.loc 1 5086 11 is_stmt 0
	lw	s2,16(sp)
	sw	s4,104(sp)
	.loc 1 5084 4 is_stmt 1
.LVL1308:
	.loc 1 5085 4
	.loc 1 5086 5
.LBB1194:
.LBB1195:
	.loc 1 1663 2
	.loc 1 1664 2
	.loc 1 1665 2
	.loc 1 1668 2
.LBB1196:
.LBB1197:
	.loc 1 1059 2
	.loc 1 1062 2
	.loc 1 1062 5 is_stmt 0
	lbu	a5,4(s2)
	.cfi_offset 20, -24
	bne	a5,zero,.L1093
	sw	s3,108(sp)
	addi	s4,s2,48
.LVL1309:
	.cfi_offset 19, -20
.L1094:
.LBE1197:
.LBE1196:
.LBB1199:
.LBB1200:
	.loc 1 1669 2 is_stmt 1
.LBB1201:
.LBB1202:
	.loc 1 1149 2
	.loc 1 1150 27 is_stmt 0
	lw	a5,20(s2)
	.loc 1 1149 7
	addi	a4,s1,-2
.LVL1310:
	.loc 1 1150 2 is_stmt 1
	.loc 1 1150 39 is_stmt 0 discriminator 1
	li	s3,0
	.loc 1 1150 27
	addi	a5,a5,-2
	.loc 1 1150 5
	bgeu	a4,a5,.L1097
	.loc 1 1151 2 is_stmt 1
	.loc 1 1151 24 is_stmt 0
	lhu	s3,10(s2)
	.loc 1 1151 22
	lw	a5,40(s2)
	.loc 1 1151 41
	mul	s3,s3,a4
	.loc 1 1151 22
	add	s3,s3,a5
.L1097:
.LVL1311:
.LBE1202:
.LBE1201:
	.loc 1 1670 2 is_stmt 1
	.loc 1 1670 14 is_stmt 0
	sw	s3,44(s2)
	.loc 1 1671 2 is_stmt 1
	li	a2,512
	li	a1,0
	mv	a0,s4
	call	memset
.LVL1312:
	.loc 1 1683 3
	.loc 1 1683 19
	.loc 1 1684 3
	.loc 1 1684 29 discriminator 1
	lhu	a5,10(s2)
	bne	a5,zero,.L1098
	j	.L1117
.LVL1313:
.L1102:
	.loc 1 1684 87 is_stmt 0 discriminator 4
	addi	s0,s0,1
.LVL1314:
	.loc 1 1684 29 is_stmt 1 discriminator 1
	bgeu	s0,a5,.L1101
.LVL1315:
.L1098:
	.loc 1 1684 32 is_stmt 0 discriminator 3
	lbu	a0,1(s2)
	li	a3,1
	add	a2,s0,s3
	mv	a1,s4
	call	disk_write
.LVL1316:
	.loc 1 1684 87 is_stmt 1 discriminator 4
	.loc 1 1684 21 is_stmt 0 discriminator 1
	lhu	a5,10(s2)
	.loc 1 1684 29 discriminator 1
	beq	a0,zero,.L1102
.L1101:
	.loc 1 1686 2 is_stmt 1
.LVL1317:
.LBE1200:
.LBE1199:
.LBE1195:
.LBE1194:
	.loc 1 5087 5
	.loc 1 5087 8 is_stmt 0
	beq	s0,a5,.L1117
	lw	s2,112(sp)
	.cfi_restore 18
	lw	s3,108(sp)
	.cfi_restore 19
	lw	s4,104(sp)
	.cfi_restore 20
	j	.L1095
.LVL1318:
.L1108:
	li	s0,7
	j	.L1091
.L1109:
	.loc 1 5082 22 discriminator 1
	li	s0,2
	j	.L1091
.LVL1319:
.L1117:
	.cfi_offset 18, -16
	.cfi_offset 19, -20
	.cfi_offset 20, -24
	.loc 1 5088 6 is_stmt 1
	.loc 1 5089 7
	.loc 1 5089 16 is_stmt 0
	lw	s0,16(sp)
	sw	s5,100(sp)
	sw	s6,96(sp)
	sw	s7,92(sp)
	.loc 1 5089 7
	li	a5,32
	sb	a5,49(s0)
	sb	a5,50(s0)
	sb	a5,51(s0)
	sb	a5,52(s0)
	sb	a5,53(s0)
	sb	a5,54(s0)
	sb	a5,55(s0)
	sb	a5,56(s0)
	sb	a5,57(s0)
	sb	a5,58(s0)
	.loc 1 5090 7 is_stmt 1
	.loc 1 5095 38 is_stmt 0
	lw	s3,44(sp)
	.loc 1 5091 25
	li	a5,16
.LBB1205:
.LBB1206:
.LBB1207:
.LBB1208:
	.loc 1 658 26
	slli	s2,s1,16
	srli	s2,s2,16
.LBE1208:
.LBE1207:
.LBE1206:
.LBE1205:
	.loc 1 5091 25
	sb	a5,59(s0)
.LBB1222:
.LBB1217:
	.loc 1 1872 5
	lbu	a4,0(s0)
.LBE1217:
.LBE1222:
.LBB1223:
.LBB1224:
	.loc 1 666 9
	li	a5,102
	.cfi_offset 21, -28
	.cfi_offset 22, -32
	.cfi_offset 23, -36
.LBE1224:
.LBE1223:
	.loc 1 5090 25
	li	s5,46
.LBB1228:
.LBB1218:
.LBB1211:
.LBB1209:
	.loc 1 658 11
	andi	s6,s1,0xff
	.loc 1 659 11
	srli	s2,s2,8
.LBE1209:
.LBE1211:
.LBE1218:
.LBE1228:
.LBB1229:
.LBB1230:
.LBB1231:
.LBB1232:
	.loc 1 658 26
	slli	s4,s3,16
.LBE1232:
.LBE1231:
.LBE1230:
.LBE1229:
.LBB1254:
.LBB1225:
	.loc 1 666 9
	sb	a5,72(s0)
	.loc 1 667 9
	li	a5,85
.LBE1225:
.LBE1254:
.LBB1255:
.LBB1249:
.LBB1237:
.LBB1233:
	.loc 1 658 26
	srli	s4,s4,16
.LBE1233:
.LBE1237:
.LBE1249:
.LBE1255:
.LBB1256:
.LBB1226:
	.loc 1 667 9
	sb	a5,73(s0)
.LBE1226:
.LBE1256:
	.loc 1 5090 25
	sb	s5,48(s0)
	.loc 1 5091 7 is_stmt 1
	.loc 1 5092 7
.LVL1320:
.LBB1257:
.LBB1227:
	.loc 1 664 2
	.loc 1 664 9 is_stmt 0
	sb	zero,70(s0)
	.loc 1 664 22 is_stmt 1
.LVL1321:
	.loc 1 665 2
	.loc 1 665 9 is_stmt 0
	sb	zero,71(s0)
	.loc 1 665 22 is_stmt 1
.LVL1322:
	.loc 1 666 2
	.loc 1 666 22
	.loc 1 667 2
.LBE1227:
.LBE1257:
	.loc 1 5093 7
.LBB1258:
.LBB1219:
	.loc 1 1871 2
.LBB1212:
.LBB1210:
	.loc 1 658 2
	.loc 1 658 9 is_stmt 0
	sb	s6,74(s0)
	.loc 1 658 22 is_stmt 1
.LVL1323:
	.loc 1 659 2
	.loc 1 659 9 is_stmt 0
	sb	s2,75(s0)
.LVL1324:
.LBE1210:
.LBE1212:
	.loc 1 1872 2 is_stmt 1
	.loc 1 1872 5 is_stmt 0
	li	a5,3
.LBE1219:
.LBE1258:
	.loc 1 5094 7
	addi	a0,s0,80
.LBB1259:
.LBB1250:
.LBB1238:
.LBB1234:
	.loc 1 658 11
	andi	s7,s3,0xff
	.loc 1 659 11
	srli	s4,s4,8
.LBE1234:
.LBE1238:
.LBE1250:
.LBE1259:
.LBB1260:
.LBB1220:
	.loc 1 1872 5
	beq	a4,a5,.L1120
.LVL1325:
.LBE1220:
.LBE1260:
	.loc 1 5094 7 is_stmt 1
	li	a2,32
	addi	a1,s0,48
	call	memcpy
.LVL1326:
	.loc 1 5095 7
	.loc 1 5095 27 is_stmt 0
	sb	s5,81(s0)
	.loc 1 5095 34 is_stmt 1
.LVL1327:
	.loc 1 5096 7
.LBB1261:
.LBB1251:
	.loc 1 1871 2
.LBB1239:
.LBB1235:
	.loc 1 658 2
	.loc 1 658 9 is_stmt 0
	sb	s7,106(s0)
	.loc 1 658 22 is_stmt 1
.LVL1328:
	.loc 1 659 2
	.loc 1 659 9 is_stmt 0
	sb	s4,107(s0)
.LVL1329:
.LBE1235:
.LBE1239:
	.loc 1 1872 2 is_stmt 1
.L1105:
.LBE1251:
.LBE1261:
	.loc 1 5097 7
	.loc 1 5097 17 is_stmt 0
	li	a5,1
	sb	a5,4(s0)
	.loc 1 5099 6 is_stmt 1
	.loc 1 5099 12 is_stmt 0
	addi	a0,sp,36
	call	dir_register
.LVL1330:
	mv	s0,a0
.LVL1331:
	.loc 1 5102 4 is_stmt 1
	.loc 1 5102 7 is_stmt 0
	bne	a0,zero,.L1116
	.loc 1 5115 6 is_stmt 1
	.loc 1 5115 17 is_stmt 0
	lw	a5,64(sp)
.LVL1332:
.LBB1262:
.LBB1263:
	.loc 1 664 2 is_stmt 1
	.loc 1 666 9 is_stmt 0
	li	a4,102
.LBE1263:
.LBE1262:
	.loc 1 5116 6
	lw	a0,16(sp)
.LBB1265:
.LBB1264:
	.loc 1 666 9
	sb	a4,24(a5)
	.loc 1 667 9
	li	a4,85
	sb	a4,25(a5)
	.loc 1 664 9
	sb	zero,22(a5)
	.loc 1 664 22 is_stmt 1
.LVL1333:
	.loc 1 665 2
	.loc 1 665 9 is_stmt 0
	sb	zero,23(a5)
	.loc 1 665 22 is_stmt 1
.LVL1334:
	.loc 1 666 2
	.loc 1 666 22
	.loc 1 667 2
.LBE1264:
.LBE1265:
	.loc 1 5116 6
	lw	a5,64(sp)
.LVL1335:
.LBB1266:
.LBB1267:
	.loc 1 1871 2
.LBB1268:
.LBB1269:
	.loc 1 658 2
.LBE1269:
.LBE1268:
	.loc 1 1872 5 is_stmt 0
	li	a4,3
.LBB1271:
.LBB1270:
	.loc 1 658 9
	sb	s6,26(a5)
	.loc 1 658 22 is_stmt 1
.LVL1336:
	.loc 1 659 2
	.loc 1 659 9 is_stmt 0
	sb	s2,27(a5)
.LVL1337:
.LBE1270:
.LBE1271:
	.loc 1 1872 2 is_stmt 1
	.loc 1 1872 5 is_stmt 0
	lbu	a3,0(a0)
	bne	a3,a4,.L1104
.LVL1338:
.LBB1272:
.LBB1273:
	.loc 1 1873 3 is_stmt 1
	.loc 1 1873 42 is_stmt 0
	srli	s1,s1,16
.LVL1339:
.LBB1274:
.LBB1275:
	.loc 1 658 2 is_stmt 1
	.loc 1 658 26 is_stmt 0
	srli	a4,s1,8
	.loc 1 658 11
	sb	s1,20(a5)
	.loc 1 658 22 is_stmt 1
.LVL1340:
	.loc 1 659 2
	.loc 1 659 11 is_stmt 0
	sb	a4,21(a5)
.LVL1341:
.L1104:
.LBE1275:
.LBE1274:
.LBE1273:
.LBE1272:
.LBE1267:
.LBE1266:
	.loc 1 5117 6 is_stmt 1
	.loc 1 5117 23 is_stmt 0
	lw	a5,64(sp)
	li	a4,16
	sb	a4,11(a5)
	.loc 1 5118 6 is_stmt 1
	.loc 1 5118 16 is_stmt 0
	li	a5,1
	sb	a5,4(a0)
	.loc 1 5120 5 is_stmt 1
	.loc 1 5121 6
	.loc 1 5121 12 is_stmt 0
	call	sync_fs
.LVL1342:
	mv	s0,a0
.LVL1343:
	lw	s1,116(sp)
	.cfi_restore 9
	lw	s2,112(sp)
	.cfi_restore 18
	lw	s3,108(sp)
	.cfi_restore 19
	lw	s4,104(sp)
	.cfi_restore 20
	lw	s5,100(sp)
	.cfi_restore 21
	lw	s6,96(sp)
	.cfi_restore 22
	lw	s7,92(sp)
	.cfi_restore 23
	j	.L1089
.LVL1344:
.L1093:
	.cfi_offset 9, -12
	.cfi_offset 18, -16
	.cfi_offset 20, -24
.LBB1276:
.LBB1204:
.LBB1203:
.LBB1198:
	.loc 1 1063 3 is_stmt 1
	.loc 1 1063 7 is_stmt 0
	lw	a2,44(s2)
	lbu	a0,1(s2)
	.loc 1 1063 30
	addi	s4,s2,48
	.loc 1 1063 7
	li	a3,1
	mv	a1,s4
	call	disk_write
.LVL1345:
	.loc 1 1063 6 discriminator 1
	bne	a0,zero,.L1114
	sw	s3,108(sp)
	.cfi_offset 19, -20
	.loc 1 1064 4 is_stmt 1
	.loc 1 1065 10 is_stmt 0
	lw	a2,44(s2)
	.loc 1 1065 20
	lw	a5,32(s2)
	.loc 1 1065 38
	lw	a4,24(s2)
	.loc 1 1064 14
	sb	zero,4(s2)
	.loc 1 1065 4 is_stmt 1
	.loc 1 1065 20 is_stmt 0
	sub	a5,a2,a5
	.loc 1 1065 7
	bgeu	a5,a4,.L1094
	.loc 1 1066 5 is_stmt 1
	.loc 1 1066 8 is_stmt 0
	lbu	a3,3(s2)
	li	a5,2
	bne	a3,a5,.L1094
	.loc 1 1066 26 is_stmt 1 discriminator 1
	lbu	a0,1(s2)
	li	a3,1
	add	a2,a2,a4
	mv	a1,s4
	call	disk_write
.LVL1346:
	.loc 1 1072 2
	j	.L1094
.LVL1347:
.L1116:
	.cfi_offset 21, -28
	.cfi_offset 22, -32
	.cfi_offset 23, -36
	lw	s2,112(sp)
	.cfi_restore 18
	lw	s3,108(sp)
	.cfi_restore 19
	lw	s4,104(sp)
	.cfi_restore 20
	lw	s5,100(sp)
	.cfi_restore 21
	lw	s6,96(sp)
	.cfi_restore 22
	lw	s7,92(sp)
	.cfi_restore 23
	j	.L1091
.LVL1348:
.L1114:
	.cfi_offset 18, -16
	.cfi_offset 20, -24
	lw	s2,112(sp)
	.cfi_restore 18
.LVL1349:
	lw	s4,104(sp)
	.cfi_restore 20
.LVL1350:
	j	.L1095
.LVL1351:
.L1120:
	.cfi_offset 18, -16
	.cfi_offset 19, -20
	.cfi_offset 20, -24
	.cfi_offset 21, -28
	.cfi_offset 22, -32
	.cfi_offset 23, -36
.LBE1198:
.LBE1203:
.LBE1204:
.LBE1276:
.LBB1277:
.LBB1221:
.LBB1213:
.LBB1214:
	.loc 1 1873 3
	.loc 1 1873 42 is_stmt 0
	srli	a5,s1,16
.LVL1352:
.LBB1215:
.LBB1216:
	.loc 1 658 2 is_stmt 1
	.loc 1 658 26 is_stmt 0
	srli	a4,a5,8
	.loc 1 658 11
	sb	a5,68(s0)
	.loc 1 658 22 is_stmt 1
.LVL1353:
	.loc 1 659 2
	.loc 1 659 11 is_stmt 0
	sb	a4,69(s0)
.LVL1354:
.LBE1216:
.LBE1215:
.LBE1214:
.LBE1213:
.LBE1221:
.LBE1277:
	.loc 1 5094 7 is_stmt 1
	li	a2,32
	addi	a1,s0,48
	call	memcpy
.LVL1355:
	.loc 1 5095 7
.LBB1278:
.LBB1252:
.LBB1240:
.LBB1241:
	.loc 1 1873 42 is_stmt 0
	srli	s3,s3,16
.LBB1242:
.LBB1243:
	.loc 1 658 26
	srli	a5,s3,8
.LBE1243:
.LBE1242:
.LBE1241:
.LBE1240:
.LBE1252:
.LBE1278:
	.loc 1 5095 27
	sb	s5,81(s0)
	.loc 1 5095 34 is_stmt 1
.LVL1356:
	.loc 1 5096 7
.LBB1279:
.LBB1253:
	.loc 1 1871 2
.LBB1247:
.LBB1236:
	.loc 1 658 2
	.loc 1 658 9 is_stmt 0
	sb	s7,106(s0)
	.loc 1 658 22 is_stmt 1
.LVL1357:
	.loc 1 659 2
	.loc 1 659 9 is_stmt 0
	sb	s4,107(s0)
.LVL1358:
.LBE1236:
.LBE1247:
	.loc 1 1872 2 is_stmt 1
.LBB1248:
.LBB1246:
	.loc 1 1873 3
.LBB1245:
.LBB1244:
	.loc 1 658 2
	.loc 1 658 11 is_stmt 0
	sb	s3,100(s0)
	.loc 1 658 22 is_stmt 1
.LVL1359:
	.loc 1 659 2
	.loc 1 659 11 is_stmt 0
	sb	a5,101(s0)
.LVL1360:
.LBE1244:
.LBE1245:
	.loc 1 1875 1
	j	.L1105
.LBE1246:
.LBE1248:
.LBE1253:
.LBE1279:
	.cfi_endproc
.LFE47:
	.size	f_mkdir, .-f_mkdir
	.align	2
	.globl	f_rename
	.type	f_rename, @function
f_rename:
.LFB48:
	.loc 1 5144 1 is_stmt 1
	.cfi_startproc
.LVL1361:
	.loc 1 5145 2
	.loc 1 5146 2
	.loc 1 5147 2
	.loc 1 5148 2
	.loc 1 5149 2
	.loc 1 5153 2
.LBB1302:
.LBB1303:
	.loc 1 3142 2
	.loc 1 3143 2
	.loc 1 3144 2
	.loc 1 3145 2
	.loc 1 3146 2
	.loc 1 3152 2
.LBE1303:
.LBE1302:
	.loc 1 5144 1 is_stmt 0
	addi	sp,sp,-160
	.cfi_def_cfa_offset 160
	sw	s0,152(sp)
	sw	ra,156(sp)
	sw	a0,12(sp)
	.cfi_offset 8, -8
	.cfi_offset 1, -4
	mv	s0,a1
.LVL1362:
.LBB1306:
.LBB1304:
	.loc 1 3153 2 is_stmt 1
	.loc 1 3153 5 is_stmt 0
	beq	a1,zero,.L1122
	.loc 1 3152 5
	mv	a5,a1
	.loc 1 3156 29 discriminator 2
	li	a3,32
	.loc 1 3156 29 discriminator 1
	li	a2,58
	j	.L1123
.LVL1363:
.L1155:
	beq	a4,a2,.L1154
.LVL1364:
.L1123:
	.loc 1 3154 2 is_stmt 1
	.loc 1 3155 3
	.loc 1 3155 6 is_stmt 0
	lbu	a4,0(a5)
	.loc 1 3155 11
	addi	a5,a5,1
.LVL1365:
	.loc 1 3156 29 is_stmt 1 discriminator 2
	bgtu	a4,a3,.L1155
.LVL1366:
.L1122:
.LBE1304:
.LBE1306:
	.loc 1 5154 2
	.loc 1 5154 8 is_stmt 0
	li	a2,2
	addi	a1,sp,20
	addi	a0,sp,12
.LVL1367:
	call	mount_volume
.LVL1368:
	.loc 1 5155 2 is_stmt 1
	.loc 1 5155 5 is_stmt 0
	beq	a0,zero,.L1156
.LVL1369:
.L1121:
	.loc 1 5236 1
	lw	ra,156(sp)
	.cfi_remember_state
	.cfi_restore 1
	lw	s0,152(sp)
	.cfi_restore 8
	addi	sp,sp,160
	.cfi_def_cfa_offset 0
	jr	ra
.LVL1370:
.L1156:
	.cfi_restore_state
	.loc 1 5156 3 is_stmt 1
	sw	s1,148(sp)
	.loc 1 5158 9 is_stmt 0
	lw	a1,12(sp)
	.cfi_offset 9, -12
	.loc 1 5156 14
	lw	s1,20(sp)
	.loc 1 5158 9
	addi	a0,sp,56
.LVL1371:
	.loc 1 5156 14
	sw	s1,56(sp)
	.loc 1 5157 18 is_stmt 1
	.loc 1 5158 3
	.loc 1 5158 9 is_stmt 0
	call	follow_path
.LVL1372:
	.loc 1 5159 3 is_stmt 1
	.loc 1 5159 6 is_stmt 0
	bne	a0,zero,.L1145
	.loc 1 5159 20 discriminator 1
	lbu	a5,99(sp)
	.loc 1 5159 68 discriminator 2
	li	a0,6
.LVL1373:
	.loc 1 5159 20 discriminator 1
	andi	a5,a5,160
	bne	a5,zero,.L1145
.LVL1374:
	.loc 1 5165 3 is_stmt 1
	.loc 1 5193 5
	sw	s2,144(sp)
	.cfi_offset 18, -16
	.loc 1 5193 20 is_stmt 0
	lw	s2,84(sp)
	.loc 1 5193 5
	li	a2,32
	addi	a0,sp,24
	mv	a1,s2
	call	memcpy
.LVL1375:
	.loc 1 5194 5 is_stmt 1
	lw	a5,56(sp)
	.loc 1 5195 11 is_stmt 0
	mv	a1,s0
	addi	a0,sp,100
	.loc 1 5194 5
	sw	a5,100(sp)
	lw	a5,60(sp)
	sw	a5,104(sp)
	lw	a5,64(sp)
	sw	a5,108(sp)
	lw	a5,68(sp)
	sw	a5,112(sp)
	lw	a5,72(sp)
	sw	a5,116(sp)
	lw	a5,76(sp)
	sw	a5,120(sp)
	lw	a5,80(sp)
	sw	a5,124(sp)
	lw	a5,84(sp)
	sw	a5,128(sp)
	lw	a5,88(sp)
	sw	a5,132(sp)
	lw	a5,92(sp)
	sw	a5,136(sp)
	lw	a5,96(sp)
	sw	a5,140(sp)
	.loc 1 5195 5 is_stmt 1
	.loc 1 5195 11 is_stmt 0
	call	follow_path
.LVL1376:
	.loc 1 5196 5 is_stmt 1
	.loc 1 5196 8 is_stmt 0
	bne	a0,zero,.L1125
	.loc 1 5197 6 is_stmt 1
	.loc 1 5197 84 is_stmt 0
	lw	a4,108(sp)
	lw	a5,64(sp)
	.loc 1 5197 10 discriminator 6
	li	a0,8
.LVL1377:
	.loc 1 5197 84
	bne	a4,a5,.L1153
	.loc 1 5197 46 discriminator 1
	lw	a4,116(sp)
	lw	a5,72(sp)
	bne	a4,a5,.L1153
.L1126:
.LVL1378:
	.loc 1 5200 6 is_stmt 1
	.loc 1 5200 12 is_stmt 0
	addi	a0,sp,100
	call	dir_register
.LVL1379:
	.loc 1 5201 6 is_stmt 1
	.loc 1 5201 9 is_stmt 0
	bne	a0,zero,.L1153
	.loc 1 5202 7 is_stmt 1
	.loc 1 5202 11 is_stmt 0
	lw	s0,128(sp)
.LVL1380:
	.loc 1 5203 7 is_stmt 1
	li	a2,19
	addi	a1,sp,37
	addi	a0,s0,13
.LVL1381:
	call	memcpy
.LVL1382:
	.loc 1 5204 7
	.loc 1 5204 26 is_stmt 0
	lbu	a5,35(sp)
	.loc 1 5205 7 is_stmt 1
	.loc 1 5205 10 is_stmt 0
	andi	a4,a5,16
	bne	a4,zero,.L1127
	.loc 1 5205 38 is_stmt 1 discriminator 1
	.loc 1 5205 52 is_stmt 0 discriminator 1
	ori	a5,a5,32
.L1127:
	.loc 1 5204 21
	sb	a5,11(s0)
	.loc 1 5206 7 is_stmt 1
	.loc 1 5206 17 is_stmt 0
	li	a5,1
	sb	a5,4(s1)
	.loc 1 5207 7 is_stmt 1
	.loc 1 5207 10 is_stmt 0
	lbu	a5,11(s0)
	andi	a5,a5,16
	beq	a5,zero,.L1129
	.loc 1 5207 36 discriminator 1
	lw	a4,64(sp)
	lw	a5,108(sp)
	beq	a4,a5,.L1129
	.loc 1 5208 8 is_stmt 1
.LVL1383:
.LBB1307:
.LBB1308:
	.loc 1 1853 2
	.loc 1 1855 2
	.loc 1 1855 5 is_stmt 0 discriminator 1
	lbu	a5,27(s0)
	lbu	a2,26(s0)
	.loc 1 1856 5
	lbu	a3,0(s1)
	.loc 1 1855 5 discriminator 1
	slli	a5,a5,8
	.loc 1 1856 5
	li	a4,3
	.loc 1 1855 5 discriminator 1
	or	a5,a5,a2
.LVL1384:
	.loc 1 1856 2 is_stmt 1
	.loc 1 1856 5 is_stmt 0
	bne	a3,a4,.L1131
	.loc 1 1857 3 is_stmt 1
	.loc 1 1857 9 is_stmt 0 discriminator 1
	lbu	a4,21(s0)
	lbu	a3,20(s0)
	slli	a4,a4,8
	or	a4,a4,a3
	.loc 1 1857 45 discriminator 1
	slli	a4,a4,16
	.loc 1 1857 6 discriminator 1
	or	a5,a5,a4
.LVL1385:
.L1131:
	.loc 1 1860 2 is_stmt 1
.LBE1308:
.LBE1307:
.LBB1309:
.LBB1310:
	.loc 1 1149 2
	.loc 1 1150 27 is_stmt 0
	lw	a4,20(s1)
	.loc 1 1149 7
	addi	a5,a5,-2
.LVL1386:
	.loc 1 1150 2 is_stmt 1
	li	a0,2
	.loc 1 1150 27 is_stmt 0
	addi	a4,a4,-2
	.loc 1 1150 5
	bgeu	a5,a4,.L1153
	.loc 1 1151 2 is_stmt 1
	.loc 1 1151 24 is_stmt 0
	lhu	a1,10(s1)
	.loc 1 1151 22
	lw	a4,40(s1)
	.loc 1 1151 41
	mul	a1,a1,a5
	.loc 1 1151 22
	add	a1,a1,a4
.LVL1387:
.LBE1310:
.LBE1309:
	.loc 1 5209 8 is_stmt 1
	.loc 1 5209 11 is_stmt 0
	beq	a1,zero,.L1153
	.loc 1 5213 9 is_stmt 1
	.loc 1 5213 15 is_stmt 0
	mv	a0,s1
	call	move_window
.LVL1388:
	.loc 1 5214 9 is_stmt 1
	.loc 1 5215 9
	.loc 1 5215 12 is_stmt 0
	bne	a0,zero,.L1153
	.loc 1 5215 26 discriminator 1
	lbu	a4,81(s1)
	li	a5,46
	beq	a4,a5,.L1157
.LVL1389:
.L1129:
	.loc 1 5225 5 is_stmt 1
.LBB1311:
.LBB1312:
	.loc 1 2575 2
	.loc 1 2576 2
	.loc 1 2576 9 is_stmt 0
	lw	s0,56(sp)
.LVL1390:
	.loc 1 2598 2 is_stmt 1
	.loc 1 2598 8 is_stmt 0
	lw	a1,80(sp)
	mv	a0,s0
	call	move_window
.LVL1391:
	.loc 1 2599 2 is_stmt 1
	.loc 1 2599 5 is_stmt 0
	bne	a0,zero,.L1153
	.loc 1 2600 3 is_stmt 1
	.loc 1 2600 21 is_stmt 0
	li	a5,-27
	sb	a5,0(s2)
	.loc 1 2601 3 is_stmt 1
	.loc 1 2601 13 is_stmt 0
	li	a5,1
.LBE1312:
.LBE1311:
	.loc 1 5227 12
	mv	a0,s1
.LVL1392:
.LBB1314:
.LBB1313:
	.loc 1 2601 13
	sb	a5,4(s0)
	.loc 1 2605 2 is_stmt 1
.LVL1393:
.LBE1313:
.LBE1314:
	.loc 1 5226 5
	.loc 1 5227 6
	.loc 1 5227 12 is_stmt 0
	call	sync_fs
.LVL1394:
	lw	s1,148(sp)
	.cfi_restore 9
	lw	s2,144(sp)
	.cfi_restore 18
	j	.L1121
.LVL1395:
.L1145:
	.cfi_offset 9, -12
	.loc 1 5236 1
	lw	ra,156(sp)
	.cfi_restore 1
	lw	s0,152(sp)
	.cfi_restore 8
.LVL1396:
	lw	s1,148(sp)
	.cfi_restore 9
	addi	sp,sp,160
	.cfi_def_cfa_offset 0
	jr	ra
.LVL1397:
.L1154:
	.cfi_def_cfa_offset 160
	.cfi_offset 1, -4
	.cfi_offset 8, -8
.LBB1315:
.LBB1305:
	.loc 1 3158 2 is_stmt 1
	.loc 1 3159 3
	.loc 1 3160 3
	.loc 1 3160 6 is_stmt 0
	lbu	a3,0(s0)
	li	a4,48
.LVL1398:
	bne	a3,a4,.L1122
	.loc 1 3160 26 discriminator 1
	addi	a4,s0,2
	.loc 1 3160 20 discriminator 1
	bne	a5,a4,.L1122
	.loc 1 3178 10
	mv	s0,a5
.LVL1399:
	j	.L1122
.LVL1400:
.L1125:
	.cfi_offset 9, -12
	.cfi_offset 18, -16
.LBE1305:
.LBE1315:
	.loc 1 5199 5 is_stmt 1
	.loc 1 5199 8 is_stmt 0
	li	a5,4
	beq	a0,a5,.L1126
.LVL1401:
.L1153:
	lw	s1,148(sp)
	.cfi_remember_state
	.cfi_restore 9
	lw	s2,144(sp)
	.cfi_restore 18
	j	.L1121
.LVL1402:
.L1157:
	.cfi_restore_state
	.loc 1 5216 10 is_stmt 1
	lw	a5,108(sp)
.LVL1403:
.LBB1316:
.LBB1317:
	.loc 1 1871 2
.LBB1318:
.LBB1319:
	.loc 1 658 2
.LBE1319:
.LBE1318:
	.loc 1 1872 5 is_stmt 0
	lbu	a2,0(s1)
	li	a3,3
.LBB1321:
.LBB1320:
	.loc 1 658 26
	slli	a4,a5,16
	srli	a4,a4,16
	srli	a4,a4,8
	.loc 1 658 11
	sb	a5,106(s1)
	.loc 1 658 22 is_stmt 1
.LVL1404:
	.loc 1 659 2
	.loc 1 659 11 is_stmt 0
	sb	a4,107(s1)
.LVL1405:
.LBE1320:
.LBE1321:
	.loc 1 1872 2 is_stmt 1
	.loc 1 1872 5 is_stmt 0
	bne	a2,a3,.L1132
.LVL1406:
.LBB1322:
.LBB1323:
	.loc 1 1873 3 is_stmt 1
	.loc 1 1873 42 is_stmt 0
	srli	a5,a5,16
.LVL1407:
.LBB1324:
.LBB1325:
	.loc 1 658 2 is_stmt 1
	.loc 1 658 26 is_stmt 0
	srli	a4,a5,8
	.loc 1 658 11
	sb	a5,100(s1)
	.loc 1 658 22 is_stmt 1
.LVL1408:
	.loc 1 659 2
	.loc 1 659 11 is_stmt 0
	sb	a4,101(s1)
.LVL1409:
.L1132:
.LBE1325:
.LBE1324:
.LBE1323:
.LBE1322:
.LBE1317:
.LBE1316:
	.loc 1 5217 10 is_stmt 1
	.loc 1 5217 20 is_stmt 0
	li	a5,1
	sb	a5,4(s1)
.LVL1410:
	.loc 1 5224 4 is_stmt 1
	j	.L1129
	.cfi_endproc
.LFE48:
	.size	f_rename, .-f_rename
	.section	.sbss,"aw",@nobits
	.align	2
	.type	Fsid, @object
	.size	Fsid, 2
Fsid:
	.zero	2
	.zero	2
	.type	FatFs, @object
	.size	FatFs, 4
FatFs:
	.zero	4
	.text
.Letext0:
	.file 2 "/opt/riscv-xpack/lib/gcc/riscv-none-elf/13.2.0/include/stddef.h"
	.file 3 "/opt/riscv-xpack/riscv-none-elf/include/machine/_default_types.h"
	.file 4 "/opt/riscv-xpack/riscv-none-elf/include/sys/_stdint.h"
	.file 5 "thirdparty/FatFs/ff.h"
	.file 6 "thirdparty/FatFs/diskio.h"
	.file 7 "/opt/riscv-xpack/riscv-none-elf/include/string.h"
	.file 8 "<built-in>"