	.file	"conv.m.c"
	.option nopic
	.attribute arch, "rv32i2p1_m2p0"
	.attribute unaligned_access, 0
	.attribute stack_align, 16
	.text
.Ltext0:
	.cfi_sections	.debug_frame
	.file 0 "/home/mahmoudsamy/grad/ZC702/SW" "apps/nn/kernels/conv.m.c"
	.align	2
	.type	do_add_process, @function
do_add_process:
.LFB11:
	.file 1 "apps/nn/kernels/conv.m.c"
	.loc 1 627 1
	.cfi_startproc
.LVL0:
	.loc 1 628 4
	.loc 1 627 1 is_stmt 0
	addi	sp,sp,-128
	.cfi_def_cfa_offset 128
	sw	s0,120(sp)
	sw	ra,124(sp)
	.loc 1 637 10
	lw	a3,0(a0)
	.cfi_offset 8, -8
	.cfi_offset 1, -4
	.loc 1 627 1
	mv	s0,a0
.LVL1:
	.loc 1 629 4 is_stmt 1
	.loc 1 630 4
	.loc 1 631 4
	.loc 1 633 4
	.loc 1 634 4
	.loc 1 635 4
	mv	a7,a1
	.loc 1 637 10 is_stmt 0
	srli	a5,a3,31
	add	a5,a5,a3
	srai	a5,a5,1
	addi	a5,a5,511
	.loc 1 637 9
	srai	a4,a5,31
	andi	a4,a4,511
	add	a5,a4,a5
	andi	a5,a5,-512
	sw	a5,56(sp)
	.loc 1 635 6
	beq	a1,zero,.L2
	.loc 1 639 11
	mv	a7,a5
	.loc 1 640 9
	sw	a3,56(sp)
.L2:
.LVL2:
	.loc 1 642 4 is_stmt 1
	.loc 1 642 17 discriminator 1
	lw	a5,56(sp)
	bge	a7,a5,.L1
.LBB2:
	.loc 1 643 144 is_stmt 0
	li	a5,-2147483648
	addi	a5,a5,1952
	sw	a5,12(sp)
	li	a5,16384
	addi	a5,a5,-1
	.loc 1 643 262
	li	a4,-2147479552
	.loc 1 643 144
	sw	a5,16(sp)
	.loc 1 643 262
	addi	a5,a4,-1760
	sw	a5,20(sp)
	li	a5,65536
	addi	a5,a5,-1
.LBE2:
	.loc 1 643 881
	li	a3,196608
	li	a6,-2147483648
.LBB3:
	.loc 1 643 262
	sw	a5,24(sp)
.LBE3:
	.loc 1 643 881
	addi	a5,a3,1
	sw	s1,116(sp)
	sw	s2,112(sp)
	sw	s3,108(sp)
	sw	s4,104(sp)
	sw	s5,100(sp)
	sw	s6,96(sp)
	sw	s7,92(sp)
	sw	s8,88(sp)
	sw	s9,84(sp)
	sw	s10,80(sp)
	sw	s11,76(sp)
	.cfi_offset 9, -12
	.cfi_offset 18, -16
	.cfi_offset 19, -20
	.cfi_offset 20, -24
	.cfi_offset 21, -28
	.cfi_offset 22, -32
	.cfi_offset 23, -36
	.cfi_offset 24, -40
	.cfi_offset 25, -44
	.cfi_offset 26, -48
	.cfi_offset 27, -52
	.loc 1 643 881
	addi	a6,a6,20
	sw	a5,60(sp)
	mv	s1,a7
.LVL3:
.L3:
.LBB4:
	.loc 1 643 3 is_stmt 1
	.loc 1 643 75
	.loc 1 643 92 is_stmt 0
	li	a2,-2147483648
	li	t3,4096
	sw	t3,1696(a2)
	.loc 1 643 104 is_stmt 1
	.loc 1 643 121 is_stmt 0
	li	a3,-2147483648
	li	t1,3
	sw	t1,1824(a3)
	.loc 1 643 127 is_stmt 1
	.loc 1 643 144 is_stmt 0
	lw	ra,12(sp)
	lw	a5,16(sp)
	.loc 1 643 182
	li	a4,-2147479552
	.loc 1 643 211
	li	a1,256
	.loc 1 643 144
	sw	a5,0(ra)
	.loc 1 643 165 is_stmt 1
	.loc 1 643 182 is_stmt 0
	sw	zero,-1120(a4)
	.loc 1 643 194 is_stmt 1
	.loc 1 643 211 is_stmt 0
	li	a5,-2147479552
	sw	a1,-2016(a5)
	.loc 1 643 222 is_stmt 1
	.loc 1 643 239 is_stmt 0
	li	s11,-2147479552
	li	a0,15
	sw	a0,-1888(s11)
	.loc 1 643 245 is_stmt 1
	.loc 1 643 262 is_stmt 0
	lw	a7,20(sp)
	lw	t4,24(sp)
	.loc 1 643 300
	li	s10,-2147479552
	.loc 1 643 327
	li	s7,-2147483648
	.loc 1 643 262
	sw	t4,0(a7)
	.loc 1 643 283 is_stmt 1
	.loc 1 643 300 is_stmt 0
	sw	zero,-992(s10)
	.loc 1 643 311 is_stmt 1
	.loc 1 643 327 is_stmt 0
	li	s8,7
	sw	s8,672(s7)
	.loc 1 643 330 is_stmt 1
	.loc 1 643 346 is_stmt 0
	li	s6,-2147483648
	li	s9,1
	sw	s9,1056(s6)
	.loc 1 643 349 is_stmt 1
	.loc 1 643 366 is_stmt 0
	li	s5,-2147483648
	sw	s8,1568(s5)
	.loc 1 643 369 is_stmt 1
	.loc 1 643 386 is_stmt 0
	li	s4,-2147479552
	sw	zero,-864(s4)
	.loc 1 643 389 is_stmt 1
	.loc 1 643 405 is_stmt 0
	li	s3,-2147483648
	sw	zero,544(s3)
	.loc 1 643 431 is_stmt 1
	.loc 1 643 448 is_stmt 0
	li	t4,512
	li	a1,-2147479552
	.loc 1 643 490
	li	t6,1032192
	.loc 1 643 448
	sw	t4,-736(a1)
	.loc 1 643 473 is_stmt 1
	.loc 1 643 490 is_stmt 0
	li	s2,-2147479552
	addi	t6,t6,159
	sw	t6,-1632(s2)
.LBE4:
.LBB5:
	.loc 1 643 523 is_stmt 1
.LVL4:
	.loc 1 643 572
	.loc 1 643 588 is_stmt 0
	sw	s9,1056(s6)
	.loc 1 643 599 is_stmt 1
	.loc 1 643 615 is_stmt 0
	li	t5,511
	sw	t5,672(s7)
	.loc 1 643 621 is_stmt 1
	.loc 1 643 651 is_stmt 0
	lw	a0,0(s0)
	.loc 1 643 721
	li	a7,-2147479552
.LBE5:
.LBB6:
	.loc 1 643 92
	addi	a2,a2,1696
.LBE6:
.LBB7:
	.loc 1 643 651
	addi	a0,a0,-1
	.loc 1 643 653
	sub	a0,a0,s1
	.loc 1 643 638
	sw	a0,1568(s5)
	.loc 1 643 659 is_stmt 1
	.loc 1 643 676 is_stmt 0
	sw	s1,-864(s4)
	.loc 1 643 685 is_stmt 1
.LVL5:
	.loc 1 643 704
	.loc 1 643 751 is_stmt 0
	lw	t0,0(s0)
	.loc 1 643 832
	li	a0,1036288
	addi	a0,a0,157
	.loc 1 643 751
	sub	t0,t0,s1
	.loc 1 643 721
	sw	t0,-96(a7)
	.loc 1 643 758 is_stmt 1
	.loc 1 643 759
	.loc 1 643 780 is_stmt 0
	lw	t0,4(s0)
.LBE7:
.LBB8:
	.loc 1 643 121
	addi	a3,a3,1824
	.loc 1 643 211
	addi	a5,a5,-2016
.LBE8:
.LBB9:
	.loc 1 643 780
	add	t0,s1,t0
	.loc 1 643 775
	sw	t0,544(s3)
	.loc 1 643 814 is_stmt 1
	.loc 1 643 815
	.loc 1 643 832 is_stmt 0
	sw	a0,-1632(s2)
.LBE9:
	.loc 1 643 864 is_stmt 1
	.loc 1 643 865
	.loc 1 643 881 is_stmt 0
	lw	t0,60(sp)
.LBB10:
	.loc 1 643 448
	addi	a1,a1,-736
.LBE10:
.LBB11:
	.loc 1 643 721
	addi	a7,a7,-96
.LBE11:
	.loc 1 643 881
	sw	t0,0(a6)
.LBB12:
	.loc 1 644 3 is_stmt 1
.LVL6:
	.loc 1 644 75
	.loc 1 644 92 is_stmt 0
	sw	t3,0(a2)
	sw	a2,52(sp)
	.loc 1 644 104 is_stmt 1
	.loc 1 644 121 is_stmt 0
	sw	t1,0(a3)
	sw	a3,48(sp)
	.loc 1 644 127 is_stmt 1
	.loc 1 644 144 is_stmt 0
	lw	a3,16(sp)
	sw	ra,12(sp)
	.loc 1 644 211
	li	a2,256
	.loc 1 644 144
	sw	a3,0(ra)
	.loc 1 644 165 is_stmt 1
	.loc 1 644 182 is_stmt 0
	sw	zero,-1120(a4)
	.loc 1 644 194 is_stmt 1
	.loc 1 644 211 is_stmt 0
	sw	a2,0(a5)
	sw	a5,44(sp)
	.loc 1 644 222 is_stmt 1
	.loc 1 644 239 is_stmt 0
	li	t1,15
	sw	t1,-1888(s11)
	.loc 1 644 245 is_stmt 1
	.loc 1 644 262 is_stmt 0
	lw	t3,20(sp)
	lw	t0,24(sp)
.LBE12:
	.loc 1 644 881
	li	t2,327680
	addi	t2,t2,1
.LBB13:
	.loc 1 644 262
	sw	t0,0(t3)
	.loc 1 644 283 is_stmt 1
	.loc 1 644 300 is_stmt 0
	sw	zero,-992(s10)
	.loc 1 644 311 is_stmt 1
	.loc 1 644 327 is_stmt 0
	sw	s8,672(s7)
	.loc 1 644 330 is_stmt 1
	.loc 1 644 346 is_stmt 0
	sw	s9,1056(s6)
	.loc 1 644 349 is_stmt 1
	.loc 1 644 366 is_stmt 0
	sw	s8,1568(s5)
	.loc 1 644 369 is_stmt 1
	.loc 1 644 386 is_stmt 0
	sw	zero,-864(s4)
	.loc 1 644 389 is_stmt 1
	.loc 1 644 405 is_stmt 0
	li	t0,8
	sw	t0,544(s3)
	.loc 1 644 431 is_stmt 1
	.loc 1 644 448 is_stmt 0
	sw	t4,0(a1)
	sw	a1,40(sp)
	.loc 1 644 473 is_stmt 1
	.loc 1 644 490 is_stmt 0
	sw	t6,-1632(s2)
.LBE13:
.LBB14:
	.loc 1 644 523 is_stmt 1
.LVL7:
	.loc 1 644 572
	.loc 1 644 588 is_stmt 0
	sw	s9,1056(s6)
	.loc 1 644 599 is_stmt 1
	.loc 1 644 621
	.loc 1 644 615 is_stmt 0
	sw	t5,672(s7)
	.loc 1 644 651
	lw	t6,0(s0)
.LBE14:
	.loc 1 645 18
	li	t0,1015844864
	addi	t0,t0,-2044
.LBB15:
	.loc 1 644 651
	addi	t6,t6,-1
	.loc 1 644 653
	sub	t6,t6,s1
	.loc 1 644 638
	sw	t6,1568(s5)
	.loc 1 644 659 is_stmt 1
	.loc 1 644 676 is_stmt 0
	sw	s1,-864(s4)
	.loc 1 644 685 is_stmt 1
.LVL8:
	.loc 1 644 704
	.loc 1 644 751 is_stmt 0
	lw	ra,0(s0)
.LBE15:
	.loc 1 646 7
	li	t6,-2147483648
.LBB16:
	.loc 1 643 182
	addi	a4,a4,-1120
.LBE16:
.LBB17:
	.loc 1 644 751
	sub	ra,ra,s1
	.loc 1 644 721
	sw	ra,0(a7)
	.loc 1 644 780
	lw	ra,8(s0)
	.loc 1 644 721
	sw	a7,36(sp)
	.loc 1 644 758 is_stmt 1
	.loc 1 644 759
	.loc 1 644 780 is_stmt 0
	add	ra,s1,ra
	.loc 1 644 775
	sw	ra,544(s3)
	.loc 1 644 814 is_stmt 1
	.loc 1 644 815
	.loc 1 644 832 is_stmt 0
	sw	a0,-1632(s2)
.LBE17:
	.loc 1 644 864 is_stmt 1
	.loc 1 644 865
	.loc 1 644 881 is_stmt 0
	sw	t2,0(a6)
	.loc 1 645 1 is_stmt 1
	.loc 1 645 2
	.loc 1 645 18 is_stmt 0
	sw	t0,0(a6)
	sw	a6,32(sp)
	.loc 1 646 7 is_stmt 1
	sw	zero,36(t6)
	.loc 1 646 7
.LBB18:
	.loc 1 643 182 is_stmt 0
	sw	a4,28(sp)
.LBE18:
	.loc 1 646 7
	call	_taskYield
.LVL9:
	.loc 1 646 21 is_stmt 1 discriminator 1
.LBB19:
	.loc 1 647 3
	.loc 1 647 52
	.loc 1 647 95 is_stmt 0
	li	t5,511
	.loc 1 647 68
	sw	s9,1056(s6)
	.loc 1 647 79 is_stmt 1
	.loc 1 647 95 is_stmt 0
	sw	t5,672(s7)
	.loc 1 647 101 is_stmt 1
	.loc 1 647 131 is_stmt 0
	lw	a0,0(s0)
	.loc 1 647 345
	li	t6,1036288
	.loc 1 647 310
	li	t4,512
	.loc 1 647 131
	addi	a0,a0,-1
	.loc 1 647 133
	sub	a0,a0,s1
	.loc 1 647 118
	sw	a0,1568(s5)
	.loc 1 647 139 is_stmt 1
	.loc 1 647 156 is_stmt 0
	sw	s1,-864(s4)
	.loc 1 647 165 is_stmt 1
.LVL10:
	.loc 1 647 184
	.loc 1 647 231 is_stmt 0
	lw	a0,0(s0)
	.loc 1 647 201
	lw	a7,36(sp)
	.loc 1 647 345
	addi	t6,t6,159
	.loc 1 647 231
	sub	a0,a0,s1
	.loc 1 647 201
	sw	a0,0(a7)
	.loc 1 647 238 is_stmt 1
	.loc 1 647 239
	.loc 1 647 260 is_stmt 0
	lw	t0,12(s0)
.LBE19:
.LBB20:
	.loc 1 647 467
	li	t3,4096
	.loc 1 647 496
	li	t1,3
.LBE20:
.LBB21:
	.loc 1 647 260
	add	t0,s1,t0
	.loc 1 647 255
	sw	t0,544(s3)
	.loc 1 647 292 is_stmt 1
	.loc 1 647 293
	.loc 1 647 310 is_stmt 0
	lw	a1,40(sp)
.LBE21:
.LBB22:
	.loc 1 647 824
	li	t5,1032192
	addi	t5,t5,157
.LBE22:
.LBB23:
	.loc 1 647 310
	sw	t4,0(a1)
	.loc 1 647 328 is_stmt 1
	.loc 1 647 345 is_stmt 0
	sw	t6,-1632(s2)
.LBE23:
.LBB24:
	.loc 1 647 378 is_stmt 1
.LVL11:
	.loc 1 647 450
	.loc 1 647 467 is_stmt 0
	lw	a2,52(sp)
.LBE24:
	.loc 1 647 873
	li	a0,65536
	addi	a0,a0,1
.LBB25:
	.loc 1 647 467
	sw	t3,0(a2)
	.loc 1 647 479 is_stmt 1
	.loc 1 647 496 is_stmt 0
	lw	a3,48(sp)
.LBE25:
	.loc 1 642 23 discriminator 3
	addi	s1,s1,512
.LVL12:
.LBB26:
	.loc 1 647 496
	sw	t1,0(a3)
	.loc 1 647 502 is_stmt 1
	.loc 1 647 519 is_stmt 0
	lw	a5,12(sp)
	lw	a3,16(sp)
	.loc 1 647 614
	li	t1,15
	.loc 1 647 519
	sw	a3,0(a5)
	.loc 1 647 540 is_stmt 1
	.loc 1 647 557 is_stmt 0
	lw	a4,28(sp)
	sw	zero,0(a4)
	.loc 1 647 569 is_stmt 1
	.loc 1 647 586 is_stmt 0
	lw	a5,44(sp)
	li	a4,256
	sw	a4,0(a5)
	.loc 1 647 597 is_stmt 1
	.loc 1 647 614 is_stmt 0
	sw	t1,-1888(s11)
	.loc 1 647 620 is_stmt 1
	.loc 1 647 637 is_stmt 0
	lw	t3,20(sp)
	lw	t0,24(sp)
	.loc 1 647 780
	li	a5,16
	.loc 1 647 637
	sw	t0,0(t3)
	.loc 1 647 658 is_stmt 1
	.loc 1 647 675 is_stmt 0
	sw	zero,-992(s10)
	.loc 1 647 686 is_stmt 1
	.loc 1 647 702 is_stmt 0
	sw	s8,672(s7)
	.loc 1 647 705 is_stmt 1
	.loc 1 647 721 is_stmt 0
	sw	s9,1056(s6)
	.loc 1 647 724 is_stmt 1
	.loc 1 647 741 is_stmt 0
	sw	s8,1568(s5)
	.loc 1 647 744 is_stmt 1
	.loc 1 647 761 is_stmt 0
	sw	zero,-864(s4)
	.loc 1 647 764 is_stmt 1
	.loc 1 647 780 is_stmt 0
	sw	a5,544(s3)
	.loc 1 647 807 is_stmt 1
	.loc 1 647 824 is_stmt 0
	sw	t5,-1632(s2)
.LBE26:
	.loc 1 647 856 is_stmt 1
	.loc 1 647 857
	.loc 1 647 873 is_stmt 0
	lw	a6,32(sp)
	sw	a0,0(a6)
	.loc 1 642 23 is_stmt 1 discriminator 3
.LVL13:
	.loc 1 642 17 discriminator 1
	lw	a5,56(sp)
	bgt	a5,s1,.L3
	lw	s1,116(sp)
	.cfi_restore 9
.LVL14:
	lw	s2,112(sp)
	.cfi_restore 18
	lw	s3,108(sp)
	.cfi_restore 19
	lw	s4,104(sp)
	.cfi_restore 20
	lw	s5,100(sp)
	.cfi_restore 21
	lw	s6,96(sp)
	.cfi_restore 22
	lw	s7,92(sp)
	.cfi_restore 23
	lw	s8,88(sp)
	.cfi_restore 24
	lw	s9,84(sp)
	.cfi_restore 25
	lw	s10,80(sp)
	.cfi_restore 26
	lw	s11,76(sp)
	.cfi_restore 27
.LVL15:
.L1:
	.loc 1 649 1 is_stmt 0
	lw	ra,124(sp)
	.cfi_restore 1
	lw	s0,120(sp)
	.cfi_restore 8
.LVL16:
	addi	sp,sp,128
	.cfi_def_cfa_offset 0
	jr	ra
	.cfi_endproc
.LFE11:
	.size	do_add_process, .-do_add_process
	.align	2
	.type	convolution_3x3, @function
convolution_3x3:
.LFB8:
	.loc 1 60 47 is_stmt 1
	.cfi_startproc
.LVL17:
	.loc 1 61 4
	.loc 1 60 47 is_stmt 0
	addi	sp,sp,-400
	.cfi_def_cfa_offset 400
	sw	s7,364(sp)
	sw	s10,352(sp)
	sw	ra,396(sp)
	sw	s0,392(sp)
	sw	s1,388(sp)
	sw	s2,384(sp)
	sw	s3,380(sp)
	sw	s4,376(sp)
	sw	s5,372(sp)
	sw	s6,368(sp)
	sw	s8,360(sp)
	sw	s9,356(sp)
	sw	s11,348(sp)
	.cfi_offset 23, -36
	.cfi_offset 26, -48
	.cfi_offset 1, -4
	.cfi_offset 8, -8
	.cfi_offset 9, -12
	.cfi_offset 18, -16
	.cfi_offset 19, -20
	.cfi_offset 20, -24
	.cfi_offset 21, -28
	.cfi_offset 22, -32
	.cfi_offset 24, -40
	.cfi_offset 25, -44
	.cfi_offset 27, -52
	.loc 1 94 12
	lw	s4,76(a0)
	.loc 1 98 9
	li	a5,4
	.loc 1 60 47
	mv	s7,a0
.LVL18:
	.loc 1 62 4 is_stmt 1
	.loc 1 63 4
	.loc 1 64 4
	.loc 1 65 4
	.loc 1 66 4
	.loc 1 67 4
	.loc 1 68 4
	.loc 1 69 4
	.loc 1 70 4
	.loc 1 71 4
	.loc 1 72 4
	.loc 1 73 4
	.loc 1 74 4
	.loc 1 75 4
	.loc 1 76 4
	.loc 1 77 4
	.loc 1 78 4
	.loc 1 79 4
	.loc 1 80 4
	.loc 1 81 4
	.loc 1 82 4
	.loc 1 83 4
	.loc 1 84 4
	.loc 1 85 4
	.loc 1 86 4
	.loc 1 88 4
	.loc 1 98 9 is_stmt 0
	div	t3,a5,s4
	.loc 1 110 24
	lw	a3,56(a0)
	.loc 1 101 10
	lw	a4,28(a0)
	.loc 1 110 10
	lw	t1,44(s7)
	.loc 1 110 24
	slli	a3,a3,1
	.loc 1 107 14
	lw	a6,32(a0)
	.loc 1 110 10
	sub	a3,t1,a3
	.loc 1 88 11
	lw	t4,68(a0)
	.loc 1 107 14
	addi	a7,a6,7
	srai	a5,a7,31
	.loc 1 114 7
	lw	t0,16(s7)
	.loc 1 107 14
	andi	a5,a5,7
	add	a5,a5,a7
	.loc 1 107 45
	srai	a5,a5,3
	.loc 1 89 6
	li	a7,8
	.loc 1 109 15
	lw	t5,40(s7)
	.loc 1 90 15
	sgt	a7,t4,a7
	.loc 1 114 7
	sw	t0,312(sp)
	.loc 1 115 8
	lw	t0,0(s7)
	.loc 1 103 17
	lw	a2,52(a0)
	.loc 1 90 15
	slli	t6,a7,3
	.loc 1 60 47
	sw	a1,252(sp)
	.loc 1 90 15
	addi	a1,t6,8
.LVL19:
	.loc 1 88 11
	sw	t4,64(sp)
.LVL20:
	.loc 1 89 4 is_stmt 1
	.loc 1 90 15 is_stmt 0
	sw	a1,188(sp)
.LVL21:
	.loc 1 93 4 is_stmt 1
	.loc 1 94 4
	.loc 1 95 4
	.loc 1 96 4
	.loc 1 109 15 is_stmt 0
	sw	t5,60(sp)
	.loc 1 115 8
	sw	t0,316(sp)
	.loc 1 96 9
	lw	s6,72(a0)
.LVL22:
	.loc 1 97 4 is_stmt 1
	.loc 1 108 27 is_stmt 0
	lw	a0,48(a0)
.LVL23:
	.loc 1 118 6
	li	a7,40
	.loc 1 101 6
	mul	t1,a4,a4
	.loc 1 98 9
	sw	t3,36(sp)
	.loc 1 110 10
	sw	a3,104(sp)
	.loc 1 100 8
	slli	a1,t3,3
.LVL24:
	sw	a1,44(sp)
	.loc 1 107 60
	mul	a5,a5,t1
	.loc 1 101 6
	sw	t1,284(sp)
	.loc 1 103 13
	mul	a3,a2,t4
	.loc 1 107 11
	slli	a5,a5,3
	sw	a5,28(sp)
	.loc 1 109 11
	div	a5,t5,a0
	.loc 1 103 13
	sw	a3,136(sp)
	.loc 1 103 25
	add	a3,a4,a3
	.loc 1 103 5
	sub	a3,a3,a2
	.loc 1 104 6
	addi	a3,a3,7
	srai	a1,a3,31
	andi	a1,a1,7
	add	a3,a1,a3
	.loc 1 104 5
	andi	a1,a3,-8
	sw	a1,272(sp)
	.loc 1 102 10
	mul	a3,t3,t1
	.loc 1 109 11
	sw	a5,16(sp)
	.loc 1 97 11
	mul	s10,s4,s6
.LVL25:
	.loc 1 98 4 is_stmt 1
	.loc 1 99 4
	.loc 1 102 7 is_stmt 0
	slli	a3,a3,3
	sw	a3,288(sp)
	.loc 1 108 11
	div	a3,a6,a0
	.loc 1 105 13
	mul	t4,a2,s10
.LVL26:
	.loc 1 108 11
	sw	a3,308(sp)
	.loc 1 105 25
	add	a4,a4,t4
	.loc 1 105 5
	sub	a4,a4,a2
	.loc 1 99 6
	mul	a5,s4,t3
	.loc 1 105 5
	sw	a4,276(sp)
	.loc 1 105 13
	sw	t4,48(sp)
	.loc 1 106 10
	mul	a4,s4,a1
	.loc 1 99 6
	sw	a5,24(sp)
.LVL27:
	.loc 1 100 4 is_stmt 1
	.loc 1 101 4
	.loc 1 102 4
	.loc 1 103 4
	.loc 1 104 4
	.loc 1 105 4
	.loc 1 106 4
	.loc 1 106 8 is_stmt 0
	mul	a5,a4,a2
.LVL28:
	sw	a5,40(sp)
.LVL29:
	.loc 1 107 4 is_stmt 1
	.loc 1 108 4
	.loc 1 109 4
	.loc 1 110 4
	.loc 1 111 4
	.loc 1 112 4
	.loc 1 113 4
	.loc 1 114 4
	.loc 1 115 4
	.loc 1 117 4
	.loc 1 118 4
	.loc 1 118 6 is_stmt 0
	bgt	a1,a7,.L77
	.loc 1 119 4 is_stmt 1
	.loc 1 119 6 is_stmt 0
	lw	a4,276(sp)
	li	a5,24
.LVL30:
	bgt	a4,a5,.L78
.LVL31:
.L16:
	.loc 1 120 4 is_stmt 1
	.loc 1 120 6 is_stmt 0
	lw	a4,48(s7)
	li	a5,2
	bgt	a4,a5,.L79
.L17:
.LBB27:
	.loc 1 122 3 is_stmt 1
.LVL32:
	.loc 1 122 70
	.loc 1 122 87 is_stmt 0
	li	a5,-2147483648
	li	s8,4096
	sw	s8,1696(a5)
.LVL33:
	.loc 1 122 99 is_stmt 1
	.loc 1 122 150 is_stmt 0
	lw	a4,24(sp)
	.loc 1 122 87
	addi	a5,a5,1696
	.loc 1 122 116
	li	t2,-2147483648
	.loc 1 122 87
	mv	s5,a5
	.loc 1 122 150
	slli	a5,a4,12
	.loc 1 122 116
	sw	zero,1824(t2)
	.loc 1 122 122 is_stmt 1
	.loc 1 122 157 is_stmt 0
	addi	a4,a5,-1
	.loc 1 122 139
	sw	a4,92(sp)
	li	s3,-2147483648
	sw	a4,1952(s3)
	.loc 1 122 160 is_stmt 1
	.loc 1 122 177 is_stmt 0
	li	s2,-2147479552
	.loc 1 122 206
	li	s1,-2147479552
	.loc 1 122 177
	sw	zero,-1120(s2)
	.loc 1 122 189 is_stmt 1
	.loc 1 122 234 is_stmt 0
	li	a4,-2147479552
	.loc 1 122 206
	addi	s1,s1,-2016
	li	s9,256
	sw	s9,0(s1)
	.loc 1 122 217 is_stmt 1
	.loc 1 122 234 is_stmt 0
	addi	a4,a4,-1888
	li	s11,15
	.loc 1 122 257
	li	a5,65536
	.loc 1 122 234
	sw	s11,0(a4)
	.loc 1 122 240 is_stmt 1
	.loc 1 122 257 is_stmt 0
	li	a3,-2147479552
	addi	a1,a5,-1
	sw	a1,20(sp)
	sw	a1,-1760(a3)
	.loc 1 122 278 is_stmt 1
	.loc 1 122 295 is_stmt 0
	li	a2,-2147479552
	sw	zero,-992(a2)
	.loc 1 122 306 is_stmt 1
	.loc 1 122 322 is_stmt 0
	li	a1,-2147483648
	.loc 1 122 341
	li	a0,-2147483648
	.loc 1 122 322
	sw	zero,672(a1)
	.loc 1 122 325 is_stmt 1
	.loc 1 122 341 is_stmt 0
	li	ra,1
	sw	ra,1056(a0)
	.loc 1 122 344 is_stmt 1
	.loc 1 122 361 is_stmt 0
	li	a6,-2147483648
	sw	zero,1568(a6)
	.loc 1 122 364 is_stmt 1
	.loc 1 122 381 is_stmt 0
	li	a7,-2147479552
	.loc 1 122 400
	li	t1,-2147483648
	.loc 1 122 381
	sw	zero,-864(a7)
	.loc 1 122 384 is_stmt 1
	.loc 1 122 444 is_stmt 0
	li	t3,-2147479552
	.loc 1 122 400
	addi	t1,t1,544
	li	a5,24
	sw	a5,0(t1)
	.loc 1 122 427 is_stmt 1
	.loc 1 122 444 is_stmt 0
	addi	t3,t3,-736
	.loc 1 122 486
	li	a5,-2147479552
	.loc 1 122 444
	li	t4,16
	.loc 1 122 486
	li	s0,524288
	.loc 1 122 444
	sw	t4,0(t3)
	.loc 1 122 469 is_stmt 1
	.loc 1 122 486 is_stmt 0
	addi	a5,a5,-1632
	addi	s0,s0,127
	sw	s0,0(a5)
.LBE27:
	.loc 1 122 576 is_stmt 1
	.loc 1 122 577
	.loc 1 122 599 is_stmt 0
	lw	t6,52(s7)
	.loc 1 122 594
	li	t4,-2147479552
	.loc 1 122 626
	li	t5,1036288
	.loc 1 122 594
	sw	t6,-480(t4)
	.loc 1 122 609 is_stmt 1
	.loc 1 122 626 is_stmt 0
	addi	t5,t5,-1923
	.loc 1 122 675
	li	t6,-2147483648
	li	t0,393216
	.loc 1 122 626
	sw	t5,0(a5)
	.loc 1 122 658 is_stmt 1
	.loc 1 122 659
	.loc 1 122 675 is_stmt 0
	addi	t6,t6,20
	addi	t0,t0,1
	sw	t0,0(t6)
.LBB28:
	.loc 1 123 3 is_stmt 1
.LVL34:
	.loc 1 123 70
	.loc 1 123 87 is_stmt 0
	sw	s5,32(sp)
	sw	s8,0(s5)
	.loc 1 123 99 is_stmt 1
	.loc 1 123 116 is_stmt 0
	sw	t2,12(sp)
	sw	zero,1824(t2)
	.loc 1 123 122 is_stmt 1
	.loc 1 123 139 is_stmt 0
	lw	t2,92(sp)
.LBE28:
.LBB29:
	.loc 1 122 257
	addi	a3,a3,-1760
	.loc 1 122 341
	addi	a0,a0,1056
.LBE29:
.LBB30:
	.loc 1 123 139
	sw	t2,1952(s3)
	.loc 1 123 160 is_stmt 1
	.loc 1 123 177 is_stmt 0
	sw	zero,-1120(s2)
	.loc 1 123 189 is_stmt 1
	.loc 1 123 206 is_stmt 0
	sw	s9,0(s1)
	.loc 1 123 217 is_stmt 1
	.loc 1 123 234 is_stmt 0
	sw	s11,0(a4)
	.loc 1 123 240 is_stmt 1
	.loc 1 123 257 is_stmt 0
	lw	s5,20(sp)
	.loc 1 123 400
	li	t2,27
.LBE30:
.LBB31:
	.loc 1 122 139
	addi	s3,s3,1952
.LBE31:
.LBB32:
	.loc 1 123 257
	sw	s5,0(a3)
	.loc 1 123 278 is_stmt 1
	.loc 1 123 295 is_stmt 0
	sw	zero,-992(a2)
	.loc 1 123 306 is_stmt 1
	.loc 1 123 322 is_stmt 0
	sw	zero,672(a1)
	.loc 1 123 325 is_stmt 1
	.loc 1 123 341 is_stmt 0
	sw	ra,0(a0)
	.loc 1 123 344 is_stmt 1
	.loc 1 123 361 is_stmt 0
	sw	zero,1568(a6)
	.loc 1 123 364 is_stmt 1
	.loc 1 123 381 is_stmt 0
	sw	zero,-864(a7)
	.loc 1 123 384 is_stmt 1
	.loc 1 123 400 is_stmt 0
	sw	t2,0(t1)
	.loc 1 123 427 is_stmt 1
	.loc 1 123 444 is_stmt 0
	li	t2,16
	sw	t2,0(t3)
	.loc 1 123 469 is_stmt 1
	.loc 1 123 486 is_stmt 0
	sw	s0,0(a5)
.LBE32:
	.loc 1 123 576 is_stmt 1
	.loc 1 123 577
	.loc 1 123 599 is_stmt 0
	lw	t2,84(s7)
.LBB33:
	.loc 1 122 177
	addi	s2,s2,-1120
	.loc 1 122 295
	addi	a2,a2,-992
.LBE33:
	.loc 1 123 594
	sw	t2,-480(t4)
	.loc 1 123 619 is_stmt 1
	.loc 1 123 636 is_stmt 0
	sw	t5,0(a5)
	.loc 1 123 668 is_stmt 1
	.loc 1 123 669
	.loc 1 123 685 is_stmt 0
	sw	t0,0(t6)
.LBB34:
	.loc 1 124 3 is_stmt 1
.LVL35:
	.loc 1 124 70
	.loc 1 124 87 is_stmt 0
	lw	s5,32(sp)
.LBE34:
.LBB35:
	.loc 1 122 322
	addi	a1,a1,672
	.loc 1 122 361
	addi	a6,a6,1568
.LBE35:
.LBB36:
	.loc 1 124 87
	sw	s8,0(s5)
	.loc 1 124 99 is_stmt 1
	.loc 1 124 116 is_stmt 0
	lw	t2,12(sp)
.LBE36:
.LBB37:
	.loc 1 122 381
	addi	a7,a7,-864
.LBE37:
	.loc 1 122 594
	addi	t4,t4,-480
.LBB38:
	.loc 1 124 116
	sw	zero,1824(t2)
	.loc 1 124 122 is_stmt 1
	.loc 1 124 139 is_stmt 0
	lw	t2,92(sp)
	sw	t2,0(s3)
	.loc 1 124 160 is_stmt 1
	.loc 1 124 177 is_stmt 0
	sw	zero,0(s2)
	.loc 1 124 189 is_stmt 1
	.loc 1 124 206 is_stmt 0
	sw	s9,0(s1)
	.loc 1 124 217 is_stmt 1
	.loc 1 124 234 is_stmt 0
	sw	s11,0(a4)
	.loc 1 124 240 is_stmt 1
	.loc 1 124 257 is_stmt 0
	lw	s5,20(sp)
	.loc 1 124 400
	li	t2,28
	.loc 1 124 257
	sw	s5,0(a3)
	.loc 1 124 278 is_stmt 1
	.loc 1 124 295 is_stmt 0
	sw	zero,0(a2)
	.loc 1 124 306 is_stmt 1
	.loc 1 124 322 is_stmt 0
	sw	zero,0(a1)
	.loc 1 124 325 is_stmt 1
	.loc 1 124 341 is_stmt 0
	sw	ra,0(a0)
	.loc 1 124 344 is_stmt 1
	.loc 1 124 361 is_stmt 0
	sw	zero,0(a6)
	.loc 1 124 364 is_stmt 1
	.loc 1 124 381 is_stmt 0
	sw	zero,0(a7)
	.loc 1 124 384 is_stmt 1
	.loc 1 124 400 is_stmt 0
	sw	t2,0(t1)
	.loc 1 124 427 is_stmt 1
	.loc 1 124 444 is_stmt 0
	li	t2,16
	sw	t2,0(t3)
	.loc 1 124 469 is_stmt 1
	.loc 1 124 486 is_stmt 0
	sw	s0,0(a5)
.LBE38:
	.loc 1 124 576 is_stmt 1
	.loc 1 124 577
	.loc 1 124 599 is_stmt 0
	lw	t2,60(s7)
	.loc 1 124 594
	sw	t2,0(t4)
	.loc 1 124 613 is_stmt 1
	.loc 1 124 630 is_stmt 0
	sw	t5,0(a5)
	.loc 1 124 662 is_stmt 1
	.loc 1 124 663
	.loc 1 124 679 is_stmt 0
	sw	t0,0(t6)
.LBB39:
	.loc 1 125 3 is_stmt 1
.LVL36:
	.loc 1 125 70
	.loc 1 125 87 is_stmt 0
	lw	s5,32(sp)
	sw	s8,0(s5)
	.loc 1 125 99 is_stmt 1
	.loc 1 125 116 is_stmt 0
	lw	t2,12(sp)
	sw	zero,1824(t2)
	.loc 1 125 122 is_stmt 1
	.loc 1 125 139 is_stmt 0
	lw	t2,92(sp)
	sw	t2,0(s3)
	.loc 1 125 160 is_stmt 1
	.loc 1 125 177 is_stmt 0
	sw	zero,0(s2)
	.loc 1 125 189 is_stmt 1
	.loc 1 125 206 is_stmt 0
	sw	s9,0(s1)
	.loc 1 125 217 is_stmt 1
	.loc 1 125 234 is_stmt 0
	sw	s11,0(a4)
	.loc 1 125 240 is_stmt 1
	.loc 1 125 257 is_stmt 0
	lw	s5,20(sp)
	.loc 1 125 400
	li	t2,25
	.loc 1 125 257
	sw	s5,0(a3)
	.loc 1 125 278 is_stmt 1
	.loc 1 125 295 is_stmt 0
	sw	zero,0(a2)
	.loc 1 125 306 is_stmt 1
	.loc 1 125 322 is_stmt 0
	sw	zero,0(a1)
	.loc 1 125 325 is_stmt 1
	.loc 1 125 341 is_stmt 0
	sw	ra,0(a0)
	.loc 1 125 344 is_stmt 1
	.loc 1 125 361 is_stmt 0
	sw	zero,0(a6)
	.loc 1 125 364 is_stmt 1
	.loc 1 125 381 is_stmt 0
	sw	zero,0(a7)
	.loc 1 125 384 is_stmt 1
	.loc 1 125 400 is_stmt 0
	sw	t2,0(t1)
	.loc 1 125 427 is_stmt 1
	.loc 1 125 444 is_stmt 0
	li	t2,16
	sw	t2,0(t3)
	.loc 1 125 469 is_stmt 1
	.loc 1 125 486 is_stmt 0
	sw	s0,0(a5)
.LBE39:
	.loc 1 125 576 is_stmt 1
	.loc 1 125 577
	.loc 1 125 594 is_stmt 0
	li	t2,4
.LVL37:
	sw	t2,0(t4)
	.loc 1 125 609 is_stmt 1
	.loc 1 125 626 is_stmt 0
	sw	t5,0(a5)
	.loc 1 125 658 is_stmt 1
	.loc 1 125 659
	.loc 1 125 675 is_stmt 0
	sw	t0,0(t6)
.LBB40:
	.loc 1 126 3 is_stmt 1
.LVL38:
	.loc 1 126 70
	.loc 1 126 87 is_stmt 0
	lw	s5,32(sp)
	sw	s8,0(s5)
	.loc 1 126 99 is_stmt 1
	.loc 1 126 116 is_stmt 0
	lw	s8,12(sp)
	sw	zero,1824(s8)
	.loc 1 126 122 is_stmt 1
	.loc 1 126 139 is_stmt 0
	lw	t2,92(sp)
.LVL39:
	sw	t2,0(s3)
	.loc 1 126 160 is_stmt 1
	.loc 1 126 177 is_stmt 0
	sw	zero,0(s2)
	.loc 1 126 189 is_stmt 1
	.loc 1 126 206 is_stmt 0
	sw	s9,0(s1)
	.loc 1 126 217 is_stmt 1
	.loc 1 126 234 is_stmt 0
	sw	s11,0(a4)
	.loc 1 126 240 is_stmt 1
	.loc 1 126 257 is_stmt 0
	lw	s5,20(sp)
	.loc 1 126 400
	li	t2,29
	.loc 1 126 257
	sw	s5,0(a3)
	.loc 1 126 278 is_stmt 1
	.loc 1 126 295 is_stmt 0
	sw	zero,0(a2)
	.loc 1 126 306 is_stmt 1
	.loc 1 126 322 is_stmt 0
	sw	zero,0(a1)
	.loc 1 126 325 is_stmt 1
	.loc 1 126 341 is_stmt 0
	sw	ra,0(a0)
	.loc 1 126 344 is_stmt 1
	.loc 1 126 361 is_stmt 0
	sw	zero,0(a6)
	.loc 1 126 364 is_stmt 1
	.loc 1 126 381 is_stmt 0
	sw	zero,0(a7)
	.loc 1 126 384 is_stmt 1
	.loc 1 126 400 is_stmt 0
	sw	t2,0(t1)
	.loc 1 126 427 is_stmt 1
	.loc 1 126 444 is_stmt 0
	li	t2,16
	sw	t2,0(t3)
	.loc 1 126 469 is_stmt 1
	.loc 1 126 486 is_stmt 0
	sw	s0,0(a5)
.LBE40:
	.loc 1 126 576 is_stmt 1
	.loc 1 126 577
	.loc 1 126 594 is_stmt 0
	lw	ra,272(sp)
	sw	ra,0(t4)
	.loc 1 126 599 is_stmt 1
	.loc 1 126 616 is_stmt 0
	sw	t5,0(a5)
	.loc 1 126 648 is_stmt 1
	.loc 1 126 649
	.loc 1 126 665 is_stmt 0
	sw	t0,0(t6)
	.loc 1 127 4 is_stmt 1
.LVL40:
	.loc 1 127 14 discriminator 1
	lw	t2,24(sp)
.LBB41:
	.loc 1 122 116 is_stmt 0
	addi	ra,s8,1824
	sw	ra,12(sp)
.LBE41:
	.loc 1 127 9
	li	s8,0
	.loc 1 127 14 discriminator 1
	li	ra,0
	ble	t2,zero,.L22
	lw	s5,40(sp)
.LBB42:
	.loc 1 129 492
	li	s9,1032192
	addi	s9,s9,127
.LVL41:
.L21:
.LBE42:
	.loc 1 128 7 is_stmt 1
.LBB43:
	.loc 1 129 3
	.loc 1 129 76
.LBE43:
	.loc 1 128 12 is_stmt 0
	rem	t2,s8,s4
.LVL42:
.LBB44:
	.loc 1 129 93
	lw	s0,32(sp)
	li	s11,4096
.LBE44:
	.loc 1 127 20 discriminator 3
	addi	s8,s8,1
.LVL43:
.LBB45:
	.loc 1 129 93
	sw	s11,0(s0)
	.loc 1 129 105 is_stmt 1
	.loc 1 129 122 is_stmt 0
	lw	s0,12(sp)
	sw	zero,0(s0)
	.loc 1 129 128 is_stmt 1
	lw	s0,92(sp)
	sub	s0,s0,ra
	.loc 1 129 145 is_stmt 0
	sw	s0,0(s3)
	.loc 1 129 166 is_stmt 1
	.loc 1 129 183 is_stmt 0
	sw	ra,0(s2)
	.loc 1 129 195 is_stmt 1
	.loc 1 129 212 is_stmt 0
	li	s0,256
	sw	s0,0(s1)
	.loc 1 129 223 is_stmt 1
	.loc 1 129 240 is_stmt 0
	li	s0,15
	sw	s0,0(a4)
	.loc 1 129 246 is_stmt 1
	.loc 1 129 263 is_stmt 0
	lw	s0,20(sp)
	sw	s0,0(a3)
	.loc 1 129 284 is_stmt 1
	.loc 1 129 301 is_stmt 0
	sw	zero,0(a2)
	.loc 1 129 312 is_stmt 1
	.loc 1 129 328 is_stmt 0
	sw	zero,0(a1)
	.loc 1 129 331 is_stmt 1
	.loc 1 129 347 is_stmt 0
	li	s0,1
	sw	s0,0(a0)
	.loc 1 129 350 is_stmt 1
	.loc 1 129 367 is_stmt 0
	sw	zero,0(a6)
	.loc 1 129 370 is_stmt 1
	.loc 1 129 387 is_stmt 0
	sw	zero,0(a7)
	.loc 1 129 390 is_stmt 1
	addi	s0,ra,26
	.loc 1 129 406 is_stmt 0
	sw	s0,0(t1)
	.loc 1 129 433 is_stmt 1
	.loc 1 129 450 is_stmt 0
	li	s0,16
	sw	s0,0(t3)
	.loc 1 129 475 is_stmt 1
	.loc 1 129 492 is_stmt 0
	sw	s9,0(a5)
.LBE45:
	.loc 1 129 525 is_stmt 1
	.loc 1 129 526
	.loc 1 129 543 is_stmt 0
	sw	t2,0(t4)
	.loc 1 129 552 is_stmt 1
	.loc 1 129 569 is_stmt 0
	sw	t5,0(a5)
	.loc 1 129 601 is_stmt 1
	.loc 1 129 602
	.loc 1 129 618 is_stmt 0
	sw	t0,0(t6)
	.loc 1 127 20 is_stmt 1 discriminator 3
.LVL44:
	.loc 1 127 14 discriminator 1
	lw	t2,24(sp)
.LVL45:
	add	ra,ra,s11
	bne	t2,s8,.L21
	sw	s5,40(sp)
.LVL46:
.L22:
	.loc 1 131 1
	.loc 1 131 2
	.loc 1 131 19 is_stmt 0
	lw	a5,24(sp)
	.loc 1 131 18
	li	a4,-2147483648
	.loc 1 131 19
	addi	a3,a5,-1
	slli	a3,a3,18
	li	a5,1015025664
	mv	a2,a3
	addi	a5,a5,-1532
	sw	a3,108(sp)
	add	a5,a2,a5
	.loc 1 131 18
	sw	a5,20(a4)
	.loc 1 132 4 is_stmt 1
	li	a3,-2147483648
	sw	zero,36(a3)
	.loc 1 132 4
	call	_taskYield
.LVL47:
	.loc 1 132 18 discriminator 1
	.loc 1 133 4
	.loc 1 133 6 is_stmt 0
	lw	a5,252(sp)
	bne	a5,zero,.L80
	.loc 1 134 7 is_stmt 1
.LVL48:
	.loc 1 135 7
	.loc 1 135 10 is_stmt 0
	lw	a4,32(s7)
	srli	a5,a4,31
	add	a5,a5,a4
	lw	a4,44(sp)
	srai	a5,a5,1
	add	a5,a5,a4
	addi	a5,a5,-1
	.loc 1 135 9
	rem	a4,a5,a4
	sub	a5,a5,a4
	sw	a5,268(sp)
.LVL49:
.L23:
.LBB46:
	.loc 1 140 2 is_stmt 1
	.loc 1 140 76
	.loc 1 140 109 is_stmt 0
	slli	a5,s4,12
	sw	a5,116(sp)
	.loc 1 140 92
	li	t6,-2147483648
	sw	a5,800(t6)
.LVL50:
	.loc 1 140 114 is_stmt 1
	.loc 1 140 22 is_stmt 0
	lw	s5,36(sp)
	.loc 1 140 130
	li	t0,-2147483648
	.loc 1 140 153
	li	t2,-2147483648
	.loc 1 140 22
	addi	a5,s5,-1
	sw	a5,52(sp)
	.loc 1 140 130
	sw	a5,928(t0)
	.loc 1 140 136 is_stmt 1
	.loc 1 140 153 is_stmt 0
	lw	s11,92(sp)
	.loc 1 140 204
	li	s0,-2147479552
	.loc 1 140 243
	li	s9,4096
	.loc 1 140 153
	sw	s11,1440(t2)
	.loc 1 140 187 is_stmt 1
	.loc 1 140 204 is_stmt 0
	sw	zero,-1248(s0)
	.loc 1 140 226 is_stmt 1
	.loc 1 140 243 is_stmt 0
	li	s1,-2147483648
	sw	s9,1696(s1)
	.loc 1 140 255 is_stmt 1
	.loc 1 140 272 is_stmt 0
	li	s2,-2147483648
	.loc 1 140 295
	li	a4,16777216
	.loc 1 140 272
	sw	zero,1824(s2)
	.loc 1 140 278 is_stmt 1
	.loc 1 140 295 is_stmt 0
	addi	a4,a4,-1
	sw	a4,120(sp)
	li	a5,-2147483648
	sw	a4,1952(a5)
	.loc 1 140 318 is_stmt 1
	.loc 1 140 335 is_stmt 0
	li	s3,-2147479552
	sw	zero,-1120(s3)
	.loc 1 140 347 is_stmt 1
	.loc 1 140 388 is_stmt 0
	lw	a3,284(sp)
	.loc 1 140 364
	li	a5,-2147479552
	.loc 1 140 435
	li	a2,-2147479552
	.loc 1 140 388
	addi	a3,a3,-1
	.loc 1 140 364
	sw	a3,-1888(a5)
	.loc 1 140 392 is_stmt 1
	.loc 1 140 409 is_stmt 0
	li	a4,-2147479552
	li	a3,8
	sw	a3,-2016(a4)
	.loc 1 140 418 is_stmt 1
	.loc 1 140 435 is_stmt 0
	addi	t6,a2,-1760
	sw	t6,36(sp)
	li	a2,391
	sw	a2,0(t6)
	.loc 1 140 440 is_stmt 1
	.loc 1 140 457 is_stmt 0
	li	t1,-2147479552
	sw	zero,-992(t1)
	.loc 1 140 460 is_stmt 1
	.loc 1 140 476 is_stmt 0
	li	a1,-2147483648
	li	a3,7
	sw	a3,672(a1)
	.loc 1 140 505 is_stmt 1
.LBE46:
.LBB47:
	.loc 1 141 192 is_stmt 0
	lw	a3,272(sp)
	lw	a6,276(sp)
.LBE47:
.LBB48:
	.loc 1 140 521
	li	a0,-2147483648
	li	s8,1
.LBE48:
.LBB49:
	.loc 1 141 192
	mul	t0,a3,a6
.LBE49:
.LBB50:
	.loc 1 140 547
	li	t3,-2147483648
	.loc 1 140 569
	li	t4,-2147479552
	.loc 1 140 588
	li	a3,524288
	li	a6,-2147483648
	addi	a3,a3,8
	.loc 1 140 679
	li	t5,-2147479552
	.loc 1 140 772
	li	a7,-2147479552
.LBE50:
.LBB51:
	.loc 1 141 192
	sw	t0,168(sp)
.LBE51:
.LBB52:
	.loc 1 140 521
	sw	s8,1056(a0)
	.loc 1 140 530 is_stmt 1
	.loc 1 140 547 is_stmt 0
	sw	a2,1568(t3)
	.loc 1 140 552 is_stmt 1
	.loc 1 140 809 is_stmt 0
	addi	a2,s4,-1
	sw	a2,56(sp)
	.loc 1 140 569
	sw	zero,-864(t4)
	.loc 1 140 572 is_stmt 1
	.loc 1 140 588 is_stmt 0
	sw	a3,544(a6)
	.loc 1 140 662 is_stmt 1
	.loc 1 140 861 is_stmt 0
	slli	a2,a2,14
	li	a3,507904
	and	a2,a2,a3
	.loc 1 140 679
	lw	a3,288(sp)
	sw	a3,-736(t5)
	.loc 1 140 755 is_stmt 1
	.loc 1 140 876 is_stmt 0
	ori	a3,a2,129
	.loc 1 140 772
	sw	a3,-1632(a7)
.LBE52:
.LBB53:
	.loc 1 141 2 is_stmt 1
.LVL51:
	.loc 1 141 37
	.loc 1 141 54 is_stmt 0
	sw	s9,-2016(a4)
	.loc 1 141 66 is_stmt 1
	.loc 1 141 83 is_stmt 0
	sw	zero,-1888(a5)
	.loc 1 141 89 is_stmt 1
	.loc 1 141 106 is_stmt 0
	sw	s11,0(t6)
	.loc 1 141 127 is_stmt 1
	.loc 1 141 144 is_stmt 0
	sw	zero,-992(t1)
	.loc 1 141 156 is_stmt 1
	.loc 1 141 197 is_stmt 0
	addi	a5,t0,-1
	.loc 1 141 172
	sw	a5,672(a1)
	.loc 1 141 201 is_stmt 1
	.loc 1 141 217 is_stmt 0
	sw	s8,1056(a0)
	.loc 1 141 226 is_stmt 1
	.loc 1 141 243 is_stmt 0
	li	a5,959
	sw	a5,1568(t3)
	.loc 1 141 248 is_stmt 1
	.loc 1 141 284 is_stmt 0
	li	a5,524288
	.loc 1 141 265
	sw	zero,-864(t4)
	.loc 1 141 268 is_stmt 1
	.loc 1 141 284 is_stmt 0
	addi	a5,a5,416
	sw	a5,544(a6)
	.loc 1 141 331 is_stmt 1
	.loc 1 141 411 is_stmt 0
	li	a5,524288
	.loc 1 141 348
	sw	t0,-736(t5)
	.loc 1 141 394 is_stmt 1
	.loc 1 141 411 is_stmt 0
	addi	a5,a5,131
	sw	a5,-1632(a7)
.LBE53:
	.loc 1 142 4 is_stmt 1
.LVL52:
	.loc 1 142 17 discriminator 1
	lw	a5,252(sp)
	lw	a4,268(sp)
	bge	a5,a4,.L13
.LBB54:
	.loc 1 185 679 is_stmt 0
	slli	a3,s10,3
	.loc 1 185 975
	slli	a6,s4,3
	.loc 1 185 679
	sw	a3,192(sp)
	.loc 1 185 1091
	addi	a3,a3,-1
.LBE54:
.LBB55:
	.loc 1 183 338
	slli	a7,s10,7
.LBE55:
.LBB56:
	.loc 1 185 1091
	sw	a3,208(sp)
	.loc 1 185 1322
	addi	a3,a6,-1
.LBE56:
.LBB57:
	.loc 1 183 654
	slli	t1,s10,4
.LBE57:
.LBB58:
	.loc 1 185 1322
	sw	a3,212(sp)
.LBE58:
.LBB59:
	.loc 1 183 780
	addi	a3,a7,-1
	.loc 1 183 919
	slli	t3,s4,4
	.loc 1 183 780
	sw	a3,236(sp)
	.loc 1 183 1025
	addi	a3,t1,-1
	sw	a3,244(sp)
	.loc 1 183 1226
	addi	a3,t3,-1
	sw	a3,248(sp)
.LBE59:
.LBB60:
	.loc 1 143 725
	ori	a3,a2,127
	sw	a3,292(sp)
.LBE60:
.LBB61:
	.loc 1 147 308
	lw	a3,28(sp)
.LBE61:
	.loc 1 166 19
	li	a5,58724352
.LBB62:
	.loc 1 185 333
	slli	a4,s10,6
.LBE62:
.LBB63:
	.loc 1 147 308
	addi	a2,a3,-1
	sw	a2,320(sp)
.LBE63:
	.loc 1 166 19
	lw	a2,108(sp)
	addi	a5,a5,1284
.LBB64:
	.loc 1 185 333
	sw	a4,184(sp)
.LBE64:
	.loc 1 166 19
	add	a5,a2,a5
.LBB65:
	.loc 1 185 816
	addi	a4,a4,-1
	sw	a4,196(sp)
.LBE65:
	.loc 1 166 19
	sw	a5,32(sp)
.LBB66:
	.loc 1 185 398
	mul	a4,s10,s5
.LBE66:
.LBB67:
	.loc 1 147 178
	lw	a5,16(sp)
.LBE67:
.LBB68:
	.loc 1 150 152
	lw	a0,104(sp)
	.loc 1 150 244
	mv	s3,s7
	mv	s5,s4
	lw	s7,40(sp)
.LVL53:
	mv	s4,s6
.LVL54:
	lw	s6,44(sp)
.LVL55:
.LBE68:
.LBB69:
	.loc 1 185 975
	sw	a6,204(sp)
.LBE69:
.LBB70:
	.loc 1 183 338
	sw	a7,224(sp)
.LBE70:
.LBB71:
	.loc 1 147 178
	mul	a3,a3,a5
.LBE71:
.LBB72:
	.loc 1 185 398
	slli	a5,a4,6
	sw	a5,256(sp)
.LBE72:
.LBB73:
	.loc 1 183 403
	slli	a4,a4,7
.LBE73:
.LBB74:
	.loc 1 185 485
	addi	a5,a5,-1
	sw	a5,200(sp)
.LBE74:
.LBB75:
	.loc 1 183 480
	addi	a5,a4,-1
	.loc 1 183 403
	sw	a4,280(sp)
	.loc 1 183 480
	sw	a5,228(sp)
.LBE75:
.LBB76:
	.loc 1 150 222
	lw	a5,60(sp)
	.loc 1 150 152
	mul	a1,a0,a0
.LBE76:
.LBB77:
	.loc 1 147 192
	addi	a4,a3,-1
	sw	a4,300(sp)
	lw	a4,48(sp)
.LBE77:
.LBB78:
	.loc 1 183 654
	sw	t1,232(sp)
	.loc 1 183 919
	sw	t3,240(sp)
.LBE78:
.LBB79:
	.loc 1 150 222
	mul	a5,a5,a1
	.loc 1 150 152
	sw	a1,20(sp)
	mul	a4,a4,a0
	.loc 1 150 244
	addi	a5,a5,-1
	sw	a5,152(sp)
	sw	a4,304(sp)
.LVL56:
.L46:
.LBE79:
.LBB80:
	.loc 1 143 3 is_stmt 1
	.loc 1 143 77
	.loc 1 143 94 is_stmt 0
	lw	a5,116(sp)
	li	s1,-2147483648
	.loc 1 143 133
	li	s2,-2147483648
	.loc 1 143 94
	sw	a5,1696(s1)
.LVL57:
	.loc 1 143 116 is_stmt 1
	.loc 1 143 133 is_stmt 0
	lw	a4,52(sp)
	.loc 1 143 156
	li	s11,-2147483648
	.loc 1 143 207
	li	s8,-2147479552
	.loc 1 143 133
	sw	a4,1824(s2)
	.loc 1 143 139 is_stmt 1
	.loc 1 143 156 is_stmt 0
	lw	a3,92(sp)
	.loc 1 143 246
	li	a7,-2147479552
	li	s9,4096
	.loc 1 143 156
	sw	a3,1952(s11)
	.loc 1 143 190 is_stmt 1
	.loc 1 143 207 is_stmt 0
	sw	zero,-1120(s8)
	.loc 1 143 229 is_stmt 1
	.loc 1 143 246 is_stmt 0
	sw	s9,-2016(a7)
	.loc 1 143 258 is_stmt 1
	.loc 1 143 275 is_stmt 0
	li	a5,-2147479552
	sw	zero,-1888(a5)
	.loc 1 143 281 is_stmt 1
	.loc 1 143 298 is_stmt 0
	lw	a5,36(sp)
	lw	a2,120(sp)
	.loc 1 143 338
	li	t4,-2147479552
	.loc 1 143 366
	li	a1,-2147483648
	.loc 1 143 298
	sw	a2,0(a5)
	.loc 1 143 321 is_stmt 1
	.loc 1 143 338 is_stmt 0
	sw	zero,-992(t4)
	.loc 1 143 350 is_stmt 1
	.loc 1 143 366 is_stmt 0
	li	t6,7
	sw	t6,672(a1)
	.loc 1 143 395 is_stmt 1
	.loc 1 143 411 is_stmt 0
	li	a0,-2147483648
	li	t1,1
	sw	t1,1056(a0)
	.loc 1 143 420 is_stmt 1
	.loc 1 143 437 is_stmt 0
	li	a2,-2147483648
	sw	t6,1568(a2)
	.loc 1 143 440 is_stmt 1
	.loc 1 143 457 is_stmt 0
	li	a3,-2147479552
	.loc 1 143 476
	li	a5,524288
	.loc 1 143 457
	sw	zero,-864(a3)
	.loc 1 143 460 is_stmt 1
	.loc 1 143 476 is_stmt 0
	li	a4,-2147483648
	addi	a5,a5,400
	sw	a5,544(a4)
	.loc 1 143 544 is_stmt 1
	.loc 1 143 561 is_stmt 0
	li	t5,-2147479552
	sw	s6,-736(t5)
	.loc 1 143 614 is_stmt 1
	lw	t2,252(sp)
	.loc 1 143 631 is_stmt 0
	lw	s0,292(sp)
	li	a5,-2147479552
	sw	t2,60(sp)
	mv	t0,t2
.LBE80:
.LBB81:
	.loc 1 143 763
	add	t2,t2,s6
	sw	t2,252(sp)
.LBE81:
.LBB82:
	.loc 1 143 631
	sw	s0,-1632(a5)
.LBE82:
.LBB83:
	.loc 1 143 737 is_stmt 1
.LVL58:
	.loc 1 143 785
	.loc 1 143 757 is_stmt 0
	addi	a6,t2,-1
.LVL59:
	.loc 1 143 801
	sw	t1,1056(a0)
	.loc 1 143 812 is_stmt 1
	.loc 1 143 772 is_stmt 0
	sub	a6,a6,t0
.LVL60:
	.loc 1 143 828
	sw	a6,144(sp)
	sw	a6,672(a1)
	.loc 1 143 834 is_stmt 1
	.loc 1 143 866 is_stmt 0
	lw	a6,32(s3)
	.loc 1 143 772
	mv	t2,t0
.LVL61:
.LBE83:
	.loc 1 143 1047
	li	t3,393216
.LBB84:
	.loc 1 143 866
	addi	a6,a6,-1
	.loc 1 143 868
	sub	a6,a6,t2
	.loc 1 143 851
	sw	a6,1568(a2)
	.loc 1 143 874 is_stmt 1
	.loc 1 143 891 is_stmt 0
	sw	t2,-864(a3)
	.loc 1 143 900 is_stmt 1
.LVL62:
	.loc 1 143 919
	.loc 1 143 955 is_stmt 0
	lw	a6,8(s3)
	.loc 1 143 994
	li	t0,1036288
.LVL63:
.LBE84:
	.loc 1 143 1047
	li	s0,-2147483648
.LBB85:
	.loc 1 143 955
	srli	a6,a6,1
	.loc 1 143 940
	add	a6,a6,t2
	.loc 1 143 935
	sw	a6,544(a4)
	.loc 1 143 976 is_stmt 1
	.loc 1 143 977
	.loc 1 143 994 is_stmt 0
	addi	t0,t0,125
.LBE85:
	.loc 1 143 1047
	addi	a6,t3,1
.LBB86:
	.loc 1 143 994
	sw	t0,-1632(a5)
.LBE86:
	.loc 1 143 1030 is_stmt 1
	.loc 1 143 1031
	.loc 1 143 1047 is_stmt 0
	sw	a6,20(s0)
.LBB87:
	.loc 1 144 3 is_stmt 1
.LVL64:
	.loc 1 144 77
.LBE87:
	.loc 1 143 1047 is_stmt 0
	mv	t3,a6
.LBB88:
	.loc 1 144 94
	lw	a6,116(sp)
	sw	a6,1696(s1)
	.loc 1 144 116 is_stmt 1
	.loc 1 144 133 is_stmt 0
	lw	s1,52(sp)
	.loc 1 144 275
	li	a6,-2147479552
	.loc 1 144 133
	sw	s1,1824(s2)
	.loc 1 144 139 is_stmt 1
	.loc 1 144 156 is_stmt 0
	lw	s1,92(sp)
	sw	s1,1952(s11)
	.loc 1 144 190 is_stmt 1
	.loc 1 144 207 is_stmt 0
	sw	zero,-1120(s8)
	.loc 1 144 229 is_stmt 1
	.loc 1 144 246 is_stmt 0
	sw	s9,-2016(a7)
	.loc 1 144 258 is_stmt 1
	.loc 1 144 275 is_stmt 0
	sw	zero,-1888(a6)
	.loc 1 144 281 is_stmt 1
	.loc 1 144 298 is_stmt 0
	lw	s2,36(sp)
	lw	s1,120(sp)
	.loc 1 144 476
	li	a6,524288
	addi	a6,a6,408
	.loc 1 144 298
	sw	s1,0(s2)
	.loc 1 144 321 is_stmt 1
	.loc 1 144 338 is_stmt 0
	sw	zero,-992(t4)
	.loc 1 144 350 is_stmt 1
	.loc 1 144 366 is_stmt 0
	sw	t6,672(a1)
	.loc 1 144 395 is_stmt 1
	.loc 1 144 411 is_stmt 0
	sw	t1,1056(a0)
	.loc 1 144 420 is_stmt 1
	.loc 1 144 437 is_stmt 0
	sw	t6,1568(a2)
	.loc 1 144 440 is_stmt 1
	.loc 1 144 457 is_stmt 0
	sw	zero,-864(a3)
	.loc 1 144 460 is_stmt 1
	.loc 1 144 476 is_stmt 0
	sw	a6,544(a4)
	.loc 1 144 544 is_stmt 1
.LBE88:
	.loc 1 146 12 is_stmt 0
	lw	s8,308(sp)
.LBB89:
	.loc 1 144 561
	sw	s6,-736(t5)
	.loc 1 144 614 is_stmt 1
	.loc 1 144 631 is_stmt 0
	lw	s1,292(sp)
.LBE89:
	.loc 1 146 12
	mv	t6,t2
	div	s9,t2,s8
.LBB90:
	.loc 1 144 631
	sw	s1,-1632(a5)
.LBE90:
.LBB91:
	.loc 1 144 737 is_stmt 1
.LVL65:
	.loc 1 144 785
	.loc 1 144 801 is_stmt 0
	sw	t1,1056(a0)
	.loc 1 144 812 is_stmt 1
	.loc 1 144 828 is_stmt 0
	lw	t2,144(sp)
.LVL66:
.LBE91:
	.loc 1 145 15
	mv	s1,t6
	srai	s8,t6,3
.LBB92:
	.loc 1 144 828
	sw	t2,672(a1)
	.loc 1 144 834 is_stmt 1
	.loc 1 144 866 is_stmt 0
	lw	a6,32(s3)
.LBE92:
.LBB93:
	.loc 1 147 491
	li	t6,1036288
.LVL67:
	addi	t6,t6,133
.LBE93:
.LBB94:
	.loc 1 144 866
	addi	a6,a6,-1
	.loc 1 144 868
	sub	a6,a6,s1
	.loc 1 144 851
	sw	a6,1568(a2)
	.loc 1 144 874 is_stmt 1
	.loc 1 144 891 is_stmt 0
	sw	s1,-864(a3)
	.loc 1 144 900 is_stmt 1
.LVL68:
	.loc 1 144 919
	.loc 1 144 955 is_stmt 0
	lw	a6,12(s3)
	srli	a6,a6,1
	.loc 1 144 940
	add	a6,a6,s1
	.loc 1 144 935
	sw	a6,544(a4)
	.loc 1 144 976 is_stmt 1
	.loc 1 144 977
	.loc 1 144 994 is_stmt 0
	sw	t0,-1632(a5)
.LBE94:
	.loc 1 144 1030 is_stmt 1
	.loc 1 144 1031
	.loc 1 144 1047 is_stmt 0
	sw	t3,20(s0)
	.loc 1 145 7 is_stmt 1
.LBB95:
	.loc 1 147 103 is_stmt 0
	lw	a6,28(sp)
	sw	a6,-2016(a7)
	.loc 1 147 139
	li	a6,-2147479552
	sw	zero,-1888(a6)
	.loc 1 147 162
	lw	a6,300(sp)
	sw	a6,0(s2)
	.loc 1 147 212
	sw	zero,-992(t4)
	.loc 1 147 247
	sw	t1,1056(a0)
.LBE95:
	.loc 1 145 30
	lw	a0,284(sp)
.LBB96:
	.loc 1 147 65
	lw	a6,288(sp)
.LBE96:
	.loc 1 145 30
	mul	a0,s8,a0
	.loc 1 145 11
	slli	a0,a0,3
.LVL69:
	.loc 1 146 7 is_stmt 1
.LBB97:
	.loc 1 147 65 is_stmt 0
	add	a6,a6,a0
	.loc 1 147 56
	addi	a6,a6,-1
	.loc 1 147 73
	sub	a6,a6,a0
	.loc 1 147 274
	sw	a6,672(a1)
	.loc 1 147 310
	lw	a1,320(sp)
	.loc 1 147 461
	addi	a6,a6,1
	.loc 1 147 310
	sub	a1,a1,a0
	.loc 1 147 297
	sw	a1,1568(a2)
	.loc 1 147 333
	sw	a0,-864(a3)
	.loc 1 147 400
	lw	a3,316(sp)
	add	a0,a0,a3
.LVL70:
	.loc 1 147 395
	sw	a0,544(a4)
.LVL71:
	.loc 1 147 449
	sw	a6,-736(t5)
	.loc 1 147 491
	sw	t6,-1632(a5)
.LBE97:
	.loc 1 148 22
	lw	a3,56(s3)
	.loc 1 146 9
	lw	a4,16(sp)
	.loc 1 148 35 discriminator 1
	lw	a5,36(s3)
	.loc 1 148 17
	neg	a0,a3
	.loc 1 146 9
	mul	a4,s9,a4
.LVL72:
.LBB98:
	.loc 1 147 2 is_stmt 1
	.loc 1 147 86
	.loc 1 147 122
	.loc 1 147 145
	.loc 1 147 195
	.loc 1 147 231
	.loc 1 147 258
	.loc 1 147 280
	.loc 1 147 316
	.loc 1 147 342
	.loc 1 147 379
	.loc 1 147 431
	.loc 1 147 432
	.loc 1 147 474
.LBE98:
	.loc 1 148 7
	.loc 1 148 30 discriminator 1
	ble	a5,zero,.L25
	lw	a6,104(sp)
.LBB99:
	.loc 1 178 803 is_stmt 0
	addi	a1,t2,1
	sw	s6,296(sp)
	add	a2,a3,a6
	mv	s6,s10
.LVL73:
	.loc 1 178 41
	addi	a7,s10,-1
	sw	a7,176(sp)
.LBE99:
	.loc 1 149 20
	sw	a0,48(sp)
	mul	a2,a2,a6
	mv	s8,s7
	mv	s9,s3
	mv	s7,s5
	mv	s5,s4
.LVL74:
	addi	a2,a2,-1
	mul	s11,a1,s10
	sw	a2,112(sp)
	mul	a2,a0,a6
	mv	s4,s11
.LVL75:
	sw	a2,100(sp)
.LBB100:
	.loc 1 178 806
	slli	a2,s11,3
	sw	a2,220(sp)
	lw	a2,20(sp)
	mul	a4,a4,a2
	sw	a4,140(sp)
	sub	a4,s6,s10
	sw	a4,24(sp)
.LVL76:
.LBE100:
	.loc 1 149 10 is_stmt 1
	.loc 1 149 33 discriminator 1
	ble	a5,zero,.L26
.LVL77:
.L84:
.LBB101:
	.loc 1 176 806 is_stmt 0
	slli	a1,s4,4
	sw	a1,264(sp)
	lw	a1,276(sp)
.LBE101:
.LBB102:
	.loc 1 150 508
	lw	a4,104(sp)
.LBE102:
	.loc 1 152 19
	li	a5,1031798784
	addi	a1,a1,-1
	sw	a1,148(sp)
	lw	a1,108(sp)
	addi	a5,a5,4
.LBB103:
	.loc 1 150 508
	addi	a4,a4,-1
.LBE103:
	.loc 1 152 19
	add	a5,a1,a5
	sw	a5,156(sp)
	add	a5,a4,a3
	sw	a5,44(sp)
	lw	a5,272(sp)
	lw	a4,100(sp)
.LBB104:
	.loc 1 150 448
	li	a2,-2147483648
	addi	a5,a5,-1
	sw	a5,160(sp)
	lw	a5,312(sp)
	.loc 1 150 758
	li	s11,-2147479552
	li	ra,1036288
	add	a5,a5,a4
	addi	s11,s11,-1632
.LBE104:
	.loc 1 151 18
	li	s0,-2147483648
	.loc 1 149 15
	li	a3,0
	sw	a5,164(sp)
.LBB105:
	.loc 1 150 758
	addi	ra,ra,135
	.loc 1 150 448
	addi	a5,a2,1056
.LBE105:
	.loc 1 151 18
	sw	s6,324(sp)
.LBB106:
	.loc 1 150 448
	sw	a5,40(sp)
.LBE106:
	.loc 1 151 18
	mv	s6,s11
	addi	s0,s0,92
	mv	s11,s8
	sw	ra,172(sp)
	mv	s8,a3
	sw	s10,328(sp)
	sw	s4,332(sp)
.LVL78:
.L42:
.LBB107:
	.loc 1 150 2 is_stmt 1
	.loc 1 150 123
	.loc 1 150 140 is_stmt 0
	lw	a5,20(sp)
	li	ra,-2147483648
	.loc 1 150 184
	li	t2,-2147483648
	.loc 1 150 140
	sw	a5,1696(ra)
.LVL79:
	.loc 1 150 167 is_stmt 1
	.loc 1 150 184 is_stmt 0
	sw	zero,1824(t2)
	.loc 1 150 190 is_stmt 1
	.loc 1 150 207 is_stmt 0
	lw	a5,152(sp)
	li	t0,-2147483648
	.loc 1 150 264
	li	t6,-2147479552
	.loc 1 150 207
	sw	a5,1952(t0)
	.loc 1 150 247 is_stmt 1
	.loc 1 150 264 is_stmt 0
	sw	zero,-1120(t6)
	.loc 1 150 291 is_stmt 1
	.loc 1 150 308 is_stmt 0
	lw	a5,104(sp)
	li	t5,-2147479552
	.loc 1 150 343
	li	t4,-2147479552
	.loc 1 150 308
	sw	a5,-2016(t5)
	.loc 1 150 326 is_stmt 1
	.loc 1 150 343 is_stmt 0
	lw	a5,148(sp)
	.loc 1 150 414
	li	t3,-2147479552
	.loc 1 150 475
	li	t1,-2147483648
	.loc 1 150 343
	sw	a5,-1888(t4)
	.loc 1 150 349 is_stmt 1
	.loc 1 150 366 is_stmt 0
	lw	a5,36(sp)
	lw	a4,112(sp)
	.loc 1 150 498
	li	a7,-2147483648
	.loc 1 150 533
	li	a6,-2147479552
	.loc 1 150 366
	sw	a4,0(a5)
	.loc 1 150 397 is_stmt 1
	.loc 1 150 414 is_stmt 0
	lw	a5,100(sp)
	.loc 1 150 448
	li	a4,1
	.loc 1 150 620
	li	a0,-2147483648
	.loc 1 150 414
	sw	a5,-992(t3)
	.loc 1 150 432 is_stmt 1
	.loc 1 150 448 is_stmt 0
	lw	a5,40(sp)
.LBE107:
	.loc 1 153 25 discriminator 1
	li	s4,0
	.loc 1 153 19
	li	s10,0
.LBB108:
	.loc 1 150 448
	sw	a4,0(a5)
	.loc 1 150 459 is_stmt 1
	.loc 1 150 475 is_stmt 0
	lw	a5,160(sp)
	sw	a5,672(t1)
	.loc 1 150 481 is_stmt 1
	.loc 1 150 498 is_stmt 0
	lw	a5,44(sp)
	sw	a5,1568(a7)
	.loc 1 150 516 is_stmt 1
	.loc 1 150 533 is_stmt 0
	lw	a4,48(sp)
	.loc 1 150 670
	li	a5,-2147479552
	.loc 1 150 533
	sw	a4,-864(a6)
	.loc 1 150 542 is_stmt 1
.LVL80:
	.loc 1 150 604
	.loc 1 150 625 is_stmt 0
	lw	a3,164(sp)
	add	s1,a3,a4
	.loc 1 150 620
	sw	s1,544(a0)
	.loc 1 150 652 is_stmt 1
	.loc 1 150 653
	.loc 1 150 670 is_stmt 0
	lw	a4,168(sp)
	.loc 1 150 719
	li	s1,-2147479552
	.loc 1 150 670
	sw	a4,-736(a5)
	.loc 1 150 702 is_stmt 1
	.loc 1 150 721 is_stmt 0
	lw	s2,80(s9)
	neg	s2,s2
	.loc 1 150 719
	sw	s2,-480(s1)
	.loc 1 150 741 is_stmt 1
	.loc 1 150 758 is_stmt 0
	lw	a5,172(sp)
.LBE108:
	.loc 1 152 18
	li	s1,-2147483648
	.loc 1 165 18
	li	s2,-2147483648
.LBB109:
	.loc 1 150 758
	sw	a5,0(s6)
.LBE109:
	.loc 1 151 1 is_stmt 1
	.loc 1 151 18 is_stmt 0
	sw	s5,0(s0)
	.loc 1 152 1 is_stmt 1
	.loc 1 152 2
	.loc 1 152 18 is_stmt 0
	lw	a5,156(sp)
	addi	s1,s1,20
	.loc 1 165 18
	addi	s2,s2,96
	.loc 1 152 18
	sw	a5,0(s1)
	.loc 1 153 13 is_stmt 1
.LVL81:
	.loc 1 153 25 discriminator 1
	lw	a5,16(sp)
	lw	s3,140(sp)
	ble	a5,zero,.L33
	sw	s8,12(sp)
	mv	s8,s2
.LVL82:
	mv	s2,s3
	mv	s3,s6
	mv	s6,s5
	mv	s5,s1
.LVL83:
	lw	s1,64(sp)
	mv	a5,s0
	mv	s0,s10
	mv	s10,s4
	mv	s4,a5
.LVL84:
.L27:
	.loc 1 154 16
	li	a5,-2147483648
	sw	zero,36(a5)
	.loc 1 154 16
	call	_taskYield
.LVL85:
	.loc 1 154 30 discriminator 1
	.loc 1 155 16
	.loc 1 156 3
	.loc 1 156 20 is_stmt 0
	li	a1,-2147483648
	sw	zero,180(a1)
	.loc 1 156 23 is_stmt 1
	.loc 1 156 40 is_stmt 0
	li	a2,30
	sw	a2,0(s3)
	.loc 1 156 68 is_stmt 1
	.loc 1 156 85 is_stmt 0
	li	t5,-2147483648
	sw	zero,436(t5)
.LBB110:
	.loc 1 156 89 is_stmt 1
.LVL86:
	.loc 1 156 216
	.loc 1 156 253
	.loc 1 156 269 is_stmt 0
	li	a5,-2147483648
	sw	s2,544(a5)
.LVL87:
	.loc 1 156 277 is_stmt 1
	.loc 1 156 278
	.loc 1 156 297 is_stmt 0
	lw	a3,80(s9)
	.loc 1 156 295
	li	a4,-2147479552
.LBE110:
	.loc 1 156 335
	li	t6,28
.LBB111:
	.loc 1 156 297
	neg	a3,a3
	.loc 1 156 295
	sw	a3,-480(a4)
.LBE111:
	.loc 1 156 318 is_stmt 1
	.loc 1 156 378 is_stmt 0
	li	a4,196608
	.loc 1 156 335
	sw	t6,0(s3)
	.loc 1 156 361 is_stmt 1
	.loc 1 156 362
	.loc 1 156 378 is_stmt 0
	addi	a4,a4,1
	sw	a4,0(s5)
	.loc 1 157 3 is_stmt 1
	.loc 1 157 20 is_stmt 0
	li	a3,-2147483648
	sw	zero,52(a3)
	.loc 1 157 23 is_stmt 1
	.loc 1 157 40 is_stmt 0
	sw	a2,0(s3)
	.loc 1 157 68 is_stmt 1
	.loc 1 157 85 is_stmt 0
	li	a4,-2147483648
	sw	zero,308(a4)
.LBB112:
	.loc 1 157 89 is_stmt 1
.LVL88:
	.loc 1 157 181
	.loc 1 157 210
	.loc 1 157 226 is_stmt 0
	sw	s10,544(a5)
	.loc 1 157 234 is_stmt 1
.LBE112:
	.loc 1 157 236
	.loc 1 157 296 is_stmt 0
	li	a2,327680
	.loc 1 157 253
	sw	t6,0(s3)
	.loc 1 157 279 is_stmt 1
	.loc 1 157 280
	.loc 1 157 296 is_stmt 0
	addi	a2,a2,1
	sw	a2,0(s5)
	.loc 1 158 16 is_stmt 1
	.loc 1 158 22 is_stmt 0
	lw	a2,36(s9)
.LVL89:
	.loc 1 159 16 is_stmt 1
	.loc 1 158 18 is_stmt 0
	lw	a5,12(sp)
	sub	a1,a2,a5
.LVL90:
	.loc 1 159 18
	ble	a1,s1,.L30
	mv	a1,s1
.LVL91:
.L30:
	.loc 1 161 16 is_stmt 1
	.loc 1 161 42 discriminator 1
	ble	s6,zero,.L31
	.loc 1 166 19 is_stmt 0
	lw	a5,32(sp)
	.loc 1 161 36
	lw	a4,24(sp)
	.loc 1 166 19
	addi	a1,a1,-1
.LVL92:
	slli	a1,a1,26
.LVL93:
	add	a1,a1,a5
	.loc 1 161 31
	li	a3,0
	.loc 1 161 22
	li	a5,0
.LVL94:
	.loc 1 162 19 is_stmt 1
	.loc 1 164 1
	.loc 1 162 21 is_stmt 0
	bge	a4,a2,.L31
.LVL95:
.L81:
	.loc 1 164 18
	sw	a5,0(s4)
	.loc 1 165 1 is_stmt 1
	.loc 1 165 18 is_stmt 0
	sw	a3,0(s8)
	.loc 1 166 1 is_stmt 1
	.loc 1 166 2
	.loc 1 166 18 is_stmt 0
	sw	a1,0(s5)
	.loc 1 161 67 is_stmt 1 discriminator 2
	.loc 1 161 52 is_stmt 0 discriminator 2
	addi	a5,a5,1
.LVL96:
	.loc 1 161 61 discriminator 2
	add	a3,a3,s11
.LVL97:
	.loc 1 161 70 discriminator 2
	add	a4,a4,s7
.LVL98:
	.loc 1 161 42 is_stmt 1 discriminator 1
	beq	s6,a5,.L31
	.loc 1 162 31 is_stmt 0
	lw	a2,36(s9)
	.loc 1 162 19 is_stmt 1
	.loc 1 164 1
	.loc 1 162 21 is_stmt 0
	blt	a4,a2,.L81
.LVL99:
.L31:
	.loc 1 153 37 is_stmt 1 discriminator 2
	.loc 1 153 25 is_stmt 0 discriminator 1
	lw	a5,20(sp)
	.loc 1 153 37 discriminator 2
	addi	s0,s0,1
.LVL100:
	.loc 1 153 25 is_stmt 1 discriminator 1
	add	s2,s2,a5
.LVL101:
	lw	a5,28(sp)
	add	s10,s10,a5
.LVL102:
	lw	a5,16(sp)
	bne	a5,s0,.L27
	lw	s8,12(sp)
	mv	s5,s6
	mv	s0,s4
.LVL103:
	mv	s6,s3
.LVL104:
.L33:
	.loc 1 169 25 discriminator 1
	.loc 1 171 19 is_stmt 0
	lw	a5,108(sp)
	li	a0,1031806976
	addi	a0,a0,-508
	.loc 1 171 18
	li	a6,-2147483648
	.loc 1 171 19
	add	a0,a5,a0
	.loc 1 171 18
	addi	a6,a6,20
	.loc 1 169 19
	li	a5,0
	.loc 1 169 25 discriminator 1
	ble	s5,zero,.L29
.LVL105:
.L36:
	.loc 1 170 1 is_stmt 1
	.loc 1 170 18 is_stmt 0
	sw	a5,0(s0)
	.loc 1 171 1 is_stmt 1
	.loc 1 171 2
	.loc 1 171 18 is_stmt 0
	sw	a0,0(a6)
	.loc 1 169 35 is_stmt 1 discriminator 3
	addi	a5,a5,1
.LVL106:
	.loc 1 169 25 discriminator 1
	bne	s5,a5,.L36
.LVL107:
.L29:
	.loc 1 173 13
	li	a5,-2147483648
	sw	zero,36(a5)
	.loc 1 173 13
	call	_taskYield
.LVL108:
	.loc 1 173 27 discriminator 1
	.loc 1 174 13
	.loc 1 174 19 is_stmt 0
	lw	a5,92(s9)
	.loc 1 174 15
	li	a4,1
	.loc 1 174 62
	addi	a0,a5,-1
	.loc 1 174 15
	bleu	a0,a4,.L82
	.loc 1 181 13 is_stmt 1
	.loc 1 181 15 is_stmt 0
	bne	a5,zero,.L39
	.loc 1 182 16 is_stmt 1
	.loc 1 182 18 is_stmt 0
	lw	a4,188(sp)
	li	a5,16
.LBB113:
	.loc 1 176 1431
	addi	a6,s5,-1
.LBE113:
	.loc 1 182 18
	beq	a4,a5,.L38
.L40:
.LBB114:
	.loc 1 185 3 is_stmt 1
.LVL109:
	.loc 1 185 229
	.loc 1 185 246 is_stmt 0
	lw	a5,184(sp)
	li	t0,-2147483648
	.loc 1 185 355
	li	t6,-2147483648
	.loc 1 185 246
	sw	a5,1696(t0)
.LVL110:
	.loc 1 185 338 is_stmt 1
	.loc 1 185 355 is_stmt 0
	lw	s10,52(sp)
	.loc 1 185 378
	li	t5,-2147483648
	.loc 1 185 505
	li	t4,-2147479552
	.loc 1 185 355
	sw	s10,1824(t6)
	.loc 1 185 361 is_stmt 1
	.loc 1 185 378 is_stmt 0
	lw	a4,200(sp)
	.loc 1 185 613
	li	s3,-2147483648
	.loc 1 185 700
	li	a5,7
	.loc 1 185 378
	sw	a4,1952(t5)
	.loc 1 185 488 is_stmt 1
	.loc 1 185 505 is_stmt 0
	sw	zero,-1120(t4)
	.loc 1 185 597 is_stmt 1
	.loc 1 185 613 is_stmt 0
	lw	a2,192(sp)
	sw	s3,68(sp)
	.loc 1 185 700
	li	a3,-2147483648
	.loc 1 185 613
	sw	a2,288(s3)
	.loc 1 185 684 is_stmt 1
	.loc 1 185 700 is_stmt 0
	sw	a5,416(a3)
	.loc 1 185 706 is_stmt 1
	.loc 1 185 723 is_stmt 0
	lw	a1,196(sp)
	li	a4,-2147483648
	sw	a4,72(sp)
	sw	a1,1312(a4)
	.loc 1 185 819 is_stmt 1
	.loc 1 185 836 is_stmt 0
	li	a2,-2147479552
	sw	a2,76(sp)
	sw	zero,-1376(a2)
	.loc 1 185 907 is_stmt 1
	.loc 1 185 923 is_stmt 0
	lw	t1,204(sp)
	li	a1,-2147483648
	sw	a1,80(sp)
	sw	t1,800(a1)
	.loc 1 185 980 is_stmt 1
	.loc 1 185 996 is_stmt 0
	li	a7,-2147483648
	sw	a7,84(sp)
	sw	a6,928(a7)
	.loc 1 185 1002 is_stmt 1
	.loc 1 185 1019 is_stmt 0
	lw	t3,208(sp)
	sw	a4,88(sp)
	.loc 1 185 1185
	li	t2,8
	.loc 1 185 1019
	sw	t3,1440(a4)
	.loc 1 185 1094 is_stmt 1
	.loc 1 185 1111 is_stmt 0
	sw	zero,-1248(a2)
	.loc 1 185 1168 is_stmt 1
	.loc 1 185 1185 is_stmt 0
	li	t3,-2147479552
	sw	t2,-2016(t3)
	.loc 1 185 1224 is_stmt 1
	.loc 1 185 1241 is_stmt 0
	lw	s1,56(sp)
	li	t1,-2147479552
	.loc 1 185 1342
	li	a7,-2147479552
	.loc 1 185 1241
	sw	s1,-1888(t1)
	.loc 1 185 1247 is_stmt 1
	.loc 1 185 1264 is_stmt 0
	lw	t2,36(sp)
	lw	s2,212(sp)
	.loc 1 185 1397
	li	s4,1
	.loc 1 185 1852
	li	a0,-2147479552
	.loc 1 185 1264
	sw	s2,0(t2)
	.loc 1 185 1325 is_stmt 1
	.loc 1 185 1342 is_stmt 0
	sw	zero,-992(a7)
	.loc 1 185 1381 is_stmt 1
	.loc 1 185 1397 is_stmt 0
	lw	s3,40(sp)
	.loc 1 185 1447
	li	s2,-2147483648
	.loc 1 185 1852
	mv	s1,a0
	.loc 1 185 1397
	sw	s4,0(s3)
	.loc 1 185 1408 is_stmt 1
	.loc 1 185 1424 is_stmt 0
	sw	a4,12(sp)
	sw	a5,672(a4)
	.loc 1 185 1430 is_stmt 1
	.loc 1 185 1447 is_stmt 0
	sw	a5,1568(s2)
	.loc 1 185 1486 is_stmt 1
	.loc 1 185 1503 is_stmt 0
	li	a4,-2147479552
	sw	zero,-864(a4)
	.loc 1 185 1512 is_stmt 1
.LVL111:
	.loc 1 185 1786
	.loc 1 185 1802 is_stmt 0
	sw	zero,544(a1)
	.loc 1 185 1834 is_stmt 1
	.loc 1 185 1835
	.loc 1 185 1852 is_stmt 0
	lw	s4,256(sp)
	.loc 1 185 1915
	li	a0,1036288
	addi	a0,a0,-1889
	.loc 1 185 1852
	sw	s4,-736(s1)
	.loc 1 185 1898 is_stmt 1
	.loc 1 185 1915 is_stmt 0
	sw	a0,0(s6)
.LBE114:
.LBB115:
	.loc 1 185 1951 is_stmt 1
.LVL112:
	.loc 1 185 2086
	.loc 1 185 2103 is_stmt 0
	lw	s4,116(sp)
	.loc 1 185 2255
	li	a0,4096
.LBE115:
.LBB116:
	.loc 1 185 1852
	addi	s1,s1,-736
.LBE116:
.LBB117:
	.loc 1 185 2103
	sw	s4,1696(t0)
.LVL113:
	.loc 1 185 2125 is_stmt 1
	.loc 1 185 2142 is_stmt 0
	sw	s10,52(sp)
	sw	s10,1824(t6)
	.loc 1 185 2148 is_stmt 1
	.loc 1 185 2165 is_stmt 0
	lw	s4,92(sp)
	sw	s4,1952(t5)
	.loc 1 185 2199 is_stmt 1
	.loc 1 185 2216 is_stmt 0
	sw	zero,-1120(t4)
	.loc 1 185 2238 is_stmt 1
	.loc 1 185 2255 is_stmt 0
	sw	a0,-2016(t3)
	.loc 1 185 2267 is_stmt 1
	.loc 1 185 2284 is_stmt 0
	lw	a0,56(sp)
	sw	a0,-1888(t1)
	.loc 1 185 2290 is_stmt 1
	.loc 1 185 2307 is_stmt 0
	lw	s4,120(sp)
	sw	t2,36(sp)
	.loc 1 185 2375
	li	a0,256
	.loc 1 185 2307
	sw	s4,0(t2)
	.loc 1 185 2330 is_stmt 1
	.loc 1 185 2347 is_stmt 0
	sw	zero,-992(a7)
	.loc 1 185 2359 is_stmt 1
	.loc 1 185 2375 is_stmt 0
	sw	s3,40(sp)
	sw	a0,0(s3)
	.loc 1 185 2386 is_stmt 1
	.loc 1 185 2402 is_stmt 0
	lw	a0,12(sp)
	.loc 1 185 2537
	li	t2,8
	.loc 1 185 2657
	li	s4,1
	.loc 1 185 2402
	sw	a5,672(a0)
	.loc 1 185 2408 is_stmt 1
	.loc 1 185 2425 is_stmt 0
	li	a0,65536
	addi	a0,a0,-1
	sw	a0,1568(s2)
	.loc 1 185 2446 is_stmt 1
	.loc 1 185 2463 is_stmt 0
	sw	zero,-864(a4)
	.loc 1 185 2474 is_stmt 1
	.loc 1 185 2490 is_stmt 0
	lw	a0,84(sp)
	sw	a6,928(a0)
	.loc 1 185 2521 is_stmt 1
	.loc 1 185 2537 is_stmt 0
	lw	s10,80(sp)
	.loc 1 185 2563
	li	a0,15
	.loc 1 185 2537
	sw	t2,800(s10)
	.loc 1 185 2546 is_stmt 1
	.loc 1 185 2563 is_stmt 0
	lw	t2,88(sp)
.LBE117:
	.loc 1 185 2851
	li	s10,-2147483648
.LBB118:
	.loc 1 185 2563
	sw	a0,1440(t2)
	.loc 1 185 2567 is_stmt 1
	.loc 1 185 2584 is_stmt 0
	sw	zero,-1248(a2)
	.loc 1 185 2587 is_stmt 1
	.loc 1 185 2603 is_stmt 0
	sw	a3,96(sp)
	sw	a5,416(a3)
	.loc 1 185 2641 is_stmt 1
	.loc 1 185 2657 is_stmt 0
	lw	s3,68(sp)
	.loc 1 185 2799
	li	t2,1032192
	addi	t2,t2,1181
	.loc 1 185 2657
	sw	s4,288(s3)
	.loc 1 185 2666 is_stmt 1
	.loc 1 185 2683 is_stmt 0
	lw	s4,72(sp)
.LBE118:
	.loc 1 185 0
	li	s3,393216
	addi	s3,s3,17
.LBB119:
	.loc 1 185 2683
	sw	a0,1312(s4)
	.loc 1 185 2687 is_stmt 1
	.loc 1 185 2704 is_stmt 0
	lw	a0,76(sp)
.LBE119:
.LBB120:
	.loc 1 185 3758
	li	s4,1036288
	addi	s4,s4,159
.LBE120:
.LBB121:
	.loc 1 185 2704
	sw	zero,-1376(a0)
	.loc 1 185 2707 is_stmt 1
	.loc 1 185 2723 is_stmt 0
	sw	zero,544(a1)
	.loc 1 185 2782 is_stmt 1
.LBE121:
	.loc 1 185 2851 is_stmt 0
	li	a0,65536
.LBB122:
	.loc 1 185 2799
	sw	t2,0(s6)
.LBE122:
	.loc 1 185 2834 is_stmt 1
	.loc 1 185 2835
	.loc 1 185 2851 is_stmt 0
	addi	a0,a0,17
	sw	a0,20(s10)
.LBB123:
	.loc 1 185 2939 is_stmt 1
.LVL114:
	.loc 1 185 3082
	.loc 1 185 3102 is_stmt 0
	lw	a0,36(s9)
	.loc 1 185 3758
	sw	s4,128(sp)
.LBE123:
.LBB124:
	.loc 1 185 0
	li	s4,1036288
.LBE124:
.LBB125:
	.loc 1 185 3116
	mul	a0,a0,a0
.LBE125:
.LBB126:
	.loc 1 185 0
	addi	s4,s4,-1891
.LBE126:
.LBB127:
	.loc 1 185 3099
	sw	a0,1696(t0)
.LVL115:
	.loc 1 185 3136 is_stmt 1
	.loc 1 185 3153 is_stmt 0
	lw	a0,144(sp)
	sw	a0,1824(t6)
	.loc 1 185 3159 is_stmt 1
	.loc 1 185 3191 is_stmt 0
	lw	a3,60(sp)
	lw	a0,32(s9)
	.loc 1 185 3199
	lw	t2,36(s9)
	.loc 1 185 3191
	sub	a0,a0,a3
.LBE127:
.LBB128:
	.loc 1 185 1424
	lw	a3,12(sp)
.LBE128:
.LBB129:
	.loc 1 185 3213
	mul	t2,t2,t2
.LBE129:
.LBB130:
	.loc 1 185 1424
	addi	a3,a3,672
	sw	a3,12(sp)
	.loc 1 185 613
	lw	a3,68(sp)
	addi	a3,a3,288
	sw	a3,68(sp)
	.loc 1 185 700
	lw	a3,96(sp)
.LBE130:
.LBB131:
	.loc 1 185 3196
	mul	a0,a0,t2
.LBE131:
.LBB132:
	.loc 1 185 700
	addi	a3,a3,416
	sw	a3,96(sp)
	.loc 1 185 723
	lw	a3,72(sp)
	addi	a3,a3,1312
	sw	a3,72(sp)
	.loc 1 185 836
	lw	a3,76(sp)
.LBE132:
.LBB133:
	.loc 1 185 3228
	addi	a0,a0,-1
.LBE133:
.LBB134:
	.loc 1 185 1852
	sw	s1,124(sp)
	.loc 1 185 836
	addi	a3,a3,-1376
	sw	a3,76(sp)
	.loc 1 185 923
	lw	a3,80(sp)
	addi	t2,a3,800
	.loc 1 185 996
	lw	a3,84(sp)
	.loc 1 185 923
	sw	t2,80(sp)
	.loc 1 185 996
	addi	t2,a3,928
	.loc 1 185 1019
	lw	a3,88(sp)
	.loc 1 185 996
	sw	t2,84(sp)
	.loc 1 185 1019
	addi	t2,a3,1440
	sw	t2,88(sp)
.LBE134:
.LBB135:
	.loc 1 185 3176
	sw	a0,1952(t5)
	.loc 1 185 3231 is_stmt 1
	.loc 1 185 3255 is_stmt 0
	lw	a0,36(s9)
	.loc 1 185 3252
	lw	a3,60(sp)
	.loc 1 185 3269
	mul	a0,a0,a0
	.loc 1 185 3252
	mul	a0,a0,a3
	.loc 1 185 3248
	sw	a0,-1120(t4)
	.loc 1 185 3285 is_stmt 1
	.loc 1 185 3320 is_stmt 0
	lw	a0,36(s9)
	.loc 1 185 3302
	sw	a0,-2016(t3)
	.loc 1 185 3325 is_stmt 1
	.loc 1 185 3342 is_stmt 0
	lw	a0,176(sp)
	sw	a0,-1888(t1)
	.loc 1 185 3348 is_stmt 1
	.loc 1 185 3380 is_stmt 0
	lw	s1,24(sp)
	.loc 1 185 3371
	lw	t2,36(s9)
	.loc 1 185 3380
	sub	a0,t2,s1
	.loc 1 185 3385
	mul	a0,a0,t2
	.loc 1 185 3365
	lw	t2,36(sp)
	.loc 1 185 3403
	addi	a0,a0,-1
	.loc 1 185 3365
	sw	a0,0(t2)
	.loc 1 185 3406 is_stmt 1
	.loc 1 185 3427 is_stmt 0
	lw	a0,36(s9)
	.loc 1 185 3462
	li	t2,1
	.loc 1 185 3427
	mul	a0,s1,a0
	.loc 1 185 3423
	sw	a0,-992(a7)
	.loc 1 185 3446 is_stmt 1
	.loc 1 185 3462 is_stmt 0
	lw	a0,40(sp)
	sw	t2,0(a0)
	.loc 1 185 3473 is_stmt 1
	.loc 1 185 3489 is_stmt 0
	lw	a0,12(sp)
	sw	a5,0(a0)
	.loc 1 185 3495 is_stmt 1
	.loc 1 185 3527 is_stmt 0
	lw	a0,36(s9)
	addi	a0,a0,-1
	.loc 1 185 3529
	sub	a0,a0,s8
	.loc 1 185 3512
	sw	a0,1568(s2)
	.loc 1 185 3535 is_stmt 1
	.loc 1 185 3552 is_stmt 0
	sw	s8,-864(a4)
	.loc 1 185 3561 is_stmt 1
	.loc 1 185 3576 is_stmt 0
	lw	t2,36(s9)
.LVL116:
	.loc 1 185 3638 is_stmt 1
	.loc 1 185 3590 is_stmt 0
	mul	a0,t2,t2
	.loc 1 185 3609
	mul	t2,t2,s1
.LVL117:
	.loc 1 185 3659
	lw	s1,20(s9)
.LVL118:
	.loc 1 185 3573
	mul	a0,a0,a3
	.loc 1 185 3605
	add	a0,a0,t2
	.loc 1 185 3565
	add	a0,a0,s8
.LVL119:
	.loc 1 185 3659
	add	a0,a0,s1
.LVL120:
	.loc 1 185 3654
	sw	a0,544(a1)
	.loc 1 185 3691 is_stmt 1
	.loc 1 185 3692
	.loc 1 185 3709 is_stmt 0
	lw	a0,124(sp)
	lw	s1,220(sp)
	sw	s1,0(a0)
	.loc 1 185 3741 is_stmt 1
	.loc 1 185 3758 is_stmt 0
	lw	a3,128(sp)
	sw	a3,0(s6)
.LBE135:
.LBB136:
	.loc 1 185 3794 is_stmt 1
.LVL121:
	.loc 1 185 4020
	.loc 1 185 4036 is_stmt 0
	lw	a3,68(sp)
	lw	s1,184(sp)
	sw	s1,0(a3)
.LVL122:
	.loc 1 185 0 is_stmt 1
	lw	a3,96(sp)
	lw	a0,52(sp)
	sw	a0,0(a3)
	.loc 1 185 0
	lw	a3,72(sp)
	lw	s1,200(sp)
	sw	s1,0(a3)
	.loc 1 185 0
	lw	s1,76(sp)
	sw	zero,0(s1)
	.loc 1 185 0
	lw	a3,80(sp)
	lw	s1,192(sp)
	sw	s1,0(a3)
	.loc 1 185 0
	lw	s1,84(sp)
	li	a3,8
	sw	a5,0(s1)
	.loc 1 185 0
	lw	t2,88(sp)
	lw	s1,196(sp)
	sw	s1,0(t2)
	.loc 1 185 0
	sw	zero,-1248(a2)
	.loc 1 185 0
	lw	a2,204(sp)
	sw	a2,1696(t0)
	.loc 1 185 0
	sw	a6,1824(t6)
	.loc 1 185 0
	lw	a2,208(sp)
	sw	a2,1952(t5)
	.loc 1 185 0
	sw	zero,-1120(t4)
	.loc 1 185 0
	sw	a3,-2016(t3)
	.loc 1 185 0
	lw	a3,56(sp)
	sw	a3,-1888(t1)
	.loc 1 185 0
	lw	t2,36(sp)
	lw	a3,212(sp)
	sw	a3,0(t2)
	.loc 1 185 0
	sw	zero,-992(a7)
	.loc 1 185 0
	lw	a0,40(sp)
	li	t2,1
	sw	t2,0(a0)
	.loc 1 185 0
	lw	a3,12(sp)
	sw	a5,0(a3)
	.loc 1 185 0
	sw	a5,1568(s2)
	.loc 1 185 0
	sw	zero,-864(a4)
	.loc 1 185 0
.LVL123:
	.loc 1 185 0
	sw	zero,544(a1)
	.loc 1 185 0
	.loc 1 185 0
	sw	s4,0(s6)
.LBE136:
	.loc 1 185 0
	.loc 1 185 0
	sw	s3,20(s10)
.LVL124:
.L39:
	.loc 1 149 59 discriminator 2
	.loc 1 149 49 is_stmt 0 discriminator 2
	lw	a4,64(sp)
	.loc 1 149 62 discriminator 2
	lw	a3,48(sp)
	.loc 1 149 38 discriminator 1
	lw	a5,36(s9)
	.loc 1 149 49 discriminator 2
	add	s8,s8,a4
.LVL125:
	.loc 1 149 62 discriminator 2
	lw	a4,136(sp)
	add	a3,a3,a4
	sw	a3,48(sp)
.LVL126:
	.loc 1 149 33 is_stmt 1 discriminator 1
	lw	a3,44(sp)
.LVL127:
	sub	a4,a3,a4
	sw	a4,44(sp)
	bgt	a5,s8,.L42
	lw	s6,324(sp)
	lw	s10,328(sp)
	lw	s4,332(sp)
	.loc 1 148 56 discriminator 2
	.loc 1 148 30 discriminator 1
	mv	s8,s11
.LVL128:
	ble	a5,s6,.L83
	lw	a2,112(sp)
	lw	a4,304(sp)
	.loc 1 149 25 is_stmt 0
	lw	a3,56(s9)
.LVL129:
	add	s6,s6,s10
.LVL130:
	sub	a2,a2,a4
	sw	a2,112(sp)
	lw	a2,100(sp)
	neg	a0,a3
	.loc 1 149 20
	sw	a0,48(sp)
.LVL131:
	add	a4,a2,a4
	sw	a4,100(sp)
	sub	a4,s6,s10
	sw	a4,24(sp)
.LVL132:
	.loc 1 149 10 is_stmt 1
	.loc 1 149 33 discriminator 1
	bgt	a5,zero,.L84
.LVL133:
.L26:
	.loc 1 148 46 is_stmt 0 discriminator 2
	mv	s4,s5
	mv	s5,s7
.LVL134:
	mv	s7,s8
.LVL135:
	mv	s8,s6
	mv	s3,s9
	lw	s6,296(sp)
	.loc 1 148 56 is_stmt 1 discriminator 2
.LVL136:
	.loc 1 148 30 discriminator 1
	bge	s8,a5,.L25
.LVL137:
.L44:
	.loc 1 149 10
	.loc 1 149 33 discriminator 1
	.loc 1 148 56 discriminator 2
	.loc 1 148 46 is_stmt 0 discriminator 2
	add	s8,s8,s10
.LVL138:
	.loc 1 148 30 is_stmt 1 discriminator 1
	bgt	a5,s8,.L44
.LVL139:
	.loc 1 142 17 discriminator 1
	lw	a5,252(sp)
	lw	a4,268(sp)
	blt	a5,a4,.L46
.LVL140:
.L13:
	.loc 1 191 1 is_stmt 0
	lw	ra,396(sp)
	.cfi_remember_state
	.cfi_restore 1
	lw	s0,392(sp)
	.cfi_restore 8
	lw	s1,388(sp)
	.cfi_restore 9
	lw	s2,384(sp)
	.cfi_restore 18
	lw	s3,380(sp)
	.cfi_restore 19
	lw	s4,376(sp)
	.cfi_restore 20
	lw	s5,372(sp)
	.cfi_restore 21
	lw	s6,368(sp)
	.cfi_restore 22
	lw	s7,364(sp)
	.cfi_restore 23
	lw	s8,360(sp)
	.cfi_restore 24
	lw	s9,356(sp)
	.cfi_restore 25
	lw	s10,352(sp)
	.cfi_restore 26
	lw	s11,348(sp)
	.cfi_restore 27
	addi	sp,sp,400
	.cfi_def_cfa_offset 0
	jr	ra
.LVL141:
.L82:
	.cfi_restore_state
	.loc 1 175 16 is_stmt 1
.LBB137:
	.loc 1 176 180 is_stmt 0
	lw	a5,36(s9)
	lw	a7,32(s9)
	.loc 1 176 163
	li	t5,-2147483648
.LBE137:
	.loc 1 175 18
	lw	a4,188(sp)
.LBB138:
	.loc 1 176 180
	mul	a5,a5,a7
	.loc 1 176 217
	li	t6,-2147483648
.LBE138:
	.loc 1 175 18
	li	a0,16
.LBB139:
	.loc 1 176 1431
	addi	a6,s5,-1
.LBE139:
.LBB140:
	.loc 1 176 163
	sw	a5,1696(t5)
	.loc 1 176 200 is_stmt 1
	.loc 1 176 217 is_stmt 0
	lw	a5,176(sp)
	sw	a5,1824(t6)
	.loc 1 176 223 is_stmt 1
	.loc 1 176 246 is_stmt 0
	lw	a5,36(s9)
.LBE140:
	.loc 1 175 18
	beq	a4,a0,.L85
.LBB141:
	.loc 1 178 3 is_stmt 1
.LVL142:
	.loc 1 178 146
	.loc 1 178 255 is_stmt 0
	lw	a4,24(sp)
	.loc 1 178 277
	lw	a0,32(s9)
	.loc 1 178 240
	li	t0,-2147483648
	.loc 1 178 255
	sub	a7,a5,a4
	.loc 1 178 277
	mul	a5,a5,a0
	.loc 1 178 784
	li	a3,-2147479552
	.loc 1 178 833
	li	a2,1036288
	.loc 1 178 784
	addi	a3,a3,-736
	.loc 1 178 833
	addi	a2,a2,159
.LBE141:
.LBB142:
	.loc 1 178 1198
	li	s4,-2147483648
	.loc 1 178 1221
	li	s10,-2147483648
	.loc 1 178 1198
	addi	s4,s4,928
	.loc 1 178 1221
	addi	s10,s10,1440
.LBE142:
.LBB143:
	.loc 1 178 312
	li	t2,-2147479552
	.loc 1 178 260
	mul	a5,a5,a7
	.loc 1 178 366
	li	a0,-2147479552
	.loc 1 178 406
	li	t3,-2147479552
	.loc 1 178 487
	li	t4,-2147479552
	.loc 1 178 526
	li	s3,1
	.loc 1 178 553
	li	s1,-2147483648
	.loc 1 178 576
	li	s2,-2147483648
	.loc 1 178 616
	li	t1,-2147479552
	.loc 1 178 718
	li	a1,-2147483648
	.loc 1 178 292
	addi	a5,a5,-1
	.loc 1 178 240
	sw	a5,1952(t0)
.LVL143:
	.loc 1 178 295 is_stmt 1
	.loc 1 178 333 is_stmt 0
	lw	a7,32(s9)
	lw	a5,36(s9)
	.loc 1 178 784
	sw	a3,12(sp)
	.loc 1 178 833
	sw	a2,68(sp)
	.loc 1 178 333
	mul	a5,a5,a7
.LBE143:
.LBB144:
	.loc 1 178 1261
	li	a3,-2147479552
	.loc 1 178 1170
	li	a7,-2147483648
	.loc 1 178 1406
	li	a2,-2147483648
	.loc 1 178 1170
	addi	a7,a7,800
	.loc 1 178 1261
	addi	a3,a3,-1248
	.loc 1 178 1406
	addi	a2,a2,416
	.loc 1 178 1170
	sw	a7,72(sp)
	.loc 1 178 1198
	sw	s4,76(sp)
.LBE144:
.LBB145:
	.loc 1 178 316
	sw	a4,24(sp)
	mul	a5,a5,a4
.LBE145:
.LBB146:
	.loc 1 178 1221
	sw	s10,80(sp)
	.loc 1 178 1261
	sw	a3,84(sp)
	.loc 1 178 1406
	sw	a2,88(sp)
	.loc 1 178 1453
	li	a7,-2147483648
	addi	a7,a7,288
	.loc 1 178 1479
	li	a3,-2147483648
	li	s10,15
	.loc 1 178 1715
	li	a2,1032192
	addi	a2,a2,157
.LBE146:
.LBB147:
	.loc 1 178 312
	sw	a5,-1120(t2)
	.loc 1 178 349 is_stmt 1
	.loc 1 178 384 is_stmt 0
	lw	a5,32(s9)
.LBE147:
.LBB148:
	.loc 1 178 1453
	sw	a7,96(sp)
	.loc 1 178 1500
	li	a7,-2147479552
.LBE148:
.LBB149:
	.loc 1 178 366
	sw	a5,-2016(a0)
	.loc 1 178 389 is_stmt 1
	.loc 1 178 406 is_stmt 0
	li	a5,7
	sw	a5,-1888(t3)
	.loc 1 178 412 is_stmt 1
	.loc 1 178 444 is_stmt 0
	lw	a5,36(s9)
	.loc 1 178 449
	lw	a4,32(s9)
.LVL144:
	.loc 1 178 429
	lw	s4,36(sp)
	.loc 1 178 444
	sub	a5,a5,s8
	.loc 1 178 449
	mul	a5,a5,a4
.LBE149:
.LBB150:
	.loc 1 178 1479
	addi	a4,a3,1312
	sw	a4,124(sp)
.LBE150:
	.loc 1 178 1767
	li	a3,65536
	li	a4,-2147483648
	addi	a3,a3,1
.LBB151:
	.loc 1 178 467
	addi	a5,a5,-1
	.loc 1 178 429
	sw	a5,0(s4)
	.loc 1 178 470 is_stmt 1
	.loc 1 178 491 is_stmt 0
	lw	a5,32(s9)
	mul	a5,s8,a5
	.loc 1 178 487
	sw	a5,-992(t4)
	.loc 1 178 510 is_stmt 1
	.loc 1 178 526 is_stmt 0
	lw	a5,40(sp)
	sw	s3,0(a5)
	.loc 1 178 537 is_stmt 1
	.loc 1 178 553 is_stmt 0
	lw	a5,144(sp)
	sw	a5,672(s1)
	.loc 1 178 559 is_stmt 1
	.loc 1 178 591 is_stmt 0
	lw	a5,32(s9)
	.loc 1 178 593
	lw	s4,60(sp)
	.loc 1 178 591
	addi	a5,a5,-1
	.loc 1 178 593
	sub	a5,a5,s4
	.loc 1 178 576
	sw	a5,1568(s2)
	.loc 1 178 599 is_stmt 1
	.loc 1 178 616 is_stmt 0
	sw	s4,60(sp)
	sw	s4,-864(t1)
	.loc 1 178 625 is_stmt 1
	.loc 1 178 659 is_stmt 0
	lw	a5,32(s9)
.LVL145:
	.loc 1 178 702 is_stmt 1
	.loc 1 178 654 is_stmt 0
	lw	s3,36(s9)
	.loc 1 178 673
	mul	s4,a5,s8
	.loc 1 178 654
	mul	a5,a5,s3
.LVL146:
	.loc 1 178 637
	lw	s3,24(sp)
	mul	a5,a5,s3
	.loc 1 178 723
	lw	s3,24(s9)
	.loc 1 178 669
	add	a5,a5,s4
	.loc 1 178 629
	lw	s4,60(sp)
	add	a5,a5,s4
	.loc 1 178 723
	add	a5,a5,s3
	.loc 1 178 718
	sw	a5,544(a1)
.LVL147:
	.loc 1 178 766 is_stmt 1
	.loc 1 178 767
	.loc 1 178 784 is_stmt 0
	lw	s3,12(sp)
	lw	a5,220(sp)
	sw	a5,0(s3)
	.loc 1 178 816 is_stmt 1
	.loc 1 178 833 is_stmt 0
	lw	s3,68(sp)
.LBE151:
.LBB152:
	.loc 1 178 1170
	li	a5,4096
.LBE152:
.LBB153:
	.loc 1 178 833
	sw	s3,0(s6)
.LBE153:
.LBB154:
	.loc 1 178 869 is_stmt 1
.LVL148:
	.loc 1 178 1002
	.loc 1 178 1019 is_stmt 0
	lw	s3,116(sp)
	sw	s3,-2016(a0)
.LVL149:
	.loc 1 178 1041 is_stmt 1
	.loc 1 178 1058 is_stmt 0
	lw	a0,52(sp)
	.loc 1 178 1573
	li	s3,1
	.loc 1 178 1058
	sw	a0,-1888(t3)
	.loc 1 178 1064 is_stmt 1
	.loc 1 178 1081 is_stmt 0
	lw	s4,36(sp)
	lw	a0,92(sp)
	sw	a0,0(s4)
	.loc 1 178 1115 is_stmt 1
	.loc 1 178 1132 is_stmt 0
	sw	zero,-992(t4)
	.loc 1 178 1154 is_stmt 1
	.loc 1 178 1170 is_stmt 0
	lw	t3,72(sp)
	.loc 1 178 1318
	li	a0,7
	.loc 1 178 1170
	sw	a5,0(t3)
	.loc 1 178 1182 is_stmt 1
	.loc 1 178 1198 is_stmt 0
	lw	t4,56(sp)
	lw	s4,76(sp)
	.loc 1 178 1290
	li	a5,256
	.loc 1 178 1198
	sw	t4,0(s4)
	.loc 1 178 1204 is_stmt 1
	.loc 1 178 1221 is_stmt 0
	lw	t3,80(sp)
	lw	t4,120(sp)
	sw	t4,0(t3)
	.loc 1 178 1244 is_stmt 1
	.loc 1 178 1261 is_stmt 0
	lw	t3,84(sp)
	sw	zero,0(t3)
	.loc 1 178 1273 is_stmt 1
	.loc 1 178 1290 is_stmt 0
	sw	a5,1696(t5)
	.loc 1 178 1301 is_stmt 1
	.loc 1 178 1341 is_stmt 0
	li	a5,65536
	addi	a5,a5,-1
	.loc 1 178 1318
	sw	a0,1824(t6)
	.loc 1 178 1324 is_stmt 1
	.loc 1 178 1341 is_stmt 0
	sw	a5,1952(t0)
	.loc 1 178 1362 is_stmt 1
	.loc 1 178 1379 is_stmt 0
	sw	zero,-1120(t2)
	.loc 1 178 1390 is_stmt 1
	.loc 1 178 1406 is_stmt 0
	lw	t3,88(sp)
	.loc 1 178 1453
	li	a5,8
	.loc 1 178 1406
	sw	a6,0(t3)
	.loc 1 178 1437 is_stmt 1
	.loc 1 178 1453 is_stmt 0
	lw	t3,96(sp)
	sw	a5,0(t3)
	.loc 1 178 1462 is_stmt 1
	.loc 1 178 1479 is_stmt 0
	lw	t3,124(sp)
	sw	s10,0(t3)
	.loc 1 178 1483 is_stmt 1
	.loc 1 178 1500 is_stmt 0
	sw	zero,-1376(a7)
	.loc 1 178 1503 is_stmt 1
	.loc 1 178 1519 is_stmt 0
	sw	a0,672(s1)
	.loc 1 178 1557 is_stmt 1
	.loc 1 178 1573 is_stmt 0
	lw	a5,40(sp)
	sw	s3,0(a5)
	.loc 1 178 1582 is_stmt 1
	.loc 1 178 1599 is_stmt 0
	sw	s10,1568(s2)
	.loc 1 178 1603 is_stmt 1
	.loc 1 178 1620 is_stmt 0
	sw	zero,-864(t1)
	.loc 1 178 1623 is_stmt 1
	.loc 1 178 1639 is_stmt 0
	sw	zero,544(a1)
	.loc 1 178 1698 is_stmt 1
	.loc 1 178 1715 is_stmt 0
	sw	a2,0(s6)
.LBE154:
	.loc 1 178 1750 is_stmt 1
	.loc 1 178 1751
	.loc 1 178 1767 is_stmt 0
	sw	a3,20(a4)
	.loc 1 181 13 is_stmt 1
	.loc 1 181 15 is_stmt 0
	lw	a5,92(s9)
	andi	a5,a5,-3
	beq	a5,zero,.L40
	j	.L39
.LVL150:
.L85:
.LBB155:
	.loc 1 176 3 is_stmt 1
	.loc 1 176 146
	.loc 1 176 255 is_stmt 0
	lw	s10,24(sp)
	.loc 1 176 277
	lw	a0,32(s9)
	.loc 1 176 240
	li	t0,-2147483648
	.loc 1 176 255
	sub	a7,a5,s10
	.loc 1 176 277
	mul	a5,a5,a0
	.loc 1 176 784
	li	a3,-2147479552
	addi	a3,a3,-736
.LBE155:
.LBB156:
	.loc 1 176 1168
	li	a2,-2147483648
	.loc 1 176 1196
	li	s3,-2147483648
	.loc 1 176 1219
	li	s4,-2147483648
	.loc 1 176 1168
	addi	a2,a2,800
	.loc 1 176 1196
	addi	s3,s3,928
	.loc 1 176 1219
	addi	s4,s4,1440
.LBE156:
.LBB157:
	.loc 1 176 312
	li	t2,-2147479552
	.loc 1 176 260
	mul	a5,a5,a7
	.loc 1 176 366
	li	a0,-2147479552
	.loc 1 176 406
	li	s2,15
	li	t3,-2147479552
	.loc 1 176 487
	li	t4,-2147479552
	.loc 1 176 553
	li	s1,-2147483648
	.loc 1 176 576
	li	a7,-2147483648
	.loc 1 176 616
	li	t1,-2147479552
	.loc 1 176 718
	li	a1,-2147483648
	.loc 1 176 292
	addi	a5,a5,-1
	.loc 1 176 240
	sw	a5,1952(t0)
.LVL151:
	.loc 1 176 295 is_stmt 1
	.loc 1 176 333 is_stmt 0
	lw	a4,32(s9)
	lw	a5,36(s9)
	.loc 1 176 784
	sw	a3,12(sp)
.LBE157:
.LBB158:
	.loc 1 176 1404
	li	a3,-2147483648
.LBE158:
.LBB159:
	.loc 1 176 333
	mul	a5,a5,a4
	.loc 1 176 833
	li	a4,1036288
	addi	a4,a4,159
	sw	a4,68(sp)
.LBE159:
.LBB160:
	.loc 1 176 1259
	li	a4,-2147479552
	addi	a4,a4,-1248
	.loc 1 176 1404
	addi	a3,a3,416
	.loc 1 176 1168
	sw	a2,72(sp)
	.loc 1 176 1196
	sw	s3,76(sp)
	.loc 1 176 1219
	sw	s4,80(sp)
.LBE160:
.LBB161:
	.loc 1 176 316
	mul	a5,a5,s10
.LBE161:
.LBB162:
	.loc 1 176 1259
	sw	a4,84(sp)
	.loc 1 176 1404
	sw	a3,88(sp)
	.loc 1 176 1451
	li	a2,-2147483648
	addi	a2,a2,288
	.loc 1 176 1498
	li	a3,-2147479552
	.loc 1 176 1477
	li	s4,-2147483648
	addi	s4,s4,1312
.LBE162:
.LBB163:
	.loc 1 176 312
	sw	a5,-1120(t2)
	.loc 1 176 349 is_stmt 1
	.loc 1 176 384 is_stmt 0
	lw	a5,32(s9)
.LBE163:
.LBB164:
	.loc 1 176 1451
	sw	a2,96(sp)
	.loc 1 176 1713
	li	a2,1032192
.LBE164:
.LBB165:
	.loc 1 176 366
	sw	a5,-2016(a0)
	.loc 1 176 389 is_stmt 1
	.loc 1 176 406 is_stmt 0
	sw	s2,-1888(t3)
	.loc 1 176 412 is_stmt 1
	.loc 1 176 444 is_stmt 0
	lw	a5,36(s9)
	.loc 1 176 449
	lw	a4,32(s9)
	.loc 1 176 429
	lw	s3,36(sp)
	.loc 1 176 444
	sub	a5,a5,s8
	.loc 1 176 449
	mul	a5,a5,a4
.LBE165:
.LBB166:
	.loc 1 176 1498
	addi	a4,a3,-1376
	.loc 1 176 1477
	sw	s4,124(sp)
	.loc 1 176 1498
	sw	a4,128(sp)
.LBE166:
.LBB167:
	.loc 1 176 526
	li	s4,1
.LBE167:
.LBB168:
	.loc 1 176 1713
	addi	a2,a2,157
.LBE168:
	.loc 1 176 1765
	li	a3,65536
	li	a4,-2147483648
	addi	a3,a3,1
.LBB169:
	.loc 1 176 467
	addi	a5,a5,-1
	.loc 1 176 429
	sw	a5,0(s3)
	.loc 1 176 470 is_stmt 1
	.loc 1 176 491 is_stmt 0
	lw	a5,32(s9)
	mul	a5,s8,a5
	.loc 1 176 487
	sw	a5,-992(t4)
	.loc 1 176 510 is_stmt 1
	.loc 1 176 526 is_stmt 0
	lw	a5,40(sp)
	sw	s4,0(a5)
	.loc 1 176 537 is_stmt 1
	.loc 1 176 553 is_stmt 0
	lw	a5,144(sp)
	sw	a5,672(s1)
	.loc 1 176 559 is_stmt 1
	.loc 1 176 591 is_stmt 0
	lw	a5,32(s9)
	.loc 1 176 593
	lw	s3,60(sp)
	.loc 1 176 591
	addi	a5,a5,-1
	.loc 1 176 593
	sub	a5,a5,s3
	.loc 1 176 576
	sw	a5,1568(a7)
	.loc 1 176 599 is_stmt 1
	.loc 1 176 616 is_stmt 0
	sw	s3,60(sp)
	sw	s3,-864(t1)
	.loc 1 176 625 is_stmt 1
	.loc 1 176 659 is_stmt 0
	lw	a5,32(s9)
.LVL152:
	.loc 1 176 702 is_stmt 1
	.loc 1 176 654 is_stmt 0
	lw	s3,36(s9)
	.loc 1 176 673
	mul	s4,a5,s8
	.loc 1 176 654
	mul	a5,a5,s3
.LVL153:
	.loc 1 176 629
	lw	s3,60(sp)
	.loc 1 176 637
	mul	a5,a5,s10
	.loc 1 176 723
	lw	s10,24(s9)
.LVL154:
	.loc 1 176 669
	add	a5,a5,s4
	.loc 1 176 629
	add	a5,a5,s3
	.loc 1 176 723
	add	a5,a5,s10
	.loc 1 176 718
	sw	a5,544(a1)
	.loc 1 176 766 is_stmt 1
	.loc 1 176 767
	.loc 1 176 784 is_stmt 0
	lw	s10,12(sp)
	lw	a5,264(sp)
.LBE169:
.LBB170:
	.loc 1 176 1571
	li	s4,1
.LBE170:
.LBB171:
	.loc 1 176 784
	sw	a5,0(s10)
	.loc 1 176 816 is_stmt 1
	.loc 1 176 833 is_stmt 0
	lw	s10,68(sp)
.LBE171:
.LBB172:
	.loc 1 176 1168
	li	a5,4096
.LBE172:
.LBB173:
	.loc 1 176 833
	sw	s10,0(s6)
.LBE173:
.LBB174:
	.loc 1 176 869 is_stmt 1
.LVL155:
	.loc 1 176 1000
	.loc 1 176 1017 is_stmt 0
	lw	s10,116(sp)
	sw	s10,-2016(a0)
.LVL156:
	.loc 1 176 1039 is_stmt 1
	.loc 1 176 1056 is_stmt 0
	lw	s10,52(sp)
	sw	s10,-1888(t3)
	.loc 1 176 1062 is_stmt 1
	.loc 1 176 1079 is_stmt 0
	lw	s3,36(sp)
	lw	t3,92(sp)
	sw	t3,0(s3)
	.loc 1 176 1113 is_stmt 1
	.loc 1 176 1130 is_stmt 0
	sw	zero,-992(t4)
	.loc 1 176 1152 is_stmt 1
	.loc 1 176 1168 is_stmt 0
	lw	a0,72(sp)
	sw	a5,0(a0)
	.loc 1 176 1180 is_stmt 1
	.loc 1 176 1196 is_stmt 0
	lw	t3,56(sp)
	lw	s3,76(sp)
	.loc 1 176 1288
	li	a5,256
	.loc 1 176 1196
	sw	t3,0(s3)
	.loc 1 176 1202 is_stmt 1
	.loc 1 176 1219 is_stmt 0
	lw	a0,80(sp)
	lw	t3,120(sp)
	sw	t3,0(a0)
	.loc 1 176 1242 is_stmt 1
	.loc 1 176 1259 is_stmt 0
	lw	a0,84(sp)
	sw	zero,0(a0)
	.loc 1 176 1271 is_stmt 1
	.loc 1 176 1288 is_stmt 0
	sw	a5,1696(t5)
	.loc 1 176 1299 is_stmt 1
	.loc 1 176 1339 is_stmt 0
	li	a5,65536
	.loc 1 176 1316
	sw	s2,1824(t6)
	.loc 1 176 1322 is_stmt 1
	.loc 1 176 1339 is_stmt 0
	addi	a5,a5,-1
	sw	a5,1952(t0)
	.loc 1 176 1360 is_stmt 1
	.loc 1 176 1377 is_stmt 0
	sw	zero,-1120(t2)
	.loc 1 176 1388 is_stmt 1
	.loc 1 176 1404 is_stmt 0
	lw	a0,88(sp)
	.loc 1 176 1451
	li	a5,8
	.loc 1 176 1404
	sw	a6,0(a0)
	.loc 1 176 1435 is_stmt 1
	.loc 1 176 1451 is_stmt 0
	lw	a0,96(sp)
	sw	a5,0(a0)
	.loc 1 176 1460 is_stmt 1
	.loc 1 176 1477 is_stmt 0
	lw	a0,124(sp)
	.loc 1 176 1517
	li	a5,7
	.loc 1 176 1477
	sw	s2,0(a0)
	.loc 1 176 1481 is_stmt 1
	.loc 1 176 1498 is_stmt 0
	lw	a0,128(sp)
	sw	zero,0(a0)
	.loc 1 176 1501 is_stmt 1
	.loc 1 176 1517 is_stmt 0
	sw	a5,672(s1)
	.loc 1 176 1555 is_stmt 1
	.loc 1 176 1571 is_stmt 0
	lw	a5,40(sp)
	sw	s4,0(a5)
	.loc 1 176 1580 is_stmt 1
	.loc 1 176 1597 is_stmt 0
	sw	s2,1568(a7)
	.loc 1 176 1601 is_stmt 1
	.loc 1 176 1618 is_stmt 0
	sw	zero,-864(t1)
	.loc 1 176 1621 is_stmt 1
	.loc 1 176 1637 is_stmt 0
	sw	zero,544(a1)
	.loc 1 176 1696 is_stmt 1
	.loc 1 176 1713 is_stmt 0
	sw	a2,0(s6)
.LBE174:
	.loc 1 176 1748 is_stmt 1
	.loc 1 176 1749
	.loc 1 176 1765 is_stmt 0
	sw	a3,20(a4)
	.loc 1 181 13 is_stmt 1
	.loc 1 181 15 is_stmt 0
	lw	a5,92(s9)
	andi	a5,a5,-3
	bne	a5,zero,.L39
.LVL157:
.L38:
.LBB175:
	.loc 1 183 3 is_stmt 1
	.loc 1 183 244
	.loc 1 183 261 is_stmt 0
	lw	a5,224(sp)
	li	t1,-2147483648
	.loc 1 183 360
	li	a7,-2147483648
	.loc 1 183 261
	sw	a5,1696(t1)
.LVL158:
	.loc 1 183 343 is_stmt 1
	.loc 1 183 360 is_stmt 0
	lw	s10,52(sp)
	.loc 1 183 383
	li	t4,-2147483648
	.loc 1 183 500
	li	t5,-2147479552
	.loc 1 183 360
	sw	s10,1824(a7)
	.loc 1 183 366 is_stmt 1
	.loc 1 183 383 is_stmt 0
	lw	a4,228(sp)
	.loc 1 183 598
	li	a5,-2147483648
	.loc 1 183 800
	li	a2,-2147479552
	.loc 1 183 383
	sw	a4,1952(t4)
	.loc 1 183 483 is_stmt 1
	.loc 1 183 500 is_stmt 0
	sw	zero,-1120(t5)
	.loc 1 183 582 is_stmt 1
	.loc 1 183 598 is_stmt 0
	lw	a3,232(sp)
	sw	a5,68(sp)
	.loc 1 183 675
	li	a4,-2147483648
	.loc 1 183 598
	sw	a3,32(a5)
	.loc 1 183 659 is_stmt 1
	.loc 1 183 675 is_stmt 0
	li	a5,7
	sw	a5,160(a4)
	.loc 1 183 681 is_stmt 1
	.loc 1 183 697 is_stmt 0
	lw	t3,236(sp)
	li	a3,-2147483648
	sw	a3,72(sp)
	sw	t3,1184(a3)
	.loc 1 183 783 is_stmt 1
	.loc 1 183 800 is_stmt 0
	sw	a2,76(sp)
	sw	zero,-1504(a2)
	.loc 1 183 861 is_stmt 1
	.loc 1 183 877 is_stmt 0
	lw	t6,240(sp)
	li	a1,-2147483648
	sw	a1,80(sp)
	sw	t6,288(a1)
	.loc 1 183 924 is_stmt 1
	.loc 1 183 940 is_stmt 0
	li	t3,-2147483648
	sw	t3,84(sp)
	sw	a6,416(t3)
	.loc 1 183 946 is_stmt 1
	.loc 1 183 963 is_stmt 0
	lw	t2,244(sp)
	li	t6,-2147483648
	sw	t6,88(sp)
	sw	t2,1312(t6)
	.loc 1 183 1028 is_stmt 1
	.loc 1 183 1045 is_stmt 0
	li	t0,-2147479552
	sw	t0,96(sp)
	sw	zero,-1376(t0)
	.loc 1 183 1092 is_stmt 1
	.loc 1 183 1109 is_stmt 0
	li	t6,-2147479552
	li	s1,16
	sw	s1,-2016(t6)
	.loc 1 183 1138 is_stmt 1
	.loc 1 183 1155 is_stmt 0
	lw	t2,56(sp)
	.loc 1 183 1291
	li	s4,-2147483648
	.loc 1 183 1326
	li	s1,-2147483648
	.loc 1 183 1155
	sw	t2,-1888(t0)
	.loc 1 183 1161 is_stmt 1
	.loc 1 183 1178 is_stmt 0
	lw	s3,36(sp)
	lw	s2,248(sp)
	.loc 1 183 1246
	li	t2,-2147479552
	.loc 1 183 1326
	li	t3,1
	.loc 1 183 1178
	sw	s2,0(s3)
	.loc 1 183 1229 is_stmt 1
	.loc 1 183 1291 is_stmt 0
	addi	s2,s4,800
	.loc 1 183 1246
	sw	zero,-992(t2)
	.loc 1 183 1275 is_stmt 1
	.loc 1 183 1291 is_stmt 0
	li	s4,8
	sw	s2,216(sp)
	sw	s4,0(s2)
	.loc 1 183 1310 is_stmt 1
	.loc 1 183 1326 is_stmt 0
	sw	s1,124(sp)
	sw	t3,928(s1)
	.loc 1 183 1332 is_stmt 1
	.loc 1 183 1349 is_stmt 0
	sw	a3,128(sp)
	li	a2,15
	sw	a2,1440(a3)
	.loc 1 183 1382 is_stmt 1
	.loc 1 183 1399 is_stmt 0
	li	a1,-2147479552
	sw	a1,132(sp)
	sw	zero,-1248(a1)
	.loc 1 183 1418 is_stmt 1
	.loc 1 183 1434 is_stmt 0
	lw	s4,40(sp)
	.loc 1 183 1484
	li	s2,-2147483648
	.loc 1 183 1520
	li	a3,-2147479552
	.loc 1 183 1434
	sw	t3,0(s4)
	.loc 1 183 1445 is_stmt 1
	.loc 1 183 1461 is_stmt 0
	sw	a5,672(s1)
	.loc 1 183 1467 is_stmt 1
	.loc 1 183 1484 is_stmt 0
	sw	a5,1568(s2)
	.loc 1 183 1503 is_stmt 1
	.loc 1 183 1797 is_stmt 0
	li	a1,-2147483648
	.loc 1 183 1520
	sw	zero,-864(a3)
	.loc 1 183 1529 is_stmt 1
.LVL159:
	.loc 1 183 1781
	.loc 1 183 1797 is_stmt 0
	mv	a0,a1
	sw	a0,12(sp)
	sw	zero,544(a0)
	.loc 1 183 1829 is_stmt 1
	.loc 1 183 1830
	.loc 1 183 1847 is_stmt 0
	lw	a0,280(sp)
	li	a5,-2147479552
	mv	a1,a5
	.loc 1 183 1917
	li	a5,1036288
	.loc 1 183 1847
	sw	a0,-736(a1)
	.loc 1 183 1900 is_stmt 1
	.loc 1 183 1917 is_stmt 0
	addi	a5,a5,-1889
	sw	a5,0(s6)
.LBE175:
.LBB176:
	.loc 1 183 1953 is_stmt 1
.LVL160:
	.loc 1 183 2101
	.loc 1 183 2118 is_stmt 0
	lw	a0,116(sp)
	.loc 1 183 2270
	li	a5,4096
.LBE176:
.LBB177:
	.loc 1 183 1847
	addi	a1,a1,-736
.LBE177:
.LBB178:
	.loc 1 183 2118
	sw	a0,1696(t1)
.LVL161:
	.loc 1 183 2140 is_stmt 1
	.loc 1 183 2157 is_stmt 0
	sw	s10,52(sp)
	sw	s10,1824(a7)
	.loc 1 183 2163 is_stmt 1
	.loc 1 183 2180 is_stmt 0
	lw	a0,92(sp)
	sw	a0,1952(t4)
	.loc 1 183 2214 is_stmt 1
	.loc 1 183 2231 is_stmt 0
	sw	zero,-1120(t5)
	.loc 1 183 2253 is_stmt 1
	.loc 1 183 2270 is_stmt 0
	sw	a5,-2016(t6)
	.loc 1 183 2282 is_stmt 1
	.loc 1 183 2299 is_stmt 0
	lw	s10,56(sp)
	.loc 1 183 2390
	addi	a5,a5,-2048
	.loc 1 183 2299
	sw	s10,-1888(t0)
	.loc 1 183 2305 is_stmt 1
	.loc 1 183 2322 is_stmt 0
	lw	a0,120(sp)
	sw	s3,36(sp)
	sw	a0,0(s3)
	.loc 1 183 2345 is_stmt 1
	.loc 1 183 2362 is_stmt 0
	sw	zero,-992(t2)
	.loc 1 183 2374 is_stmt 1
	.loc 1 183 2390 is_stmt 0
	lw	s3,216(sp)
	.loc 1 183 2540
	li	a0,7
	.loc 1 183 2390
	sw	a5,0(s3)
	.loc 1 183 2403 is_stmt 1
	.loc 1 183 2419 is_stmt 0
	lw	s3,124(sp)
	.loc 1 183 2442
	li	a5,4194304
	addi	a5,a5,-1
	.loc 1 183 2419
	sw	t3,928(s3)
	.loc 1 183 2425 is_stmt 1
	.loc 1 183 2442 is_stmt 0
	lw	s10,128(sp)
	sw	a5,1440(s10)
	.loc 1 183 2467 is_stmt 1
	.loc 1 183 2484 is_stmt 0
	lw	s3,132(sp)
	.loc 1 183 2513
	li	a5,256
	.loc 1 183 2484
	sw	zero,-1248(s3)
	.loc 1 183 2497 is_stmt 1
	.loc 1 183 2513 is_stmt 0
	sw	s4,40(sp)
	sw	a5,0(s4)
	.loc 1 183 2524 is_stmt 1
	.loc 1 183 2563 is_stmt 0
	li	a5,65536
	.loc 1 183 2540
	sw	a0,672(s1)
	.loc 1 183 2546 is_stmt 1
	.loc 1 183 2563 is_stmt 0
	addi	a5,a5,-1
	sw	a5,1568(s2)
	.loc 1 183 2584 is_stmt 1
	.loc 1 183 2601 is_stmt 0
	sw	zero,-864(a3)
	.loc 1 183 2612 is_stmt 1
	.loc 1 183 2628 is_stmt 0
	lw	s3,84(sp)
	.loc 1 183 2675
	li	s4,8
	.loc 1 183 2628
	sw	a6,416(s3)
	.loc 1 183 2659 is_stmt 1
	.loc 1 183 2675 is_stmt 0
	lw	s10,80(sp)
	sw	s4,288(s10)
	.loc 1 183 2684 is_stmt 1
	.loc 1 183 2701 is_stmt 0
	lw	s4,88(sp)
	sw	a2,1312(s4)
	.loc 1 183 2705 is_stmt 1
	.loc 1 183 2722 is_stmt 0
	lw	s10,96(sp)
	sw	zero,-1376(s10)
	.loc 1 183 2725 is_stmt 1
	.loc 1 183 2741 is_stmt 0
	sw	a4,180(sp)
	sw	a0,160(a4)
	.loc 1 183 2779 is_stmt 1
	.loc 1 183 2795 is_stmt 0
	lw	a5,68(sp)
.LBE178:
	.loc 1 183 3000
	li	s10,-2147483648
.LBB179:
	.loc 1 183 3907
	li	a0,1036288
.LBE179:
.LBB180:
	.loc 1 183 2795
	sw	t3,32(a5)
	.loc 1 183 2804 is_stmt 1
	.loc 1 183 2820 is_stmt 0
	lw	s3,72(sp)
	.loc 1 183 2948
	li	t3,1032192
	addi	t3,t3,1181
	.loc 1 183 2820
	sw	a2,1184(s3)
	.loc 1 183 2824 is_stmt 1
	.loc 1 183 2841 is_stmt 0
	lw	s4,76(sp)
.LBE180:
	.loc 1 183 3000
	li	a5,65536
	addi	a5,a5,17
.LBB181:
	.loc 1 183 2841
	sw	zero,-1504(s4)
	.loc 1 183 2844 is_stmt 1
	.loc 1 183 2860 is_stmt 0
	lw	a4,12(sp)
.LBE181:
.LBB182:
	.loc 1 183 3907
	addi	a0,a0,159
.LBE182:
.LBB183:
	.loc 1 183 0
	li	s4,1036288
.LBE183:
.LBB184:
	.loc 1 183 2860
	sw	zero,544(a4)
	.loc 1 183 2931 is_stmt 1
	.loc 1 183 2948 is_stmt 0
	sw	t3,0(s6)
.LBE184:
	.loc 1 183 2983 is_stmt 1
	.loc 1 183 2984
	.loc 1 183 3000 is_stmt 0
	sw	a5,20(s10)
.LBB185:
	.loc 1 183 3088 is_stmt 1
.LVL162:
	.loc 1 183 3231
	.loc 1 183 3251 is_stmt 0
	lw	a5,36(s9)
.LBE185:
.LBB186:
	.loc 1 183 0
	addi	s4,s4,-1891
.LBE186:
	li	s3,393216
.LBB187:
	.loc 1 183 3265
	mul	a5,a5,a5
.LBE187:
	.loc 1 183 0
	addi	s3,s3,17
.LBB188:
	.loc 1 183 3248
	sw	a5,1696(t1)
.LVL163:
	.loc 1 183 3285 is_stmt 1
	.loc 1 183 3302 is_stmt 0
	lw	t3,144(sp)
	sw	t3,1824(a7)
	.loc 1 183 3308 is_stmt 1
	.loc 1 183 3340 is_stmt 0
	lw	a4,60(sp)
	lw	a5,32(s9)
	.loc 1 183 3348
	lw	t3,36(s9)
.LBE188:
.LBB189:
	.loc 1 183 1847
	sw	a1,260(sp)
.LBE189:
.LBB190:
	.loc 1 183 3340
	sub	a5,a5,a4
.LBE190:
.LBB191:
	.loc 1 183 1797
	lw	a4,12(sp)
.LBE191:
.LBB192:
	.loc 1 183 3362
	mul	t3,t3,t3
.LBE192:
.LBB193:
	.loc 1 183 1797
	addi	a4,a4,544
	sw	a4,12(sp)
	.loc 1 183 598
	lw	a4,68(sp)
	addi	a4,a4,32
	sw	a4,68(sp)
	.loc 1 183 675
	lw	a4,180(sp)
.LBE193:
.LBB194:
	.loc 1 183 3345
	mul	a5,a5,t3
.LBE194:
.LBB195:
	.loc 1 183 675
	addi	a4,a4,160
	sw	a4,180(sp)
	.loc 1 183 697
	lw	a4,72(sp)
	addi	a4,a4,1184
	sw	a4,72(sp)
	.loc 1 183 800
	lw	a4,76(sp)
.LBE195:
.LBB196:
	.loc 1 183 3377
	addi	a5,a5,-1
.LBE196:
.LBB197:
	.loc 1 183 800
	addi	a4,a4,-1504
	sw	a4,76(sp)
	.loc 1 183 877
	lw	a4,80(sp)
	addi	t3,a4,288
	.loc 1 183 940
	lw	a4,84(sp)
	.loc 1 183 877
	sw	t3,80(sp)
	.loc 1 183 940
	addi	t3,a4,416
	.loc 1 183 963
	lw	a4,88(sp)
	.loc 1 183 940
	sw	t3,84(sp)
	.loc 1 183 963
	addi	t3,a4,1312
	.loc 1 183 1045
	lw	a4,96(sp)
	.loc 1 183 963
	sw	t3,88(sp)
	.loc 1 183 1045
	addi	t3,a4,-1376
	.loc 1 183 1326
	lw	a4,124(sp)
	.loc 1 183 1045
	sw	t3,96(sp)
	.loc 1 183 1326
	addi	t3,a4,928
	.loc 1 183 1349
	lw	a4,128(sp)
	.loc 1 183 1326
	sw	t3,124(sp)
	.loc 1 183 1349
	addi	t3,a4,1440
	.loc 1 183 1399
	lw	a4,132(sp)
	.loc 1 183 1349
	sw	t3,128(sp)
	.loc 1 183 1399
	addi	t3,a4,-1248
	sw	t3,132(sp)
.LBE197:
.LBB198:
	.loc 1 183 3325
	sw	a5,1952(t4)
	.loc 1 183 3380 is_stmt 1
	.loc 1 183 3404 is_stmt 0
	lw	a5,36(s9)
	.loc 1 183 3401
	lw	a4,60(sp)
	.loc 1 183 3418
	mul	a5,a5,a5
	.loc 1 183 3401
	mul	a5,a5,a4
	.loc 1 183 3397
	sw	a5,-1120(t5)
	.loc 1 183 3434 is_stmt 1
	.loc 1 183 3469 is_stmt 0
	lw	a5,36(s9)
	.loc 1 183 3451
	sw	a5,-2016(t6)
	.loc 1 183 3474 is_stmt 1
	.loc 1 183 3491 is_stmt 0
	lw	a5,176(sp)
	sw	a5,-1888(t0)
	.loc 1 183 3497 is_stmt 1
	.loc 1 183 3529 is_stmt 0
	lw	a1,24(sp)
	.loc 1 183 3520
	lw	t3,36(s9)
	.loc 1 183 3529
	sub	a5,t3,a1
	.loc 1 183 3534
	mul	a5,a5,t3
	.loc 1 183 3514
	lw	t3,36(sp)
	.loc 1 183 3552
	addi	a5,a5,-1
	.loc 1 183 3514
	sw	a5,0(t3)
	.loc 1 183 3555 is_stmt 1
	.loc 1 183 3576 is_stmt 0
	lw	a5,36(s9)
	.loc 1 183 3611
	li	t3,1
	.loc 1 183 3576
	mul	a5,a1,a5
	.loc 1 183 3572
	sw	a5,-992(t2)
	.loc 1 183 3595 is_stmt 1
	.loc 1 183 3611 is_stmt 0
	lw	a5,40(sp)
	sw	t3,0(a5)
	.loc 1 183 3622 is_stmt 1
	.loc 1 183 3638 is_stmt 0
	sw	a2,672(s1)
	.loc 1 183 3644 is_stmt 1
	.loc 1 183 3676 is_stmt 0
	lw	a5,36(s9)
	addi	a5,a5,-1
	.loc 1 183 3678
	sub	a5,a5,s8
	.loc 1 183 3661
	sw	a5,1568(s2)
	.loc 1 183 3684 is_stmt 1
	.loc 1 183 3701 is_stmt 0
	sw	s8,-864(a3)
	.loc 1 183 3710 is_stmt 1
	.loc 1 183 3725 is_stmt 0
	lw	t3,36(s9)
.LVL164:
	.loc 1 183 3787 is_stmt 1
	.loc 1 183 3739 is_stmt 0
	mul	a5,t3,t3
	.loc 1 183 3758
	mul	t3,t3,a1
.LVL165:
	.loc 1 183 3722
	mul	a5,a5,a4
	.loc 1 183 3808
	lw	a4,20(s9)
.LVL166:
	.loc 1 183 3754
	add	a5,a5,t3
	.loc 1 183 3714
	add	a5,a5,s8
.LVL167:
	.loc 1 183 3808
	add	a5,a5,a4
.LVL168:
	.loc 1 183 3803
	lw	a4,12(sp)
	sw	a5,0(a4)
	.loc 1 183 3840 is_stmt 1
	.loc 1 183 3841
	.loc 1 183 3858 is_stmt 0
	lw	a5,260(sp)
	lw	a4,264(sp)
	sw	a4,0(a5)
	.loc 1 183 3890 is_stmt 1
	.loc 1 183 3907 is_stmt 0
	sw	a0,0(s6)
.LBE198:
.LBB199:
	.loc 1 183 3943 is_stmt 1
.LVL169:
	.loc 1 183 0
	lw	a0,68(sp)
	lw	a1,224(sp)
	sw	a1,0(a0)
.LVL170:
	.loc 1 183 0
	lw	a0,180(sp)
	lw	a5,52(sp)
	sw	a5,0(a0)
	.loc 1 183 0
	lw	a0,72(sp)
	lw	a1,228(sp)
	li	a5,7
	sw	a1,0(a0)
	.loc 1 183 0
	lw	a0,76(sp)
	sw	zero,0(a0)
	.loc 1 183 0
	lw	a0,80(sp)
	lw	a1,232(sp)
	sw	a1,0(a0)
	.loc 1 183 0
	lw	a0,84(sp)
	sw	a5,0(a0)
	.loc 1 183 0
	lw	a0,88(sp)
	lw	a1,236(sp)
	sw	a1,0(a0)
	.loc 1 183 0
	lw	a0,96(sp)
	sw	zero,0(a0)
	.loc 1 183 0
	lw	a4,216(sp)
	lw	a1,240(sp)
	sw	a1,0(a4)
	.loc 1 183 0
	lw	a0,124(sp)
	sw	a6,0(a0)
	.loc 1 183 0
	lw	a1,244(sp)
	lw	a0,128(sp)
	sw	a1,0(a0)
	.loc 1 183 0
	lw	t3,132(sp)
	li	a1,16
	sw	zero,0(t3)
	.loc 1 183 0
	sw	a1,1696(t1)
	.loc 1 183 0
	lw	a4,56(sp)
	li	t3,1
	sw	a4,1824(a7)
	.loc 1 183 0
	lw	a1,248(sp)
	li	a4,8
	sw	a1,1952(t4)
	.loc 1 183 0
	sw	zero,-1120(t5)
	.loc 1 183 0
	sw	a4,-2016(t6)
	.loc 1 183 0
	sw	t3,-1888(t0)
	.loc 1 183 0
	lw	a5,36(sp)
	sw	a2,0(a5)
	.loc 1 183 0
	sw	zero,-992(t2)
	.loc 1 183 0
	lw	a5,40(sp)
	sw	t3,0(a5)
	.loc 1 183 0
	li	a5,7
	sw	a5,672(s1)
	.loc 1 183 0
	sw	a5,1568(s2)
	.loc 1 183 0
	sw	zero,-864(a3)
	.loc 1 183 0
.LVL171:
	.loc 1 183 0
	lw	a4,12(sp)
	sw	zero,0(a4)
	.loc 1 183 0
	.loc 1 183 0
	sw	s4,0(s6)
.LBE199:
	.loc 1 183 0
	.loc 1 183 0
	sw	s3,20(s10)
	j	.L39
.LVL172:
.L83:
	lw	s6,296(sp)
	mv	s4,s5
	mv	s3,s9
	mv	s5,s7
.LVL173:
	mv	s7,s11
.LVL174:
.L25:
	.loc 1 142 17 discriminator 1
	lw	a5,252(sp)
	lw	a4,268(sp)
	blt	a5,a4,.L46
	j	.L13
.LVL175:
.L80:
	.loc 1 137 7
	.loc 1 137 12 is_stmt 0
	lw	a4,32(s7)
	srli	a5,a4,31
	add	a5,a5,a4
	sw	a4,268(sp)
	lw	a4,44(sp)
	srai	a5,a5,1
	add	a5,a5,a4
	addi	a5,a5,-1
	.loc 1 137 11
	rem	a4,a5,a4
	sub	a5,a5,a4
	sw	a5,252(sp)
.LVL176:
	.loc 1 138 7 is_stmt 1
	j	.L23
.LVL177:
.L77:
	.loc 1 118 30 discriminator 1
	li	a0,0
	call	ztaAbort
.LVL178:
	.loc 1 119 4
	.loc 1 119 6 is_stmt 0
	lw	a4,276(sp)
	li	a5,24
	ble	a4,a5,.L16
.L78:
	.loc 1 119 30 is_stmt 1 discriminator 1
	li	a0,0
	call	ztaAbort
.LVL179:
	.loc 1 120 4
	.loc 1 120 6 is_stmt 0
	lw	a4,48(s7)
	li	a5,2
	ble	a4,a5,.L17
.L79:
	.loc 1 120 23 is_stmt 1 discriminator 1
	li	a0,0
	call	ztaAbort
.LVL180:
	j	.L17
	.cfi_endproc
.LFE8:
	.size	convolution_3x3, .-convolution_3x3
	.align	2
	.type	convolution_1x1, @function
convolution_1x1:
.LFB9:
	.loc 1 197 47
	.cfi_startproc
.LVL181:
	.loc 1 198 4
	.loc 1 199 4
	.loc 1 200 4
	.loc 1 201 4
	.loc 1 202 4
	.loc 1 203 4
	.loc 1 204 4
	.loc 1 205 4
	.loc 1 206 4
	.loc 1 207 4
	.loc 1 208 4
	.loc 1 209 4
	.loc 1 210 4
	.loc 1 211 4
	.loc 1 212 4
	.loc 1 213 4
	.loc 1 214 4
	.loc 1 215 4
	.loc 1 216 4
	.loc 1 217 4
	.loc 1 218 4
	.loc 1 219 4
	.loc 1 220 4
	.loc 1 221 4
	.loc 1 222 4
	.loc 1 223 4
	.loc 1 224 4
	.loc 1 225 4
	.loc 1 226 4
	.loc 1 229 4
	.loc 1 197 47 is_stmt 0
	addi	sp,sp,-416
	.cfi_def_cfa_offset 416
	sw	ra,412(sp)
	.loc 1 229 13
	lw	a2,36(a0)
	.loc 1 230 13
	lw	a3,44(a0)
	.loc 1 232 10
	lw	a5,28(a0)
	.loc 1 229 9
	mul	a2,a2,a2
	.loc 1 246 17
	lw	a4,32(a0)
	.loc 1 197 47
	sw	a1,344(sp)
	.loc 1 230 9
	mul	a3,a3,a3
	.loc 1 229 9
	sw	a2,36(sp)
.LVL182:
	.loc 1 230 4 is_stmt 1
	.loc 1 232 6 is_stmt 0
	mul	a5,a5,a5
	.loc 1 230 9
	sw	a3,40(sp)
.LVL183:
	.loc 1 231 4 is_stmt 1
	.loc 1 232 4
	.loc 1 232 6 is_stmt 0
	sw	a5,272(sp)
.LVL184:
	.loc 1 233 4 is_stmt 1
	.loc 1 234 4
	.loc 1 235 4
	.loc 1 235 40 discriminator 1
	.loc 1 245 7
	.loc 1 246 7
	.loc 1 247 7
	.cfi_offset 1, -4
	.loc 1 247 9 is_stmt 0
	ble	a4,zero,.L86
	.loc 1 235 13
	li	a5,4
.LVL185:
	sw	a5,332(sp)
.LBB200:
	.loc 1 303 139
	li	a5,16384
	addi	a5,a5,-1
	sw	a5,120(sp)
	.loc 1 303 257
	li	a5,65536
	addi	a5,a5,-1
	sw	a5,336(sp)
	lui	a5,%hi(.LANCHOR0)
.LBE200:
	.loc 1 235 31
	li	t1,1
	addi	a5,a5,%lo(.LANCHOR0)
	sw	s4,392(sp)
	sw	s0,408(sp)
	sw	s1,404(sp)
	sw	s2,400(sp)
	sw	s3,396(sp)
	sw	s5,388(sp)
	sw	s6,384(sp)
	sw	s7,380(sp)
	sw	s8,376(sp)
	sw	s9,372(sp)
	sw	s10,368(sp)
	sw	s11,364(sp)
	.cfi_offset 20, -24
	.cfi_offset 8, -8
	.cfi_offset 9, -12
	.cfi_offset 18, -16
	.cfi_offset 19, -20
	.cfi_offset 21, -28
	.cfi_offset 22, -32
	.cfi_offset 23, -36
	.cfi_offset 24, -40
	.cfi_offset 25, -44
	.cfi_offset 26, -48
	.cfi_offset 27, -52
	.loc 1 246 13
	mv	a3,a4
.LVL186:
	.loc 1 245 16
	sw	zero,328(sp)
	sw	a5,132(sp)
	sw	t1,340(sp)
	mv	s4,a0
.LVL187:
.L87:
	.loc 1 249 7 is_stmt 1
	lw	a0,332(sp)
	lw	a7,340(sp)
	.loc 1 249 15 is_stmt 0
	addi	a5,a3,1
	.loc 1 250 15
	slli	a6,a0,3
	mv	a1,a0
	sw	a0,212(sp)
	.loc 1 235 50 discriminator 2
	srai	a0,a0,1
	.loc 1 249 15
	srai	a5,a5,1
	.loc 1 235 50 discriminator 2
	sw	a0,332(sp)
.LVL188:
	.loc 1 235 69 discriminator 2
	slli	a0,a7,1
	.loc 1 249 15
	addi	a5,a5,7
	.loc 1 251 9
	li	a2,1
	.loc 1 250 15
	sw	a6,16(sp)
	sw	a7,72(sp)
	.loc 1 235 69 discriminator 2
	sw	a0,340(sp)
.LVL189:
	.loc 1 249 14
	andi	a5,a5,-8
.LVL190:
	.loc 1 250 7 is_stmt 1
	.loc 1 251 7
	.loc 1 251 9 is_stmt 0
	beq	a1,a2,.L89
.LVL191:
	.loc 1 252 10 is_stmt 1
	.loc 1 252 26 is_stmt 0
	div	a5,a5,a6
.LVL192:
	.loc 1 252 17
	mul	a5,a5,a6
.LVL193:
	.loc 1 255 7 is_stmt 1
	.loc 1 256 7
	.loc 1 255 14 is_stmt 0
	slli	s0,a5,1
.LVL194:
	.loc 1 256 9
	ble	s0,a3,.L90
	mv	s0,a3
.LVL195:
.L90:
	.loc 1 258 7 is_stmt 1
	.loc 1 258 9 is_stmt 0
	bne	s0,zero,.L92
.LVL196:
.L91:
	.loc 1 245 7 is_stmt 1
	.loc 1 246 7
	.loc 1 246 13 is_stmt 0
	lw	a5,328(sp)
	sub	a3,a4,a5
.LVL197:
	.loc 1 247 7 is_stmt 1
	.loc 1 247 9 is_stmt 0
	bgt	a3,zero,.L87
.LVL198:
.L164:
	lw	s0,408(sp)
	.cfi_restore 8
	lw	s1,404(sp)
	.cfi_restore 9
	lw	s2,400(sp)
	.cfi_restore 18
	lw	s3,396(sp)
	.cfi_restore 19
	lw	s4,392(sp)
	.cfi_restore 20
	lw	s5,388(sp)
	.cfi_restore 21
	lw	s6,384(sp)
	.cfi_restore 22
	lw	s7,380(sp)
	.cfi_restore 23
	lw	s8,376(sp)
	.cfi_restore 24
	lw	s9,372(sp)
	.cfi_restore 25
	lw	s10,368(sp)
	.cfi_restore 26
	lw	s11,364(sp)
	.cfi_restore 27
.LVL199:
.L86:
	.loc 1 425 1
	lw	ra,412(sp)
	.cfi_restore 1
	addi	sp,sp,416
	.cfi_def_cfa_offset 0
	jr	ra
.LVL200:
.L89:
	.cfi_def_cfa_offset 416
	.cfi_offset 1, -4
	.cfi_offset 8, -8
	.cfi_offset 9, -12
	.cfi_offset 18, -16
	.cfi_offset 19, -20
	.cfi_offset 20, -24
	.cfi_offset 21, -28
	.cfi_offset 22, -32
	.cfi_offset 23, -36
	.cfi_offset 24, -40
	.cfi_offset 25, -44
	.cfi_offset 26, -48
	.cfi_offset 27, -52
	.loc 1 254 10 is_stmt 1
	.loc 1 255 7
	.loc 1 256 7
	.loc 1 255 14 is_stmt 0
	slli	s0,a5,1
	.loc 1 256 9
	ble	s0,a3,.L92
	mv	s0,a3
	.loc 1 258 7 is_stmt 1
.LVL201:
.L92:
	.loc 1 262 7
	.loc 1 275 13 is_stmt 0
	lw	a3,212(sp)
	lw	a2,272(sp)
	.loc 1 262 9
	li	a5,1
	.loc 1 275 13
	mul	a1,a2,a3
	.loc 1 274 11
	slli	a3,a3,3
	sw	a3,280(sp)
	.loc 1 262 9
	lw	a3,72(sp)
	beq	a3,a5,.L166
.LVL202:
	.loc 1 274 7 is_stmt 1
	.loc 1 275 7
	.loc 1 277 19 is_stmt 0
	lw	a5,36(sp)
	.loc 1 276 11
	slli	a3,a3,4
	sw	a3,60(sp)
	.loc 1 277 19
	add	a5,a5,a3
	.loc 1 277 24
	addi	a5,a5,-1
	.loc 1 277 12
	div	a3,a5,a3
	.loc 1 275 10
	slli	a2,a1,3
	.loc 1 278 9
	li	a5,8
	.loc 1 275 10
	sw	a2,276(sp)
.LVL203:
	.loc 1 276 7 is_stmt 1
	.loc 1 277 7
	.loc 1 278 7
	.loc 1 277 12 is_stmt 0
	sw	a3,116(sp)
	.loc 1 278 9
	bgt	a3,a5,.L167
.L98:
.LVL204:
	.loc 1 280 44 is_stmt 1
	.loc 1 280 13 is_stmt 0
	lw	a0,116(sp)
	lw	a6,60(sp)
.LVL205:
	.loc 1 280 44
	li	a1,840
	.loc 1 280 13
	mul	a3,a0,a6
	addi	a2,a3,7
.LVL206:
	srai	a5,a2,31
	andi	a5,a5,7
	add	a5,a5,a2
	andi	a5,a5,-8
	.loc 1 280 44
	ble	a5,a1,.L136
	sub	a3,a3,a6
.LVL207:
.L100:
	.loc 1 281 10 is_stmt 1
	.loc 1 280 13 is_stmt 0
	addi	a2,a3,7
	srai	a5,a2,31
	andi	a5,a5,7
	add	a5,a5,a2
	andi	a5,a5,-8
	mv	a2,a3
	.loc 1 281 15
	addi	a0,a0,-1
.LVL208:
	.loc 1 280 44 is_stmt 1
	sub	a3,a3,a6
	bgt	a5,a1,.L100
	.loc 1 280 13 is_stmt 0
	li	a5,16
	sw	a0,116(sp)
	mv	a3,a2
	sw	a5,8(sp)
	sw	a5,64(sp)
.LVL209:
.L99:
	.loc 1 282 7 is_stmt 1
	.loc 1 282 24 is_stmt 0
	lw	a1,36(sp)
	.loc 1 288 10
	lw	a6,16(s4)
	.loc 1 285 17
	addi	a4,a4,7
	.loc 1 282 24
	rem	a2,a1,a3
	.loc 1 288 10
	sw	a6,128(sp)
	.loc 1 289 11
	lw	a6,0(s4)
	.loc 1 285 17
	srai	a5,a4,31
	andi	a5,a5,7
	.loc 1 289 11
	sw	a6,300(sp)
	.loc 1 285 63
	lw	a6,272(sp)
	.loc 1 285 17
	add	a5,a5,a4
	.loc 1 285 48
	srai	a5,a5,3
	.loc 1 286 18
	lw	a0,40(s4)
	.loc 1 286 30
	lw	a4,48(s4)
	.loc 1 286 18
	sw	a0,320(sp)
	.loc 1 285 63
	mul	a5,a5,a6
	.loc 1 282 38
	lw	a6,60(sp)
	add	a2,a2,a6
	.loc 1 282 43
	addi	a2,a2,-1
	.loc 1 282 16
	div	a2,a2,a6
	.loc 1 285 14
	slli	s10,a5,3
	.loc 1 286 14
	div	a5,a0,a4
	.loc 1 282 16
	sw	a2,136(sp)
.LVL210:
	.loc 1 283 7 is_stmt 1
	.loc 1 285 7
	.loc 1 286 7
	.loc 1 286 14 is_stmt 0
	sw	a5,12(sp)
.LVL211:
	.loc 1 287 7 is_stmt 1
	.loc 1 288 7
	.loc 1 289 7
	.loc 1 292 7
	.loc 1 292 9 is_stmt 0
	bgt	a1,a3,.L140
	.loc 1 292 33 discriminator 1
	andi	a5,a5,1
.LVL212:
	sw	a5,52(sp)
	.loc 1 292 22 discriminator 1
	bne	a5,zero,.L138
	.loc 1 292 40 discriminator 2
	lw	a2,116(sp)
.LVL213:
	li	a5,4
	ble	a2,a5,.L168
.LVL214:
.L140:
	lw	s2,16(sp)
	.loc 1 297 15
	li	a5,1
	sw	zero,268(sp)
	sw	a5,52(sp)
.L101:
.LVL215:
	.loc 1 299 7 is_stmt 1
	.loc 1 299 9 is_stmt 0
	li	a5,2
	bgt	a4,a5,.L169
.LVL216:
.L102:
.LBB201:
	.loc 1 303 3 is_stmt 1
	.loc 1 303 70
	.loc 1 303 87 is_stmt 0
	li	a2,-2147483648
	li	s5,4096
	sw	s5,1696(a2)
.LVL217:
	.loc 1 303 99 is_stmt 1
	.loc 1 303 116 is_stmt 0
	li	t3,-2147483648
	sw	zero,1824(t3)
	.loc 1 303 122 is_stmt 1
	.loc 1 303 139 is_stmt 0
	lw	a5,120(sp)
	li	t4,-2147483648
	.loc 1 303 177
	li	t5,-2147479552
	.loc 1 303 139
	sw	a5,1952(t4)
	.loc 1 303 160 is_stmt 1
	.loc 1 303 177 is_stmt 0
	sw	zero,-1120(t5)
	.loc 1 303 189 is_stmt 1
	.loc 1 303 206 is_stmt 0
	li	a3,-2147479552
	li	a1,256
	sw	a1,-2016(a3)
	.loc 1 303 217 is_stmt 1
	.loc 1 303 234 is_stmt 0
	li	a4,-2147479552
	li	s11,15
	sw	s11,-1888(a4)
	.loc 1 303 240 is_stmt 1
	.loc 1 303 257 is_stmt 0
	lw	a0,336(sp)
	li	t6,-2147479552
	.loc 1 303 295
	li	t0,-2147479552
	.loc 1 303 257
	sw	a0,-1760(t6)
	.loc 1 303 278 is_stmt 1
	.loc 1 303 295 is_stmt 0
	sw	zero,-992(t0)
	.loc 1 303 306 is_stmt 1
	.loc 1 303 322 is_stmt 0
	li	t2,-2147483648
	sw	zero,672(t2)
	.loc 1 303 325 is_stmt 1
	.loc 1 303 341 is_stmt 0
	li	s9,1
	li	ra,-2147483648
	sw	s9,1056(ra)
	.loc 1 303 344 is_stmt 1
	.loc 1 303 361 is_stmt 0
	li	s3,-2147483648
	sw	zero,1568(s3)
	.loc 1 303 364 is_stmt 1
	.loc 1 303 381 is_stmt 0
	li	s1,-2147479552
	sw	zero,-864(s1)
	.loc 1 303 384 is_stmt 1
	.loc 1 303 400 is_stmt 0
	li	s6,-2147483648
	sw	s9,544(s6)
	.loc 1 303 426 is_stmt 1
	.loc 1 303 443 is_stmt 0
	li	a0,-2147479552
	li	s8,16
	.loc 1 303 485
	li	a1,524288
	.loc 1 303 443
	sw	s8,-736(a0)
	.loc 1 303 468 is_stmt 1
	.loc 1 303 485 is_stmt 0
	li	a5,-2147479552
	addi	a1,a1,127
	sw	a1,-1632(a5)
.LBE201:
	.loc 1 303 575 is_stmt 1
	.loc 1 303 576
	.loc 1 303 598 is_stmt 0
	lw	a7,84(s4)
	.loc 1 303 593
	li	s7,-2147479552
	.loc 1 303 635
	li	a6,1036288
	.loc 1 303 593
	sw	a7,-480(s7)
	.loc 1 303 618 is_stmt 1
	.loc 1 303 635 is_stmt 0
	addi	a6,a6,-1923
	.loc 1 303 684
	li	a7,393216
	.loc 1 303 635
	sw	a6,-1632(a5)
	.loc 1 303 667 is_stmt 1
	.loc 1 303 668
	.loc 1 303 684 is_stmt 0
	li	t1,-2147483648
	addi	a7,a7,1
	sw	a7,20(t1)
.LBB202:
	.loc 1 304 3 is_stmt 1
.LVL218:
	.loc 1 304 70
	.loc 1 304 87 is_stmt 0
	sw	s5,1696(a2)
	.loc 1 304 99 is_stmt 1
	.loc 1 304 116 is_stmt 0
	sw	zero,1824(t3)
	.loc 1 304 122 is_stmt 1
	.loc 1 304 139 is_stmt 0
	lw	s5,120(sp)
	sw	s5,1952(t4)
	.loc 1 304 160 is_stmt 1
	.loc 1 304 177 is_stmt 0
	sw	zero,-1120(t5)
	.loc 1 304 189 is_stmt 1
	.loc 1 304 206 is_stmt 0
	li	s5,256
	sw	s5,-2016(a3)
	.loc 1 304 217 is_stmt 1
	.loc 1 304 234 is_stmt 0
	sw	s11,-1888(a4)
	.loc 1 304 240 is_stmt 1
	.loc 1 304 257 is_stmt 0
	lw	s5,336(sp)
	sw	s5,-1760(t6)
	.loc 1 304 278 is_stmt 1
	.loc 1 304 295 is_stmt 0
	sw	zero,-992(t0)
	.loc 1 304 306 is_stmt 1
	.loc 1 304 322 is_stmt 0
	sw	zero,672(t2)
	.loc 1 304 325 is_stmt 1
	.loc 1 304 341 is_stmt 0
	sw	s9,1056(ra)
	.loc 1 304 344 is_stmt 1
	.loc 1 304 361 is_stmt 0
	sw	zero,1568(s3)
	.loc 1 304 364 is_stmt 1
	.loc 1 304 381 is_stmt 0
	sw	zero,-864(s1)
	.loc 1 304 384 is_stmt 1
	.loc 1 304 400 is_stmt 0
	li	s5,2
	sw	s5,544(s6)
	.loc 1 304 426 is_stmt 1
	.loc 1 304 443 is_stmt 0
	sw	s8,-736(a0)
	.loc 1 304 468 is_stmt 1
	.loc 1 304 485 is_stmt 0
	sw	a1,-1632(a5)
.LBE202:
	.loc 1 304 575 is_stmt 1
	.loc 1 304 576
	.loc 1 304 593 is_stmt 0
	lw	s5,60(sp)
	sw	s5,-480(s7)
	.loc 1 304 601 is_stmt 1
	.loc 1 304 618 is_stmt 0
	sw	a6,-1632(a5)
	.loc 1 304 650 is_stmt 1
	.loc 1 304 651
	.loc 1 304 667 is_stmt 0
	sw	a7,20(t1)
.LBB203:
	.loc 1 305 3 is_stmt 1
.LVL219:
	.loc 1 305 70
	.loc 1 305 87 is_stmt 0
	li	s5,4096
	sw	s5,1696(a2)
	.loc 1 305 99 is_stmt 1
	.loc 1 305 116 is_stmt 0
	sw	zero,1824(t3)
	.loc 1 305 122 is_stmt 1
	.loc 1 305 139 is_stmt 0
	lw	s5,120(sp)
	sw	s5,1952(t4)
	.loc 1 305 160 is_stmt 1
	.loc 1 305 177 is_stmt 0
	sw	zero,-1120(t5)
	.loc 1 305 189 is_stmt 1
	.loc 1 305 206 is_stmt 0
	li	s5,256
	sw	s5,-2016(a3)
	.loc 1 305 217 is_stmt 1
	.loc 1 305 234 is_stmt 0
	sw	s11,-1888(a4)
	.loc 1 305 240 is_stmt 1
	.loc 1 305 257 is_stmt 0
	lw	s5,336(sp)
	sw	s5,-1760(t6)
	.loc 1 305 278 is_stmt 1
	.loc 1 305 295 is_stmt 0
	sw	zero,-992(t0)
	.loc 1 305 306 is_stmt 1
	.loc 1 305 322 is_stmt 0
	sw	zero,672(t2)
	.loc 1 305 325 is_stmt 1
	.loc 1 305 341 is_stmt 0
	sw	s9,1056(ra)
	.loc 1 305 344 is_stmt 1
	.loc 1 305 361 is_stmt 0
	sw	zero,1568(s3)
	.loc 1 305 364 is_stmt 1
	.loc 1 305 381 is_stmt 0
	sw	zero,-864(s1)
	.loc 1 305 384 is_stmt 1
	.loc 1 305 400 is_stmt 0
	li	s5,3
	sw	s5,544(s6)
	.loc 1 305 426 is_stmt 1
	.loc 1 305 443 is_stmt 0
	sw	s8,-736(a0)
	.loc 1 305 468 is_stmt 1
	.loc 1 305 485 is_stmt 0
	sw	a1,-1632(a5)
.LBE203:
	.loc 1 305 575 is_stmt 1
	.loc 1 305 576
	.loc 1 305 593 is_stmt 0
	lw	a1,8(sp)
.LBB204:
	.loc 1 311 93
	li	s5,4096
.LBE204:
	.loc 1 305 593
	sw	a1,-480(s7)
	.loc 1 305 604 is_stmt 1
	.loc 1 305 621 is_stmt 0
	sw	a6,-1632(a5)
	.loc 1 305 653 is_stmt 1
	.loc 1 305 654
	.loc 1 305 670 is_stmt 0
	sw	a7,20(t1)
	.loc 1 306 7 is_stmt 1
.LVL220:
	.loc 1 306 17 discriminator 1
	.loc 1 307 10
	.loc 1 310 13
.LBB205:
	.loc 1 311 3
	.loc 1 311 76
	.loc 1 311 93 is_stmt 0
	sw	s5,1696(a2)
	.loc 1 311 105 is_stmt 1
	.loc 1 311 122 is_stmt 0
	sw	zero,1824(t3)
	.loc 1 311 128 is_stmt 1
	.loc 1 311 145 is_stmt 0
	lw	s5,120(sp)
	sw	s5,1952(t4)
	.loc 1 311 166 is_stmt 1
	.loc 1 311 183 is_stmt 0
	sw	zero,-1120(t5)
	.loc 1 311 195 is_stmt 1
	.loc 1 311 212 is_stmt 0
	li	s5,256
	sw	s5,-2016(a3)
	.loc 1 311 223 is_stmt 1
	.loc 1 311 240 is_stmt 0
	sw	s11,-1888(a4)
	.loc 1 311 246 is_stmt 1
	.loc 1 311 263 is_stmt 0
	lw	s5,336(sp)
	.loc 1 311 491
	li	a4,1032192
	addi	a4,a4,127
	.loc 1 311 263
	sw	s5,-1760(t6)
	.loc 1 311 284 is_stmt 1
	.loc 1 311 301 is_stmt 0
	sw	zero,-992(t0)
	.loc 1 311 312 is_stmt 1
	.loc 1 311 328 is_stmt 0
	sw	zero,672(t2)
	.loc 1 311 331 is_stmt 1
	.loc 1 311 347 is_stmt 0
	sw	s9,1056(ra)
	.loc 1 311 350 is_stmt 1
	.loc 1 311 367 is_stmt 0
	sw	zero,1568(s3)
	.loc 1 311 370 is_stmt 1
	.loc 1 311 387 is_stmt 0
	sw	zero,-864(s1)
	.loc 1 311 390 is_stmt 1
	.loc 1 311 406 is_stmt 0
	sw	zero,544(s6)
	.loc 1 311 432 is_stmt 1
	.loc 1 311 449 is_stmt 0
	sw	s8,-736(a0)
	.loc 1 311 474 is_stmt 1
	.loc 1 311 491 is_stmt 0
	sw	a4,-1632(a5)
.LBE205:
	.loc 1 311 524 is_stmt 1
	.loc 1 311 525
	.loc 1 311 542 is_stmt 0
	sw	zero,-480(s7)
	.loc 1 311 551 is_stmt 1
	.loc 1 311 568 is_stmt 0
	sw	a6,-1632(a5)
	.loc 1 311 600 is_stmt 1
	.loc 1 311 601
	.loc 1 311 617 is_stmt 0
	sw	a7,20(t1)
	.loc 1 306 23 is_stmt 1 discriminator 2
.LVL221:
	.loc 1 306 17 discriminator 1
	.loc 1 307 10
	.loc 1 307 12 is_stmt 0
	lw	a4,28(s4)
	li	a5,11
	li	t2,0
	beq	a4,a5,.L103
	.loc 1 310 13 is_stmt 1
.LVL222:
	.loc 1 310 18 is_stmt 0
	lw	a5,72(sp)
	rem	t2,s9,a5
.LVL223:
.L103:
.LBB206:
	.loc 1 311 3 is_stmt 1
	.loc 1 311 76
	.loc 1 311 93 is_stmt 0
	li	a5,4096
	li	a1,-2147483648
	sw	a5,1696(a1)
	.loc 1 311 105 is_stmt 1
	.loc 1 311 122 is_stmt 0
	li	a0,-2147483648
	.loc 1 311 145
	li	a3,12288
	.loc 1 311 122
	sw	zero,1824(a0)
	.loc 1 311 128 is_stmt 1
	.loc 1 311 145 is_stmt 0
	li	a4,-2147483648
	addi	a3,a3,-1
	sw	a3,1952(a4)
	.loc 1 311 166 is_stmt 1
	.loc 1 311 183 is_stmt 0
	li	a6,-2147479552
	sw	a5,-1120(a6)
	.loc 1 311 195 is_stmt 1
	.loc 1 311 212 is_stmt 0
	li	a3,-2147479552
	li	a2,256
	sw	a2,-2016(a3)
	.loc 1 311 223 is_stmt 1
	.loc 1 311 240 is_stmt 0
	li	a4,-2147479552
	li	a3,15
	sw	a3,-1888(a4)
	.loc 1 311 246 is_stmt 1
	.loc 1 311 263 is_stmt 0
	lw	a4,336(sp)
	li	a7,-2147479552
	.loc 1 311 301
	li	t1,-2147479552
	.loc 1 311 263
	sw	a4,-1760(a7)
	.loc 1 311 284 is_stmt 1
	.loc 1 311 301 is_stmt 0
	sw	zero,-992(t1)
	.loc 1 311 312 is_stmt 1
	.loc 1 311 328 is_stmt 0
	li	t3,-2147483648
	sw	zero,672(t3)
	.loc 1 311 331 is_stmt 1
	.loc 1 311 347 is_stmt 0
	li	a4,-2147483648
	li	a3,1
	sw	a3,1056(a4)
	.loc 1 311 350 is_stmt 1
	.loc 1 311 367 is_stmt 0
	li	t4,-2147483648
	sw	zero,1568(t4)
	.loc 1 311 370 is_stmt 1
	.loc 1 311 387 is_stmt 0
	li	t5,-2147479552
	sw	zero,-864(t5)
	.loc 1 311 390 is_stmt 1
	.loc 1 311 406 is_stmt 0
	li	t6,-2147483648
	sw	a5,544(t6)
	.loc 1 311 432 is_stmt 1
	.loc 1 311 449 is_stmt 0
	li	a3,-2147479552
	li	a2,16
	.loc 1 311 491
	li	a4,1032192
	.loc 1 311 449
	sw	a2,-736(a3)
	.loc 1 311 474 is_stmt 1
	.loc 1 311 491 is_stmt 0
	li	a5,-2147479552
	addi	a4,a4,127
	sw	a4,-1632(a5)
.LBE206:
	.loc 1 311 524 is_stmt 1
	.loc 1 311 525
	.loc 1 311 542 is_stmt 0
	li	t0,-2147479552
	.loc 1 311 568
	li	a2,1036288
	.loc 1 311 542
	sw	t2,-480(t0)
	.loc 1 311 551 is_stmt 1
	.loc 1 311 568 is_stmt 0
	addi	a2,a2,-1923
	.loc 1 311 617
	li	a3,393216
	.loc 1 311 568
	sw	a2,-1632(a5)
	.loc 1 311 600 is_stmt 1
	.loc 1 311 601
	.loc 1 311 617 is_stmt 0
	li	a4,-2147483648
	addi	a3,a3,1
	sw	a3,20(a4)
	.loc 1 306 23 is_stmt 1 discriminator 2
.LVL224:
	.loc 1 306 17 discriminator 1
	.loc 1 307 10
	.loc 1 307 12 is_stmt 0
	lw	a4,28(s4)
	li	a5,11
	li	t2,0
	beq	a4,a5,.L104
	.loc 1 310 13 is_stmt 1
.LVL225:
	.loc 1 310 18 is_stmt 0
	lw	a4,72(sp)
	li	a5,2
	rem	t2,a5,a4
.LVL226:
.L104:
.LBB207:
	.loc 1 311 3 is_stmt 1
	.loc 1 311 76
	.loc 1 311 93 is_stmt 0
	li	a5,-2147483648
	li	a4,4096
	sw	a4,1696(a5)
	.loc 1 311 105 is_stmt 1
	.loc 1 311 145 is_stmt 0
	li	a2,8192
	.loc 1 311 122
	li	a1,-2147483648
	sw	zero,1824(a1)
	.loc 1 311 128 is_stmt 1
	.loc 1 311 145 is_stmt 0
	addi	a5,a2,-1
	li	a0,-2147483648
	sw	a5,1952(a0)
	.loc 1 311 166 is_stmt 1
	.loc 1 311 183 is_stmt 0
	li	a6,-2147479552
	sw	a2,-1120(a6)
	.loc 1 311 195 is_stmt 1
	.loc 1 311 212 is_stmt 0
	li	a4,-2147479552
	li	a3,256
	sw	a3,-2016(a4)
	.loc 1 311 223 is_stmt 1
	.loc 1 311 240 is_stmt 0
	li	a5,-2147479552
	li	a4,15
	sw	a4,-1888(a5)
	.loc 1 311 246 is_stmt 1
	.loc 1 311 263 is_stmt 0
	lw	a5,336(sp)
	li	a7,-2147479552
	.loc 1 311 301
	li	t1,-2147479552
	.loc 1 311 263
	sw	a5,-1760(a7)
	.loc 1 311 284 is_stmt 1
	.loc 1 311 301 is_stmt 0
	sw	zero,-992(t1)
	.loc 1 311 312 is_stmt 1
	.loc 1 311 328 is_stmt 0
	li	t3,-2147483648
	sw	zero,672(t3)
	.loc 1 311 331 is_stmt 1
	.loc 1 311 347 is_stmt 0
	li	a5,-2147483648
	li	a4,1
	sw	a4,1056(a5)
	.loc 1 311 350 is_stmt 1
	.loc 1 311 367 is_stmt 0
	li	t4,-2147483648
	sw	zero,1568(t4)
	.loc 1 311 370 is_stmt 1
	.loc 1 311 387 is_stmt 0
	li	t5,-2147479552
	sw	zero,-864(t5)
	.loc 1 311 390 is_stmt 1
	.loc 1 311 406 is_stmt 0
	li	t6,-2147483648
	sw	a2,544(t6)
	.loc 1 311 432 is_stmt 1
	.loc 1 311 449 is_stmt 0
	li	a3,-2147479552
	li	a2,16
	.loc 1 311 491
	li	a4,1032192
	.loc 1 311 449
	sw	a2,-736(a3)
	.loc 1 311 474 is_stmt 1
	.loc 1 311 491 is_stmt 0
	li	a5,-2147479552
	addi	a4,a4,127
	sw	a4,-1632(a5)
.LBE207:
	.loc 1 311 524 is_stmt 1
	.loc 1 311 525
	.loc 1 311 542 is_stmt 0
	li	t0,-2147479552
	.loc 1 311 568
	li	a2,1036288
	.loc 1 311 542
	sw	t2,-480(t0)
	.loc 1 311 551 is_stmt 1
	.loc 1 311 568 is_stmt 0
	addi	a2,a2,-1923
	.loc 1 311 617
	li	a3,393216
	.loc 1 311 568
	sw	a2,-1632(a5)
	.loc 1 311 600 is_stmt 1
	.loc 1 311 601
	.loc 1 311 617 is_stmt 0
	li	a4,-2147483648
	addi	a3,a3,1
	sw	a3,20(a4)
	.loc 1 306 23 is_stmt 1 discriminator 2
.LVL227:
	.loc 1 306 17 discriminator 1
	.loc 1 307 10
	.loc 1 307 12 is_stmt 0
	lw	a4,28(s4)
	li	a5,11
	li	t2,0
	beq	a4,a5,.L105
	.loc 1 310 13 is_stmt 1
.LVL228:
	.loc 1 310 18 is_stmt 0
	lw	a4,72(sp)
	li	a5,3
	rem	t2,a5,a4
.LVL229:
.L105:
.LBB208:
	.loc 1 311 3 is_stmt 1
	.loc 1 311 76
	.loc 1 311 93 is_stmt 0
	li	a1,-2147483648
	li	a5,4096
	sw	a5,1696(a1)
	.loc 1 311 105 is_stmt 1
	.loc 1 311 122 is_stmt 0
	li	a0,-2147483648
	sw	zero,1824(a0)
	.loc 1 311 128 is_stmt 1
	.loc 1 311 145 is_stmt 0
	li	a4,-2147483648
	addi	a5,a5,-1
	sw	a5,1952(a4)
	.loc 1 311 166 is_stmt 1
	.loc 1 311 183 is_stmt 0
	li	a2,12288
	li	a6,-2147479552
	sw	a2,-1120(a6)
	.loc 1 311 195 is_stmt 1
	.loc 1 311 212 is_stmt 0
	li	a4,-2147479552
	li	a3,256
	sw	a3,-2016(a4)
	.loc 1 311 223 is_stmt 1
	.loc 1 311 240 is_stmt 0
	li	a5,-2147479552
	li	a4,15
	sw	a4,-1888(a5)
	.loc 1 311 246 is_stmt 1
	.loc 1 311 263 is_stmt 0
	lw	a5,336(sp)
	li	a7,-2147479552
	.loc 1 311 301
	li	t1,-2147479552
	.loc 1 311 263
	sw	a5,-1760(a7)
	.loc 1 311 284 is_stmt 1
	.loc 1 311 301 is_stmt 0
	sw	zero,-992(t1)
	.loc 1 311 312 is_stmt 1
	.loc 1 311 328 is_stmt 0
	li	t3,-2147483648
	sw	zero,672(t3)
	.loc 1 311 331 is_stmt 1
	.loc 1 311 347 is_stmt 0
	li	a5,-2147483648
	li	a4,1
	sw	a4,1056(a5)
	.loc 1 311 350 is_stmt 1
	.loc 1 311 367 is_stmt 0
	li	t4,-2147483648
	sw	zero,1568(t4)
	.loc 1 311 370 is_stmt 1
	.loc 1 311 387 is_stmt 0
	li	t5,-2147479552
	sw	zero,-864(t5)
	.loc 1 311 390 is_stmt 1
	.loc 1 311 406 is_stmt 0
	li	t6,-2147483648
	sw	a2,544(t6)
	.loc 1 311 432 is_stmt 1
	.loc 1 311 449 is_stmt 0
	li	a3,-2147479552
	li	a2,16
	.loc 1 311 491
	li	a5,1032192
	.loc 1 311 449
	sw	a2,-736(a3)
	.loc 1 311 474 is_stmt 1
	.loc 1 311 491 is_stmt 0
	li	a4,-2147479552
	addi	a5,a5,127
	sw	a5,-1632(a4)
.LBE208:
	.loc 1 311 524 is_stmt 1
	.loc 1 311 525
	.loc 1 311 542 is_stmt 0
	li	t0,-2147479552
	.loc 1 311 568
	li	a2,1036288
	.loc 1 311 542
	sw	t2,-480(t0)
	.loc 1 311 551 is_stmt 1
	.loc 1 311 568 is_stmt 0
	addi	a2,a2,-1923
	.loc 1 311 617
	li	a3,393216
	.loc 1 311 568
	sw	a2,-1632(a4)
	.loc 1 311 600 is_stmt 1
	.loc 1 311 601
	.loc 1 311 617 is_stmt 0
	li	a5,-2147483648
	addi	a3,a3,1
	.loc 1 313 18
	li	a4,1015832576
	.loc 1 311 617
	sw	a3,20(a5)
	.loc 1 306 23 is_stmt 1 discriminator 2
.LVL230:
	.loc 1 306 17 discriminator 1
	.loc 1 313 1
	.loc 1 313 2
	.loc 1 313 18 is_stmt 0
	addi	a4,a4,-2044
	sw	a4,20(a5)
	.loc 1 314 7 is_stmt 1
	li	a3,-2147483648
	sw	zero,36(a3)
	.loc 1 314 7
	call	_taskYield
.LVL231:
	.loc 1 314 21 discriminator 1
	.loc 1 315 7
	.loc 1 317 13 is_stmt 0
	addi	a5,s0,1
	srai	a5,a5,1
	addi	a5,a5,7
	.loc 1 317 12
	andi	s1,a5,-8
	.loc 1 315 9
	lw	a5,344(sp)
	beq	a5,zero,.L144
	.loc 1 319 10 is_stmt 1
.LVL232:
	.loc 1 320 10
	.loc 1 322 11 is_stmt 0
	lw	a5,328(sp)
	.loc 1 319 14
	mv	s6,s1
	.loc 1 322 11
	add	s11,a5,s1
	.loc 1 320 12
	mv	s1,s0
.LVL233:
.L106:
	.loc 1 322 7 is_stmt 1
	.loc 1 323 7
	.loc 1 325 18 is_stmt 0
	lw	a2,64(sp)
	li	a0,4096
	.loc 1 323 9
	add	a5,a5,s1
	.loc 1 325 18
	li	a1,4
	addi	a0,a0,163
	.loc 1 323 9
	sw	a5,304(sp)
.LVL234:
	.loc 1 325 7 is_stmt 1
	.loc 1 325 18 is_stmt 0
	call	ztaBuildKernelFunc
.LVL235:
.LBB209:
	.loc 1 327 169
	lw	a3,212(sp)
	lw	s5,72(sp)
	.loc 1 327 93
	li	a2,-2147483648
	.loc 1 327 132
	li	a1,-2147483648
	.loc 1 327 169
	mul	a5,s5,a3
	.loc 1 327 110
	slli	a4,s5,12
	sw	a4,144(sp)
	.loc 1 327 93
	sw	a4,1696(a2)
.LVL236:
	.loc 1 327 22
	addi	a3,a3,-1
	sw	a3,44(sp)
	.loc 1 327 132
	sw	a3,1824(a1)
	.loc 1 327 155
	li	a4,-2147483648
.LBE209:
	.loc 1 325 18
	mv	t2,a0
.LBB210:
	.loc 1 327 206
	li	a0,-2147479552
	.loc 1 327 169
	slli	a5,a5,12
	.loc 1 327 186
	addi	a5,a5,-1
	sw	a5,148(sp)
	.loc 1 327 155
	sw	a5,1952(a4)
	.loc 1 327 206
	sw	zero,-1120(a0)
	.loc 1 327 245
	li	a5,4096
	li	a6,-2147479552
	sw	a5,-2016(a6)
	.loc 1 327 297
	li	a5,-2147479552
	addi	a4,a5,-1760
	.loc 1 327 274
	li	a7,-2147479552
	.loc 1 327 297
	li	a5,16777216
	.loc 1 327 274
	sw	zero,-1888(a7)
	.loc 1 327 297
	addi	a5,a5,-1
	sw	a4,20(sp)
	sw	a5,152(sp)
	sw	a5,0(a4)
	.loc 1 327 337
	li	t1,-2147479552
	sw	zero,-992(t1)
	.loc 1 327 365
	lw	a4,268(sp)
	li	t3,-2147483648
	.loc 1 327 412
	li	a5,-2147483648
	.loc 1 327 365
	sw	a4,928(t3)
	.loc 1 327 412
	li	a4,8
	sw	a4,800(a5)
	.loc 1 327 438
	li	t0,31
	li	t4,-2147483648
	sw	t0,1440(t4)
	.loc 1 327 459
	li	t5,-2147479552
	sw	zero,-1248(t5)
	.loc 1 327 478
	li	a4,-2147483648
	li	a3,7
	sw	a3,672(a4)
	.loc 1 327 523
	li	a5,-2147483648
	li	a4,1
	sw	a4,1056(a5)
	.loc 1 327 549
	li	a3,-2147483648
	sw	t0,1568(a3)
	.loc 1 327 813
	addi	a4,s5,-1
	sw	a4,80(sp)
	.loc 1 327 589
	li	s3,-2147483648
	.loc 1 327 570
	li	t6,-2147479552
	.loc 1 327 589
	li	a5,524288
	.loc 1 327 570
	sw	zero,-864(t6)
	.loc 1 327 589
	addi	a5,a5,8
	sw	a5,544(s3)
	.loc 1 327 865
	slli	a4,a4,14
	li	a5,507904
	.loc 1 327 776
	li	s8,-2147479552
	.loc 1 327 680
	li	t0,-2147479552
	.loc 1 327 865
	and	a4,a4,a5
	.loc 1 327 680
	sw	s2,-736(t0)
	.loc 1 327 880
	ori	a5,a4,129
	.loc 1 327 776
	sw	a5,-1632(s8)
.LBE210:
	.loc 1 325 18
	sw	t2,140(sp)
.LVL237:
.LBB211:
	.loc 1 327 2 is_stmt 1
	.loc 1 327 76
	.loc 1 327 115
	.loc 1 327 138
	.loc 1 327 189
	.loc 1 327 228
	.loc 1 327 257
	.loc 1 327 280
	.loc 1 327 320
	.loc 1 327 349
	.loc 1 327 396
	.loc 1 327 421
	.loc 1 327 442
	.loc 1 327 462
	.loc 1 327 507
	.loc 1 327 532
	.loc 1 327 553
	.loc 1 327 573
	.loc 1 327 663
	.loc 1 327 759
.LBE211:
	.loc 1 329 7
	.loc 1 329 20 discriminator 1
.LBB212:
	.loc 1 327 589 is_stmt 0
	addi	s3,s3,544
	.loc 1 327 776
	addi	s8,s8,-1632
.LBE212:
	.loc 1 329 20 discriminator 1
	bge	s6,s1,.L131
.LBB213:
	.loc 1 335 221
	lw	a0,52(sp)
	lw	a5,12(sp)
.LBE213:
	.loc 1 356 39 discriminator 1
	lw	a7,40(sp)
.LBB214:
	.loc 1 414 691
	lw	a3,212(sp)
.LBE214:
.LBB215:
	.loc 1 335 221
	div	a6,a5,a0
.LBE215:
.LBB216:
	.loc 1 409 958
	lw	t1,72(sp)
.LBE216:
	.loc 1 356 39 discriminator 1
	slli	a5,a7,1
	sw	a5,248(sp)
	.loc 1 357 20
	addi	a5,a5,7
	.loc 1 395 22
	lw	a1,64(sp)
.LBB217:
	.loc 1 414 691
	slli	a3,a3,12
.LBE217:
	.loc 1 357 19
	andi	a5,a5,-8
.LBB218:
	.loc 1 409 958
	slli	t1,t1,4
.LBE218:
	.loc 1 357 19
	sw	a5,264(sp)
.LBB219:
	.loc 1 414 698
	addi	a5,a3,-1
	sw	a5,232(sp)
.LBE219:
.LBB220:
	.loc 1 409 1282
	addi	a5,t1,-1
.LBE220:
	.loc 1 395 22
	slli	a2,a1,1
	slli	t4,a1,2
.LBB221:
	.loc 1 409 1282
	sw	a5,164(sp)
.LBE221:
.LBB222:
	.loc 1 335 522
	addi	a5,s10,-1
.LBE222:
	.loc 1 395 22
	add	t3,a2,a1
.LBB223:
	.loc 1 335 522
	sw	a5,308(sp)
.LBE223:
	.loc 1 395 22
	add	a5,t4,a1
	sw	a2,216(sp)
	sw	a5,228(sp)
	slli	a2,a1,3
	slli	a5,t3,1
	sw	a5,236(sp)
	sub	a5,a2,a1
	sw	a5,240(sp)
.LBB224:
	.loc 1 331 724
	ori	s1,a4,127
	lw	a3,280(sp)
	.loc 1 331 476
	li	s9,524288
.LBE224:
.LBB225:
	.loc 1 331 993
	li	s5,1036288
	addi	s5,s5,125
	sw	s11,244(sp)
	sw	s10,312(sp)
.LBE225:
.LBB226:
	.loc 1 335 155
	mul	a5,a0,s10
	sw	s4,284(sp)
	.loc 1 335 221
	sw	a6,28(sp)
.LBE226:
.LBB227:
	.loc 1 409 958
	sw	t1,160(sp)
.LBE227:
	.loc 1 395 22
	sw	t3,220(sp)
	sw	t4,224(sp)
.LBB228:
	.loc 1 331 476
	addi	s9,s9,40
	sw	s0,348(sp)
	mv	s10,s1
.LVL238:
	mv	s4,s3
.LBE228:
.LBB229:
	.loc 1 358 102
	mul	s2,a0,a7
.LBE229:
.LBB230:
	.loc 1 335 406
	addi	a4,a5,-1
	.loc 1 335 155
	sw	a5,8(sp)
	.loc 1 335 406
	sw	a4,292(sp)
	.loc 1 335 233
	mul	a5,a5,a6
.LBE230:
.LBB231:
	.loc 1 358 325
	addi	a4,s2,-1
	sw	a4,124(sp)
	lw	a4,36(sp)
	sw	s2,324(sp)
	mv	s2,s8
.LBE231:
.LBB232:
	.loc 1 335 255
	addi	a5,a5,-1
	sw	a5,288(sp)
	mul	a3,a3,a4
	mul	a5,s11,a4
	sw	a3,296(sp)
	mv	s11,s5
	sw	a5,96(sp)
	sw	s9,316(sp)
	lw	s5,16(sp)
.LVL239:
.L130:
.LBE232:
.LBB233:
	.loc 1 331 3 is_stmt 1
	.loc 1 331 77
	.loc 1 331 94 is_stmt 0
	lw	a5,144(sp)
	li	t5,-2147483648
	.loc 1 331 133
	li	t4,-2147483648
	.loc 1 331 94
	sw	a5,1696(t5)
.LVL240:
	.loc 1 331 116 is_stmt 1
	.loc 1 331 133 is_stmt 0
	lw	a4,44(sp)
	.loc 1 331 156
	li	t3,-2147483648
	.loc 1 331 246
	li	a2,-2147479552
	.loc 1 331 133
	sw	a4,1824(t4)
	.loc 1 331 139 is_stmt 1
	.loc 1 331 156 is_stmt 0
	lw	a3,148(sp)
	.loc 1 331 207
	li	t1,-2147479552
	.loc 1 331 246
	addi	s6,a2,-2016
	.loc 1 331 156
	sw	a3,1952(t3)
	.loc 1 331 190 is_stmt 1
	.loc 1 331 207 is_stmt 0
	sw	zero,-1120(t1)
	.loc 1 331 229 is_stmt 1
	.loc 1 331 246 is_stmt 0
	sw	s6,24(sp)
	li	s1,4096
	sw	s1,-2016(a2)
	.loc 1 331 258 is_stmt 1
	.loc 1 331 275 is_stmt 0
	li	a7,-2147479552
	sw	zero,-1888(a7)
	.loc 1 331 281 is_stmt 1
	.loc 1 331 298 is_stmt 0
	lw	s8,20(sp)
	lw	a2,152(sp)
	.loc 1 331 338
	li	a6,-2147479552
	.loc 1 331 366
	li	t0,7
	.loc 1 331 298
	sw	a2,0(s8)
	.loc 1 331 321 is_stmt 1
	.loc 1 331 338 is_stmt 0
	sw	zero,-992(a6)
	.loc 1 331 350 is_stmt 1
	.loc 1 331 366 is_stmt 0
	li	a2,-2147483648
	sw	t0,672(a2)
	.loc 1 331 395 is_stmt 1
	.loc 1 331 411 is_stmt 0
	li	a1,-2147483648
	li	t6,1
	sw	t6,1056(a1)
	.loc 1 331 420 is_stmt 1
	.loc 1 331 437 is_stmt 0
	li	a3,-2147483648
	sw	t0,1568(a3)
	.loc 1 331 440 is_stmt 1
	.loc 1 331 457 is_stmt 0
	li	a4,-2147479552
	sw	zero,-864(a4)
	.loc 1 331 460 is_stmt 1
	.loc 1 331 476 is_stmt 0
	lw	t2,316(sp)
	.loc 1 331 560
	li	a0,-2147479552
.LBE233:
	.loc 1 331 1046
	li	s0,393216
.LBB234:
	.loc 1 331 476
	sw	t2,0(s4)
	.loc 1 331 543 is_stmt 1
	.loc 1 331 560 is_stmt 0
	sw	s5,-736(a0)
	.loc 1 331 613 is_stmt 1
	lw	a5,244(sp)
.LBE234:
.LBB235:
	.loc 1 331 762 is_stmt 0
	lw	t2,280(sp)
.LBE235:
	.loc 1 331 1046
	addi	s0,s0,1
	sw	a5,92(sp)
.LBB236:
	.loc 1 331 762
	add	t2,a5,t2
	sw	t2,244(sp)
	mv	s3,a5
.LBE236:
.LBB237:
	.loc 1 331 630
	sw	s10,0(s2)
.LBE237:
.LBB238:
	.loc 1 331 736 is_stmt 1
.LVL241:
	.loc 1 331 756 is_stmt 0
	addi	a5,t2,-1
.LVL242:
	.loc 1 331 800
	sw	t6,1056(a1)
	.loc 1 331 771
	sub	s9,a5,s3
	sw	s9,76(sp)
.LVL243:
	.loc 1 331 784 is_stmt 1
	.loc 1 331 811
	.loc 1 331 827 is_stmt 0
	sw	s9,672(a2)
	.loc 1 331 833 is_stmt 1
	.loc 1 331 865 is_stmt 0
	lw	s7,284(sp)
.LBE238:
	.loc 1 331 1046
	li	t2,-2147483648
.LBB239:
	.loc 1 331 865
	lw	a5,32(s7)
.LVL244:
	addi	a5,a5,-1
	.loc 1 331 867
	sub	a5,a5,s3
	.loc 1 331 850
	sw	a5,1568(a3)
	.loc 1 331 873 is_stmt 1
	.loc 1 331 890 is_stmt 0
	sw	s3,-864(a4)
	.loc 1 331 899 is_stmt 1
.LVL245:
	.loc 1 331 918
	.loc 1 331 954 is_stmt 0
	lw	a5,8(s7)
	srli	a5,a5,1
	.loc 1 331 939
	add	a5,a5,s3
	.loc 1 331 934
	sw	a5,0(s4)
	.loc 1 331 975 is_stmt 1
	.loc 1 331 976
	.loc 1 331 993 is_stmt 0
	sw	s11,0(s2)
.LBE239:
	.loc 1 331 1029 is_stmt 1
	.loc 1 331 1030
	.loc 1 331 1046 is_stmt 0
	sw	s0,20(t2)
.LBB240:
	.loc 1 332 3 is_stmt 1
.LVL246:
	.loc 1 332 77
	.loc 1 332 94 is_stmt 0
	lw	a5,144(sp)
	sw	a5,1696(t5)
	.loc 1 332 116 is_stmt 1
	.loc 1 332 133 is_stmt 0
	lw	a5,44(sp)
	sw	a5,1824(t4)
	.loc 1 332 139 is_stmt 1
	.loc 1 332 156 is_stmt 0
	lw	a5,148(sp)
	sw	a5,1952(t3)
	.loc 1 332 190 is_stmt 1
	.loc 1 332 207 is_stmt 0
	sw	zero,-1120(t1)
	.loc 1 332 229 is_stmt 1
	.loc 1 332 246 is_stmt 0
	sw	s1,0(s6)
	.loc 1 332 258 is_stmt 1
	.loc 1 332 275 is_stmt 0
	sw	zero,-1888(a7)
	.loc 1 332 281 is_stmt 1
	.loc 1 332 298 is_stmt 0
	lw	a5,152(sp)
	sw	a5,0(s8)
	.loc 1 332 321 is_stmt 1
	.loc 1 332 338 is_stmt 0
	sw	zero,-992(a6)
	.loc 1 332 350 is_stmt 1
	.loc 1 332 366 is_stmt 0
	sw	t0,672(a2)
	.loc 1 332 395 is_stmt 1
	.loc 1 332 411 is_stmt 0
	sw	t6,1056(a1)
	.loc 1 332 420 is_stmt 1
	.loc 1 332 437 is_stmt 0
	sw	t0,1568(a3)
	.loc 1 332 440 is_stmt 1
	.loc 1 332 476 is_stmt 0
	li	a5,524288
	.loc 1 332 457
	sw	zero,-864(a4)
	.loc 1 332 460 is_stmt 1
	.loc 1 332 476 is_stmt 0
	addi	a5,a5,48
	sw	a5,0(s4)
	.loc 1 332 543 is_stmt 1
	.loc 1 332 560 is_stmt 0
	sw	s5,-736(a0)
	.loc 1 332 613 is_stmt 1
	.loc 1 332 630 is_stmt 0
	sw	s10,0(s2)
.LBE240:
.LBB241:
	.loc 1 332 736 is_stmt 1
.LVL247:
	.loc 1 332 784
	.loc 1 332 800 is_stmt 0
	sw	t6,1056(a1)
	.loc 1 332 811 is_stmt 1
	.loc 1 332 827 is_stmt 0
	sw	s9,672(a2)
	.loc 1 332 833 is_stmt 1
	.loc 1 332 865 is_stmt 0
	lw	t0,32(s7)
.LBE241:
	.loc 1 334 33
	lw	s1,272(sp)
	.loc 1 334 18
	srai	a5,s3,3
.LBB242:
	.loc 1 332 865
	addi	t0,t0,-1
	.loc 1 332 867
	sub	t0,t0,s3
	.loc 1 332 850
	sw	t0,1568(a3)
	.loc 1 332 873 is_stmt 1
	.loc 1 332 890 is_stmt 0
	sw	s3,-864(a4)
	.loc 1 332 899 is_stmt 1
.LVL248:
	.loc 1 332 918
	.loc 1 332 954 is_stmt 0
	lw	t0,12(s7)
.LBE242:
	.loc 1 334 33
	mul	a5,a5,s1
.LBB243:
	.loc 1 335 738
	li	s1,1036288
.LBE243:
.LBB244:
	.loc 1 332 954
	srli	t0,t0,1
	.loc 1 332 939
	add	t0,t0,s3
	.loc 1 332 934
	sw	t0,0(s4)
	.loc 1 332 975 is_stmt 1
	.loc 1 332 976
	.loc 1 332 993 is_stmt 0
	sw	s11,0(s2)
.LBE244:
	.loc 1 332 1029 is_stmt 1
	.loc 1 332 1030
	.loc 1 332 1046 is_stmt 0
	sw	s0,20(t2)
	.loc 1 334 10 is_stmt 1
.LVL249:
.LBB245:
	.loc 1 335 2
	.loc 1 335 144 is_stmt 0
	lw	t2,8(sp)
	.loc 1 335 106
	lw	t0,276(sp)
	.loc 1 335 738
	addi	s1,s1,131
	.loc 1 335 144
	sw	t2,1696(t5)
.LVL250:
	.loc 1 335 188
	sw	zero,1824(t4)
	.loc 1 335 211
	lw	t4,288(sp)
.LBE245:
	.loc 1 334 14
	slli	a5,a5,3
.LVL251:
.LBB246:
	.loc 1 335 106
	add	t0,a5,t0
	.loc 1 335 211
	sw	t4,1952(t3)
	.loc 1 335 275
	sw	zero,-1120(t1)
	.loc 1 335 319
	lw	t3,312(sp)
	.loc 1 335 711
	lw	t1,52(sp)
	.loc 1 335 97
	addi	t0,t0,-1
	.loc 1 335 319
	sw	t3,0(s6)
	.loc 1 335 355
	lw	t3,268(sp)
	.loc 1 335 114
	sub	t0,t0,a5
.LVL252:
	.loc 1 335 127 is_stmt 1
	.loc 1 335 171
	.loc 1 335 194
	.loc 1 335 258
	.loc 1 335 302
	.loc 1 335 338
	.loc 1 335 708 is_stmt 0
	addi	t2,t0,1
	.loc 1 335 355
	sw	t3,-1888(a7)
	.loc 1 335 361 is_stmt 1
	.loc 1 335 378 is_stmt 0
	lw	a7,292(sp)
	.loc 1 335 711
	mul	t2,t2,t1
	.loc 1 335 378
	sw	a7,0(s8)
	.loc 1 335 409 is_stmt 1
	.loc 1 335 426 is_stmt 0
	sw	zero,-992(a6)
	.loc 1 335 445 is_stmt 1
	.loc 1 335 461 is_stmt 0
	sw	t6,1056(a1)
	.loc 1 335 472 is_stmt 1
	.loc 1 335 488 is_stmt 0
	sw	t0,672(a2)
	.loc 1 335 494 is_stmt 1
	.loc 1 335 524 is_stmt 0
	lw	a2,308(sp)
	sub	a2,a2,a5
	.loc 1 335 511
	sw	a2,1568(a3)
	.loc 1 335 530 is_stmt 1
	.loc 1 335 547 is_stmt 0
	sw	a5,-864(a4)
	.loc 1 335 556 is_stmt 1
.LVL253:
	.loc 1 335 619
	.loc 1 335 640 is_stmt 0
	lw	a4,300(sp)
	add	a5,a5,a4
	.loc 1 335 635
	sw	a5,0(s4)
	.loc 1 335 671 is_stmt 1
	.loc 1 335 672
	.loc 1 335 689 is_stmt 0
	sw	t2,-736(a0)
	.loc 1 335 721 is_stmt 1
	.loc 1 335 738 is_stmt 0
	sw	s1,0(s2)
.LBE246:
	.loc 1 336 10 is_stmt 1
.LVL254:
	.loc 1 336 22 discriminator 1
	lw	a5,36(sp)
	beq	a5,zero,.L109
	lw	a5,320(sp)
.LBB247:
	.loc 1 358 183 is_stmt 0
	lw	s6,324(sp)
.LBE247:
	.loc 1 382 19
	li	ra,-2147483648
	div	a5,a5,t1
	addi	ra,ra,36
	sw	s5,252(sp)
	.loc 1 336 16
	li	s0,0
	sw	s6,32(sp)
	sw	s10,256(sp)
	mv	s5,s7
	sw	s11,260(sp)
	mv	s1,ra
.LBB248:
	.loc 1 358 183
	mul	a5,a5,s6
	.loc 1 358 201
	addi	a5,a5,-1
	sw	a5,112(sp)
	lw	a5,36(sp)
.LVL255:
.L129:
.LBE248:
	.loc 1 337 13 is_stmt 1
	.loc 1 337 29 is_stmt 0
	lw	a4,60(sp)
	.loc 1 337 26
	sub	a5,a5,s0
	sw	a5,84(sp)
.LVL256:
	.loc 1 338 13 is_stmt 1
	.loc 1 337 29 is_stmt 0
	add	s3,a5,a4
	.loc 1 337 34
	addi	s3,s3,-1
	.loc 1 337 19
	div	s3,s3,a4
.LVL257:
	.loc 1 338 15
	lw	a5,116(sp)
	ble	s3,a5,.L110
	mv	s3,a5
.LVL258:
.L110:
	.loc 1 340 13 is_stmt 1
	.loc 1 340 15 is_stmt 0
	li	a5,5
	ble	s3,a5,.L111
	.loc 1 340 35 discriminator 1
	lw	a3,136(sp)
	li	a4,4
	bgt	a3,a4,.L111
.LBB249:
	.loc 1 345 16 is_stmt 1
	.loc 1 346 16
.LVL259:
	.loc 1 347 16
	.loc 1 346 21 is_stmt 0
	addi	a4,s3,-5
.LVL260:
	.loc 1 347 18
	sub	a5,a5,a3
	ble	a5,a4,.L112
	mv	a5,a4
.L112:
.LVL261:
	.loc 1 349 16 is_stmt 1
	.loc 1 350 25 is_stmt 0
	lw	a4,136(sp)
	.loc 1 349 22
	sub	s3,s3,a5
.LVL262:
	.loc 1 350 16 is_stmt 1
	.loc 1 350 25 is_stmt 0
	add	a5,a4,a5
.LVL263:
	sw	a5,136(sp)
.LVL264:
.L111:
.LBE249:
	.loc 1 352 13 is_stmt 1
	.loc 1 352 15 is_stmt 0
	lw	a4,132(sp)
	.loc 1 352 46
	addi	a5,s3,-1
	sw	a5,48(sp)
	.loc 1 352 15
	slli	a5,a5,2
	add	a5,a4,a5
	lw	a0,0(a5)
	lw	a2,64(sp)
	li	a1,4
	call	ztaBuildKernelFunc
.LVL265:
	.loc 1 353 16
	lw	a5,60(sp)
	.loc 1 355 16
	lw	a3,52(sp)
	.loc 1 352 15
	mv	s8,a0
.LVL266:
	.loc 1 353 13 is_stmt 1
	.loc 1 354 13
	.loc 1 353 16 is_stmt 0
	mul	a5,a5,s3
.LVL267:
	.loc 1 354 17
	addi	a4,a5,7
	.loc 1 353 16
	sw	a5,56(sp)
	.loc 1 354 17
	srai	a5,a4,31
.LVL268:
	andi	a5,a5,7
	add	a5,a5,a4
	.loc 1 354 16
	andi	a4,a5,-8
	.loc 1 354 17
	srai	a5,a5,3
	.loc 1 354 16
	sw	a4,68(sp)
.LVL269:
	.loc 1 355 13 is_stmt 1
	.loc 1 354 17 is_stmt 0
	sw	a5,88(sp)
	.loc 1 356 15
	li	a5,2
	.loc 1 355 16
	mul	a4,a3,a4
.LVL270:
	.loc 1 356 13 is_stmt 1
	.loc 1 356 15 is_stmt 0
	beq	a3,a5,.L113
.LVL271:
.L165:
.LBB250:
	.loc 1 358 99
	lw	a5,32(sp)
	lw	t6,24(sp)
	.loc 1 358 139
	li	a0,-2147479552
.LVL272:
	.loc 1 358 221
	li	a1,-2147479552
	.loc 1 358 99
	sw	a5,0(t6)
.LVL273:
	.loc 1 358 139
	sw	zero,-1888(a0)
	.loc 1 358 162
	lw	a5,112(sp)
	lw	t0,20(sp)
	.loc 1 358 260
	li	t1,-2147483648
	li	t3,1
	.loc 1 358 162
	sw	a5,0(t0)
	.loc 1 358 61
	add	a5,a4,s0
	.loc 1 358 221
	sw	zero,-992(a1)
	.loc 1 358 54
	addi	a5,a5,-1
	.loc 1 358 260
	sw	t3,1056(t1)
	.loc 1 358 287
	li	a2,-2147483648
	.loc 1 358 69
	sub	a5,a5,s0
	.loc 1 358 287
	sw	a5,672(a2)
	.loc 1 358 327
	lw	a6,124(sp)
	.loc 1 358 310
	li	a7,-2147483648
	.loc 1 358 350
	li	a3,-2147479552
	.loc 1 358 327
	sub	a6,a6,s0
	.loc 1 358 310
	sw	a6,1568(a7)
	.loc 1 358 350
	sw	s0,-864(a3)
	.loc 1 358 421
	lw	t5,128(sp)
	.loc 1 358 466
	li	a6,-2147479552
	.loc 1 358 478
	addi	a5,a5,1
	.loc 1 358 421
	add	t5,s0,t5
	.loc 1 358 416
	sw	t5,0(s4)
	.loc 1 358 508
	li	t5,1036288
	.loc 1 358 466
	sw	a5,-736(a6)
	.loc 1 358 508
	addi	t5,t5,133
	sw	t5,0(s2)
.LBE250:
.LBB251:
	.loc 1 359 54
	li	a5,4096
	sw	a5,0(t6)
	.loc 1 359 83
	sw	zero,-1888(a0)
	.loc 1 359 106
	lw	a5,120(sp)
.LBE251:
	mv	t4,a4
.LVL274:
.LBB252:
	.loc 1 358 2 is_stmt 1
	.loc 1 358 82
	.loc 1 358 122
	.loc 1 358 145
	.loc 1 358 204
	.loc 1 358 244
	.loc 1 358 271
	.loc 1 358 293
	.loc 1 358 333
	.loc 1 358 359
	.loc 1 358 400
	.loc 1 358 448
	.loc 1 358 449
	.loc 1 358 491
.LBE252:
.LBB253:
	.loc 1 359 2
	.loc 1 359 37
	.loc 1 359 66
	.loc 1 359 89
	.loc 1 359 197 is_stmt 0
	addi	a4,a4,-1
.LVL275:
	.loc 1 359 106
	sw	a5,0(t0)
	.loc 1 359 127 is_stmt 1
	.loc 1 359 144 is_stmt 0
	sw	zero,-992(a1)
	.loc 1 359 156 is_stmt 1
	.loc 1 359 172 is_stmt 0
	sw	a4,672(a2)
	.loc 1 359 201 is_stmt 1
	.loc 1 359 217 is_stmt 0
	sw	t3,1056(t1)
	.loc 1 359 226 is_stmt 1
	.loc 1 359 243 is_stmt 0
	li	a5,839
	sw	a5,1568(a7)
	.loc 1 359 248 is_stmt 1
	.loc 1 359 284 is_stmt 0
	li	a5,524288
	.loc 1 359 265
	sw	zero,-864(a3)
	.loc 1 359 268 is_stmt 1
	.loc 1 359 284 is_stmt 0
	addi	a5,a5,1080
	sw	a5,0(s4)
	.loc 1 359 332 is_stmt 1
	.loc 1 359 412 is_stmt 0
	li	a4,524288
	.loc 1 359 349
	sw	t4,-736(a6)
	.loc 1 359 395 is_stmt 1
	.loc 1 359 412 is_stmt 0
	addi	a4,a4,135
	sw	a4,0(s2)
.LBE253:
	.loc 1 360 1 is_stmt 1
	.loc 1 360 18 is_stmt 0
	li	a5,-2147483648
	.loc 1 361 18
	li	s7,-2147483648
	li	a4,1032605696
	.loc 1 360 18
	sw	s3,92(a5)
	.loc 1 361 1 is_stmt 1
	.loc 1 361 2
	.loc 1 361 18 is_stmt 0
	addi	a4,a4,-508
	sw	a4,20(s7)
	.loc 1 365 13 is_stmt 1
	.loc 1 365 15 is_stmt 0
	lw	a4,52(sp)
	li	a3,2
	.loc 1 361 18
	addi	s7,s7,20
	.loc 1 360 18
	addi	a5,a5,92
	.loc 1 365 15
	beq	a4,a3,.L170
	.loc 1 379 1 is_stmt 1
	.loc 1 379 18 is_stmt 0
	sw	zero,0(a5)
	.loc 1 380 1 is_stmt 1
	.loc 1 380 18 is_stmt 0
	li	a4,-2147483648
	sw	zero,96(a4)
	.loc 1 381 16 is_stmt 1
.LVL276:
	.loc 1 381 28 discriminator 1
	lw	a5,12(sp)
	ble	a5,zero,.L119
	.loc 1 383 20 is_stmt 0
	li	a6,-2147483648
	.loc 1 383 85
	li	a0,-2147483648
	.loc 1 383 296
	li	a1,196608
	.loc 1 384 20
	li	a2,-2147483648
	lw	s6,32(sp)
	.loc 1 381 28 discriminator 1
	li	s11,0
	li	s10,0
	.loc 1 381 22
	li	s9,0
	.loc 1 383 20
	addi	a6,a6,436
	.loc 1 383 85
	addi	a0,a0,308
	.loc 1 383 296
	addi	a1,a1,1
	.loc 1 384 20
	addi	a2,a2,52
	sw	s3,100(sp)
	sw	s0,104(sp)
	mv	s3,s9
.LVL277:
	sw	s5,108(sp)
	mv	s9,s8
	mv	s5,s11
	mv	s8,s2
.LVL278:
	mv	s0,s7
	mv	s2,s1
	mv	s7,s4
	mv	s11,a0
	mv	s4,s10
	sw	a1,16(sp)
	mv	s10,a6
	mv	s1,a2
.LVL279:
.L120:
	.loc 1 382 19 is_stmt 1
	sw	zero,0(s2)
	.loc 1 382 19
	call	_taskYield
.LVL280:
	.loc 1 382 33 discriminator 1
	.loc 1 383 3
	.loc 1 383 40 is_stmt 0
	li	a3,30
	.loc 1 383 20
	sw	zero,0(s10)
	.loc 1 383 23 is_stmt 1
	.loc 1 383 40 is_stmt 0
	sw	a3,0(s8)
	.loc 1 383 68 is_stmt 1
	.loc 1 383 85 is_stmt 0
	sw	zero,0(s11)
.LBB254:
	.loc 1 383 89 is_stmt 1
.LVL281:
	.loc 1 383 177
	.loc 1 383 210
	.loc 1 383 226 is_stmt 0
	sw	s4,0(s7)
	.loc 1 383 234 is_stmt 1
.LBE254:
	.loc 1 383 236
	.loc 1 383 253 is_stmt 0
	li	a7,28
	sw	a7,0(s8)
	.loc 1 383 279 is_stmt 1
	.loc 1 383 280
	.loc 1 383 296 is_stmt 0
	lw	a5,16(sp)
	.loc 1 384 85
	li	a4,-2147483648
	.loc 1 381 40 discriminator 3
	addi	s3,s3,1
.LVL282:
	.loc 1 383 296
	sw	a5,0(s0)
	.loc 1 384 3 is_stmt 1
	.loc 1 384 20 is_stmt 0
	sw	zero,0(s1)
	.loc 1 384 23 is_stmt 1
	.loc 1 384 40 is_stmt 0
	sw	a3,0(s8)
	.loc 1 384 68 is_stmt 1
	.loc 1 384 85 is_stmt 0
	sw	zero,180(a4)
.LBB255:
	.loc 1 384 89 is_stmt 1
.LVL283:
	.loc 1 384 222
	.loc 1 384 259
	.loc 1 384 275 is_stmt 0
	sw	s5,0(s7)
	.loc 1 384 283 is_stmt 1
.LBE255:
	.loc 1 384 285
	.loc 1 384 345 is_stmt 0
	li	a3,327680
	.loc 1 384 302
	sw	a7,0(s8)
	.loc 1 384 328 is_stmt 1
	.loc 1 384 329
	.loc 1 384 345 is_stmt 0
	addi	a3,a3,1
	sw	a3,0(s0)
	.loc 1 385 1 is_stmt 1
	.loc 1 385 2
	.loc 1 385 18 is_stmt 0
	sw	s9,0(s0)
	.loc 1 381 40 is_stmt 1 discriminator 3
.LVL284:
	.loc 1 381 28 discriminator 1
	lw	a5,8(sp)
	add	s4,s4,s6
.LVL285:
	add	s5,s5,a5
.LVL286:
	lw	a5,12(sp)
	bne	a5,s3,.L120
	lw	s3,100(sp)
.LVL287:
	lw	s0,104(sp)
	lw	s5,108(sp)
	mv	s1,s2
	sw	s6,32(sp)
	mv	s4,s7
	mv	s2,s8
.LVL288:
.L119:
	.loc 1 388 13
	sw	zero,0(s1)
	.loc 1 388 13
	call	_taskYield
.LVL289:
	.loc 1 388 27 discriminator 1
	.loc 1 392 13
	.loc 1 392 25 discriminator 1
	ble	s3,zero,.L118
	.loc 1 394 1
	.loc 1 394 18 is_stmt 0
	li	a3,-2147483648
	sw	zero,92(a3)
	.loc 1 395 1 is_stmt 1
	.loc 1 395 18 is_stmt 0
	li	a4,-2147483648
	sw	zero,96(a4)
	.loc 1 396 1 is_stmt 1
	.loc 1 396 2
	.loc 1 396 18 is_stmt 0
	lw	a1,140(sp)
	li	a5,-2147483648
	.loc 1 392 25 discriminator 1
	li	a2,1
	.loc 1 396 18
	sw	a1,20(a5)
	.loc 1 394 18
	addi	a3,a3,92
	.loc 1 396 18
	addi	a5,a5,20
	.loc 1 392 36 is_stmt 1 discriminator 3
.LVL290:
	.loc 1 392 25 discriminator 1
	.loc 1 395 18 is_stmt 0
	addi	a4,a4,96
	.loc 1 392 25 discriminator 1
	beq	s3,a2,.L118
	.loc 1 394 1 is_stmt 1
	.loc 1 394 18 is_stmt 0
	sw	a2,0(a3)
	.loc 1 395 1 is_stmt 1
	.loc 1 395 18 is_stmt 0
	lw	a2,64(sp)
	sw	a2,0(a4)
	.loc 1 396 1 is_stmt 1
	.loc 1 396 2
	.loc 1 396 18 is_stmt 0
	sw	a1,0(a5)
	.loc 1 392 36 is_stmt 1 discriminator 3
.LVL291:
	.loc 1 392 25 discriminator 1
	li	a2,2
	beq	s3,a2,.L118
	.loc 1 394 1
	.loc 1 394 18 is_stmt 0
	sw	a2,0(a3)
	.loc 1 395 1 is_stmt 1
	.loc 1 395 18 is_stmt 0
	lw	a2,216(sp)
	sw	a2,0(a4)
	.loc 1 396 1 is_stmt 1
	.loc 1 396 2
	.loc 1 396 18 is_stmt 0
	sw	a1,0(a5)
	.loc 1 392 36 is_stmt 1 discriminator 3
.LVL292:
	.loc 1 392 25 discriminator 1
	li	a2,3
	beq	s3,a2,.L118
	.loc 1 394 1
	.loc 1 394 18 is_stmt 0
	sw	a2,0(a3)
	.loc 1 395 1 is_stmt 1
	.loc 1 395 18 is_stmt 0
	lw	a2,220(sp)
	sw	a2,0(a4)
	.loc 1 396 1 is_stmt 1
	.loc 1 396 2
	.loc 1 396 18 is_stmt 0
	sw	a1,0(a5)
	.loc 1 392 36 is_stmt 1 discriminator 3
.LVL293:
	.loc 1 392 25 discriminator 1
	li	a2,4
	beq	s3,a2,.L118
	.loc 1 394 1
	.loc 1 394 18 is_stmt 0
	sw	a2,0(a3)
	.loc 1 395 1 is_stmt 1
	.loc 1 395 18 is_stmt 0
	lw	a2,224(sp)
	sw	a2,0(a4)
	.loc 1 396 1 is_stmt 1
	.loc 1 396 2
	.loc 1 396 18 is_stmt 0
	sw	a1,0(a5)
	.loc 1 392 36 is_stmt 1 discriminator 3
.LVL294:
	.loc 1 392 25 discriminator 1
	li	a2,5
	beq	s3,a2,.L118
	.loc 1 394 1
	.loc 1 394 18 is_stmt 0
	sw	a2,0(a3)
	.loc 1 395 1 is_stmt 1
	.loc 1 395 18 is_stmt 0
	lw	a2,228(sp)
	sw	a2,0(a4)
	.loc 1 396 1 is_stmt 1
	.loc 1 396 2
	.loc 1 396 18 is_stmt 0
	sw	a1,0(a5)
	.loc 1 392 36 is_stmt 1 discriminator 3
.LVL295:
	.loc 1 392 25 discriminator 1
	li	a2,6
	beq	s3,a2,.L118
	.loc 1 394 1
	.loc 1 394 18 is_stmt 0
	sw	a2,0(a3)
	.loc 1 395 1 is_stmt 1
	.loc 1 395 18 is_stmt 0
	lw	a2,236(sp)
	sw	a2,0(a4)
	.loc 1 396 1 is_stmt 1
	.loc 1 396 2
	.loc 1 396 18 is_stmt 0
	sw	a1,0(a5)
	.loc 1 392 36 is_stmt 1 discriminator 3
.LVL296:
	.loc 1 392 25 discriminator 1
	li	a2,8
	bne	s3,a2,.L118
	.loc 1 394 1
	.loc 1 394 18 is_stmt 0
	li	a2,7
	sw	a2,0(a3)
	.loc 1 395 1 is_stmt 1
	.loc 1 395 18 is_stmt 0
	lw	a3,240(sp)
	sw	a3,0(a4)
	.loc 1 396 1 is_stmt 1
	.loc 1 396 2
	.loc 1 396 18 is_stmt 0
	sw	a1,0(a5)
	.loc 1 392 36 is_stmt 1 discriminator 3
.LVL297:
	.loc 1 392 25 discriminator 1
.L118:
	.loc 1 398 13
	sw	zero,0(s1)
	.loc 1 398 13
	call	_taskYield
.LVL298:
	.loc 1 398 27 discriminator 1
	.loc 1 402 13
.LBB256:
	.loc 1 405 31 is_stmt 0
	lw	a4,56(sp)
.LBE256:
	.loc 1 402 15
	li	a5,1
.LBB257:
	.loc 1 405 31
	add	a4,a4,s0
	sw	a4,16(sp)
.LBE257:
	.loc 1 402 15
	lw	a4,72(sp)
	ble	a4,a5,.L171
	.loc 1 403 16 is_stmt 1
	.loc 1 403 22 is_stmt 0
	lw	a4,92(s5)
	.loc 1 403 65
	addi	a3,a4,-1
	.loc 1 403 18
	bleu	a3,a5,.L172
	.loc 1 407 16 is_stmt 1
	.loc 1 407 18 is_stmt 0
	bne	a4,zero,.L126
.LBB258:
	.loc 1 409 3318
	lw	a5,16(sp)
	addi	a5,a5,-1
	.loc 1 409 3333
	sub	a5,a5,s0
	.loc 1 409 3716
	addi	a4,a5,1
	.loc 1 409 3333
	sw	a5,156(sp)
.LBE258:
.LBB259:
	.loc 1 405 501
	lw	a5,76(sp)
	addi	a5,a5,1
.LBE259:
.LBB260:
	.loc 1 409 3719
	mul	a5,a4,a5
	sw	a5,108(sp)
.L125:
.LBE260:
.LBB261:
	.loc 1 409 3 is_stmt 1
.LVL299:
	.loc 1 409 249
	.loc 1 409 305 is_stmt 0
	lw	t4,72(sp)
	.loc 1 409 413
	lw	a7,212(sp)
	.loc 1 409 266
	li	a4,-2147483648
	.loc 1 409 305
	mul	a5,s3,t4
	.loc 1 409 266
	addi	s6,a4,1696
	.loc 1 409 370
	li	s8,-2147483648
	.loc 1 409 393
	li	s10,-2147483648
	.loc 1 409 515
	li	s9,-2147479552
	.loc 1 409 618
	li	a0,-2147483648
	addi	a0,a0,32
	.loc 1 409 700
	li	a6,-2147483648
	addi	a6,a6,160
	.loc 1 409 722
	li	t1,-2147483648
	.loc 1 409 413
	mul	a4,a5,a7
	.loc 1 409 348
	slli	a2,a5,7
	.loc 1 409 266
	sw	a2,0(s6)
.LVL300:
	.loc 1 409 353 is_stmt 1
	.loc 1 409 370 is_stmt 0
	lw	a3,44(sp)
	.loc 1 409 679
	slli	a1,a5,4
	.loc 1 409 700
	li	a5,7
	.loc 1 409 370
	sw	a3,1824(s8)
	.loc 1 409 376 is_stmt 1
	.loc 1 409 830 is_stmt 0
	li	t2,-2147479552
	.loc 1 409 912
	li	t0,-2147483648
	.loc 1 409 979
	li	t6,-2147483648
	.loc 1 409 413
	slli	a4,a4,7
	.loc 1 409 495
	addi	a4,a4,-1
	.loc 1 409 393
	sw	a4,172(sp)
	sw	a4,1952(s10)
	.loc 1 409 498 is_stmt 1
	.loc 1 409 515 is_stmt 0
	sw	zero,-1120(s9)
	.loc 1 409 602 is_stmt 1
	.loc 1 409 618 is_stmt 0
	sw	a0,56(sp)
	sw	a1,0(a0)
	.loc 1 409 684 is_stmt 1
	.loc 1 409 700 is_stmt 0
	sw	a6,68(sp)
	sw	a5,0(a6)
	.loc 1 409 706 is_stmt 1
	.loc 1 409 618 is_stmt 0
	mv	a4,a1
	.loc 1 409 1980
	mul	a3,s3,a7
	.loc 1 409 722
	addi	a1,t1,1184
	.loc 1 409 810
	addi	a7,a2,-1
	sw	a2,168(sp)
	.loc 1 409 722
	sw	a1,84(sp)
	sw	a7,180(sp)
	sw	a7,1184(t1)
	.loc 1 409 813 is_stmt 1
	.loc 1 409 830 is_stmt 0
	sw	zero,-1504(t2)
	.loc 1 409 896 is_stmt 1
	.loc 1 409 912 is_stmt 0
	lw	t1,160(sp)
	.loc 1 409 1002
	li	t3,-2147483648
	.loc 1 409 1089
	li	a2,-2147479552
	.loc 1 409 912
	sw	t1,288(t0)
	.loc 1 409 963 is_stmt 1
	.loc 1 409 979 is_stmt 0
	lw	a7,48(sp)
	.loc 1 409 1002
	addi	t1,t3,1312
	.loc 1 409 1069
	addi	t3,a4,-1
	.loc 1 409 979
	sw	a7,416(t6)
	.loc 1 409 985 is_stmt 1
	.loc 1 409 1069 is_stmt 0
	sw	a4,176(sp)
	.loc 1 409 1002
	sw	t1,88(sp)
	sw	t3,184(sp)
	sw	t3,0(t1)
	.loc 1 409 1072 is_stmt 1
	.loc 1 409 1089 is_stmt 0
	sw	a2,100(sp)
	sw	zero,-1376(a2)
	.loc 1 409 1140 is_stmt 1
	.loc 1 409 1157 is_stmt 0
	lw	s11,24(sp)
	li	s3,16
	.loc 1 409 1207
	li	t1,-2147479552
	.loc 1 409 1157
	sw	s3,0(s11)
	.loc 1 409 1190 is_stmt 1
	.loc 1 409 1207 is_stmt 0
	lw	t3,80(sp)
	.loc 1 409 1302
	li	a7,-2147479552
	.loc 1 409 1351
	li	t5,-2147483648
	.loc 1 409 1207
	sw	t3,-1888(t1)
	.loc 1 409 1213 is_stmt 1
	.loc 1 409 1230 is_stmt 0
	lw	a4,20(sp)
	lw	s7,164(sp)
	.loc 1 409 1351
	addi	s3,t5,800
	.loc 1 409 1980
	mul	a3,a3,t4
	.loc 1 409 1230
	sw	s7,0(a4)
	.loc 1 409 1285 is_stmt 1
	.loc 1 409 1302 is_stmt 0
	sw	zero,-992(a7)
	.loc 1 409 1335 is_stmt 1
	.loc 1 409 1351 is_stmt 0
	sw	s3,104(sp)
	li	s7,8
	sw	s7,800(t5)
	.loc 1 409 1372 is_stmt 1
	.loc 1 409 1388 is_stmt 0
	li	a4,1
	li	t4,-2147483648
	sw	a4,928(t4)
	.loc 1 409 1394 is_stmt 1
	.loc 1 409 1411 is_stmt 0
	li	s3,-2147483648
	li	a2,15
	sw	a2,1440(s3)
	.loc 1 409 1448 is_stmt 1
	.loc 1 409 1465 is_stmt 0
	li	t3,-2147479552
	sw	zero,-1248(t3)
	.loc 1 409 1486 is_stmt 1
	.loc 1 409 1502 is_stmt 0
	li	a6,-2147483648
	sw	a4,1056(a6)
	.loc 1 409 1513 is_stmt 1
	.loc 1 409 1529 is_stmt 0
	li	a0,-2147483648
	sw	a5,672(a0)
	.loc 1 409 1535 is_stmt 1
	.loc 1 409 1552 is_stmt 0
	li	a1,-2147483648
	sw	a5,1568(a1)
	.loc 1 409 1573 is_stmt 1
	.loc 1 409 1590 is_stmt 0
	li	a2,-2147479552
	.loc 1 409 1937
	li	t5,-2147479552
	.loc 1 409 1590
	sw	zero,-864(a2)
	.loc 1 409 1599 is_stmt 1
.LVL301:
	.loc 1 409 1871
	.loc 1 409 1937 is_stmt 0
	addi	s7,t5,-736
	.loc 1 409 1887
	sw	zero,0(s4)
	.loc 1 409 1919 is_stmt 1
	.loc 1 409 1920
	.loc 1 409 1937 is_stmt 0
	mv	t5,s7
	sw	t5,196(sp)
	.loc 1 409 1980
	slli	a3,a3,7
	.loc 1 409 2007
	li	s7,1036288
	.loc 1 409 1937
	sw	a3,0(t5)
	.loc 1 409 1990 is_stmt 1
	.loc 1 409 2007 is_stmt 0
	addi	s7,s7,-1889
	sw	s7,0(s2)
.LBE261:
.LBB262:
	.loc 1 409 2043 is_stmt 1
.LVL302:
	.loc 1 409 2125
	.loc 1 409 2142 is_stmt 0
	lw	t5,144(sp)
	sw	s6,192(sp)
	.loc 1 409 2294
	li	a3,4096
	.loc 1 409 2142
	sw	t5,0(s6)
.LVL303:
	.loc 1 409 2164 is_stmt 1
	.loc 1 409 2181 is_stmt 0
	lw	s7,44(sp)
	sw	s7,1824(s8)
	.loc 1 409 2187 is_stmt 1
	.loc 1 409 2204 is_stmt 0
	lw	t5,148(sp)
	sw	t5,1952(s10)
	.loc 1 409 2238 is_stmt 1
	.loc 1 409 2255 is_stmt 0
	sw	zero,-1120(s9)
	.loc 1 409 2277 is_stmt 1
	.loc 1 409 2294 is_stmt 0
	sw	a3,0(s11)
	.loc 1 409 2306 is_stmt 1
	.loc 1 409 2323 is_stmt 0
	lw	s7,80(sp)
	sw	s7,-1888(t1)
	.loc 1 409 2329 is_stmt 1
	.loc 1 409 2346 is_stmt 0
	lw	a3,20(sp)
	lw	t5,152(sp)
	sw	t5,0(a3)
	.loc 1 409 2369 is_stmt 1
	.loc 1 409 2386 is_stmt 0
	sw	zero,-992(a7)
	.loc 1 409 2398 is_stmt 1
	.loc 1 409 2414 is_stmt 0
	lw	s7,48(sp)
	.loc 1 409 2462
	li	a3,128
	.loc 1 409 2414
	sw	s7,416(t6)
	.loc 1 409 2446 is_stmt 1
	.loc 1 409 2462 is_stmt 0
	sw	a3,288(t0)
	.loc 1 409 2496 is_stmt 1
	.loc 1 409 2513 is_stmt 0
	lw	s6,88(sp)
	li	a3,1023
	.loc 1 409 2600
	li	s7,64
	.loc 1 409 2513
	sw	a3,0(s6)
	.loc 1 409 2519 is_stmt 1
	.loc 1 409 2536 is_stmt 0
	lw	t5,100(sp)
	sw	zero,-1376(t5)
	.loc 1 409 2539 is_stmt 1
	.loc 1 409 2555 is_stmt 0
	sw	a4,928(t4)
	.loc 1 409 2584 is_stmt 1
	.loc 1 409 2600 is_stmt 0
	lw	s6,104(sp)
.LBE262:
	.loc 1 409 3165
	li	t5,-2147483648
	addi	t5,t5,20
.LBB263:
	.loc 1 409 2600
	sw	s7,0(s6)
	.loc 1 409 2630 is_stmt 1
	.loc 1 409 2647 is_stmt 0
	sw	a3,1440(s3)
	.loc 1 409 2653 is_stmt 1
	.loc 1 409 2670 is_stmt 0
	sw	zero,-1248(t3)
	.loc 1 409 2673 is_stmt 1
	.loc 1 409 2689 is_stmt 0
	sw	a5,672(a0)
	.loc 1 409 2718 is_stmt 1
	.loc 1 409 2734 is_stmt 0
	li	s7,8
	sw	s7,1056(a6)
	.loc 1 409 2760 is_stmt 1
	.loc 1 409 2777 is_stmt 0
	sw	a3,1568(a1)
	.loc 1 409 2783 is_stmt 1
	.loc 1 409 2800 is_stmt 0
	sw	zero,-864(a2)
	.loc 1 409 2803 is_stmt 1
	.loc 1 409 2819 is_stmt 0
	lw	s7,68(sp)
	sw	a5,0(s7)
	.loc 1 409 2857 is_stmt 1
	.loc 1 409 2873 is_stmt 0
	lw	s7,56(sp)
	sw	a4,0(s7)
	.loc 1 409 2884 is_stmt 1
	.loc 1 409 2900 is_stmt 0
	lw	s6,84(sp)
	.loc 1 409 3113
	li	s7,1032192
	addi	s7,s7,1181
	.loc 1 409 2900
	sw	a3,0(s6)
	.loc 1 409 2906 is_stmt 1
	.loc 1 409 2942 is_stmt 0
	li	a3,524288
	.loc 1 409 2923
	sw	zero,-1504(t2)
	.loc 1 409 2926 is_stmt 1
	.loc 1 409 2942 is_stmt 0
	addi	a3,a3,56
	sw	a3,0(s4)
	.loc 1 409 3096 is_stmt 1
	.loc 1 409 3113 is_stmt 0
	sw	s7,0(s2)
.LBE263:
	.loc 1 409 3148 is_stmt 1
	.loc 1 409 3149
	.loc 1 409 3165 is_stmt 0
	li	a3,65536
	sw	t5,200(sp)
	addi	a3,a3,17
	sw	a3,0(t5)
.LBB264:
	.loc 1 409 3253 is_stmt 1
.LVL304:
	.loc 1 409 3346
	.loc 1 409 3363 is_stmt 0
	lw	s6,36(sp)
	sw	s11,24(sp)
.LBE264:
	.loc 1 409 0
	li	s7,393216
.LBB265:
	.loc 1 409 3363
	sw	s6,0(s11)
.LVL305:
	.loc 1 409 3380 is_stmt 1
	.loc 1 409 3397 is_stmt 0
	lw	s11,76(sp)
.LBE265:
	.loc 1 409 0
	addi	s7,s7,17
.LBB266:
	.loc 1 409 3397
	sw	s11,-1888(t1)
	.loc 1 409 3403 is_stmt 1
	.loc 1 409 3564 is_stmt 0
	addi	s11,s6,-1
	.loc 1 409 3566
	sub	s11,s11,s0
	.loc 1 409 3435
	lw	a3,32(s5)
	.loc 1 409 3566
	sw	s11,188(sp)
	.loc 1 409 3435
	lw	s11,92(sp)
	.loc 1 409 3602
	lw	t5,96(sp)
	.loc 1 409 3435
	sub	a3,a3,s11
	.loc 1 409 3440
	mul	a3,a3,s6
	.loc 1 409 3602
	add	s11,t5,s0
	sw	s11,204(sp)
	.loc 1 409 3420
	lw	s6,20(sp)
	.loc 1 409 3746
	li	s11,1036288
	addi	s11,s11,159
	sw	s11,208(sp)
.LBE266:
.LBB267:
	.loc 1 409 0
	li	s11,1036288
	addi	s11,s11,-1891
.LBE267:
.LBB268:
	.loc 1 409 3452
	addi	a3,a3,-1
	.loc 1 409 3420
	sw	a3,0(s6)
	.loc 1 409 3455 is_stmt 1
	.loc 1 409 3472 is_stmt 0
	sw	t5,-992(a7)
	.loc 1 409 3489 is_stmt 1
	.loc 1 409 3505 is_stmt 0
	sw	a4,1056(a6)
	.loc 1 409 3516 is_stmt 1
	.loc 1 409 3532 is_stmt 0
	lw	t5,156(sp)
	sw	t5,672(a0)
	.loc 1 409 3538 is_stmt 1
	.loc 1 409 3555 is_stmt 0
	lw	a3,188(sp)
	sw	a3,1568(a1)
	.loc 1 409 3572 is_stmt 1
	.loc 1 409 3589 is_stmt 0
	sw	s0,-864(a2)
	.loc 1 409 3598 is_stmt 1
.LVL306:
	.loc 1 409 3633
	.loc 1 409 3654 is_stmt 0
	lw	s0,204(sp)
	lw	a3,20(s5)
	add	a3,s0,a3
	.loc 1 409 3649
	sw	a3,0(s4)
	.loc 1 409 3686 is_stmt 1
	.loc 1 409 3687
	.loc 1 409 3704 is_stmt 0
	lw	s0,196(sp)
	lw	t5,108(sp)
	sw	t5,0(s0)
	.loc 1 409 3729 is_stmt 1
	.loc 1 409 3746 is_stmt 0
	lw	s0,208(sp)
	sw	s0,0(s2)
.LBE268:
.LBB269:
	.loc 1 409 3782 is_stmt 1
.LVL307:
	.loc 1 409 4028
	.loc 1 409 4044 is_stmt 0
	lw	a3,56(sp)
	lw	s0,168(sp)
	sw	s0,0(a3)
.LVL308:
	.loc 1 409 0 is_stmt 1
	lw	a3,68(sp)
	lw	s0,44(sp)
	sw	s0,0(a3)
	.loc 1 409 0
	lw	a3,172(sp)
	lw	s0,84(sp)
	sw	a3,0(s0)
	.loc 1 409 0
	sw	zero,-1504(t2)
	.loc 1 409 0
	lw	t2,176(sp)
	sw	t2,288(t0)
	.loc 1 409 0
	sw	a5,416(t6)
	.loc 1 409 0
	lw	t6,88(sp)
	lw	t0,180(sp)
	sw	t0,0(t6)
	.loc 1 409 0
	lw	a3,100(sp)
	sw	zero,-1376(a3)
	.loc 1 409 0
	lw	t6,104(sp)
	lw	t0,160(sp)
	sw	t0,0(t6)
	.loc 1 409 0
	lw	t5,48(sp)
	sw	t5,928(t4)
	.loc 1 409 0
	lw	t4,184(sp)
	sw	t4,1440(s3)
	.loc 1 409 0
	sw	zero,-1248(t3)
	.loc 1 409 0
	lw	t3,192(sp)
	li	s3,16
	sw	s3,0(t3)
	.loc 1 409 0
	lw	t3,80(sp)
	sw	t3,1824(s8)
	.loc 1 409 0
	lw	t4,164(sp)
	li	t3,8
	sw	t4,1952(s10)
	.loc 1 409 0
	sw	zero,-1120(s9)
	.loc 1 409 0
	lw	a3,24(sp)
	sw	t3,0(a3)
	.loc 1 409 0
	sw	a4,-1888(t1)
	.loc 1 409 0
	li	t1,15
	sw	t1,0(s6)
	.loc 1 409 0
	sw	zero,-992(a7)
	.loc 1 409 0
	sw	a4,1056(a6)
	.loc 1 409 0
	sw	a5,672(a0)
	.loc 1 409 0
	sw	a5,1568(a1)
	.loc 1 409 0
	sw	zero,-864(a2)
	.loc 1 409 0
.LVL309:
	.loc 1 409 0
	sw	zero,0(s4)
	.loc 1 409 0
	.loc 1 409 0
	sw	s11,0(s2)
.LBE269:
	.loc 1 409 0
	.loc 1 409 0
	lw	t5,200(sp)
	sw	s7,0(t5)
.LVL310:
.L126:
	.loc 1 421 13
	.loc 1 336 22 discriminator 1
	lw	a5,36(sp)
	lw	a4,16(sp)
	ble	a5,a4,.L173
.LVL311:
.L147:
	mv	s0,a4
.LVL312:
	j	.L129
.LVL313:
.L171:
	.loc 1 412 16
	.loc 1 412 22 is_stmt 0
	lw	a4,92(s5)
	.loc 1 412 65
	addi	a3,a4,-1
	.loc 1 412 18
	bleu	a3,a5,.L174
	.loc 1 416 16 is_stmt 1
	.loc 1 416 18 is_stmt 0
	bne	a4,zero,.L126
.LBB270:
	.loc 1 405 501
	lw	a5,76(sp)
	addi	a5,a5,1
	sw	a5,84(sp)
.L132:
.LBE270:
.LBB271:
	.loc 1 418 3 is_stmt 1
.LVL314:
	.loc 1 418 168
	.loc 1 418 301 is_stmt 0
	lw	a3,88(sp)
	lw	a5,212(sp)
	.loc 1 418 185
	lw	s6,24(sp)
	.loc 1 418 236
	slli	a2,a3,6
	.loc 1 418 301
	mul	a4,a3,a5
	.loc 1 418 185
	sw	a2,0(s6)
.LVL315:
	.loc 1 418 241 is_stmt 1
	.loc 1 418 258 is_stmt 0
	lw	a5,44(sp)
	li	a0,-2147479552
	.loc 1 418 372
	li	s9,-2147479552
	.loc 1 418 258
	sw	a5,-1888(a0)
	.loc 1 418 264 is_stmt 1
	.loc 1 418 281 is_stmt 0
	lw	t0,20(sp)
	.loc 1 418 444
	li	s11,-2147483648
	.loc 1 418 495
	li	a5,7
	li	t4,-2147483648
	.loc 1 418 301
	slli	a4,a4,6
	.loc 1 418 352
	addi	a1,a4,-1
	.loc 1 418 281
	sw	a1,88(sp)
	sw	a1,0(t0)
	.loc 1 418 355 is_stmt 1
	.loc 1 418 372 is_stmt 0
	sw	zero,-992(s9)
	.loc 1 418 428 is_stmt 1
	.loc 1 418 444 is_stmt 0
	lw	s8,68(sp)
	.loc 1 418 575
	addi	a6,a2,-1
	.loc 1 418 518
	li	s7,-2147483648
	.loc 1 418 444
	sw	s8,800(s11)
	.loc 1 418 479 is_stmt 1
	.loc 1 418 495 is_stmt 0
	sw	a5,928(t4)
	.loc 1 418 501 is_stmt 1
	.loc 1 418 575 is_stmt 0
	sw	a2,56(sp)
	.loc 1 418 518
	sw	a6,100(sp)
	sw	a6,1440(s7)
	.loc 1 418 578 is_stmt 1
	.loc 1 418 595 is_stmt 0
	li	t3,-2147479552
	sw	zero,-1248(t3)
	.loc 1 418 630 is_stmt 1
	.loc 1 418 647 is_stmt 0
	li	s3,-2147483648
	li	a1,8
	sw	a1,1696(s3)
	.loc 1 418 668 is_stmt 1
	.loc 1 418 108 is_stmt 0
	addi	a3,a3,-1
.LVL316:
	.loc 1 418 685
	sw	a3,48(sp)
	li	t1,-2147483648
	sw	a3,1824(t1)
	.loc 1 418 691 is_stmt 1
	.loc 1 418 744 is_stmt 0
	addi	t6,s8,-1
	.loc 1 418 708
	sw	t6,104(sp)
	li	t2,-2147483648
	sw	t6,1952(t2)
	.loc 1 418 747 is_stmt 1
	.loc 1 418 764 is_stmt 0
	li	a7,-2147479552
	sw	zero,-1120(a7)
	.loc 1 418 785 is_stmt 1
	.loc 1 418 801 is_stmt 0
	li	s10,-2147483648
	li	t6,1
	sw	t6,1056(s10)
	.loc 1 418 812 is_stmt 1
	.loc 1 418 828 is_stmt 0
	li	a1,-2147483648
	sw	a5,672(a1)
	.loc 1 418 834 is_stmt 1
	.loc 1 418 851 is_stmt 0
	li	a2,-2147483648
	sw	a5,1568(a2)
	.loc 1 418 872 is_stmt 1
	.loc 1 418 889 is_stmt 0
	li	a3,-2147479552
.LVL317:
	sw	zero,-864(a3)
	.loc 1 418 898 is_stmt 1
.LVL318:
	.loc 1 418 1026
	.loc 1 418 1042 is_stmt 0
	sw	zero,0(s4)
	.loc 1 418 1074 is_stmt 1
	.loc 1 418 1075
	.loc 1 418 1092 is_stmt 0
	li	t5,-2147479552
	.loc 1 418 1148
	li	a6,1036288
	.loc 1 418 1092
	sw	a4,-736(t5)
	.loc 1 418 1131 is_stmt 1
	.loc 1 418 1148 is_stmt 0
	addi	a6,a6,-1889
	sw	a6,0(s2)
.LBE271:
.LBB272:
	.loc 1 418 1184 is_stmt 1
.LVL319:
	.loc 1 418 1225
	.loc 1 418 1242 is_stmt 0
	li	a4,4096
	sw	a4,0(s6)
	.loc 1 418 1254 is_stmt 1
	.loc 1 418 1271 is_stmt 0
	lw	a4,44(sp)
	sw	a4,-1888(a0)
	.loc 1 418 1277 is_stmt 1
	.loc 1 418 1294 is_stmt 0
	lw	a4,232(sp)
	sw	t0,20(sp)
	sw	a4,0(t0)
	.loc 1 418 1318 is_stmt 1
	.loc 1 418 1335 is_stmt 0
	sw	zero,-992(s9)
	.loc 1 418 1347 is_stmt 1
	.loc 1 418 1364 is_stmt 0
	lw	a6,48(sp)
	.loc 1 418 1412
	li	a4,64
	.loc 1 418 1364
	sw	a6,1824(t1)
	.loc 1 418 1395 is_stmt 1
	.loc 1 418 1412 is_stmt 0
	sw	a4,1696(s3)
	.loc 1 418 1442 is_stmt 1
	.loc 1 418 1459 is_stmt 0
	li	a6,1023
	sw	a6,1952(t2)
	.loc 1 418 1465 is_stmt 1
	.loc 1 418 1482 is_stmt 0
	sw	zero,-1120(a7)
	.loc 1 418 1485 is_stmt 1
	.loc 1 418 1501 is_stmt 0
	sw	a5,672(a1)
	.loc 1 418 1530 is_stmt 1
	.loc 1 418 1546 is_stmt 0
	li	a4,8
	sw	a4,1056(s10)
	.loc 1 418 1572 is_stmt 1
	.loc 1 418 1589 is_stmt 0
	sw	a6,1568(a2)
	.loc 1 418 1595 is_stmt 1
	.loc 1 418 1612 is_stmt 0
	sw	zero,-864(a3)
	.loc 1 418 1615 is_stmt 1
	.loc 1 418 1631 is_stmt 0
	sw	a5,928(t4)
	.loc 1 418 1669 is_stmt 1
	.loc 1 418 1685 is_stmt 0
	sw	t6,800(s11)
	.loc 1 418 1696 is_stmt 1
	.loc 1 418 1713 is_stmt 0
	sw	a6,1440(s7)
	.loc 1 418 1719 is_stmt 1
	.loc 1 418 1755 is_stmt 0
	li	a4,524288
	.loc 1 418 1736
	sw	zero,-1248(t3)
	.loc 1 418 1739 is_stmt 1
	.loc 1 418 1755 is_stmt 0
	addi	a4,a4,56
	sw	a4,0(s4)
	.loc 1 418 1855 is_stmt 1
	.loc 1 418 1872 is_stmt 0
	li	a6,1032192
.LBE272:
	.loc 1 418 1924
	li	a4,-2147483648
	mv	t0,a4
.LBB273:
	.loc 1 418 1872
	addi	a6,a6,1181
	sw	a6,0(s2)
.LBE273:
	.loc 1 418 1907 is_stmt 1
	.loc 1 418 1908
	.loc 1 418 1924 is_stmt 0
	li	a4,65536
	addi	a6,t0,20
	sw	a6,168(sp)
	addi	a4,a4,17
	sw	a4,0(a6)
.LBB274:
	.loc 1 418 2012 is_stmt 1
.LVL320:
	.loc 1 418 2122 is_stmt 0
	lw	t0,36(sp)
	.loc 1 418 2084
	add	a6,s8,s0
	.loc 1 418 2077
	addi	a6,a6,-1
	.loc 1 418 2122
	sw	t0,0(s6)
.LVL321:
	.loc 1 418 2156
	lw	a4,76(sp)
	sw	a4,-1888(a0)
	.loc 1 418 2194
	lw	a4,32(s5)
	.loc 1 418 2084
	sw	s8,68(sp)
	.loc 1 418 2194
	lw	s8,92(sp)
	sub	a4,a4,s8
	.loc 1 418 2199
	mul	a4,a4,t0
	mv	s8,t0
	.loc 1 418 2323
	addi	s8,s8,-1
	.loc 1 418 2325
	sub	s8,s8,s0
	sw	s8,108(sp)
	.loc 1 418 2361
	lw	s8,96(sp)
	.loc 1 418 2092
	sub	t0,a6,s0
.LVL322:
	.loc 1 418 2105 is_stmt 1
	.loc 1 418 2139
	.loc 1 418 2162
	.loc 1 418 2475 is_stmt 0
	sw	t0,156(sp)
	addi	t0,t0,1
.LVL323:
	.loc 1 418 2361
	add	s8,s8,s0
	.loc 1 418 2475
	sw	t0,176(sp)
	.loc 1 418 2361
	sw	s8,172(sp)
	.loc 1 418 2179
	lw	t0,20(sp)
	.loc 1 418 2211
	addi	a4,a4,-1
	.loc 1 418 2505
	li	a6,1036288
	.loc 1 418 2179
	sw	a4,0(t0)
.LVL324:
	.loc 1 418 2214 is_stmt 1
	.loc 1 418 2231 is_stmt 0
	lw	a4,96(sp)
	.loc 1 418 2505
	addi	a6,a6,159
.LBE274:
.LBB275:
	.loc 1 418 3630
	li	s8,1036288
.LBE275:
.LBB276:
	.loc 1 418 2231
	sw	a4,-992(s9)
	.loc 1 418 2248 is_stmt 1
	.loc 1 418 2478 is_stmt 0
	lw	t0,84(sp)
	lw	a4,176(sp)
.LBE276:
.LBB277:
	.loc 1 418 3630
	addi	s8,s8,-1891
.LBE277:
.LBB278:
	.loc 1 418 2478
	mul	a4,a4,t0
	sw	a4,84(sp)
	.loc 1 418 2264
	sw	t6,1056(s10)
	.loc 1 418 2275 is_stmt 1
	.loc 1 418 2291 is_stmt 0
	lw	t0,156(sp)
	sw	t0,672(a1)
	.loc 1 418 2297 is_stmt 1
	.loc 1 418 2314 is_stmt 0
	lw	a4,108(sp)
	sw	a4,1568(a2)
	.loc 1 418 2331 is_stmt 1
	.loc 1 418 2348 is_stmt 0
	sw	s0,-864(a3)
	.loc 1 418 2357 is_stmt 1
.LVL325:
	.loc 1 418 2392
	.loc 1 418 2413 is_stmt 0
	lw	s0,20(s5)
	lw	t0,172(sp)
.LBE278:
	.loc 1 418 3682
	li	a4,393216
	addi	a4,a4,17
.LBB279:
	.loc 1 418 2413
	add	s0,t0,s0
	.loc 1 418 2408
	sw	s0,0(s4)
	.loc 1 418 2445 is_stmt 1
	.loc 1 418 2446
	.loc 1 418 2463 is_stmt 0
	lw	s0,84(sp)
	sw	s0,-736(t5)
	.loc 1 418 2488 is_stmt 1
	.loc 1 418 2505 is_stmt 0
	sw	a6,0(s2)
.LBE279:
.LBB280:
	.loc 1 418 2541 is_stmt 1
.LVL326:
	.loc 1 418 2706
	.loc 1 418 2722 is_stmt 0
	lw	t5,56(sp)
	sw	t5,800(s11)
	.loc 1 418 2778 is_stmt 1
	.loc 1 418 2794 is_stmt 0
	lw	t5,44(sp)
	sw	t5,928(t4)
	.loc 1 418 2800 is_stmt 1
	.loc 1 418 2817 is_stmt 0
	lw	t4,88(sp)
	sw	t4,1440(s7)
	.loc 1 418 2891 is_stmt 1
	.loc 1 418 2908 is_stmt 0
	sw	zero,-1248(t3)
	.loc 1 418 2964 is_stmt 1
	.loc 1 418 2981 is_stmt 0
	lw	a6,68(sp)
	sw	a6,1696(s3)
	.loc 1 418 3016 is_stmt 1
	.loc 1 418 3033 is_stmt 0
	sw	a5,1824(t1)
	.loc 1 418 3039 is_stmt 1
	.loc 1 418 3056 is_stmt 0
	lw	t1,100(sp)
	.loc 1 418 3185
	li	a6,8
	.loc 1 418 3056
	sw	t1,1952(t2)
	.loc 1 418 3116 is_stmt 1
	.loc 1 418 3133 is_stmt 0
	sw	zero,-1120(a7)
	.loc 1 418 3168 is_stmt 1
	.loc 1 418 3185 is_stmt 0
	sw	a6,0(s6)
	.loc 1 418 3206 is_stmt 1
	.loc 1 418 3223 is_stmt 0
	lw	a6,48(sp)
	sw	a6,-1888(a0)
	.loc 1 418 3229 is_stmt 1
	.loc 1 418 3246 is_stmt 0
	lw	a6,104(sp)
	lw	a0,20(sp)
	sw	a6,0(a0)
	.loc 1 418 3285 is_stmt 1
	.loc 1 418 3302 is_stmt 0
	sw	zero,-992(s9)
	.loc 1 418 3323 is_stmt 1
	.loc 1 418 3339 is_stmt 0
	sw	t6,1056(s10)
	.loc 1 418 3350 is_stmt 1
	.loc 1 418 3366 is_stmt 0
	sw	a5,672(a1)
	.loc 1 418 3372 is_stmt 1
	.loc 1 418 3389 is_stmt 0
	sw	a5,1568(a2)
	.loc 1 418 3410 is_stmt 1
	.loc 1 418 3427 is_stmt 0
	sw	zero,-864(a3)
	.loc 1 418 3436 is_stmt 1
.LVL327:
	.loc 1 418 3564
	.loc 1 418 3580 is_stmt 0
	sw	zero,0(s4)
	.loc 1 418 3612 is_stmt 1
	.loc 1 418 3613
	.loc 1 418 3630 is_stmt 0
	sw	s8,0(s2)
.LBE280:
	.loc 1 418 3665 is_stmt 1
	.loc 1 418 3666
	.loc 1 418 3682 is_stmt 0
	lw	a6,168(sp)
	sw	a4,0(a6)
	.loc 1 421 13 is_stmt 1
.LVL328:
	.loc 1 336 22 discriminator 1
	lw	a5,36(sp)
	lw	a4,16(sp)
	bgt	a5,a4,.L147
.LVL329:
.L173:
	lw	s5,252(sp)
	lw	s10,256(sp)
	lw	s11,260(sp)
.LVL330:
.L109:
	.loc 1 329 20 discriminator 1
	lw	a5,96(sp)
	lw	a4,296(sp)
	add	a5,a5,a4
	sw	a5,96(sp)
	lw	a4,304(sp)
	lw	a5,244(sp)
	blt	a5,a4,.L130
	lw	s0,348(sp)
	lw	s4,284(sp)
.LVL331:
.L131:
	.loc 1 235 61 discriminator 2
	.loc 1 235 40 discriminator 1
	lw	a5,332(sp)
	beq	a5,zero,.L164
	.loc 1 245 16 is_stmt 0
	lw	a5,328(sp)
	.loc 1 246 17
	lw	a4,32(s4)
	.loc 1 245 16
	add	a5,a5,s0
	sw	a5,328(sp)
.LVL332:
	j	.L91
.LVL333:
.L170:
	.loc 1 367 28 is_stmt 1 discriminator 1
	lw	a5,28(sp)
	li	s11,0
	li	s10,0
	.loc 1 367 22 is_stmt 0
	li	s9,0
	.loc 1 367 28 discriminator 1
	ble	a5,zero,.L119
	.loc 1 369 20
	li	a7,-2147483648
	.loc 1 369 85
	li	a6,-2147483648
	.loc 1 369 296
	li	a0,196608
	.loc 1 370 20
	li	a1,-2147483648
	lw	s6,32(sp)
	.loc 1 369 20
	addi	a7,a7,436
	.loc 1 369 85
	addi	a6,a6,308
	.loc 1 369 296
	addi	a0,a0,1
	.loc 1 370 20
	addi	a1,a1,52
	sw	s3,100(sp)
	sw	s0,104(sp)
	mv	s3,s8
.LVL334:
	sw	s5,108(sp)
	mv	s8,s4
.LVL335:
	mv	s5,s10
	mv	s4,s9
	mv	s0,s7
	mv	s9,s2
	mv	s7,s11
	mv	s2,s1
	mv	s10,a7
	mv	s11,a6
	sw	a0,16(sp)
	mv	s1,a1
.LVL336:
.L116:
	.loc 1 368 19 is_stmt 1
	sw	zero,0(s2)
	.loc 1 368 19
	call	_taskYield
.LVL337:
	.loc 1 368 33 discriminator 1
	.loc 1 369 3
	.loc 1 369 40 is_stmt 0
	li	a5,30
	.loc 1 369 20
	sw	zero,0(s10)
	.loc 1 369 23 is_stmt 1
	.loc 1 369 40 is_stmt 0
	sw	a5,0(s9)
	.loc 1 369 68 is_stmt 1
	.loc 1 369 85 is_stmt 0
	sw	zero,0(s11)
.LBB281:
	.loc 1 369 89 is_stmt 1
.LVL338:
	.loc 1 369 177
	.loc 1 369 210
	.loc 1 369 226 is_stmt 0
	sw	s5,0(s8)
	.loc 1 369 234 is_stmt 1
.LBE281:
	.loc 1 369 236
	.loc 1 369 253 is_stmt 0
	li	a4,28
	sw	a4,0(s9)
	.loc 1 369 279 is_stmt 1
	.loc 1 369 280
	.loc 1 369 296 is_stmt 0
	lw	a3,16(sp)
	.loc 1 370 85
	li	a1,-2147483648
	.loc 1 375 18
	li	t4,1
	.loc 1 369 296
	sw	a3,0(s0)
	.loc 1 370 3 is_stmt 1
	.loc 1 370 20 is_stmt 0
	sw	zero,0(s1)
	.loc 1 370 23 is_stmt 1
	.loc 1 370 40 is_stmt 0
	sw	a5,0(s9)
	.loc 1 370 68 is_stmt 1
	.loc 1 370 85 is_stmt 0
	sw	zero,180(a1)
.LBB282:
	.loc 1 370 89 is_stmt 1
.LVL339:
	.loc 1 370 222
	.loc 1 370 259
	.loc 1 370 275 is_stmt 0
	sw	s7,0(s8)
	.loc 1 370 283 is_stmt 1
.LBE282:
	.loc 1 370 285
	.loc 1 370 345 is_stmt 0
	li	a5,327680
	.loc 1 370 302
	sw	a4,0(s9)
	.loc 1 370 328 is_stmt 1
	.loc 1 370 329
	.loc 1 370 345 is_stmt 0
	addi	a5,a5,1
	sw	a5,0(s0)
	.loc 1 371 1 is_stmt 1
	.loc 1 371 18 is_stmt 0
	li	a4,-2147483648
	sw	zero,92(a4)
	.loc 1 372 1 is_stmt 1
	.loc 1 372 18 is_stmt 0
	li	a5,-2147483648
	sw	zero,96(a5)
	.loc 1 373 1 is_stmt 1
	.loc 1 373 2
	.loc 1 373 18 is_stmt 0
	sw	s3,0(s0)
	.loc 1 374 1 is_stmt 1
	.loc 1 374 18 is_stmt 0
	lw	a3,40(sp)
	.loc 1 367 36 discriminator 3
	addi	s4,s4,1
.LVL340:
	.loc 1 367 28 discriminator 1
	add	s5,s5,s6
.LVL341:
	.loc 1 374 18
	sw	a3,92(a4)
	.loc 1 375 1 is_stmt 1
	.loc 1 375 18 is_stmt 0
	sw	t4,96(a5)
	.loc 1 376 1 is_stmt 1
	.loc 1 376 2
	.loc 1 376 18 is_stmt 0
	sw	s3,0(s0)
	.loc 1 367 36 is_stmt 1 discriminator 3
.LVL342:
	.loc 1 367 28 discriminator 1
	lw	a5,8(sp)
	add	s7,s7,a5
.LVL343:
	lw	a5,28(sp)
	bne	a5,s4,.L116
	mv	s1,s2
	lw	s3,100(sp)
.LVL344:
	lw	s0,104(sp)
.LVL345:
	lw	s5,108(sp)
	sw	s6,32(sp)
.LVL346:
	mv	s4,s8
.LVL347:
	mv	s2,s9
	j	.L119
.LVL348:
.L113:
	.loc 1 356 24 is_stmt 0 discriminator 1
	lw	a5,248(sp)
	bge	a5,a4,.L165
	lw	a4,264(sp)
.LVL349:
	j	.L165
.LVL350:
.L172:
.LBB283:
	.loc 1 405 3 is_stmt 1
	.loc 1 405 24 is_stmt 0
	lw	a4,16(sp)
	.loc 1 405 131
	lw	a2,32(s5)
	.loc 1 405 113
	lw	a1,24(sp)
	.loc 1 405 24
	addi	a4,a4,-1
.LVL351:
	.loc 1 405 96 is_stmt 1
	.loc 1 405 153 is_stmt 0
	sub	a0,a4,s0
	.loc 1 405 113
	sw	a2,0(a1)
.LVL352:
	.loc 1 405 136 is_stmt 1
	.loc 1 405 153 is_stmt 0
	sw	a0,156(sp)
	li	a3,-2147479552
	sw	a0,-1888(a3)
	.loc 1 405 159 is_stmt 1
	.loc 1 405 190 is_stmt 0
	lw	a2,84(sp)
	lw	a4,32(s5)
.LVL353:
	.loc 1 405 176
	lw	a6,20(sp)
	.loc 1 405 494
	addi	a0,a0,1
	.loc 1 405 190
	mul	a4,a2,a4
.LBE283:
.LBB284:
	.loc 1 405 815
	li	t1,-2147483648
	.loc 1 405 843
	li	t3,-2147483648
	.loc 1 405 815
	addi	t1,t1,800
	.loc 1 405 843
	addi	t3,t3,928
.LBE284:
.LBB285:
	.loc 1 405 228
	li	a1,-2147479552
	.loc 1 405 267
	li	s9,-2147483648
	.loc 1 405 294
	li	a2,-2147483648
	.loc 1 405 317
	li	s10,-2147483648
	.loc 1 405 357
	li	s11,-2147479552
	.loc 1 405 208
	addi	a4,a4,-1
	.loc 1 405 176
	sw	a4,0(a6)
	.loc 1 405 211 is_stmt 1
	.loc 1 405 501 is_stmt 0
	lw	a7,76(sp)
	.loc 1 405 232
	lw	a6,32(s5)
.LBE285:
.LBB286:
	.loc 1 405 815
	sw	t1,56(sp)
.LBE286:
.LBB287:
	.loc 1 405 501
	addi	a4,a7,1
	.loc 1 405 504
	mul	a0,a0,a4
.LBE287:
.LBB288:
	.loc 1 405 843
	sw	t3,68(sp)
.LBE288:
.LBB289:
	.loc 1 405 489
	li	s8,-2147479552
	.loc 1 405 531
	li	s7,1036288
	addi	s7,s7,159
.LBE289:
.LBB290:
	.loc 1 405 866
	li	t2,-2147483648
	.loc 1 405 906
	li	t0,-2147479552
	.loc 1 405 934
	li	t6,-2147483648
	.loc 1 405 982
	li	t5,-2147483648
	.loc 1 405 1047
	li	t4,-2147483648
.LBE290:
.LBB291:
	.loc 1 405 232
	mul	a4,s0,a6
	.loc 1 405 504
	sw	a0,108(sp)
.LBE291:
.LBB292:
	.loc 1 405 1047
	li	a6,1023
	.loc 1 405 1070
	li	t3,-2147479552
	.loc 1 405 1090
	li	t1,-2147483648
	.loc 1 405 1195
	li	a0,-2147483648
.LBE292:
.LBB293:
	.loc 1 405 228
	sw	a4,-992(a1)
	.loc 1 405 251 is_stmt 1
	.loc 1 405 267 is_stmt 0
	sw	a5,1056(s9)
	.loc 1 405 278 is_stmt 1
	.loc 1 405 294 is_stmt 0
	sw	a7,672(a2)
	.loc 1 405 300 is_stmt 1
	.loc 1 405 332 is_stmt 0
	lw	a4,32(s5)
	.loc 1 405 334
	lw	s6,92(sp)
.LBE293:
.LBB294:
	.loc 1 405 1152
	li	a7,-2147483648
.LBE294:
.LBB295:
	.loc 1 405 332
	addi	a4,a4,-1
	.loc 1 405 334
	sub	a4,a4,s6
	.loc 1 405 317
	sw	a4,1568(s10)
	.loc 1 405 340 is_stmt 1
	.loc 1 405 357 is_stmt 0
	sw	s6,-864(s11)
	.loc 1 405 366 is_stmt 1
.LVL354:
	.loc 1 405 407
	.loc 1 405 378 is_stmt 0
	lw	a4,32(s5)
	mul	a4,s0,a4
	.loc 1 405 370
	add	a4,a4,s6
	.loc 1 405 428
	lw	s6,24(s5)
	add	a4,a4,s6
	.loc 1 405 423
	sw	a4,0(s4)
	.loc 1 405 471 is_stmt 1
	.loc 1 405 472
	.loc 1 405 489 is_stmt 0
	lw	s6,108(sp)
	sw	s6,-736(s8)
	.loc 1 405 514 is_stmt 1
	.loc 1 405 531 is_stmt 0
	sw	s7,0(s2)
.LBE295:
.LBB296:
	.loc 1 405 567 is_stmt 1
.LVL355:
	.loc 1 405 647
	.loc 1 405 664 is_stmt 0
	lw	a4,24(sp)
	lw	s6,144(sp)
	sw	s6,0(a4)
.LVL356:
	.loc 1 405 686 is_stmt 1
	.loc 1 405 703 is_stmt 0
	lw	s6,44(sp)
	sw	s6,-1888(a3)
	.loc 1 405 709 is_stmt 1
	.loc 1 405 726 is_stmt 0
	lw	a4,20(sp)
	lw	s6,148(sp)
	sw	s6,0(a4)
	.loc 1 405 760 is_stmt 1
	.loc 1 405 777 is_stmt 0
	sw	zero,-992(a1)
	.loc 1 405 799 is_stmt 1
	.loc 1 405 815 is_stmt 0
	lw	a3,56(sp)
	li	a4,4096
	sw	a4,0(a3)
	.loc 1 405 827 is_stmt 1
	.loc 1 405 843 is_stmt 0
	lw	a4,68(sp)
	lw	a3,80(sp)
	sw	a3,0(a4)
	.loc 1 405 849 is_stmt 1
	.loc 1 405 866 is_stmt 0
	lw	a4,152(sp)
	sw	a4,1440(t2)
	.loc 1 405 889 is_stmt 1
	.loc 1 405 906 is_stmt 0
	sw	zero,-1248(t0)
	.loc 1 405 918 is_stmt 1
	.loc 1 405 934 is_stmt 0
	lw	a4,48(sp)
	sw	a4,416(t6)
	.loc 1 405 966 is_stmt 1
	.loc 1 405 982 is_stmt 0
	li	a4,128
	sw	a4,288(t5)
	.loc 1 405 1030 is_stmt 1
	.loc 1 405 1047 is_stmt 0
	sw	a6,1312(t4)
	.loc 1 405 1053 is_stmt 1
	.loc 1 405 1070 is_stmt 0
	sw	zero,-1376(t3)
	.loc 1 405 1073 is_stmt 1
	.loc 1 405 1090 is_stmt 0
	li	a4,15
	sw	a4,1824(t1)
	.loc 1 405 1135 is_stmt 1
	.loc 1 405 1152 is_stmt 0
	li	a4,8
	sw	a4,1696(a7)
	.loc 1 405 1178 is_stmt 1
	.loc 1 405 1195 is_stmt 0
	sw	a6,1952(a0)
	.loc 1 405 1201 is_stmt 1
	.loc 1 405 1218 is_stmt 0
	li	a4,-2147479552
	sw	zero,-1120(a4)
	.loc 1 405 1221 is_stmt 1
	.loc 1 405 1237 is_stmt 0
	li	a4,7
	sw	a4,672(a2)
	.loc 1 405 1275 is_stmt 1
	.loc 1 405 1291 is_stmt 0
	sw	a5,1056(s9)
	.loc 1 405 1302 is_stmt 1
	.loc 1 405 1319 is_stmt 0
	sw	a6,1568(s10)
	.loc 1 405 1325 is_stmt 1
	.loc 1 405 1361 is_stmt 0
	li	a5,524288
	.loc 1 405 1342
	sw	zero,-864(s11)
	.loc 1 405 1345 is_stmt 1
	.loc 1 405 1361 is_stmt 0
	addi	a5,a5,56
	.loc 1 405 1517
	li	a2,1032192
	.loc 1 405 1361
	sw	a5,0(s4)
	.loc 1 405 1500 is_stmt 1
	.loc 1 405 1517 is_stmt 0
	addi	a2,a2,157
.LBE296:
	.loc 1 405 1569
	li	a4,65536
	li	a5,-2147483648
.LBB297:
	.loc 1 405 1517
	sw	a2,0(s2)
.LBE297:
	.loc 1 405 1552 is_stmt 1
	.loc 1 405 1553
	.loc 1 405 1569 is_stmt 0
	addi	a4,a4,1
	sw	a4,20(a5)
	.loc 1 407 16 is_stmt 1
	.loc 1 407 18 is_stmt 0
	lw	a5,92(s5)
	andi	a5,a5,-3
	bne	a5,zero,.L126
	j	.L125
.LVL357:
.L174:
.LBB298:
	.loc 1 414 3 is_stmt 1
	.loc 1 414 24 is_stmt 0
	lw	a4,16(sp)
	.loc 1 414 131
	lw	a3,32(s5)
	.loc 1 414 113
	lw	a1,24(sp)
	.loc 1 414 24
	addi	a4,a4,-1
.LVL358:
	.loc 1 414 153
	li	a2,-2147479552
	.loc 1 414 113
	sw	a3,0(a1)
	.loc 1 414 39
	sub	a4,a4,s0
.LVL359:
	.loc 1 414 96 is_stmt 1
	.loc 1 414 136
	.loc 1 414 153 is_stmt 0
	sw	a4,-1888(a2)
.LVL360:
	.loc 1 414 159 is_stmt 1
	.loc 1 414 190 is_stmt 0
	lw	a0,84(sp)
	lw	a3,32(s5)
	.loc 1 414 501
	lw	a6,76(sp)
	.loc 1 414 176
	lw	a7,20(sp)
	.loc 1 414 190
	mul	a3,a0,a3
	.loc 1 414 501
	addi	a0,a6,1
	sw	a0,84(sp)
	.loc 1 414 228
	li	s3,-2147479552
	.loc 1 414 494
	addi	a4,a4,1
.LVL361:
	.loc 1 414 267
	li	s8,-2147483648
	.loc 1 414 294
	li	s7,-2147483648
	.loc 1 414 317
	li	s9,-2147483648
	.loc 1 414 357
	li	s10,-2147479552
	.loc 1 414 489
	li	t0,-2147479552
	.loc 1 414 208
	addi	a3,a3,-1
	.loc 1 414 176
	sw	a3,0(a7)
	.loc 1 414 211 is_stmt 1
	.loc 1 414 232 is_stmt 0
	lw	a3,32(s5)
	.loc 1 414 504
	mul	a4,a4,a0
.LVL362:
.LBE298:
.LBB299:
	.loc 1 414 772
	lw	a0,56(sp)
.LBE299:
.LBB300:
	.loc 1 414 531
	li	t6,1036288
	addi	t6,t6,159
.LBE300:
.LBB301:
	.loc 1 414 772
	addi	s11,a0,-1
	.loc 1 414 747
	li	t5,-2147483648
	.loc 1 414 793
	li	t4,-2147483648
	.loc 1 414 836
	li	t2,1023
	li	t3,-2147483648
	.loc 1 414 859
	li	t1,-2147479552
.LBE301:
.LBB302:
	.loc 1 414 232
	mul	a3,s0,a3
.LBE302:
.LBB303:
	.loc 1 414 1002
	li	a7,524288
	addi	a7,a7,56
.LBE303:
	.loc 1 414 1142
	li	a0,65536
	li	a1,-2147483648
	addi	a0,a0,1
.LBB304:
	.loc 1 414 228
	sw	a3,-992(s3)
	.loc 1 414 251 is_stmt 1
	.loc 1 414 267 is_stmt 0
	sw	a5,1056(s8)
	.loc 1 414 278 is_stmt 1
	.loc 1 414 294 is_stmt 0
	sw	a6,672(s7)
	.loc 1 414 300 is_stmt 1
	.loc 1 414 332 is_stmt 0
	lw	a3,32(s5)
	.loc 1 414 334
	lw	s6,92(sp)
.LBE304:
.LBB305:
	.loc 1 414 1090
	li	a6,1032192
.LBE305:
.LBB306:
	.loc 1 414 332
	addi	a3,a3,-1
	.loc 1 414 334
	sub	a3,a3,s6
	.loc 1 414 317
	sw	a3,1568(s9)
	.loc 1 414 340 is_stmt 1
	.loc 1 414 357 is_stmt 0
	sw	s6,-864(s10)
	.loc 1 414 366 is_stmt 1
.LVL363:
	.loc 1 414 407
	.loc 1 414 378 is_stmt 0
	lw	a3,32(s5)
.LBE306:
.LBB307:
	.loc 1 414 1090
	addi	a6,a6,157
.LBE307:
.LBB308:
	.loc 1 414 378
	mul	a3,s0,a3
	.loc 1 414 370
	add	a3,a3,s6
	.loc 1 414 428
	lw	s6,24(s5)
	add	a3,a3,s6
	.loc 1 414 423
	sw	a3,0(s4)
	.loc 1 414 471 is_stmt 1
	.loc 1 414 472
	.loc 1 414 489 is_stmt 0
	sw	a4,-736(t0)
	.loc 1 414 514 is_stmt 1
	.loc 1 414 531 is_stmt 0
	sw	t6,0(s2)
.LBE308:
.LBB309:
	.loc 1 414 567 is_stmt 1
.LVL364:
	.loc 1 414 608
	.loc 1 414 625 is_stmt 0
	lw	a3,24(sp)
	li	a4,4096
	sw	a4,0(a3)
	.loc 1 414 637 is_stmt 1
	.loc 1 414 654 is_stmt 0
	lw	a3,44(sp)
	sw	a3,-1888(a2)
	.loc 1 414 660 is_stmt 1
	.loc 1 414 677 is_stmt 0
	lw	a4,20(sp)
	lw	a3,232(sp)
	sw	a3,0(a4)
	.loc 1 414 701 is_stmt 1
	.loc 1 414 718 is_stmt 0
	sw	zero,-992(s3)
	.loc 1 414 730 is_stmt 1
	.loc 1 414 793 is_stmt 0
	li	a4,8
	.loc 1 414 747
	sw	s11,1824(t5)
	.loc 1 414 776 is_stmt 1
	.loc 1 414 793 is_stmt 0
	sw	a4,1696(t4)
	.loc 1 414 819 is_stmt 1
	.loc 1 414 836 is_stmt 0
	sw	t2,1952(t3)
	.loc 1 414 842 is_stmt 1
	.loc 1 414 859 is_stmt 0
	sw	zero,-1120(t1)
	.loc 1 414 862 is_stmt 1
	.loc 1 414 878 is_stmt 0
	li	a4,7
	sw	a4,672(s7)
	.loc 1 414 916 is_stmt 1
	.loc 1 414 932 is_stmt 0
	sw	a5,1056(s8)
	.loc 1 414 943 is_stmt 1
	.loc 1 414 960 is_stmt 0
	sw	t2,1568(s9)
	.loc 1 414 966 is_stmt 1
	.loc 1 414 983 is_stmt 0
	sw	zero,-864(s10)
	.loc 1 414 986 is_stmt 1
	.loc 1 414 1002 is_stmt 0
	sw	a7,0(s4)
	.loc 1 414 1073 is_stmt 1
	.loc 1 414 1090 is_stmt 0
	sw	a6,0(s2)
.LBE309:
	.loc 1 414 1125 is_stmt 1
	.loc 1 414 1126
	.loc 1 414 1142 is_stmt 0
	sw	a0,20(a1)
	.loc 1 416 16 is_stmt 1
	.loc 1 416 18 is_stmt 0
	lw	a5,92(s5)
	andi	a5,a5,-3
	bne	a5,zero,.L126
	j	.L132
.LVL365:
.L144:
	lw	s11,328(sp)
	.loc 1 316 14
	li	s6,0
	mv	a5,s11
	j	.L106
.LVL366:
.L167:
	.loc 1 278 9
	sw	a5,116(sp)
	j	.L98
.LVL367:
.L138:
	sw	zero,268(sp)
.LVL368:
	.loc 1 299 7 is_stmt 1
	.loc 1 299 9 is_stmt 0
	li	a5,2
	lw	s2,16(sp)
	ble	a4,a5,.L102
.LVL369:
.L169:
	.loc 1 299 26 is_stmt 1 discriminator 1
	li	a0,0
.LVL370:
	call	ztaAbort
.LVL371:
	j	.L102
.LVL372:
.L168:
	.loc 1 292 76 is_stmt 0 discriminator 3
	slli	a5,a3,1
	addi	a5,a5,7
	andi	a5,a5,-8
	.loc 1 292 73 discriminator 3
	li	a3,840
.LVL373:
	bgt	a5,a3,.L140
.LBB310:
	.loc 1 327 695
	lw	a5,212(sp)
	slli	s2,a5,4
	li	a5,1
	sw	a5,268(sp)
.LBE310:
	.loc 1 295 15
	li	a5,2
	sw	a5,52(sp)
	j	.L101
.LVL374:
.L166:
	.loc 1 263 52 is_stmt 1 discriminator 1
	.loc 1 264 13
	.loc 1 264 37 is_stmt 0
	lw	a2,36(sp)
	.loc 1 264 18
	li	a0,14
	.loc 1 264 37
	addi	a5,a2,13
	.loc 1 264 25
	addi	a3,a2,14
	.loc 1 264 18
	div	a5,a5,a0
.LVL375:
	.loc 1 265 13 is_stmt 1
	.loc 1 266 16
	.loc 1 267 16
	.loc 1 263 76 discriminator 2
	.loc 1 263 52 discriminator 1
	.loc 1 264 13
	.loc 1 264 18 is_stmt 0
	li	a0,15
	.loc 1 264 25
	addi	a2,a2,15
	.loc 1 264 18
	div	a3,a3,a0
.LVL376:
	.loc 1 265 13 is_stmt 1
	.loc 1 265 15 is_stmt 0
	ble	a5,a3,.L135
	.loc 1 266 24
	mv	a5,a3
.LVL377:
	.loc 1 265 15
	li	a3,15
.LVL378:
	sw	a3,8(sp)
	.loc 1 267 23
	sw	a3,64(sp)
.LVL379:
.L95:
	.loc 1 263 76 is_stmt 1 discriminator 2
	.loc 1 263 52 discriminator 1
	.loc 1 264 13
	.loc 1 265 13
	.loc 1 264 18 is_stmt 0
	srai	a3,a2,4
.LVL380:
	.loc 1 265 15
	ble	a5,a3,.L97
	li	a5,16
.LVL381:
	sw	a5,8(sp)
	.loc 1 267 23
	sw	a5,64(sp)
.LVL382:
.L97:
	.loc 1 274 7 is_stmt 1
	.loc 1 275 7
	.loc 1 277 19 is_stmt 0
	lw	a3,64(sp)
.LVL383:
	lw	a5,36(sp)
	.loc 1 275 10
	slli	a2,a1,3
.LVL384:
	sw	a2,276(sp)
.LVL385:
	.loc 1 276 7 is_stmt 1
	.loc 1 277 7
	.loc 1 278 7
	.loc 1 277 19 is_stmt 0
	add	a5,a3,a5
.LVL386:
	.loc 1 277 24
	addi	a5,a5,-1
	.loc 1 277 12
	div	a3,a5,a3
.LVL387:
	.loc 1 278 9
	li	a5,8
	.loc 1 277 12
	sw	a3,116(sp)
	.loc 1 278 9
	ble	a3,a5,.L133
	sw	a5,116(sp)
.L133:
.LVL388:
	.loc 1 280 44 is_stmt 1
	.loc 1 280 13 is_stmt 0
	lw	a5,64(sp)
	lw	a3,116(sp)
	.loc 1 276 11
	sw	a5,60(sp)
	.loc 1 280 13
	mul	a3,a3,a5
	j	.L99
.LVL389:
.L135:
	.loc 1 265 15
	li	a3,14
.LVL390:
	sw	a3,8(sp)
	sw	a3,64(sp)
	j	.L95
.LVL391:
.L136:
	.loc 1 280 44
	li	a5,16
	sw	a5,8(sp)
	sw	a5,64(sp)
	j	.L99
	.cfi_endproc
.LFE9:
	.size	convolution_1x1, .-convolution_1x1
	.align	2
	.type	convolution_depthwise, @function
convolution_depthwise:
.LFB10:
	.loc 1 429 53 is_stmt 1
	.cfi_startproc
.LVL392:
	.loc 1 430 4
	.loc 1 429 53 is_stmt 0
	addi	sp,sp,-448
	.cfi_def_cfa_offset 448
	sw	s10,400(sp)
	sw	ra,444(sp)
	.loc 1 462 10
	lw	a5,28(a0)
	.loc 1 467 13
	lw	a4,32(a0)
	.cfi_offset 26, -48
	.cfi_offset 1, -4
	.loc 1 429 53
	mv	s10,a0
.LVL393:
	.loc 1 431 4 is_stmt 1
	.loc 1 432 4
	.loc 1 433 4
	.loc 1 434 4
	.loc 1 435 4
	.loc 1 436 4
	.loc 1 437 4
	.loc 1 438 4
	.loc 1 439 4
	.loc 1 440 4
	.loc 1 441 4
	.loc 1 442 4
	.loc 1 443 4
	.loc 1 444 4
	.loc 1 445 4
	.loc 1 446 4
	.loc 1 447 4
	.loc 1 448 4
	.loc 1 449 4
	.loc 1 450 4
	.loc 1 451 4
	.loc 1 452 4
	.loc 1 453 4
	.loc 1 454 4
	.loc 1 455 4
	.loc 1 456 4
	.loc 1 457 4
	.loc 1 458 4
	.loc 1 459 4
	.loc 1 461 4
	.loc 1 462 4
	.loc 1 462 6 is_stmt 0
	mul	t1,a5,a5
	.loc 1 463 24
	lw	a2,56(a0)
	.loc 1 467 13
	addi	a0,a4,7
.LVL394:
	srai	a3,a0,31
	andi	a3,a3,7
	add	a3,a3,a0
	.loc 1 467 44
	srai	a3,a3,3
	.loc 1 463 24
	slli	a0,a2,1
	.loc 1 464 10
	lw	a2,40(s10)
	.loc 1 463 10
	lw	a7,44(s10)
	.loc 1 467 59
	mul	a3,a3,t1
	.loc 1 464 10
	sw	a2,228(sp)
	.loc 1 465 7
	lw	a2,16(s10)
	.loc 1 429 53
	sw	a1,348(sp)
	.loc 1 463 10
	sub	a1,a7,a0
.LVL395:
	.loc 1 465 7
	sw	a2,332(sp)
	.loc 1 466 8
	lw	a2,0(s10)
	.loc 1 462 6
	sw	t1,316(sp)
.LVL396:
	.loc 1 463 4 is_stmt 1
	.loc 1 472 9 is_stmt 0
	li	a6,16
	.loc 1 466 8
	sw	a2,352(sp)
	.loc 1 467 10
	slli	a3,a3,3
	.loc 1 463 10
	sw	a1,224(sp)
.LVL397:
	.loc 1 464 4 is_stmt 1
	.loc 1 465 4
	.loc 1 466 4
	.loc 1 467 4
	.loc 1 467 10 is_stmt 0
	sw	a3,356(sp)
.LVL398:
	.loc 1 469 4 is_stmt 1
	.loc 1 470 4
	.loc 1 471 4
	.loc 1 471 16 discriminator 1
	.loc 1 472 7
	.loc 1 472 17 is_stmt 0
	lw	a2,52(s10)
.LVL399:
	.loc 1 472 9
	bgt	a5,a6,.L231
	.loc 1 472 34
	add	a3,a5,a2
.LVL400:
	.loc 1 474 19
	lw	a0,36(s10)
	.loc 1 474 7 is_stmt 1
.LVL401:
	.loc 1 475 7
	.loc 1 471 41 discriminator 2
	.loc 1 471 16 discriminator 1
	.loc 1 472 7
	.loc 1 472 9 is_stmt 0
	bgt	a3,a6,.L231
	li	a1,1
.LVL402:
	mv	a6,a0
	li	a3,2
	sw	a1,136(sp)
	.loc 1 471 16 discriminator 1
	li	t1,17
.LVL403:
	.loc 1 472 9
	li	a7,16
	j	.L180
.LVL404:
.L182:
	.loc 1 472 13
	mul	a1,a3,a2
.LVL405:
	.loc 1 472 25
	add	a1,a1,a5
	.loc 1 472 34
	sub	a1,a1,a2
	.loc 1 472 9
	bgt	a1,a7,.L179
.LVL406:
.L180:
	.loc 1 472 7 is_stmt 1
	.loc 1 474 7
	.loc 1 474 27 is_stmt 0
	add	a1,a0,a3
	.loc 1 474 30
	addi	a1,a1,-1
	.loc 1 474 13
	div	a1,a1,a3
.LVL407:
	.loc 1 475 7 is_stmt 1
	.loc 1 475 9 is_stmt 0
	bge	a1,a6,.L181
	.loc 1 477 17
	sw	a3,136(sp)
.LVL408:
	.loc 1 476 18
	mv	a6,a1
.LVL409:
.L181:
	.loc 1 471 41 is_stmt 1 discriminator 2
	addi	a3,a3,1
.LVL410:
	.loc 1 471 16 discriminator 1
	bne	a3,t1,.L182
.LVL411:
.L179:
	.loc 1 480 4
	.loc 1 483 15 is_stmt 0
	li	a1,16
	mv	a0,a1
.LVL412:
	.loc 1 480 6
	lw	a1,136(sp)
	li	a3,8
.LVL413:
	ble	a1,a3,.L251
.LVL414:
.L176:
	.loc 1 484 4 is_stmt 1
	.loc 1 485 4
	.loc 1 486 4
	.loc 1 486 37 is_stmt 0
	sub	a5,a2,a5
	.loc 1 486 46
	addi	a5,a5,10
	.loc 1 486 14
	div	a5,a5,a2
.LVL415:
	.loc 1 487 4 is_stmt 1
	.loc 1 488 30 is_stmt 0 discriminator 1
	li	a3,4
	.loc 1 487 34
	addi	a2,a5,3
	.loc 1 487 12
	div	a5,a2,a5
.LVL416:
	sw	a5,336(sp)
.LVL417:
	.loc 1 488 4 is_stmt 1
	.loc 1 488 30 discriminator 1
	bgt	a5,a3,.L175
	.loc 1 498 7
	.loc 1 499 7
.LVL418:
	.loc 1 500 7
	.loc 1 500 9 is_stmt 0
	ble	a4,zero,.L175
.LBB311:
	.loc 1 539 87
	li	a5,-2147483648
.LVL419:
	addi	a5,a5,1696
	sw	a5,4(sp)
	.loc 1 539 139
	li	a5,16384
	addi	a5,a5,-1
	sw	a5,300(sp)
.LBE311:
.LBB312:
	.loc 1 567 295
	li	a5,16777216
	addi	a5,a5,-1
.LBE312:
.LBB313:
	.loc 1 591 245
	lw	a2,224(sp)
.LVL420:
.LBE313:
.LBB314:
	.loc 1 567 295
	sw	a5,164(sp)
.LBE314:
.LBB315:
	.loc 1 589 245
	lw	a5,228(sp)
.LBE315:
.LBB316:
	.loc 1 591 245
	mul	a3,a2,a2
.LBE316:
	.loc 1 488 13
	li	a1,4
	sw	s8,408(sp)
.LVL421:
	sw	s0,440(sp)
	sw	s1,436(sp)
	sw	s2,432(sp)
	sw	s3,428(sp)
	sw	s4,424(sp)
	sw	s5,420(sp)
	sw	s6,416(sp)
.LBB317:
	.loc 1 589 245
	mul	a5,a5,a2
.LBE317:
.LBB318:
	.loc 1 591 245
	sw	a3,252(sp)
	sw	s7,412(sp)
	sw	s9,404(sp)
	sw	s11,396(sp)
	.cfi_offset 24, -40
	.cfi_offset 8, -8
	.cfi_offset 9, -12
	.cfi_offset 18, -16
	.cfi_offset 19, -20
	.cfi_offset 20, -24
	.cfi_offset 21, -28
	.cfi_offset 22, -32
	.cfi_offset 23, -36
	.cfi_offset 25, -44
	.cfi_offset 27, -52
.LBE318:
.LBB319:
	.loc 1 589 245
	mv	a3,a4
.LBE319:
	.loc 1 498 16
	sw	zero,296(sp)
	.loc 1 488 13
	sw	a1,312(sp)
	mv	s8,s10
	sw	a0,24(sp)
.LBB320:
	.loc 1 589 245
	sw	a5,240(sp)
.LVL422:
.L184:
.LBE320:
	.loc 1 502 7 is_stmt 1
	.loc 1 504 16 is_stmt 0
	lw	a1,312(sp)
	.loc 1 502 15
	addi	a5,a4,1
	srai	a5,a5,1
	.loc 1 504 16
	srli	a2,a1,31
	add	a2,a2,a1
	.loc 1 503 15
	slli	a0,a1,3
	sw	a1,16(sp)
	.loc 1 504 9
	lw	a1,336(sp)
	.loc 1 504 16
	srai	a2,a2,1
	.loc 1 502 15
	addi	a5,a5,7
	.loc 1 503 15
	sw	a0,304(sp)
	.loc 1 504 16
	sw	a2,312(sp)
.LVL423:
	.loc 1 502 14
	andi	a5,a5,-8
.LVL424:
	.loc 1 503 7 is_stmt 1
	.loc 1 504 7
	.loc 1 504 9 is_stmt 0
	blt	a2,a1,.L185
	.loc 1 505 10 is_stmt 1
	.loc 1 505 26 is_stmt 0
	div	a5,a5,a0
.LVL425:
	.loc 1 505 17
	mul	a5,a5,a0
.LVL426:
	.loc 1 508 7 is_stmt 1
	.loc 1 509 7
	.loc 1 508 14 is_stmt 0
	slli	s1,a5,1
.LVL427:
	.loc 1 509 9
	ble	s1,a4,.L186
	mv	s1,a4
.LVL428:
.L186:
	.loc 1 511 7 is_stmt 1
	.loc 1 511 9 is_stmt 0
	bne	s1,zero,.L188
.LVL429:
.L187:
	.loc 1 498 7 is_stmt 1
	.loc 1 499 7
	.loc 1 499 13 is_stmt 0
	lw	a5,296(sp)
	sub	a4,a3,a5
.LVL430:
	.loc 1 500 7 is_stmt 1
	.loc 1 500 9 is_stmt 0
	bgt	a4,zero,.L184
.LVL431:
.L249:
	lw	s0,440(sp)
	.cfi_restore 8
	lw	s1,436(sp)
	.cfi_restore 9
	lw	s2,432(sp)
	.cfi_restore 18
	lw	s3,428(sp)
	.cfi_restore 19
	lw	s4,424(sp)
	.cfi_restore 20
	lw	s5,420(sp)
	.cfi_restore 21
	lw	s6,416(sp)
	.cfi_restore 22
	lw	s7,412(sp)
	.cfi_restore 23
	lw	s8,408(sp)
	.cfi_restore 24
.LVL432:
	lw	s9,404(sp)
	.cfi_restore 25
	lw	s11,396(sp)
	.cfi_restore 27
.LVL433:
.L175:
	.loc 1 615 1
	lw	ra,444(sp)
	.cfi_restore 1
	lw	s10,400(sp)
	.cfi_restore 26
	addi	sp,sp,448
	.cfi_def_cfa_offset 0
	jr	ra
.LVL434:
.L185:
	.cfi_def_cfa_offset 448
	.cfi_offset 1, -4
	.cfi_offset 8, -8
	.cfi_offset 9, -12
	.cfi_offset 18, -16
	.cfi_offset 19, -20
	.cfi_offset 20, -24
	.cfi_offset 21, -28
	.cfi_offset 22, -32
	.cfi_offset 23, -36
	.cfi_offset 24, -40
	.cfi_offset 25, -44
	.cfi_offset 26, -48
	.cfi_offset 27, -52
	.loc 1 507 10 is_stmt 1
	.loc 1 507 27 is_stmt 0
	add	a5,a5,a0
.LVL435:
	.loc 1 507 36
	addi	a5,a5,-1
	.loc 1 507 39
	div	a5,a5,a0
	.loc 1 507 17
	mul	a5,a5,a0
.LVL436:
	.loc 1 508 7 is_stmt 1
	.loc 1 509 7
	.loc 1 508 14 is_stmt 0
	slli	s1,a5,1
.LVL437:
	.loc 1 509 9
	ble	s1,a4,.L189
	mv	s1,a4
.LVL438:
.L189:
	.loc 1 511 7 is_stmt 1
	.loc 1 511 9 is_stmt 0
	beq	s1,zero,.L249
.LVL439:
.L188:
	.loc 1 513 7 is_stmt 1
	.loc 1 514 12 is_stmt 0
	lw	a4,136(sp)
	li	a5,16
	.loc 1 513 14
	lw	a3,16(sp)
	.loc 1 514 12
	div	s3,a5,a4
	.loc 1 513 14
	li	a4,4
	.loc 1 515 9
	li	a5,2
	.loc 1 513 14
	div	s0,a4,a3
.LVL440:
	.loc 1 514 7 is_stmt 1
	.loc 1 515 7
	.loc 1 515 9 is_stmt 0
	ble	s3,a5,.L190
	li	s3,2
.LVL441:
.L190:
	.loc 1 516 7 is_stmt 1
	.loc 1 516 28 is_stmt 0
	lw	a4,52(s8)
	.loc 1 516 41
	lw	a3,28(s8)
	.loc 1 516 9
	li	a1,10
	.loc 1 516 46
	sub	a2,a3,a4
	.loc 1 516 16
	mul	a5,s3,s0
	.loc 1 516 24
	mul	a5,a5,a4
	.loc 1 516 36
	add	a5,a5,a2
	.loc 1 516 9
	ble	a5,a1,.L191
	.loc 1 517 15
	li	s3,1
.LVL442:
.L191:
	.loc 1 518 7 is_stmt 1
	.loc 1 519 7
	.loc 1 518 25 is_stmt 0
	lw	a5,36(s8)
	.loc 1 520 9
	li	a1,3
	.loc 1 518 25
	add	a5,s0,a5
	.loc 1 518 33
	addi	a5,a5,-1
	.loc 1 518 12
	div	a5,a5,s0
	.loc 1 519 19
	add	a5,a5,s3
	.loc 1 519 25
	addi	a5,a5,-1
.LVL443:
	.loc 1 520 7 is_stmt 1
	.loc 1 519 12 is_stmt 0
	div	a5,a5,s3
.LVL444:
	sw	a5,76(sp)
	.loc 1 520 9
	ble	a5,a1,.L192
	li	a5,3
.LVL445:
	sw	a5,76(sp)
.LVL446:
.L192:
	.loc 1 522 70 is_stmt 1
	.loc 1 522 19 is_stmt 0
	lw	a6,76(sp)
	.loc 1 522 70
	li	a0,10
	.loc 1 522 19
	mul	a5,a6,s3
	.loc 1 522 25
	mul	a1,a5,s0
	.loc 1 522 33
	mul	a1,a1,a4
	.loc 1 522 45
	add	a1,a1,a2
	.loc 1 522 70
	ble	a1,a0,.L193
	sub	a5,a5,s3
	mul	a5,a5,s0
	neg	a1,s3
	lw	s10,24(sp)
	mul	a1,a1,s0
	mul	a5,a5,a4
	mul	a1,a1,a4
	add	a5,a5,a2
	mv	a2,a6
.LVL447:
.L194:
	.loc 1 523 10 is_stmt 1
	mv	a6,a5
	.loc 1 523 15 is_stmt 0
	addi	a2,a2,-1
.LVL448:
	.loc 1 522 70 is_stmt 1
	add	a5,a5,a1
	bgt	a6,a0,.L194
	sw	s10,24(sp)
	sw	a2,76(sp)
.LVL449:
.L193:
	.loc 1 524 7
	.loc 1 525 7
	.loc 1 526 11 is_stmt 0
	lw	a1,16(sp)
	.loc 1 528 16
	lw	a0,136(sp)
	.loc 1 533 55
	li	a2,16
	.loc 1 526 11
	slli	a5,a1,3
	sw	a5,320(sp)
	.loc 1 525 23
	lw	a5,76(sp)
	.loc 1 528 16
	mul	a0,a4,a0
	.loc 1 533 55 discriminator 2
	li	s11,2
	.loc 1 525 23
	mul	a5,s0,a5
	.loc 1 528 16
	sw	a0,176(sp)
	.loc 1 525 14
	mul	a6,a5,s3
	.loc 1 525 23
	sw	a5,36(sp)
	.loc 1 528 28
	add	a5,a3,a0
	.loc 1 528 8
	sub	a0,a5,a4
	.loc 1 527 13
	lw	a5,316(sp)
	.loc 1 528 8
	sw	a0,276(sp)
	.loc 1 525 14
	sw	a6,56(sp)
.LVL450:
	.loc 1 526 7 is_stmt 1
	.loc 1 527 7
	.loc 1 529 16 is_stmt 0
	mul	a6,a4,a6
.LVL451:
	.loc 1 529 28
	add	a3,a3,a6
	.loc 1 529 8
	sub	a3,a3,a4
	.loc 1 527 13
	mul	a5,a5,a1
	.loc 1 529 8
	sw	a3,284(sp)
	.loc 1 529 16
	sw	a6,40(sp)
	.loc 1 530 13
	mul	a3,s0,a0
	.loc 1 527 10
	slli	a5,a5,3
	sw	a5,340(sp)
.LVL452:
	.loc 1 528 7 is_stmt 1
	.loc 1 529 7
	.loc 1 530 7
	.loc 1 530 11 is_stmt 0
	mul	a5,a3,a4
.LVL453:
	sw	a5,60(sp)
.LVL454:
	.loc 1 531 7 is_stmt 1
	.loc 1 532 7
	.loc 1 533 7
	.loc 1 533 55 is_stmt 0
	lw	a5,24(sp)
.LVL455:
	beq	a5,a2,.L195
	.loc 1 533 55 discriminator 1
	mv	s11,s3
.L195:
.LVL456:
	.loc 1 534 7 is_stmt 1
	.loc 1 534 9 is_stmt 0
	lw	a4,276(sp)
	li	a5,16
	bgt	a4,a5,.L254
.LVL457:
.L196:
	.loc 1 535 7 is_stmt 1
	.loc 1 535 9 is_stmt 0
	lw	a4,284(sp)
	li	a5,10
	bgt	a4,a5,.L255
.L197:
.LBB321:
	.loc 1 539 3 is_stmt 1
.LVL458:
	.loc 1 539 70
	.loc 1 539 87 is_stmt 0
	lw	t3,4(sp)
	li	a3,4096
	.loc 1 539 116
	li	a2,-2147483648
	.loc 1 539 87
	sw	a3,0(t3)
.LVL459:
	.loc 1 539 99 is_stmt 1
	.loc 1 539 116 is_stmt 0
	sw	zero,1824(a2)
	.loc 1 539 122 is_stmt 1
	.loc 1 539 139 is_stmt 0
	lw	a5,300(sp)
	li	t0,-2147483648
	.loc 1 539 177
	li	t2,-2147479552
	.loc 1 539 139
	sw	a5,1952(t0)
	.loc 1 539 160 is_stmt 1
	.loc 1 539 177 is_stmt 0
	sw	zero,-1120(t2)
	.loc 1 539 189 is_stmt 1
	.loc 1 539 206 is_stmt 0
	li	t1,-2147479552
	li	a5,256
	sw	a5,-2016(t1)
	.loc 1 539 217 is_stmt 1
	.loc 1 539 234 is_stmt 0
	li	a7,-2147479552
	li	a4,15
	.loc 1 539 257
	li	a5,65536
	.loc 1 539 234
	sw	a4,-1888(a7)
	.loc 1 539 240 is_stmt 1
	.loc 1 539 257 is_stmt 0
	li	a6,-2147479552
	addi	a1,a5,-1
	sw	a1,-1760(a6)
	.loc 1 539 278 is_stmt 1
	.loc 1 539 295 is_stmt 0
	li	ra,-2147479552
	sw	zero,-992(ra)
	.loc 1 539 306 is_stmt 1
	.loc 1 539 322 is_stmt 0
	li	s4,-2147483648
	sw	zero,672(s4)
	.loc 1 539 325 is_stmt 1
	.loc 1 539 341 is_stmt 0
	li	s9,1
	li	s5,-2147483648
	sw	s9,1056(s5)
	.loc 1 539 344 is_stmt 1
	.loc 1 539 361 is_stmt 0
	li	s6,-2147483648
	sw	zero,1568(s6)
	.loc 1 539 364 is_stmt 1
	.loc 1 539 381 is_stmt 0
	li	s7,-2147479552
	sw	zero,-864(s7)
	.loc 1 539 384 is_stmt 1
	.loc 1 539 400 is_stmt 0
	li	a0,-2147483648
	li	a5,32
	sw	a5,544(a0)
	.loc 1 539 427 is_stmt 1
	.loc 1 539 257 is_stmt 0
	mv	s10,a1
	.loc 1 539 444
	li	t5,16
	li	a1,-2147479552
	.loc 1 539 486
	li	t4,524288
	.loc 1 539 444
	sw	t5,-736(a1)
	.loc 1 539 469 is_stmt 1
	.loc 1 539 486 is_stmt 0
	li	a5,-2147479552
	addi	t4,t4,127
	sw	t4,-1632(a5)
.LBE321:
	.loc 1 539 576 is_stmt 1
	.loc 1 539 577
	.loc 1 539 599 is_stmt 0
	lw	a4,52(s8)
	.loc 1 539 594
	li	t6,-2147479552
	sw	t6,8(sp)
	.loc 1 539 626
	li	t5,1036288
	.loc 1 539 594
	sw	a4,-480(t6)
	.loc 1 539 609 is_stmt 1
	.loc 1 539 626 is_stmt 0
	addi	t5,t5,-1923
	.loc 1 539 675
	li	a4,-2147483648
	li	t6,393216
	.loc 1 539 626
	sw	t5,-1632(a5)
	.loc 1 539 658 is_stmt 1
	.loc 1 539 659
	.loc 1 539 675 is_stmt 0
	addi	a4,a4,20
	addi	t6,t6,1
	sw	t6,0(a4)
.LBB322:
	.loc 1 540 3 is_stmt 1
.LVL460:
	.loc 1 540 70
	.loc 1 540 87 is_stmt 0
	sw	t3,4(sp)
	sw	a3,0(t3)
	.loc 1 540 99 is_stmt 1
	.loc 1 540 116 is_stmt 0
	sw	zero,1824(a2)
	.loc 1 540 122 is_stmt 1
	.loc 1 540 139 is_stmt 0
	lw	s2,300(sp)
	.loc 1 540 206
	li	t3,256
	.loc 1 540 139
	sw	s2,1952(t0)
	.loc 1 540 160 is_stmt 1
	.loc 1 540 177 is_stmt 0
	sw	zero,-1120(t2)
	.loc 1 540 189 is_stmt 1
	.loc 1 540 206 is_stmt 0
	sw	t3,-2016(t1)
	.loc 1 540 217 is_stmt 1
	.loc 1 540 234 is_stmt 0
	li	t3,15
	sw	t3,-1888(a7)
	.loc 1 540 240 is_stmt 1
	.loc 1 540 257 is_stmt 0
	sw	s10,-1760(a6)
	.loc 1 540 278 is_stmt 1
	.loc 1 540 295 is_stmt 0
	sw	zero,-992(ra)
	.loc 1 540 306 is_stmt 1
	.loc 1 540 322 is_stmt 0
	sw	zero,672(s4)
	.loc 1 540 325 is_stmt 1
	.loc 1 540 341 is_stmt 0
	sw	s9,1056(s5)
	.loc 1 540 344 is_stmt 1
	.loc 1 540 361 is_stmt 0
	sw	zero,1568(s6)
	.loc 1 540 364 is_stmt 1
	.loc 1 540 381 is_stmt 0
	sw	zero,-864(s7)
	.loc 1 540 384 is_stmt 1
	.loc 1 540 400 is_stmt 0
	li	t3,34
	sw	t3,544(a0)
	.loc 1 540 427 is_stmt 1
	.loc 1 540 444 is_stmt 0
	li	t3,16
	sw	t3,-736(a1)
	.loc 1 540 469 is_stmt 1
	.loc 1 540 486 is_stmt 0
	sw	t4,-1632(a5)
.LBE322:
	.loc 1 540 576 is_stmt 1
	.loc 1 540 577
	.loc 1 540 599 is_stmt 0
	lw	t3,84(s8)
	.loc 1 540 594
	lw	s2,8(sp)
	sw	t3,-480(s2)
	.loc 1 540 619 is_stmt 1
	.loc 1 540 636 is_stmt 0
	sw	t5,-1632(a5)
	.loc 1 540 668 is_stmt 1
	.loc 1 540 669
	.loc 1 540 685 is_stmt 0
	sw	t6,0(a4)
.LBB323:
	.loc 1 541 3 is_stmt 1
.LVL461:
	.loc 1 541 70
	.loc 1 541 87 is_stmt 0
	lw	t3,4(sp)
	sw	a3,0(t3)
	.loc 1 541 99 is_stmt 1
	.loc 1 541 116 is_stmt 0
	sw	zero,1824(a2)
	.loc 1 541 122 is_stmt 1
	.loc 1 541 139 is_stmt 0
	lw	s2,300(sp)
	.loc 1 541 206
	li	t3,256
	.loc 1 541 139
	sw	s2,1952(t0)
	.loc 1 541 160 is_stmt 1
	.loc 1 541 177 is_stmt 0
	sw	zero,-1120(t2)
	.loc 1 541 189 is_stmt 1
	.loc 1 541 206 is_stmt 0
	sw	t3,-2016(t1)
	.loc 1 541 217 is_stmt 1
	.loc 1 541 234 is_stmt 0
	li	t3,15
	sw	t3,-1888(a7)
	.loc 1 541 240 is_stmt 1
	.loc 1 541 257 is_stmt 0
	sw	s10,12(sp)
	sw	s10,-1760(a6)
	.loc 1 541 278 is_stmt 1
	.loc 1 541 295 is_stmt 0
	sw	zero,-992(ra)
	.loc 1 541 306 is_stmt 1
	.loc 1 541 322 is_stmt 0
	sw	zero,672(s4)
	.loc 1 541 325 is_stmt 1
	.loc 1 541 341 is_stmt 0
	sw	s9,1056(s5)
	.loc 1 541 344 is_stmt 1
	.loc 1 541 361 is_stmt 0
	sw	zero,1568(s6)
	.loc 1 541 364 is_stmt 1
	.loc 1 541 381 is_stmt 0
	sw	zero,-864(s7)
	.loc 1 541 384 is_stmt 1
	.loc 1 541 400 is_stmt 0
	li	t3,35
	sw	t3,544(a0)
	.loc 1 541 427 is_stmt 1
	.loc 1 541 444 is_stmt 0
	li	t3,16
	sw	t3,-736(a1)
	.loc 1 541 469 is_stmt 1
	.loc 1 541 486 is_stmt 0
	sw	t4,-1632(a5)
.LBE323:
	.loc 1 541 576 is_stmt 1
	.loc 1 541 577
	.loc 1 541 599 is_stmt 0
	lw	t3,60(s8)
	.loc 1 541 594
	lw	s2,8(sp)
	.loc 1 545 15
	rem	s10,s9,s0
	.loc 1 541 594
	sw	t3,-480(s2)
	.loc 1 541 613 is_stmt 1
	.loc 1 541 630 is_stmt 0
	sw	t5,-1632(a5)
	.loc 1 541 662 is_stmt 1
	.loc 1 541 663
	.loc 1 541 679 is_stmt 0
	sw	t6,0(a4)
.LBB324:
	.loc 1 542 3 is_stmt 1
.LVL462:
	.loc 1 542 70
	.loc 1 542 87 is_stmt 0
	lw	t3,4(sp)
	sw	a3,0(t3)
	.loc 1 542 99 is_stmt 1
	.loc 1 542 116 is_stmt 0
	sw	zero,1824(a2)
	.loc 1 542 122 is_stmt 1
	.loc 1 542 139 is_stmt 0
	lw	s2,300(sp)
	.loc 1 542 206
	li	t3,256
	.loc 1 542 139
	sw	s2,1952(t0)
	.loc 1 542 160 is_stmt 1
	.loc 1 542 177 is_stmt 0
	sw	zero,-1120(t2)
	.loc 1 542 189 is_stmt 1
	.loc 1 542 206 is_stmt 0
	sw	t3,-2016(t1)
	.loc 1 542 217 is_stmt 1
	.loc 1 542 234 is_stmt 0
	li	t3,15
	sw	t3,-1888(a7)
	.loc 1 542 240 is_stmt 1
	.loc 1 542 257 is_stmt 0
	lw	t3,12(sp)
	sw	t3,-1760(a6)
	.loc 1 542 278 is_stmt 1
	.loc 1 542 295 is_stmt 0
	sw	zero,-992(ra)
	.loc 1 542 306 is_stmt 1
	.loc 1 542 322 is_stmt 0
	sw	zero,672(s4)
	.loc 1 542 325 is_stmt 1
	.loc 1 542 341 is_stmt 0
	sw	s9,1056(s5)
	.loc 1 542 344 is_stmt 1
	.loc 1 542 361 is_stmt 0
	sw	zero,1568(s6)
	.loc 1 542 364 is_stmt 1
	.loc 1 542 381 is_stmt 0
	sw	zero,-864(s7)
	.loc 1 542 384 is_stmt 1
	.loc 1 542 400 is_stmt 0
	li	t3,36
	sw	t3,544(a0)
	.loc 1 542 427 is_stmt 1
	.loc 1 542 444 is_stmt 0
	li	t3,16
	sw	t3,-736(a1)
	.loc 1 542 469 is_stmt 1
	.loc 1 542 486 is_stmt 0
	sw	t4,-1632(a5)
.LBE324:
	.loc 1 542 576 is_stmt 1
	.loc 1 542 577
	.loc 1 542 594 is_stmt 0
	lw	s2,8(sp)
	lw	t4,276(sp)
	sw	t4,-480(s2)
	.loc 1 542 599 is_stmt 1
	.loc 1 542 616 is_stmt 0
	sw	t5,-1632(a5)
	.loc 1 542 648 is_stmt 1
	.loc 1 542 649
	.loc 1 542 665 is_stmt 0
	sw	t6,0(a4)
	.loc 1 544 7 is_stmt 1
.LVL463:
	.loc 1 544 17 discriminator 1
	.loc 1 545 10
.LBB325:
	.loc 1 546 3
	.loc 1 546 76
	.loc 1 546 93 is_stmt 0
	lw	t3,4(sp)
	.loc 1 546 212
	li	t4,256
	.loc 1 546 93
	sw	a3,0(t3)
	.loc 1 546 105 is_stmt 1
	.loc 1 546 122 is_stmt 0
	sw	zero,1824(a2)
	.loc 1 546 128 is_stmt 1
	.loc 1 546 145 is_stmt 0
	lw	s2,300(sp)
	.loc 1 546 406
	li	t3,33
	.loc 1 546 145
	sw	s2,1952(t0)
	.loc 1 546 166 is_stmt 1
	.loc 1 546 183 is_stmt 0
	sw	zero,-1120(t2)
	.loc 1 546 195 is_stmt 1
	.loc 1 546 212 is_stmt 0
	sw	t4,-2016(t1)
	.loc 1 546 223 is_stmt 1
	.loc 1 546 240 is_stmt 0
	li	t4,15
	sw	t4,-1888(a7)
	.loc 1 546 246 is_stmt 1
	.loc 1 546 263 is_stmt 0
	lw	t4,12(sp)
	sw	t4,-1760(a6)
	.loc 1 546 284 is_stmt 1
	.loc 1 546 301 is_stmt 0
	sw	zero,-992(ra)
	.loc 1 546 312 is_stmt 1
	.loc 1 546 328 is_stmt 0
	sw	zero,672(s4)
	.loc 1 546 331 is_stmt 1
	.loc 1 546 347 is_stmt 0
	sw	s9,1056(s5)
	.loc 1 546 350 is_stmt 1
	.loc 1 546 367 is_stmt 0
	sw	zero,1568(s6)
	.loc 1 546 370 is_stmt 1
	.loc 1 546 387 is_stmt 0
	sw	zero,-864(s7)
	.loc 1 546 390 is_stmt 1
	.loc 1 546 406 is_stmt 0
	sw	t3,544(a0)
	.loc 1 546 433 is_stmt 1
	.loc 1 546 492 is_stmt 0
	li	t4,1032192
	.loc 1 546 450
	li	t3,16
	sw	t3,-736(a1)
	.loc 1 546 475 is_stmt 1
	.loc 1 546 492 is_stmt 0
	addi	t4,t4,127
	sw	t4,-1632(a5)
.LBE325:
	.loc 1 546 525 is_stmt 1
	.loc 1 546 526
	.loc 1 546 543 is_stmt 0
	lw	s2,8(sp)
	.loc 1 545 15
	li	t3,2
	.loc 1 546 543
	sw	zero,-480(s2)
	.loc 1 546 552 is_stmt 1
	.loc 1 546 569 is_stmt 0
	sw	t5,-1632(a5)
	.loc 1 546 601 is_stmt 1
	.loc 1 546 602
	.loc 1 546 618 is_stmt 0
	sw	t6,0(a4)
	.loc 1 544 23 is_stmt 1 discriminator 3
.LVL464:
	.loc 1 544 17 discriminator 1
	.loc 1 545 10
.LBB326:
	.loc 1 546 3
	.loc 1 546 76
.LBE326:
	.loc 1 545 15 is_stmt 0
	rem	s2,t3,s0
.LBB327:
	.loc 1 546 93
	lw	t3,4(sp)
	sw	a3,0(t3)
	.loc 1 546 105 is_stmt 1
	.loc 1 546 145 is_stmt 0
	li	t3,12288
	.loc 1 546 122
	sw	zero,1824(a2)
	.loc 1 546 128 is_stmt 1
	.loc 1 546 145 is_stmt 0
	addi	t3,t3,-1
	sw	t3,1952(t0)
	.loc 1 546 166 is_stmt 1
	.loc 1 546 183 is_stmt 0
	sw	a3,-1120(t2)
	.loc 1 546 195 is_stmt 1
	.loc 1 546 212 is_stmt 0
	li	t3,256
	sw	t3,-2016(t1)
	.loc 1 546 223 is_stmt 1
	.loc 1 546 240 is_stmt 0
	li	t3,15
	sw	t3,-1888(a7)
	.loc 1 546 246 is_stmt 1
	.loc 1 546 263 is_stmt 0
	lw	t3,12(sp)
	sw	t3,-1760(a6)
	.loc 1 546 284 is_stmt 1
	.loc 1 546 301 is_stmt 0
	sw	zero,-992(ra)
	.loc 1 546 312 is_stmt 1
	.loc 1 546 328 is_stmt 0
	sw	zero,672(s4)
	.loc 1 546 331 is_stmt 1
	.loc 1 546 347 is_stmt 0
	sw	s9,1056(s5)
	.loc 1 546 350 is_stmt 1
	.loc 1 546 367 is_stmt 0
	sw	zero,1568(s6)
	.loc 1 546 370 is_stmt 1
	.loc 1 546 406 is_stmt 0
	li	t3,4096
	.loc 1 546 387
	sw	zero,-864(s7)
	.loc 1 546 390 is_stmt 1
	.loc 1 546 406 is_stmt 0
	addi	t3,t3,33
	sw	t3,544(a0)
	.loc 1 546 433 is_stmt 1
	.loc 1 546 450 is_stmt 0
	li	t3,16
	sw	t3,-736(a1)
	.loc 1 546 475 is_stmt 1
	.loc 1 546 492 is_stmt 0
	sw	t4,-1632(a5)
.LBE327:
	.loc 1 546 525 is_stmt 1
	.loc 1 546 526
	.loc 1 546 543 is_stmt 0
	lw	t3,8(sp)
	sw	s10,-480(t3)
	.loc 1 546 552 is_stmt 1
	.loc 1 546 569 is_stmt 0
	sw	t5,-1632(a5)
	.loc 1 546 601 is_stmt 1
	.loc 1 546 602
	.loc 1 546 618 is_stmt 0
	sw	t6,0(a4)
	.loc 1 544 23 is_stmt 1 discriminator 3
.LVL465:
	.loc 1 544 17 discriminator 1
	.loc 1 545 10
.LBB328:
	.loc 1 546 3
	.loc 1 546 76
	.loc 1 546 93 is_stmt 0
	lw	t3,4(sp)
	.loc 1 546 145
	li	s10,8192
	addi	s10,s10,-1
	.loc 1 546 93
	sw	a3,0(t3)
	.loc 1 546 105 is_stmt 1
	.loc 1 546 122 is_stmt 0
	sw	zero,1824(a2)
	.loc 1 546 128 is_stmt 1
	.loc 1 546 145 is_stmt 0
	sw	s10,1952(t0)
	.loc 1 546 166 is_stmt 1
	.loc 1 546 145 is_stmt 0
	li	t3,8192
	.loc 1 546 183
	sw	t3,-1120(t2)
	.loc 1 546 195 is_stmt 1
	.loc 1 546 212 is_stmt 0
	li	t3,256
	sw	t3,-2016(t1)
	.loc 1 546 223 is_stmt 1
	.loc 1 546 240 is_stmt 0
	li	t3,15
	sw	t3,-1888(a7)
	.loc 1 546 246 is_stmt 1
	.loc 1 546 263 is_stmt 0
	lw	t3,12(sp)
	sw	t3,-1760(a6)
	.loc 1 546 284 is_stmt 1
.LBE328:
	.loc 1 545 15 is_stmt 0
	li	t3,3
	rem	s10,t3,s0
.LBB329:
	.loc 1 546 406
	li	t3,8192
	addi	t3,t3,33
.LBE329:
	.loc 1 545 15
	sw	s10,20(sp)
.LBB330:
	.loc 1 546 301
	sw	zero,-992(ra)
	.loc 1 546 312 is_stmt 1
	.loc 1 546 328 is_stmt 0
	sw	zero,672(s4)
	.loc 1 546 331 is_stmt 1
	.loc 1 546 347 is_stmt 0
	sw	s9,1056(s5)
	.loc 1 546 350 is_stmt 1
	.loc 1 546 367 is_stmt 0
	sw	zero,1568(s6)
	.loc 1 546 370 is_stmt 1
	.loc 1 546 387 is_stmt 0
	sw	zero,-864(s7)
	.loc 1 546 390 is_stmt 1
	.loc 1 546 406 is_stmt 0
	sw	t3,544(a0)
	.loc 1 546 433 is_stmt 1
	.loc 1 546 450 is_stmt 0
	li	t3,16
	sw	t3,-736(a1)
	.loc 1 546 475 is_stmt 1
	.loc 1 546 492 is_stmt 0
	sw	t4,-1632(a5)
.LBE330:
	.loc 1 546 525 is_stmt 1
	.loc 1 546 526
	.loc 1 546 543 is_stmt 0
	lw	t3,8(sp)
	sw	s2,-480(t3)
	.loc 1 546 552 is_stmt 1
	.loc 1 546 569 is_stmt 0
	sw	t5,-1632(a5)
	.loc 1 546 601 is_stmt 1
	.loc 1 546 602
	.loc 1 546 618 is_stmt 0
	sw	t6,0(a4)
	.loc 1 544 23 is_stmt 1 discriminator 3
.LVL466:
	.loc 1 544 17 discriminator 1
	.loc 1 545 10
.LBB331:
	.loc 1 546 3
	.loc 1 546 76
	.loc 1 546 93 is_stmt 0
	lw	t3,4(sp)
	sw	a3,0(t3)
	.loc 1 546 105 is_stmt 1
	.loc 1 546 122 is_stmt 0
	sw	zero,1824(a2)
	.loc 1 546 128 is_stmt 1
	.loc 1 546 145 is_stmt 0
	addi	a3,a3,-1
	sw	a3,1952(t0)
	.loc 1 546 166 is_stmt 1
	.loc 1 546 183 is_stmt 0
	li	a3,12288
	sw	a3,-1120(t2)
	.loc 1 546 195 is_stmt 1
	.loc 1 546 212 is_stmt 0
	li	t3,256
	sw	t3,-2016(t1)
	.loc 1 546 223 is_stmt 1
	.loc 1 546 240 is_stmt 0
	li	t3,15
	sw	t3,-1888(a7)
	.loc 1 546 246 is_stmt 1
	.loc 1 546 263 is_stmt 0
	lw	t3,12(sp)
	.loc 1 546 406
	addi	a3,a3,33
	.loc 1 546 263
	sw	t3,-1760(a6)
	.loc 1 546 284 is_stmt 1
	.loc 1 546 301 is_stmt 0
	sw	zero,-992(ra)
	.loc 1 546 312 is_stmt 1
	.loc 1 546 328 is_stmt 0
	sw	zero,672(s4)
	.loc 1 546 331 is_stmt 1
	.loc 1 546 347 is_stmt 0
	sw	s9,1056(s5)
	.loc 1 546 350 is_stmt 1
	.loc 1 546 367 is_stmt 0
	sw	zero,1568(s6)
	.loc 1 546 370 is_stmt 1
	.loc 1 546 387 is_stmt 0
	sw	zero,-864(s7)
	.loc 1 546 390 is_stmt 1
	.loc 1 546 406 is_stmt 0
	sw	a3,544(a0)
	.loc 1 546 433 is_stmt 1
	.loc 1 546 450 is_stmt 0
	li	t3,16
	sw	t3,-736(a1)
	.loc 1 546 475 is_stmt 1
	.loc 1 546 492 is_stmt 0
	sw	t4,-1632(a5)
.LBE331:
	.loc 1 546 525 is_stmt 1
	.loc 1 546 526
	.loc 1 546 543 is_stmt 0
	lw	t3,8(sp)
	lw	s10,20(sp)
.LVL467:
	sw	s10,-480(t3)
	.loc 1 546 552 is_stmt 1
	.loc 1 546 569 is_stmt 0
	sw	t5,-1632(a5)
	.loc 1 546 601 is_stmt 1
	.loc 1 546 602
	.loc 1 546 618 is_stmt 0
	sw	t6,0(a4)
	.loc 1 544 23 is_stmt 1 discriminator 3
.LVL468:
	.loc 1 544 17 discriminator 1
	.loc 1 548 7
	.loc 1 548 9 is_stmt 0
	beq	s3,s9,.L256
	.loc 1 551 1 is_stmt 1
	.loc 1 551 2
	.loc 1 551 18 is_stmt 0
	li	a3,1015820288
	addi	a3,a3,-1276
	.loc 1 553 7
	li	a5,-2147483648
	.loc 1 551 18
	sw	a3,0(a4)
	.loc 1 553 7 is_stmt 1
	sw	zero,36(a5)
	.loc 1 553 7
	call	_taskYield
.LVL469:
	.loc 1 553 21 discriminator 1
	.loc 1 555 7
	.loc 1 557 13 is_stmt 0
	addi	a4,s1,1
	srli	a5,a4,31
	add	a5,a5,a4
	srai	a5,a5,1
	addi	a5,a5,7
	.loc 1 557 12
	srai	s4,a5,31
	andi	s4,s4,7
	add	s4,s4,a5
	.loc 1 555 9
	lw	a5,348(sp)
	.loc 1 557 12
	andi	s4,s4,-8
	.loc 1 555 9
	beq	a5,zero,.L201
	.loc 1 559 10 is_stmt 1
.LVL470:
	.loc 1 560 10
	.loc 1 562 11 is_stmt 0
	lw	a5,296(sp)
	.loc 1 563 9
	sw	s1,8(sp)
	.loc 1 562 11
	add	s6,s4,a5
.LVL471:
	.loc 1 562 7 is_stmt 1
	.loc 1 563 7
	.loc 1 563 9 is_stmt 0
	add	a5,s1,a5
	sw	a5,308(sp)
.LVL472:
	.loc 1 565 7 is_stmt 1
.L223:
	.loc 1 565 9 is_stmt 0 discriminator 1
	lw	a5,136(sp)
	addi	a2,a5,8
.LVL473:
.L200:
	.loc 1 565 9 discriminator 4
	li	a1,4
	li	a0,1891
	call	ztaBuildKernelFunc
.LVL474:
.LBB332:
	.loc 1 567 167
	lw	t0,16(sp)
	.loc 1 567 109
	slli	s2,s0,12
.LBE332:
	.loc 1 565 9 discriminator 4
	sw	a0,64(sp)
.LBB333:
	.loc 1 567 167
	mul	a5,s0,t0
	.loc 1 567 109
	sw	s2,172(sp)
	.loc 1 567 92
	li	a3,-2147483648
	sw	s2,800(a3)
.LVL475:
	.loc 1 567 22
	addi	a4,t0,-1
	.loc 1 567 130
	sw	a4,44(sp)
	li	a2,-2147483648
	sw	a4,928(a2)
	.loc 1 567 153
	li	a1,-2147483648
	addi	a1,a1,1440
	.loc 1 567 167
	slli	a5,a5,12
	.loc 1 567 184
	addi	a5,a5,-1
	.loc 1 567 153
	sw	a5,168(sp)
	sw	a5,0(a1)
.LBE333:
.LBB334:
	.loc 1 571 383
	lw	a6,276(sp)
	lw	a7,284(sp)
.LBE334:
.LBB335:
	.loc 1 567 204
	li	a0,-2147479552
	sw	zero,-1248(a0)
.LBE335:
.LBB336:
	.loc 1 571 383
	mul	a4,a6,a7
.LBE336:
.LBB337:
	.loc 1 567 243
	lw	s10,4(sp)
	li	a6,4096
	.loc 1 567 272
	li	t2,-2147483648
	.loc 1 567 243
	sw	a6,0(s10)
	.loc 1 567 272
	sw	zero,1824(t2)
	.loc 1 567 295
	lw	a7,164(sp)
	li	s5,-2147483648
	.loc 1 567 335
	li	s7,-2147479552
	.loc 1 567 295
	sw	a7,1952(s5)
	.loc 1 567 335
	sw	zero,-1120(s7)
.LBE337:
.LBB338:
	.loc 1 571 696
	mul	t0,t0,a4
.LBE338:
.LBB339:
	.loc 1 567 388
	lw	t1,316(sp)
	.loc 1 567 364
	li	a7,-2147479552
	.loc 1 567 409
	li	a6,-2147479552
	.loc 1 567 388
	addi	a5,t1,-1
	.loc 1 567 364
	sw	a5,-1888(a7)
	.loc 1 567 409
	li	t3,8
	sw	t3,-2016(a6)
	.loc 1 567 435
	li	a5,71
	li	t1,-2147479552
	sw	a5,-1760(t1)
	.loc 1 567 456
	li	t3,-2147479552
	.loc 1 567 475
	li	t4,-2147483648
	.loc 1 567 456
	sw	zero,-992(t3)
	.loc 1 567 475
	li	t6,7
	sw	t6,672(t4)
	.loc 1 567 520
	li	t5,-2147483648
.LBE339:
.LBB340:
	.loc 1 571 696
	sw	a4,12(sp)
	sw	t0,20(sp)
.LBE340:
.LBB341:
	.loc 1 567 520
	addi	t5,t5,1056
	li	t0,1
	sw	t0,0(t5)
	.loc 1 567 546
	li	t6,-2147483648
	sw	a5,1568(t6)
	.loc 1 567 807
	addi	s9,s0,-1
	.loc 1 567 586
	li	a4,-2147483648
	.loc 1 567 807
	sw	s9,48(sp)
	.loc 1 567 567
	li	t0,-2147479552
	.loc 1 567 586
	addi	a4,a4,544
	.loc 1 567 567
	sw	zero,-864(t0)
	.loc 1 567 807
	mv	s10,s9
	.loc 1 567 586
	li	a5,524288
	mv	s9,a4
	addi	a5,a5,8
	sw	s9,28(sp)
	sw	a5,0(s9)
	.loc 1 567 859
	slli	a4,s10,14
	li	a5,507904
	and	s10,a4,a5
	sw	s10,52(sp)
	.loc 1 567 677
	lw	s9,340(sp)
	li	a5,-2147479552
	.loc 1 567 770
	li	a4,-2147479552
	.loc 1 567 677
	sw	s9,-736(a5)
	.loc 1 567 874
	ori	a5,s10,129
	.loc 1 567 770
	sw	a5,-1632(a4)
.LBE341:
	.loc 1 565 9 discriminator 4
	lw	s9,64(sp)
.LBB342:
	.loc 1 567 677
	li	a5,-2147479552
	addi	a5,a5,-736
.LBE342:
	.loc 1 565 9 discriminator 4
	sw	s9,196(sp)
.LVL476:
.LBB343:
	.loc 1 567 2 is_stmt 1
	.loc 1 567 76
	.loc 1 567 114
	.loc 1 567 136
	.loc 1 567 187
	.loc 1 567 226
	.loc 1 567 255
	.loc 1 567 278
	.loc 1 567 318
	.loc 1 567 347
	.loc 1 567 392
	.loc 1 567 418
	.loc 1 567 439
	.loc 1 567 459
	.loc 1 567 504
	.loc 1 567 529
	.loc 1 567 550
	.loc 1 567 570
	.loc 1 567 660
	.loc 1 567 753
.LBE343:
	.loc 1 570 7
.LBB344:
	.loc 1 571 696 is_stmt 0
	lw	s9,20(sp)
.LVL477:
.LBE344:
.LBB345:
	.loc 1 567 677
	sw	a5,32(sp)
.LBE345:
.LBB346:
	.loc 1 571 388
	lw	a5,12(sp)
	.loc 1 571 696
	slli	s9,s9,3
	sw	s9,12(sp)
	.loc 1 571 876
	ori	s9,s10,131
	sw	s9,20(sp)
.LBE346:
	.loc 1 570 9
	lw	s9,88(s8)
.LBB347:
	.loc 1 567 409
	addi	a6,a6,-2016
	.loc 1 567 475
	addi	t4,t4,672
	.loc 1 567 92
	addi	a3,a3,800
	.loc 1 567 130
	addi	a2,a2,928
	.loc 1 567 204
	addi	a0,a0,-1248
	.loc 1 567 272
	addi	t2,t2,1824
	.loc 1 567 295
	addi	s5,s5,1952
	.loc 1 567 335
	addi	s7,s7,-1120
	.loc 1 567 364
	addi	a7,a7,-1888
	.loc 1 567 435
	addi	t1,t1,-1760
	.loc 1 567 456
	addi	t3,t3,-992
	.loc 1 567 546
	addi	t6,t6,1568
	.loc 1 567 567
	addi	t0,t0,-864
	.loc 1 567 770
	addi	a4,a4,-1632
.LBE347:
.LBB348:
	.loc 1 571 388
	addi	a5,a5,-1
.LBE348:
	.loc 1 570 9
	beq	s9,zero,.L202
.LBB349:
	.loc 1 571 2 is_stmt 1
.LVL478:
	.loc 1 571 74
	.loc 1 571 91 is_stmt 0
	lw	s10,4(sp)
	sw	s2,0(s10)
.LVL479:
	.loc 1 571 113 is_stmt 1
	.loc 1 571 130 is_stmt 0
	lw	s2,44(sp)
	sw	s2,0(t2)
	.loc 1 571 136 is_stmt 1
	.loc 1 571 153 is_stmt 0
	lw	t2,168(sp)
	sw	t2,0(s5)
	.loc 1 571 187 is_stmt 1
	.loc 1 571 204 is_stmt 0
	sw	zero,0(s7)
	.loc 1 571 226 is_stmt 1
	.loc 1 571 243 is_stmt 0
	li	t2,4096
	sw	t2,0(a6)
	.loc 1 571 255 is_stmt 1
	.loc 1 571 272 is_stmt 0
	sw	zero,0(a7)
	.loc 1 571 278 is_stmt 1
	.loc 1 571 295 is_stmt 0
	lw	a7,164(sp)
	sw	a7,0(t1)
	.loc 1 571 318 is_stmt 1
	.loc 1 571 335 is_stmt 0
	sw	zero,0(t3)
	.loc 1 571 347 is_stmt 1
	.loc 1 571 363 is_stmt 0
	sw	a5,0(a2)
	.loc 1 571 392 is_stmt 1
	.loc 1 571 408 is_stmt 0
	li	t3,8
	sw	t3,0(a3)
	.loc 1 571 417 is_stmt 1
	.loc 1 571 434 is_stmt 0
	li	a5,1279
	sw	a5,0(a1)
	.loc 1 571 440 is_stmt 1
	.loc 1 571 457 is_stmt 0
	sw	zero,0(a0)
	.loc 1 571 460 is_stmt 1
	.loc 1 571 476 is_stmt 0
	li	a3,7
	sw	a3,0(t4)
	.loc 1 571 505 is_stmt 1
	.loc 1 571 521 is_stmt 0
	li	a3,1
	sw	a3,0(t5)
	.loc 1 571 530 is_stmt 1
	.loc 1 571 547 is_stmt 0
	sw	a5,0(t6)
	.loc 1 571 553 is_stmt 1
	.loc 1 571 570 is_stmt 0
	sw	zero,0(t0)
	.loc 1 571 573 is_stmt 1
	.loc 1 571 589 is_stmt 0
	lw	s10,28(sp)
	li	a5,524288
	addi	a5,a5,80
	sw	a5,0(s10)
	.loc 1 571 664 is_stmt 1
	.loc 1 571 681 is_stmt 0
	lw	s9,12(sp)
	lw	a5,32(sp)
	sw	s9,0(a5)
	.loc 1 571 758 is_stmt 1
	.loc 1 571 775 is_stmt 0
	lw	s9,20(sp)
	sw	s9,0(a4)
.LVL480:
.L203:
.LBE349:
	.loc 1 576 20 is_stmt 1 discriminator 1
	lw	a5,8(sp)
	ble	a5,s4,.L220
	lw	a3,332(sp)
	lw	a5,16(sp)
	lw	a7,228(sp)
	lw	a4,304(sp)
	add	a1,a3,s6
.LBB350:
	.loc 1 610 989 is_stmt 0
	mul	a3,s11,s0
	slli	a2,a5,6
	addi	a5,a7,-1
	add	a4,a4,s6
	sub	a5,a5,s6
	sw	a5,248(sp)
	addi	a5,a4,-1
	sw	a5,292(sp)
.LBE350:
.LBB351:
	.loc 1 577 298
	li	t3,-2147479552
	neg	a5,a1
.LBE351:
.LBB352:
	.loc 1 610 2124
	mul	a0,a2,s0
	sw	a5,288(sp)
.LBE352:
.LBB353:
	.loc 1 577 476
	li	t4,-2147483648
	.loc 1 577 298
	addi	a5,t3,-1760
	sw	a5,16(sp)
	.loc 1 577 476
	addi	a5,t4,544
	sw	a5,20(sp)
.LBE353:
.LBB354:
	.loc 1 610 330
	lw	a5,36(sp)
	sub	a6,a7,s6
	.loc 1 610 1276
	slli	t1,s11,3
	.loc 1 610 330
	mul	a4,a5,s11
	.loc 1 610 1023
	slli	a5,a3,3
	sw	a5,92(sp)
	.loc 1 610 1382
	addi	a5,a5,-1
	sw	a5,108(sp)
	.loc 1 610 2124
	lw	a5,76(sp)
	.loc 1 610 1276
	sw	t1,104(sp)
	.loc 1 610 1561
	addi	t1,t1,-1
	sw	t1,112(sp)
.LBE354:
.LBB355:
	.loc 1 577 726
	lw	t1,52(sp)
.LBE355:
.LBB356:
	.loc 1 610 2124
	mul	a1,a0,a5
	.loc 1 610 364
	slli	a0,a4,6
.LBE356:
.LBB357:
	.loc 1 577 726
	ori	t1,t1,127
	sw	t1,344(sp)
.LBE357:
.LBB358:
	.loc 1 582 131
	lw	t1,356(sp)
.LBE358:
.LBB359:
	.loc 1 610 364
	sw	a0,88(sp)
	.loc 1 610 858
	addi	a0,a0,-1
.LBE359:
.LBB360:
	.loc 1 582 131
	addi	t1,t1,-1
	sw	t1,368(sp)
.LBE360:
.LBB361:
	.loc 1 610 719
	slli	t1,a4,3
	.loc 1 610 1087
	mul	a5,a3,a5
	lw	a3,252(sp)
	.loc 1 610 719
	sw	t1,96(sp)
	.loc 1 610 858
	sw	a0,84(sp)
.LBE361:
.LBB362:
	.loc 1 577 476
	li	s5,524288
	.loc 1 577 632
	li	s9,-2147479552
.LBE362:
.LBB363:
	.loc 1 577 995
	li	s7,1036288
.LBE363:
.LBB364:
	.loc 1 577 632
	addi	s9,s9,-1632
.LBE364:
.LBB365:
	.loc 1 577 995
	addi	s7,s7,125
.LBE365:
.LBB366:
	.loc 1 577 476
	addi	s5,s5,1360
.LBE366:
.LBB367:
	.loc 1 610 1087
	slli	a5,a5,3
	.loc 1 610 1142
	addi	a5,a5,-1
	sw	a5,100(sp)
	mul	a5,a6,a3
	addi	a5,a5,-1
	sw	a5,244(sp)
.LBE367:
	.loc 1 599 63 discriminator 2
	lw	a5,60(sp)
	mul	s0,s3,s0
.LVL481:
	mul	a5,a5,s3
	sw	a5,200(sp)
	slli	a5,s0,1
	sw	a5,360(sp)
.LBB368:
	.loc 1 610 2124
	mul	a5,a1,s11
	sw	a5,188(sp)
	lw	a5,320(sp)
	.loc 1 610 429
	mul	a4,a2,a4
	mul	a5,a3,a5
	.loc 1 610 519
	addi	a4,a4,-1
	sw	a4,80(sp)
	sw	a5,364(sp)
	mul	a5,a3,s6
	sw	a5,236(sp)
	lw	a5,40(sp)
	lw	a4,240(sp)
	lw	s10,24(sp)
	lw	s2,56(sp)
	mul	s4,a4,a5
	lw	a4,224(sp)
	sw	s0,376(sp)
	sw	s1,372(sp)
	mv	s0,s7
	sw	s5,380(sp)
	mv	s7,s9
	mv	s9,s8
	mul	s3,a4,a5
.LVL482:
	lw	a5,176(sp)
	mul	a5,a7,a5
	sw	a5,184(sp)
.LVL483:
.L217:
.LBE368:
.LBB369:
	.loc 1 577 3 is_stmt 1
	.loc 1 577 77
	.loc 1 577 94 is_stmt 0
	lw	t2,172(sp)
	lw	a5,4(sp)
	.loc 1 577 133
	li	s8,-2147483648
	.loc 1 577 207
	li	t5,-2147479552
	.loc 1 577 94
	sw	t2,0(a5)
	.loc 1 577 116 is_stmt 1
	.loc 1 577 133 is_stmt 0
	lw	a3,44(sp)
	.loc 1 577 156
	li	a5,-2147483648
	.loc 1 577 246
	li	a4,-2147479552
	.loc 1 577 133
	sw	a3,1824(s8)
	.loc 1 577 139 is_stmt 1
	.loc 1 577 156 is_stmt 0
	lw	a2,168(sp)
	sw	a5,12(sp)
	.loc 1 577 275
	li	t6,-2147479552
	.loc 1 577 156
	sw	a2,1952(a5)
	.loc 1 577 190 is_stmt 1
	.loc 1 577 207 is_stmt 0
	sw	zero,-1120(t5)
	.loc 1 577 229 is_stmt 1
	.loc 1 577 246 is_stmt 0
	li	a5,4096
	sw	a5,-2016(a4)
	.loc 1 577 258 is_stmt 1
	.loc 1 577 275 is_stmt 0
	sw	zero,-1888(t6)
	.loc 1 577 281 is_stmt 1
	.loc 1 577 298 is_stmt 0
	lw	a1,16(sp)
	lw	a0,164(sp)
	.loc 1 577 338
	li	t0,-2147479552
	.loc 1 577 366
	li	a2,-2147483648
	.loc 1 577 298
	sw	a0,0(a1)
	.loc 1 577 321 is_stmt 1
	.loc 1 577 338 is_stmt 0
	sw	zero,-992(t0)
	.loc 1 577 350 is_stmt 1
	.loc 1 577 366 is_stmt 0
	li	t3,7
	sw	t3,672(a2)
	.loc 1 577 395 is_stmt 1
	.loc 1 577 411 is_stmt 0
	li	a3,-2147483648
	li	a6,1
	sw	a6,1056(a3)
	.loc 1 577 420 is_stmt 1
	.loc 1 577 437 is_stmt 0
	li	a1,-2147483648
	sw	t3,1568(a1)
	.loc 1 577 440 is_stmt 1
	.loc 1 577 457 is_stmt 0
	li	a0,-2147479552
	sw	zero,-864(a0)
	.loc 1 577 460 is_stmt 1
	.loc 1 577 476 is_stmt 0
	lw	s5,20(sp)
	lw	a7,380(sp)
	.loc 1 577 562
	li	t1,-2147479552
	mv	s1,s6
	.loc 1 577 476
	sw	a7,0(s5)
	.loc 1 577 545 is_stmt 1
	.loc 1 577 562 is_stmt 0
	lw	a7,304(sp)
	sw	a7,-736(t1)
	.loc 1 577 615 is_stmt 1
.LBE369:
.LBB370:
	.loc 1 577 764 is_stmt 0
	lw	t4,320(sp)
	sw	s6,32(sp)
	add	s6,s6,t4
.LVL484:
.LBE370:
.LBB371:
	.loc 1 577 632
	lw	t4,344(sp)
.LBE371:
.LBB372:
	.loc 1 577 758
	addi	a5,s6,-1
	.loc 1 577 773
	sub	a7,a5,s1
.LBE372:
.LBB373:
	.loc 1 577 632
	sw	t4,0(s7)
.LBE373:
.LBB374:
	.loc 1 577 738 is_stmt 1
.LVL485:
	.loc 1 577 786
	.loc 1 577 813
	.loc 1 577 802 is_stmt 0
	sw	a6,1056(a3)
	.loc 1 577 829
	sw	a7,132(sp)
	sw	a7,672(a2)
	.loc 1 577 835 is_stmt 1
	.loc 1 577 867 is_stmt 0
	lw	a5,32(s9)
.LVL486:
.LBE374:
	.loc 1 577 1048
	li	t4,393216
	li	a7,-2147483648
.LVL487:
.LBB375:
	.loc 1 577 867
	addi	a5,a5,-1
	.loc 1 577 869
	sub	a5,a5,s1
	.loc 1 577 852
	sw	a5,1568(a1)
.LVL488:
	.loc 1 577 875 is_stmt 1
	.loc 1 577 892 is_stmt 0
	sw	s1,-864(a0)
	.loc 1 577 901 is_stmt 1
.LVL489:
	.loc 1 577 920
	.loc 1 577 956 is_stmt 0
	lw	a5,8(s9)
.LBE375:
	.loc 1 577 1048
	addi	t4,t4,1
.LBB376:
	.loc 1 577 956
	srli	a5,a5,1
	.loc 1 577 941
	add	a5,a5,s1
	.loc 1 577 936
	sw	a5,0(s5)
	.loc 1 577 977 is_stmt 1
	.loc 1 577 978
	.loc 1 577 995 is_stmt 0
	sw	s0,0(s7)
.LBE376:
	.loc 1 577 1031 is_stmt 1
	.loc 1 577 1032
	.loc 1 577 1048 is_stmt 0
	sw	t4,20(a7)
.LBB377:
	.loc 1 578 3 is_stmt 1
.LVL490:
	.loc 1 578 77
	.loc 1 578 94 is_stmt 0
	lw	a5,4(sp)
	sw	t2,0(a5)
	.loc 1 578 116 is_stmt 1
	.loc 1 578 133 is_stmt 0
	lw	t2,44(sp)
	sw	t2,1824(s8)
	.loc 1 578 139 is_stmt 1
	.loc 1 578 156 is_stmt 0
	lw	a5,12(sp)
	lw	t2,168(sp)
	sw	t2,1952(a5)
	.loc 1 578 190 is_stmt 1
	.loc 1 578 207 is_stmt 0
	sw	zero,-1120(t5)
	.loc 1 578 229 is_stmt 1
	.loc 1 578 246 is_stmt 0
	li	a5,4096
	sw	a5,-2016(a4)
	.loc 1 578 258 is_stmt 1
	.loc 1 578 275 is_stmt 0
	sw	zero,-1888(t6)
	.loc 1 578 281 is_stmt 1
	.loc 1 578 298 is_stmt 0
	lw	t5,16(sp)
	lw	t6,164(sp)
	.loc 1 578 476
	li	a5,524288
	addi	a5,a5,1368
	.loc 1 578 298
	sw	t6,0(t5)
	.loc 1 578 321 is_stmt 1
	.loc 1 578 338 is_stmt 0
	sw	zero,-992(t0)
	.loc 1 578 350 is_stmt 1
	.loc 1 578 366 is_stmt 0
	sw	t3,672(a2)
	.loc 1 578 395 is_stmt 1
	.loc 1 578 411 is_stmt 0
	sw	a6,1056(a3)
	.loc 1 578 420 is_stmt 1
	.loc 1 578 437 is_stmt 0
	sw	t3,1568(a1)
	.loc 1 578 440 is_stmt 1
	.loc 1 578 457 is_stmt 0
	sw	zero,-864(a0)
	.loc 1 578 460 is_stmt 1
	.loc 1 578 476 is_stmt 0
	sw	a5,0(s5)
	.loc 1 578 545 is_stmt 1
	.loc 1 578 562 is_stmt 0
	lw	t5,304(sp)
.LBE377:
	.loc 1 580 18
	srai	a5,s1,3
	.loc 1 583 20
	li	t2,-2147483648
.LBB378:
	.loc 1 578 562
	sw	t5,-736(t1)
	.loc 1 578 615 is_stmt 1
	.loc 1 578 632 is_stmt 0
	lw	t5,344(sp)
	sw	t5,0(s7)
.LBE378:
.LBB379:
	.loc 1 578 738 is_stmt 1
.LVL491:
	.loc 1 578 786
	.loc 1 578 802 is_stmt 0
	sw	a6,1056(a3)
.LVL492:
	.loc 1 578 813 is_stmt 1
	.loc 1 578 829 is_stmt 0
	lw	t3,132(sp)
	sw	t3,672(a2)
	.loc 1 578 835 is_stmt 1
	.loc 1 578 867 is_stmt 0
	lw	t3,32(s9)
.LBE379:
	.loc 1 580 33
	lw	t6,316(sp)
	mul	a4,a5,t6
.LBB380:
	.loc 1 578 867
	addi	a5,t3,-1
	.loc 1 578 869
	sub	a5,a5,s1
	.loc 1 578 852
	sw	a5,1568(a1)
	.loc 1 578 875 is_stmt 1
	.loc 1 578 892 is_stmt 0
	sw	s1,-864(a0)
	.loc 1 578 901 is_stmt 1
.LVL493:
	.loc 1 578 920
	.loc 1 578 956 is_stmt 0
	lw	a5,12(s9)
.LBE380:
.LBB381:
	.loc 1 582 289
	li	t3,1036288
	addi	t3,t3,133
.LBE381:
.LBB382:
	.loc 1 578 956
	srli	a5,a5,1
	.loc 1 578 941
	add	a5,a5,s1
	.loc 1 578 936
	sw	a5,0(s5)
	.loc 1 578 977 is_stmt 1
	.loc 1 578 978
	.loc 1 578 995 is_stmt 0
	sw	s0,0(s7)
.LBE382:
	.loc 1 578 1031 is_stmt 1
	.loc 1 578 1032
.LBB383:
	.loc 1 582 34 is_stmt 0
	lw	t6,340(sp)
.LBE383:
	.loc 1 580 14
	slli	a5,a4,3
	.loc 1 578 1048
	sw	t4,20(a7)
	.loc 1 580 10 is_stmt 1
.LVL494:
.LBB384:
	.loc 1 582 2
	.loc 1 582 34 is_stmt 0
	add	a4,t6,a5
	.loc 1 582 25
	addi	a4,a4,-1
	.loc 1 582 71
	sw	a6,1056(a3)
.LVL495:
	.loc 1 582 42
	sub	a4,a4,a5
.LVL496:
	.loc 1 582 55 is_stmt 1
	.loc 1 582 82
	.loc 1 582 98 is_stmt 0
	sw	a4,672(a2)
	.loc 1 582 104 is_stmt 1
	.loc 1 582 133 is_stmt 0
	lw	a3,368(sp)
	.loc 1 582 262
	addi	a4,a4,1
.LVL497:
	.loc 1 582 133
	sub	a3,a3,a5
	.loc 1 582 121
	sw	a3,1568(a1)
.LVL498:
	.loc 1 582 139 is_stmt 1
	.loc 1 582 156 is_stmt 0
	sw	a5,-864(a0)
	.loc 1 582 165 is_stmt 1
.LVL499:
	.loc 1 582 184
	.loc 1 582 205 is_stmt 0
	lw	a3,352(sp)
	add	a5,a5,a3
.LVL500:
	.loc 1 582 200
	sw	a5,0(s5)
.LVL501:
	.loc 1 582 236 is_stmt 1
	.loc 1 582 237
	.loc 1 582 254 is_stmt 0
	sw	a4,-736(t1)
	.loc 1 582 272 is_stmt 1
	.loc 1 582 289 is_stmt 0
	sw	t3,0(s7)
.LBE384:
	.loc 1 583 3 is_stmt 1
	.loc 1 583 20 is_stmt 0
	sw	zero,52(t2)
	.loc 1 583 23 is_stmt 1
	.loc 1 583 40 is_stmt 0
	li	a5,30
	sw	a5,0(s7)
	.loc 1 583 68 is_stmt 1
	.loc 1 583 85 is_stmt 0
	li	a3,-2147483648
	sw	zero,308(a3)
	.loc 1 583 88 is_stmt 1
	.loc 1 583 105 is_stmt 0
	li	a4,28
.LVL502:
	.loc 1 583 148
	li	a5,327680
	.loc 1 583 105
	sw	a4,0(s7)
	.loc 1 583 131 is_stmt 1
	.loc 1 583 132
	.loc 1 583 148 is_stmt 0
	addi	a5,a5,1
	sw	a5,20(a7)
	.loc 1 585 10 is_stmt 1
.LVL503:
.LBB385:
	.loc 1 577 156 is_stmt 0
	lw	a4,12(sp)
.LBE385:
	.loc 1 585 25
	lw	a2,56(s9)
	.loc 1 585 38 discriminator 1
	lw	a5,36(s9)
.LBB386:
	.loc 1 577 156
	addi	a4,a4,1952
	.loc 1 577 133
	addi	a3,s8,1824
	.loc 1 577 156
	sw	a4,12(sp)
	.loc 1 577 133
	sw	a3,52(sp)
.LBE386:
	.loc 1 585 20
	neg	a4,a2
.LVL504:
	.loc 1 585 33 is_stmt 1 discriminator 1
	ble	a5,zero,.L204
	lw	a7,360(sp)
	lw	a0,240(sp)
	lw	a6,224(sp)
	sw	a7,192(sp)
	lw	a7,376(sp)
	mul	a3,a0,a4
	lw	t1,332(sp)
	sw	a7,180(sp)
	add	a1,a2,a6
	.loc 1 585 15 is_stmt 0
	sw	zero,72(sp)
	sw	s6,324(sp)
	sw	s11,280(sp)
	sw	s0,328(sp)
	.loc 1 586 23
	sw	a4,60(sp)
	mv	s8,s9
	mul	a7,a6,a4
	add	a3,a3,t1
	add	a3,a3,s1
	sw	a3,204(sp)
	sw	a7,208(sp)
	add	a3,t1,a7
	lw	a7,236(sp)
	mul	a0,a0,a1
	add	a3,a3,a7
	sw	a3,216(sp)
	mv	a7,a4
	mul	a3,a6,a1
	addi	a1,a0,-1
	sw	a1,212(sp)
	mv	a1,s10
	mv	s10,s7
	addi	a3,a3,-1
	sw	a3,220(sp)
	lw	a3,72(sp)
.LVL505:
	.loc 1 586 13 is_stmt 1
	.loc 1 586 36 discriminator 1
	.loc 1 585 49 is_stmt 0 discriminator 2
	add	s1,s2,a3
.LVL506:
	.loc 1 586 36 discriminator 1
	ble	a5,zero,.L205
.LVL507:
.L260:
.LBB387:
	.loc 1 589 361
	lw	a6,204(sp)
.LBE387:
.LBB388:
	.loc 1 610 3399
	addi	a5,s1,-1
.LBE388:
.LBB389:
	.loc 1 589 361
	lw	a0,288(sp)
.LBE389:
.LBB390:
	.loc 1 610 3417
	sub	ra,a5,a3
	.loc 1 610 0
	lw	a5,132(sp)
.LBE390:
.LBB391:
	.loc 1 589 361
	add	a0,a0,a6
.LBE391:
.LBB392:
	.loc 1 610 0
	addi	a4,ra,1
.LVL508:
	addi	a5,a5,1
.LBE392:
.LBB393:
	.loc 1 589 361
	sw	a0,232(sp)
.LBE393:
.LBB394:
	.loc 1 610 108
	lw	a0,76(sp)
.LBE394:
.LBB395:
	.loc 1 610 0
	mul	a5,a5,a4
	lw	a3,224(sp)
.LBE395:
.LBB396:
	.loc 1 610 108
	addi	a0,a0,-1
	sw	a0,36(sp)
	.loc 1 610 190
	lw	a0,280(sp)
	add	a4,a3,a2
	addi	a3,a3,-1
	add	a3,a3,a2
	addi	a0,a0,-1
	sw	a3,64(sp)
	lw	a3,228(sp)
	lw	a6,32(sp)
	sw	a0,40(sp)
	lw	a0,292(sp)
	mul	a4,a4,a3
.LBE396:
.LBB397:
	.loc 1 591 357
	li	s6,-2147479552
	sub	a0,a0,a6
	sw	a0,160(sp)
	lw	a0,284(sp)
	.loc 1 591 436
	li	s9,-2147479552
	addi	s9,s9,-1888
	addi	a0,a0,-1
	sw	a0,156(sp)
	lw	a0,276(sp)
	mul	a3,a7,a3
	.loc 1 591 401
	li	s11,-2147479552
	addi	a0,a0,-1
	sw	a0,152(sp)
	.loc 1 591 357
	addi	s6,s6,-1120
	addi	a0,a1,-1
	addi	a4,a4,-1
	sw	s9,8(sp)
.LBE397:
	.loc 1 586 18
	li	s5,0
	sw	a0,144(sp)
	mul	a5,a5,a1
.LBB398:
	.loc 1 591 401
	addi	s11,s11,-2016
	sw	a3,56(sp)
	sw	a4,68(sp)
	sw	s3,256(sp)
	sw	s4,260(sp)
	sw	s1,264(sp)
	sw	a1,268(sp)
	sw	s2,272(sp)
	sw	ra,148(sp)
	sw	a5,140(sp)
	mv	s9,s6
	j	.L209
.LVL509:
.L258:
.LBE398:
	.loc 1 589 3 is_stmt 1
	.loc 1 589 23
	.loc 1 589 40 is_stmt 0
	li	a5,30
	sw	a5,0(s10)
.LBB399:
	.loc 1 589 68 is_stmt 1
.LVL510:
	.loc 1 589 216
	.loc 1 589 233 is_stmt 0
	lw	a5,4(sp)
	lw	a4,240(sp)
	.loc 1 589 507
	li	a6,-2147479552
	.loc 1 589 568
	li	a0,-2147483648
	.loc 1 589 233
	sw	a4,0(a5)
.LVL511:
	.loc 1 589 260 is_stmt 1
	.loc 1 589 277 is_stmt 0
	lw	a5,52(sp)
	lw	a4,156(sp)
	.loc 1 589 591
	li	a1,-2147483648
	.loc 1 589 626
	li	a2,-2147479552
	.loc 1 589 277
	sw	a4,0(a5)
	.loc 1 589 283 is_stmt 1
	.loc 1 589 300 is_stmt 0
	lw	a5,12(sp)
	lw	a4,212(sp)
	.loc 1 589 763
	li	a3,-2147479552
	.loc 1 589 300
	sw	a4,0(a5)
	.loc 1 589 340 is_stmt 1
	.loc 1 589 357 is_stmt 0
	lw	a5,232(sp)
	sw	a5,0(s9)
	.loc 1 589 384 is_stmt 1
	.loc 1 589 401 is_stmt 0
	lw	a5,228(sp)
	sw	a5,0(s11)
	.loc 1 589 419 is_stmt 1
	.loc 1 589 436 is_stmt 0
	lw	a5,152(sp)
	lw	a4,8(sp)
	sw	a5,0(a4)
	.loc 1 589 442 is_stmt 1
	.loc 1 589 459 is_stmt 0
	lw	a5,16(sp)
	lw	a4,68(sp)
	sw	a4,0(a5)
	.loc 1 589 490 is_stmt 1
	.loc 1 589 507 is_stmt 0
	lw	a7,56(sp)
	.loc 1 589 541
	li	a5,-2147483648
	li	a4,1
	.loc 1 589 507
	sw	a7,-992(a6)
	.loc 1 589 525 is_stmt 1
	.loc 1 589 541 is_stmt 0
	sw	a4,1056(a5)
	.loc 1 589 552 is_stmt 1
	.loc 1 589 568 is_stmt 0
	lw	a5,160(sp)
	sw	a5,672(a0)
	.loc 1 589 574 is_stmt 1
	.loc 1 589 591 is_stmt 0
	lw	a5,248(sp)
	sw	a5,1568(a1)
	.loc 1 589 609 is_stmt 1
	.loc 1 589 626 is_stmt 0
	lw	a5,32(sp)
	sw	a5,-864(a2)
	.loc 1 589 635 is_stmt 1
.LVL512:
	.loc 1 589 697
	.loc 1 589 718 is_stmt 0
	lw	a5,204(sp)
	add	a5,a7,a5
.LVL513:
.L252:
.LBE399:
.LBB400:
	.loc 1 591 713
	lw	a4,20(sp)
	.loc 1 591 785
	li	t1,1036288
	addi	t1,t1,157
	.loc 1 591 713
	sw	a5,0(a4)
	.loc 1 591 745 is_stmt 1
	.loc 1 591 746
	.loc 1 591 763 is_stmt 0
	sw	zero,-480(a3)
	.loc 1 591 768 is_stmt 1
.LBE400:
	.loc 1 591 837 is_stmt 0
	li	a4,196608
	li	a5,-2147483648
.LBB401:
	.loc 1 591 785
	sw	t1,0(s10)
.LBE401:
	.loc 1 591 820 is_stmt 1
	.loc 1 591 821
	.loc 1 591 837 is_stmt 0
	addi	a4,a4,1
	sw	a4,20(a5)
.LVL514:
	.loc 1 599 37 is_stmt 1 discriminator 1
	lw	a5,76(sp)
	ble	a5,zero,.L214
	.loc 1 600 19
	.loc 1 600 21 is_stmt 0
	lw	a5,36(s8)
	lw	a4,72(sp)
	bge	a4,a5,.L214
	.loc 1 602 1 is_stmt 1
	.loc 1 602 18 is_stmt 0
	li	a3,-2147483648
	sw	zero,92(a3)
	.loc 1 603 1 is_stmt 1
	.loc 1 603 18 is_stmt 0
	li	a4,-2147483648
	sw	zero,96(a4)
	.loc 1 604 1 is_stmt 1
	.loc 1 604 2
	.loc 1 604 18 is_stmt 0
	lw	a0,196(sp)
	li	a5,-2147483648
	.loc 1 599 37 discriminator 1
	li	a2,1
	.loc 1 604 18
	sw	a0,20(a5)
	.loc 1 599 37 discriminator 1
	lw	a6,76(sp)
	.loc 1 604 18
	addi	a5,a5,20
	.loc 1 599 49 is_stmt 1 discriminator 2
.LVL515:
	.loc 1 599 37 discriminator 1
	.loc 1 602 18 is_stmt 0
	addi	a3,a3,92
	.loc 1 603 18
	addi	a4,a4,96
	.loc 1 599 37 discriminator 1
	beq	a6,a2,.L214
	.loc 1 600 19 is_stmt 1
	.loc 1 600 21 is_stmt 0
	lw	a1,36(s8)
	lw	a7,180(sp)
	ble	a1,a7,.L214
	.loc 1 602 1 is_stmt 1
	.loc 1 602 18 is_stmt 0
	sw	a2,0(a3)
.LVL516:
	.loc 1 603 1 is_stmt 1
	.loc 1 603 18 is_stmt 0
	lw	a1,200(sp)
	.loc 1 599 37 discriminator 1
	li	a2,3
	.loc 1 603 18
	sw	a1,0(a4)
	.loc 1 604 1 is_stmt 1
	.loc 1 604 2
	.loc 1 604 18 is_stmt 0
	sw	a0,0(a5)
	.loc 1 599 49 is_stmt 1 discriminator 2
.LVL517:
	.loc 1 599 56 is_stmt 0 discriminator 2
	slli	a1,a1,1
.LVL518:
	.loc 1 599 37 is_stmt 1 discriminator 1
	bne	a6,a2,.L214
	.loc 1 600 19
	.loc 1 600 21 is_stmt 0
	lw	a2,36(s8)
	lw	a6,192(sp)
	ble	a2,a6,.L214
	.loc 1 602 1 is_stmt 1
	.loc 1 602 18 is_stmt 0
	li	a2,2
	sw	a2,0(a3)
	.loc 1 603 1 is_stmt 1
	.loc 1 603 18 is_stmt 0
	sw	a1,0(a4)
	.loc 1 604 1 is_stmt 1
	.loc 1 604 2
	.loc 1 604 18 is_stmt 0
	sw	a0,0(a5)
	.loc 1 599 49 is_stmt 1 discriminator 2
.LVL519:
	.loc 1 599 37 discriminator 1
.L214:
	.loc 1 606 16
	li	a5,-2147483648
	sw	zero,36(a5)
	.loc 1 606 16
	call	_taskYield
.LVL520:
	.loc 1 606 30 discriminator 1
.LBB402:
	.loc 1 610 3
	.loc 1 610 257
	.loc 1 610 274 is_stmt 0
	lw	a5,88(sp)
	lw	s3,4(sp)
	.loc 1 610 650
	li	s2,-2147483648
	.loc 1 610 740
	li	s1,-2147483648
	.loc 1 610 274
	sw	a5,0(s3)
.LVL521:
	.loc 1 610 369 is_stmt 1
	.loc 1 610 386 is_stmt 0
	lw	t0,52(sp)
	lw	a4,44(sp)
	.loc 1 610 762
	li	s0,-2147483648
	.loc 1 610 878
	li	t2,-2147479552
	.loc 1 610 386
	sw	a4,0(t0)
	.loc 1 610 392 is_stmt 1
	.loc 1 610 409 is_stmt 0
	lw	a4,12(sp)
	lw	a3,80(sp)
	.loc 1 610 968
	li	a5,-2147483648
	.loc 1 610 1044
	li	t6,-2147483648
	.loc 1 610 409
	sw	a3,0(a4)
	.loc 1 610 522 is_stmt 1
	.loc 1 610 539 is_stmt 0
	sw	zero,0(s9)
	.loc 1 610 634 is_stmt 1
	.loc 1 610 650 is_stmt 0
	lw	a2,96(sp)
	.loc 1 610 740
	li	a4,7
	.loc 1 610 1067
	li	t5,-2147483648
	.loc 1 610 650
	sw	a2,32(s2)
	.loc 1 610 724 is_stmt 1
	.loc 1 610 740 is_stmt 0
	sw	a4,160(s1)
	.loc 1 610 746 is_stmt 1
	.loc 1 610 762 is_stmt 0
	lw	a1,84(sp)
	.loc 1 610 1162
	li	t4,-2147479552
	.loc 1 610 1495
	li	t3,-2147483648
	.loc 1 610 762
	sw	a1,1184(s0)
	.loc 1 610 861 is_stmt 1
	.loc 1 610 878 is_stmt 0
	sw	zero,-1504(t2)
	.loc 1 610 952 is_stmt 1
	.loc 1 610 968 is_stmt 0
	lw	a0,92(sp)
	sw	a5,24(sp)
	.loc 1 610 1460
	li	a1,8
	.loc 1 610 968
	sw	a0,288(a5)
	.loc 1 610 1028 is_stmt 1
	.loc 1 610 1044 is_stmt 0
	lw	a3,36(sp)
	.loc 1 610 1518
	li	t1,-2147483648
	.loc 1 610 1044
	sw	a3,416(t6)
	.loc 1 610 1050 is_stmt 1
	.loc 1 610 1067 is_stmt 0
	lw	a6,100(sp)
	sw	a6,1312(t5)
	.loc 1 610 1145 is_stmt 1
	.loc 1 610 1162 is_stmt 0
	sw	zero,-1376(t4)
	.loc 1 610 1222 is_stmt 1
	.loc 1 610 1239 is_stmt 0
	lw	a7,104(sp)
	.loc 1 610 1402
	li	a6,-2147479552
	.loc 1 610 1239
	sw	a7,0(s11)
	.loc 1 610 1281 is_stmt 1
	.loc 1 610 1298 is_stmt 0
	lw	a2,48(sp)
	lw	a5,8(sp)
	.loc 1 610 1581
	li	a7,-2147479552
	.loc 1 610 1298
	sw	a2,0(a5)
	.loc 1 610 1304 is_stmt 1
	.loc 1 610 1321 is_stmt 0
	lw	a3,16(sp)
	lw	s6,108(sp)
	.loc 1 610 1616
	li	a2,1
	.loc 1 610 1321
	sw	s6,0(a3)
	.loc 1 610 1385 is_stmt 1
	.loc 1 610 1460 is_stmt 0
	li	s6,-2147483648
	.loc 1 610 1402
	sw	zero,-992(a6)
	.loc 1 610 1444 is_stmt 1
	.loc 1 610 1460 is_stmt 0
	sw	a1,800(s6)
	.loc 1 610 1479 is_stmt 1
	.loc 1 610 1495 is_stmt 0
	lw	a0,40(sp)
	.loc 1 610 1643
	li	a1,-2147483648
	.loc 1 610 1702
	li	a3,-2147479552
	.loc 1 610 1495
	sw	a0,928(t3)
	.loc 1 610 1501 is_stmt 1
	.loc 1 610 1518 is_stmt 0
	lw	s7,112(sp)
	.loc 1 610 1616
	li	a0,-2147483648
	.loc 1 610 1518
	sw	s7,1440(t1)
	.loc 1 610 1564 is_stmt 1
	.loc 1 610 1581 is_stmt 0
	sw	zero,-1248(a7)
	.loc 1 610 1600 is_stmt 1
	.loc 1 610 1616 is_stmt 0
	sw	a2,1056(a0)
	.loc 1 610 1627 is_stmt 1
	.loc 1 610 1643 is_stmt 0
	sw	a4,672(a1)
	.loc 1 610 1649 is_stmt 1
	.loc 1 610 1666 is_stmt 0
	li	a2,-2147483648
	sw	a4,1568(a2)
	.loc 1 610 1685 is_stmt 1
	.loc 1 610 1702 is_stmt 0
	sw	zero,-864(a3)
	.loc 1 610 1711 is_stmt 1
.LVL522:
	.loc 1 610 2015
	.loc 1 610 2031 is_stmt 0
	lw	a5,20(sp)
	.loc 1 610 2081
	li	s7,-2147479552
	mv	s4,s7
	.loc 1 610 2031
	sw	zero,0(a5)
	.loc 1 610 2063 is_stmt 1
	.loc 1 610 2064
	.loc 1 610 2081 is_stmt 0
	lw	s7,188(sp)
	sw	s4,28(sp)
	.loc 1 610 2151
	li	a5,1036288
	.loc 1 610 2081
	sw	s7,-736(s4)
	.loc 1 610 2134 is_stmt 1
	.loc 1 610 2151 is_stmt 0
	addi	a5,a5,-1889
	sw	a5,0(s10)
.LBE402:
.LBB403:
	.loc 1 610 2187 is_stmt 1
.LVL523:
	.loc 1 610 2348
	.loc 1 610 2365 is_stmt 0
	lw	s7,172(sp)
	sw	s3,4(sp)
	.loc 1 610 2404
	mv	s4,t0
	.loc 1 610 2365
	sw	s7,0(s3)
.LVL524:
	.loc 1 610 2387 is_stmt 1
	.loc 1 610 2404 is_stmt 0
	lw	s3,44(sp)
	sw	s3,0(t0)
	.loc 1 610 2410 is_stmt 1
	.loc 1 610 2427 is_stmt 0
	lw	a5,12(sp)
	lw	s7,168(sp)
	sw	s7,0(a5)
	.loc 1 610 2461 is_stmt 1
	.loc 1 610 2478 is_stmt 0
	sw	zero,0(s9)
	.loc 1 610 2500 is_stmt 1
	.loc 1 610 2517 is_stmt 0
	li	a5,4096
	sw	a5,0(s11)
	.loc 1 610 2529 is_stmt 1
	.loc 1 610 2546 is_stmt 0
	lw	a5,48(sp)
	lw	t0,8(sp)
	sw	a5,0(t0)
	.loc 1 610 2552 is_stmt 1
	.loc 1 610 2569 is_stmt 0
	lw	s3,16(sp)
	lw	s7,164(sp)
	.loc 1 610 2637
	li	a5,4096
	addi	a5,a5,-2048
	.loc 1 610 2569
	sw	s7,0(s3)
	.loc 1 610 2592 is_stmt 1
	.loc 1 610 2609 is_stmt 0
	sw	zero,-992(a6)
	.loc 1 610 2621 is_stmt 1
	.loc 1 610 2637 is_stmt 0
	sw	a5,800(s6)
	.loc 1 610 2650 is_stmt 1
	.loc 1 610 2666 is_stmt 0
	lw	a5,40(sp)
	.loc 1 610 2922
	li	s3,8
.LBE403:
	.loc 1 610 3247
	li	s7,-2147483648
.LBB404:
	.loc 1 610 2666
	sw	a5,928(t3)
	.loc 1 610 2672 is_stmt 1
	.loc 1 610 2689 is_stmt 0
	li	a5,4194304
	addi	a5,a5,-1
	sw	a5,1440(t1)
	.loc 1 610 2714 is_stmt 1
	.loc 1 610 2731 is_stmt 0
	sw	zero,-1248(a7)
	.loc 1 610 2744 is_stmt 1
	.loc 1 610 2760 is_stmt 0
	li	a5,256
	sw	a5,1056(a0)
	.loc 1 610 2771 is_stmt 1
	.loc 1 610 2810 is_stmt 0
	li	a5,65536
	.loc 1 610 2787
	sw	a4,672(a1)
	.loc 1 610 2793 is_stmt 1
	.loc 1 610 2810 is_stmt 0
	addi	a5,a5,-1
	sw	a5,1568(a2)
	.loc 1 610 2831 is_stmt 1
	.loc 1 610 2848 is_stmt 0
	sw	zero,-864(a3)
	.loc 1 610 2859 is_stmt 1
	.loc 1 610 2875 is_stmt 0
	lw	a5,36(sp)
.LBE404:
	.loc 1 610 3247
	addi	s7,s7,20
.LBB405:
	.loc 1 610 2875
	sw	a5,416(t6)
	.loc 1 610 2906 is_stmt 1
	.loc 1 610 2922 is_stmt 0
	lw	t0,24(sp)
	.loc 1 610 2948
	li	a5,23
	.loc 1 610 2922
	sw	s3,288(t0)
	.loc 1 610 2931 is_stmt 1
	.loc 1 610 2948 is_stmt 0
	sw	a5,1312(t5)
	.loc 1 610 2952 is_stmt 1
	.loc 1 610 2969 is_stmt 0
	sw	zero,-1376(t4)
	.loc 1 610 2972 is_stmt 1
	.loc 1 610 2988 is_stmt 0
	sw	a4,160(s1)
	.loc 1 610 3026 is_stmt 1
	.loc 1 610 3042 is_stmt 0
	li	s3,1
	sw	s3,32(s2)
	.loc 1 610 3051 is_stmt 1
	.loc 1 610 3067 is_stmt 0
	sw	a5,1184(s0)
	.loc 1 610 3071 is_stmt 1
	.loc 1 610 3088 is_stmt 0
	sw	zero,-1504(t2)
	.loc 1 610 3091 is_stmt 1
	.loc 1 610 3107 is_stmt 0
	lw	a5,20(sp)
	.loc 1 610 3195
	li	s3,1032192
	addi	s3,s3,1181
	.loc 1 610 3107
	sw	zero,0(a5)
	.loc 1 610 3178 is_stmt 1
	.loc 1 610 3195 is_stmt 0
	sw	s3,0(s10)
.LBE405:
	.loc 1 610 3230 is_stmt 1
	.loc 1 610 3231
	.loc 1 610 3247 is_stmt 0
	li	a5,65536
	sw	s7,116(sp)
	addi	a5,a5,17
	sw	a5,0(s7)
.LBB406:
	.loc 1 610 3335 is_stmt 1
.LVL525:
	.loc 1 610 3478
	.loc 1 610 3498 is_stmt 0
	lw	a5,36(s8)
	.loc 1 610 0
	li	s7,1036288
	addi	s7,s7,159
	.loc 1 610 3512
	mul	a5,a5,a5
	.loc 1 610 0
	sw	s7,120(sp)
.LBE406:
.LBB407:
	li	s7,1036288
	addi	s7,s7,-1891
.LBE407:
.LBB408:
	.loc 1 610 3495
	lw	s3,4(sp)
.LBE408:
.LBB409:
	.loc 1 610 0
	sw	s7,124(sp)
.LBE409:
	li	s7,393216
	addi	s7,s7,17
	sw	s7,128(sp)
.LBB410:
	.loc 1 610 3495
	sw	a5,0(s3)
.LVL526:
	.loc 1 610 3532 is_stmt 1
	.loc 1 610 3549 is_stmt 0
	lw	s3,132(sp)
	sw	s4,52(sp)
	sw	s3,0(s4)
	.loc 1 610 3555 is_stmt 1
	.loc 1 610 3595 is_stmt 0
	lw	s3,36(s8)
	.loc 1 610 3587
	lw	s7,32(sp)
	lw	a5,32(s8)
	.loc 1 610 3609
	mul	s3,s3,s3
	.loc 1 610 3587
	sub	a5,a5,s7
.LBE410:
.LBB411:
	.loc 1 610 968
	addi	s7,t0,288
	sw	s7,24(sp)
	.loc 1 610 2081
	lw	t0,28(sp)
.LBE411:
	.loc 1 586 65 discriminator 2
	lw	s7,176(sp)
.LBB412:
	.loc 1 610 2081
	addi	t0,t0,-736
	sw	t0,28(sp)
.LBE412:
.LBB413:
	.loc 1 610 3592
	mul	a5,a5,s3
.LBE413:
	.loc 1 586 65 discriminator 2
	lw	s3,60(sp)
	lw	t0,68(sp)
	add	s3,s3,s7
	sw	s3,60(sp)
	lw	s3,184(sp)
	sub	t0,t0,s3
	sw	t0,68(sp)
	.loc 1 586 36 discriminator 1
	lw	t0,56(sp)
.LBB414:
	.loc 1 610 3624
	addi	a5,a5,-1
.LBE414:
	.loc 1 586 36 discriminator 1
	add	t0,t0,s3
	sw	t0,56(sp)
	lw	t0,64(sp)
.LBB415:
	.loc 1 610 3572
	lw	s3,12(sp)
.LBE415:
	.loc 1 586 36 discriminator 1
	sub	t0,t0,s7
	sw	t0,64(sp)
.LBB416:
	.loc 1 610 3572
	sw	a5,0(s3)
	.loc 1 610 3627 is_stmt 1
	.loc 1 610 3651 is_stmt 0
	lw	a5,36(s8)
	.loc 1 610 3648
	lw	s7,32(sp)
	.loc 1 610 3665
	mul	a5,a5,a5
	.loc 1 610 3648
	mul	a5,a5,s7
	.loc 1 610 3644
	sw	a5,0(s9)
	.loc 1 610 3681 is_stmt 1
	.loc 1 610 3716 is_stmt 0
	lw	a5,36(s8)
	.loc 1 610 3698
	sw	a5,0(s11)
	.loc 1 610 3721 is_stmt 1
	.loc 1 610 3738 is_stmt 0
	lw	t0,148(sp)
	lw	a5,8(sp)
	sw	t0,0(a5)
	.loc 1 610 3744 is_stmt 1
	.loc 1 610 3776 is_stmt 0
	lw	s7,72(sp)
	.loc 1 610 3767
	lw	s3,36(s8)
	.loc 1 610 3776
	sub	a5,s3,s7
	.loc 1 610 3781
	mul	a5,a5,s3
	.loc 1 610 3761
	lw	s3,16(sp)
	.loc 1 610 3799
	addi	a5,a5,-1
	.loc 1 610 3761
	sw	a5,0(s3)
	.loc 1 610 3802 is_stmt 1
	.loc 1 610 3823 is_stmt 0
	lw	a5,36(s8)
	.loc 1 610 3858
	li	s3,1
	.loc 1 610 3823
	mul	a5,s7,a5
	.loc 1 610 3819
	sw	a5,-992(a6)
	.loc 1 610 3842 is_stmt 1
	.loc 1 610 3858 is_stmt 0
	sw	s3,1056(a0)
	.loc 1 610 3869 is_stmt 1
	.loc 1 610 3885 is_stmt 0
	lw	t0,144(sp)
	sw	t0,672(a1)
	.loc 1 610 3891 is_stmt 1
	.loc 1 610 3923 is_stmt 0
	lw	a5,36(s8)
	addi	a5,a5,-1
	.loc 1 610 3925
	sub	a5,a5,s5
	.loc 1 610 3908
	sw	a5,1568(a2)
	.loc 1 610 3931 is_stmt 1
	.loc 1 610 3948 is_stmt 0
	sw	s5,-864(a3)
	.loc 1 610 3957 is_stmt 1
	.loc 1 610 3972 is_stmt 0
	lw	s3,36(s8)
.LVL527:
	.loc 1 610 4034 is_stmt 1
	.loc 1 610 4055 is_stmt 0
	lw	t0,20(s8)
	.loc 1 610 3986
	mul	a5,s3,s3
	.loc 1 610 4005
	mul	s3,s3,s7
	.loc 1 610 3969
	lw	s7,32(sp)
	mul	a5,a5,s7
	.loc 1 610 4001
	add	a5,a5,s3
	.loc 1 610 4050
	lw	s3,20(sp)
	.loc 1 610 3961
	add	a5,a5,s5
	.loc 1 610 4055
	add	a5,a5,t0
	.loc 1 610 4050
	sw	a5,0(s3)
	.loc 1 610 4087 is_stmt 1
	.loc 1 610 4088
	.loc 1 610 0 is_stmt 0
	lw	a5,28(sp)
	lw	t0,140(sp)
	sw	t0,0(a5)
	.loc 1 610 0 is_stmt 1
	lw	s7,120(sp)
	sw	s7,0(s10)
.LBE416:
.LBB417:
	.loc 1 610 0
.LVL528:
	.loc 1 610 0
	lw	s7,88(sp)
	sw	s7,32(s2)
.LVL529:
	.loc 1 610 0
	lw	s2,44(sp)
	sw	s2,160(s1)
	.loc 1 610 0
	lw	s1,80(sp)
	sw	s1,1184(s0)
	.loc 1 610 0
	sw	zero,-1504(t2)
	.loc 1 610 0
	lw	s7,24(sp)
	lw	t2,96(sp)
	sw	t2,0(s7)
	.loc 1 610 0
	sw	a4,416(t6)
	.loc 1 610 0
	lw	t6,84(sp)
	sw	t6,1312(t5)
	.loc 1 610 0
	sw	zero,-1376(t4)
	.loc 1 610 0
	lw	t5,92(sp)
	sw	t5,800(s6)
	.loc 1 610 0
	lw	t4,36(sp)
	sw	t4,928(t3)
	.loc 1 610 0
	lw	t3,100(sp)
	sw	t3,1440(t1)
	.loc 1 610 0
	sw	zero,-1248(a7)
	.loc 1 610 0
	lw	s3,4(sp)
	lw	t1,104(sp)
	sw	t1,0(s3)
	.loc 1 610 0
	lw	a7,48(sp)
	li	s3,1
	sw	a7,0(s4)
	.loc 1 610 0
	lw	a5,12(sp)
	lw	s6,108(sp)
	li	a7,8
	sw	s6,0(a5)
	.loc 1 610 0
	sw	zero,0(s9)
	.loc 1 610 0
	sw	a7,0(s11)
	.loc 1 610 0
	lw	a5,8(sp)
	lw	a7,40(sp)
	sw	a7,0(a5)
	.loc 1 610 0
	lw	a5,16(sp)
	lw	s7,112(sp)
	sw	s7,0(a5)
	.loc 1 610 0
	sw	zero,-992(a6)
	.loc 1 610 0
	sw	s3,1056(a0)
	.loc 1 610 0
	sw	a4,672(a1)
	.loc 1 610 0
	sw	a4,1568(a2)
	.loc 1 610 0
	sw	zero,-864(a3)
	.loc 1 610 0
.LVL530:
	.loc 1 610 0
	lw	s3,20(sp)
	sw	zero,0(s3)
	.loc 1 610 0
	.loc 1 610 0
	lw	a4,124(sp)
	sw	a4,0(s10)
.LBE417:
	.loc 1 610 0
	.loc 1 610 0
	lw	a5,116(sp)
	lw	s7,128(sp)
	sw	s7,0(a5)
	.loc 1 586 62 discriminator 2
	.loc 1 586 41 is_stmt 0 discriminator 1
	lw	a5,36(s8)
	.loc 1 586 52 discriminator 2
	lw	a4,136(sp)
	add	s5,s5,a4
.LVL531:
	.loc 1 586 36 is_stmt 1 discriminator 1
	ble	a5,s5,.L257
.LVL532:
.L209:
	.loc 1 588 16
	.loc 1 588 18 is_stmt 0
	lw	a5,88(s8)
	.loc 1 589 20
	li	a7,-2147483648
	sw	zero,180(a7)
.LVL533:
	.loc 1 588 18
	bne	a5,zero,.L258
	.loc 1 591 3 is_stmt 1
	.loc 1 591 23
	.loc 1 591 40 is_stmt 0
	li	a5,30
	sw	a5,0(s10)
.LBB418:
	.loc 1 591 68 is_stmt 1
.LVL534:
	.loc 1 591 216
	.loc 1 591 233 is_stmt 0
	lw	a5,4(sp)
	lw	a4,252(sp)
	.loc 1 591 507
	li	a6,-2147479552
	.loc 1 591 568
	li	a0,-2147483648
	.loc 1 591 233
	sw	a4,0(a5)
.LVL535:
	.loc 1 591 260 is_stmt 1
	.loc 1 591 277 is_stmt 0
	lw	a5,52(sp)
	lw	a4,160(sp)
	.loc 1 591 591
	li	a1,-2147483648
	.loc 1 591 626
	li	a2,-2147479552
	.loc 1 591 277
	sw	a4,0(a5)
	.loc 1 591 283 is_stmt 1
	.loc 1 591 300 is_stmt 0
	lw	a5,12(sp)
	lw	a4,244(sp)
	.loc 1 591 763
	li	a3,-2147479552
	.loc 1 591 300
	sw	a4,0(a5)
	.loc 1 591 340 is_stmt 1
	.loc 1 591 357 is_stmt 0
	lw	a5,236(sp)
	sw	a5,0(s9)
	.loc 1 591 384 is_stmt 1
	.loc 1 591 401 is_stmt 0
	lw	a5,224(sp)
	sw	a5,0(s11)
	.loc 1 591 419 is_stmt 1
	.loc 1 591 436 is_stmt 0
	lw	a5,156(sp)
	lw	a4,8(sp)
	sw	a5,0(a4)
	.loc 1 591 442 is_stmt 1
	.loc 1 591 459 is_stmt 0
	lw	a5,16(sp)
	lw	a4,220(sp)
	sw	a4,0(a5)
	.loc 1 591 490 is_stmt 1
	.loc 1 591 507 is_stmt 0
	lw	a4,208(sp)
	.loc 1 591 541
	li	a5,-2147483648
	.loc 1 591 507
	sw	a4,-992(a6)
	.loc 1 591 525 is_stmt 1
	.loc 1 591 541 is_stmt 0
	li	a4,1
	sw	a4,1056(a5)
	.loc 1 591 552 is_stmt 1
	.loc 1 591 568 is_stmt 0
	lw	a5,152(sp)
	sw	a5,672(a0)
	.loc 1 591 574 is_stmt 1
	.loc 1 591 591 is_stmt 0
	lw	a5,64(sp)
	sw	a5,1568(a1)
	.loc 1 591 609 is_stmt 1
	.loc 1 591 626 is_stmt 0
	lw	a5,60(sp)
	sw	a5,-864(a2)
	.loc 1 591 635 is_stmt 1
.LVL536:
	.loc 1 591 697
	.loc 1 591 718 is_stmt 0
	lw	a4,216(sp)
	add	a5,a5,a4
	j	.L252
.LVL537:
.L257:
.LBE418:
	lw	s1,264(sp)
	lw	s3,256(sp)
	lw	s4,260(sp)
	lw	a1,268(sp)
	lw	s2,272(sp)
	.loc 1 585 59 is_stmt 1 discriminator 2
.LVL538:
	.loc 1 585 33 discriminator 1
	ble	a5,s1,.L259
	lw	a4,180(sp)
	.loc 1 586 28 is_stmt 0
	lw	a2,56(s8)
	sw	s1,72(sp)
	add	a4,a4,s2
	sw	a4,180(sp)
	lw	a4,192(sp)
	mv	a3,s1
	.loc 1 585 49 discriminator 2
	add	s1,s2,a3
	add	a4,a4,s2
	sw	a4,192(sp)
	lw	a4,212(sp)
	sub	a4,a4,s4
	sw	a4,212(sp)
	lw	a4,204(sp)
	add	a4,a4,s4
	sw	a4,204(sp)
	lw	a4,220(sp)
	sub	a4,a4,s3
	sw	a4,220(sp)
	lw	a4,208(sp)
	add	a4,a4,s3
	sw	a4,208(sp)
	lw	a4,216(sp)
	add	a4,a4,s3
	sw	a4,216(sp)
.LVL539:
	.loc 1 586 13 is_stmt 1
	neg	a4,a2
	.loc 1 586 23 is_stmt 0
	sw	a4,60(sp)
.LVL540:
	.loc 1 586 36 is_stmt 1 discriminator 1
	.loc 1 586 23 is_stmt 0
	mv	a7,a4
	.loc 1 586 36 discriminator 1
	bgt	a5,zero,.L260
.LVL541:
.L205:
	.loc 1 585 33 discriminator 1
	mv	s7,s10
	lw	s6,324(sp)
	lw	s11,280(sp)
	lw	s0,328(sp)
	.loc 1 585 59 is_stmt 1 discriminator 2
.LVL542:
	.loc 1 585 33 discriminator 1
	mv	s9,s8
	mv	s10,a1
	ble	a5,s1,.L204
.LVL543:
.L215:
	.loc 1 586 13
	.loc 1 586 36 discriminator 1
	.loc 1 585 49 is_stmt 0 discriminator 2
	add	s1,s1,s2
.LVL544:
	.loc 1 585 59 is_stmt 1 discriminator 2
	.loc 1 585 33 discriminator 1
	blt	s1,a5,.L215
	j	.L204
.LVL545:
.L259:
	lw	s6,324(sp)
	lw	s11,280(sp)
	lw	s0,328(sp)
	mv	s7,s10
	mv	s9,s8
	mv	s10,a1
.LVL546:
.L204:
	.loc 1 576 20 discriminator 1
	lw	a5,236(sp)
	lw	a4,364(sp)
	lw	a3,248(sp)
	add	a5,a5,a4
	sw	a5,236(sp)
	lw	a5,320(sp)
	sub	a3,a3,a5
	sw	a3,248(sp)
	lw	a3,244(sp)
	sub	a4,a3,a4
	sw	a4,244(sp)
	lw	a4,292(sp)
	add	a4,a4,a5
	sw	a4,292(sp)
	lw	a4,288(sp)
	sub	a5,a4,a5
	sw	a5,288(sp)
	lw	a5,308(sp)
	blt	s6,a5,.L217
	lw	s1,372(sp)
	sw	s10,24(sp)
	mv	s8,s9
.LVL547:
.L220:
	.loc 1 488 30 discriminator 1
	lw	a5,312(sp)
	lw	a4,336(sp)
	blt	a5,a4,.L249
	.loc 1 498 16 is_stmt 0
	lw	a5,296(sp)
	.loc 1 499 17
	lw	a3,32(s8)
	.loc 1 498 16
	add	a5,a5,s1
	sw	a5,296(sp)
.LVL548:
	j	.L187
.LVL549:
.L202:
.LBB419:
	.loc 1 573 2 is_stmt 1
	.loc 1 573 74
	.loc 1 573 90 is_stmt 0
	lw	s2,172(sp)
	sw	s2,0(a3)
.LVL550:
	.loc 1 573 112 is_stmt 1
	.loc 1 573 128 is_stmt 0
	lw	a3,44(sp)
	sw	a3,0(a2)
	.loc 1 573 134 is_stmt 1
	.loc 1 573 151 is_stmt 0
	lw	a3,168(sp)
	.loc 1 573 530
	li	a2,1
	.loc 1 573 151
	sw	a3,0(a1)
	.loc 1 573 185 is_stmt 1
	.loc 1 573 202 is_stmt 0
	sw	zero,0(a0)
	.loc 1 573 224 is_stmt 1
	.loc 1 573 241 is_stmt 0
	li	a3,4096
	sw	a3,0(a6)
	.loc 1 573 253 is_stmt 1
	.loc 1 573 270 is_stmt 0
	sw	zero,0(a7)
	.loc 1 573 276 is_stmt 1
	.loc 1 573 293 is_stmt 0
	lw	a3,164(sp)
	sw	a3,0(t1)
	.loc 1 573 316 is_stmt 1
	.loc 1 573 333 is_stmt 0
	sw	zero,0(t3)
	.loc 1 573 345 is_stmt 1
	.loc 1 573 361 is_stmt 0
	sw	a5,0(t4)
	.loc 1 573 390 is_stmt 1
	.loc 1 573 406 is_stmt 0
	li	a5,8
	sw	a5,0(t5)
	.loc 1 573 415 is_stmt 1
	.loc 1 573 432 is_stmt 0
	li	a5,1279
	sw	a5,0(t6)
	.loc 1 573 438 is_stmt 1
	.loc 1 573 455 is_stmt 0
	sw	zero,0(t0)
	.loc 1 573 458 is_stmt 1
	.loc 1 573 475 is_stmt 0
	li	a3,7
	sw	a3,0(t2)
	.loc 1 573 513 is_stmt 1
	.loc 1 573 530 is_stmt 0
	lw	a3,4(sp)
	sw	a2,0(a3)
	.loc 1 573 539 is_stmt 1
	.loc 1 573 556 is_stmt 0
	sw	a5,0(s5)
	.loc 1 573 562 is_stmt 1
	.loc 1 573 579 is_stmt 0
	sw	zero,0(s7)
	.loc 1 573 582 is_stmt 1
	.loc 1 573 598 is_stmt 0
	lw	a3,28(sp)
	li	a5,524288
	addi	a5,a5,80
	sw	a5,0(a3)
	.loc 1 573 673 is_stmt 1
	.loc 1 573 690 is_stmt 0
	lw	a5,12(sp)
	lw	a3,32(sp)
	sw	a5,0(a3)
	.loc 1 573 776 is_stmt 1
	.loc 1 573 793 is_stmt 0
	lw	a5,20(sp)
	sw	a5,0(a4)
	j	.L203
.LVL551:
.L201:
.LBE419:
	.loc 1 562 7 is_stmt 1
	.loc 1 563 7
	.loc 1 563 9 is_stmt 0
	lw	s6,296(sp)
	.loc 1 557 12
	sw	s4,8(sp)
	.loc 1 563 9
	add	a5,s4,s6
	sw	a5,308(sp)
.LVL552:
	.loc 1 565 7 is_stmt 1
	.loc 1 556 14 is_stmt 0
	li	s4,0
	j	.L223
.LVL553:
.L256:
	.loc 1 549 1 is_stmt 1
	.loc 1 549 2
	.loc 1 549 18 is_stmt 0
	li	a3,1015816192
	addi	a3,a3,260
	.loc 1 553 7
	li	a5,-2147483648
	.loc 1 549 18
	sw	a3,0(a4)
	.loc 1 553 7 is_stmt 1
	sw	zero,36(a5)
	.loc 1 553 7
	call	_taskYield
.LVL554:
	.loc 1 553 21 discriminator 1
	.loc 1 555 7
	.loc 1 557 13 is_stmt 0
	addi	a4,s1,1
	srli	a5,a4,31
	add	a5,a5,a4
	srai	a5,a5,1
	addi	a5,a5,7
	.loc 1 557 12
	srai	s4,a5,31
	andi	s4,s4,7
	add	s4,s4,a5
	.loc 1 555 9
	lw	a5,348(sp)
	.loc 1 557 12
	andi	s4,s4,-8
	.loc 1 555 9
	beq	a5,zero,.L199
	.loc 1 559 10 is_stmt 1
.LVL555:
	.loc 1 560 10
	.loc 1 562 11 is_stmt 0
	lw	a5,296(sp)
	.loc 1 565 9 discriminator 2
	lw	a2,136(sp)
	.loc 1 563 9
	sw	s1,8(sp)
	.loc 1 562 11
	add	s6,a5,s4
.LVL556:
	.loc 1 562 7 is_stmt 1
	.loc 1 563 7
	.loc 1 563 9 is_stmt 0
	add	a5,s1,a5
	sw	a5,308(sp)
.LVL557:
	.loc 1 565 7 is_stmt 1
	j	.L200
.LVL558:
.L255:
	.loc 1 535 37 discriminator 1
	li	a0,0
	call	ztaAbort
.LVL559:
	j	.L197
.LVL560:
.L254:
	.loc 1 534 37 discriminator 1
	li	a0,0
	call	ztaAbort
.LVL561:
	j	.L196
.LVL562:
.L199:
	.loc 1 562 7
	.loc 1 563 7
	.loc 1 563 9 is_stmt 0
	lw	s6,296(sp)
	.loc 1 557 12
	sw	s4,8(sp)
	.loc 1 565 9 discriminator 2
	lw	a2,136(sp)
	.loc 1 563 9
	add	a5,s6,s4
	sw	a5,308(sp)
.LVL563:
	.loc 1 565 7 is_stmt 1
	.loc 1 556 14 is_stmt 0
	li	s4,0
	j	.L200
.LVL564:
.L231:
	.cfi_restore 8
	.cfi_restore 9
	.cfi_restore 18
	.cfi_restore 19
	.cfi_restore 20
	.cfi_restore 21
	.cfi_restore 22
	.cfi_restore 23
	.cfi_restore 24
	.cfi_restore 25
	.cfi_restore 27
	.loc 1 469 11
	li	a3,1
	sw	a3,136(sp)
.LVL565:
.L251:
	.loc 1 481 15
	li	a3,8
	mv	a0,a3
	j	.L176
	.cfi_endproc
.LFE10:
	.size	convolution_depthwise, .-convolution_depthwise
	.align	2
	.globl	kernel_add_exe
	.type	kernel_add_exe, @function
kernel_add_exe:
.LFB12:
	.loc 1 661 1 is_stmt 1
	.cfi_startproc
.LVL566:
	.loc 1 662 4
	.loc 1 664 4
	.loc 1 661 1 is_stmt 0
	addi	sp,sp,-64
	.cfi_def_cfa_offset 64
	sw	s1,52(sp)
	.cfi_offset 9, -12
	mv	s1,a0
	.loc 1 664 4
	lui	a0,%hi(zta_pcore_img)
.LVL567:
	addi	a0,a0,%lo(zta_pcore_img)
	.loc 1 661 1
	sw	ra,60(sp)
	sw	s0,56(sp)
	sw	s2,48(sp)
	sw	s3,44(sp)
	sw	s4,40(sp)
	sw	s5,36(sp)
	.cfi_offset 1, -4
	.cfi_offset 8, -8
	.cfi_offset 18, -16
	.cfi_offset 19, -20
	.cfi_offset 20, -24
	.cfi_offset 21, -28
	.loc 1 661 1
	mv	s0,a5
	mv	s4,a2
	mv	s3,a3
	mv	s2,a4
	mv	s5,a1
	.loc 1 664 4
	call	ztaInitPcore
.LVL568:
	.loc 1 665 4 is_stmt 1
	mv	a0,s0
	call	ztaInitStream
.LVL569:
	.loc 1 667 4
	.loc 1 673 4 is_stmt 0
	lui	a0,%hi(do_add_process)
	addi	a1,sp,12
	addi	a0,a0,%lo(do_add_process)
	.loc 1 667 12
	sw	s5,12(sp)
	.loc 1 668 4 is_stmt 1
	.loc 1 668 16 is_stmt 0
	sw	s4,16(sp)
	.loc 1 669 4 is_stmt 1
	.loc 1 669 16 is_stmt 0
	sw	s3,20(sp)
	.loc 1 670 4 is_stmt 1
	.loc 1 670 14 is_stmt 0
	sw	s2,24(sp)
	.loc 1 671 4 is_stmt 1
	.loc 1 671 14 is_stmt 0
	sw	s0,28(sp)
	.loc 1 673 4 is_stmt 1
	call	ztaDualHartExecute
.LVL570:
	.loc 1 675 4
	mv	a0,s1
	call	ztaJobDone
.LVL571:
	.loc 1 676 1 is_stmt 0
	lw	ra,60(sp)
	.cfi_restore 1
	lw	s0,56(sp)
	.cfi_restore 8
.LVL572:
	lw	s1,52(sp)
	.cfi_restore 9
.LVL573:
	lw	s2,48(sp)
	.cfi_restore 18
.LVL574:
	lw	s3,44(sp)
	.cfi_restore 19
.LVL575:
	lw	s4,40(sp)
	.cfi_restore 20
.LVL576:
	lw	s5,36(sp)
	.cfi_restore 21
.LVL577:
	addi	sp,sp,64
	.cfi_def_cfa_offset 0
	jr	ra
	.cfi_endproc
.LFE12:
	.size	kernel_add_exe, .-kernel_add_exe
	.align	2
	.globl	kernel_convolution_exe
	.type	kernel_convolution_exe, @function
kernel_convolution_exe:
.LFB13:
	.loc 1 705 1 is_stmt 1
	.cfi_startproc
.LVL578:
	.loc 1 706 4
	.loc 1 707 4
	.loc 1 709 4
	.loc 1 705 1 is_stmt 0
	addi	sp,sp,-160
	.cfi_def_cfa_offset 160
	sw	s1,148(sp)
	sw	s6,128(sp)
	.cfi_offset 9, -12
	.cfi_offset 22, -32
	mv	s1,a0
	lw	s6,184(sp)
	.loc 1 709 4
	lui	a0,%hi(zta_pcore_img)
.LVL579:
	addi	a0,a0,%lo(zta_pcore_img)
	.loc 1 705 1
	sw	ra,156(sp)
	sw	s0,152(sp)
	sw	s2,144(sp)
	.cfi_offset 1, -4
	.cfi_offset 8, -8
	.cfi_offset 18, -16
	mv	s0,a7
	mv	s2,a6
	sw	s3,140(sp)
	sw	s4,136(sp)
	.cfi_offset 19, -20
	.cfi_offset 20, -24
	mv	s3,a5
	mv	s4,a4
	sw	s5,132(sp)
	sw	s7,124(sp)
	.cfi_offset 21, -28
	.cfi_offset 23, -36
	mv	s5,a3
	mv	s7,a2
	sw	s8,120(sp)
	.cfi_offset 24, -40
	.loc 1 705 1
	mv	s8,a1
	.loc 1 709 4
	call	ztaInitPcore
.LVL580:
	.loc 1 710 4 is_stmt 1
	mv	a0,s6
	call	ztaInitStream
.LVL581:
	.loc 1 712 4
	.loc 1 719 14 is_stmt 0
	lw	a5,160(sp)
	.loc 1 712 12
	sw	s8,12(sp)
	.loc 1 713 4 is_stmt 1
	.loc 1 713 14 is_stmt 0
	sw	s7,20(sp)
	.loc 1 714 4 is_stmt 1
	.loc 1 719 14 is_stmt 0
	sw	a5,44(sp)
	.loc 1 720 14
	lw	a5,164(sp)
	.loc 1 714 14
	sw	s5,24(sp)
	.loc 1 715 4 is_stmt 1
	.loc 1 715 11 is_stmt 0
	sw	s4,28(sp)
	.loc 1 716 4 is_stmt 1
	.loc 1 720 14 is_stmt 0
	sw	a5,48(sp)
	.loc 1 721 14
	lw	a5,168(sp)
	.loc 1 716 11
	sw	s3,32(sp)
	.loc 1 717 4 is_stmt 1
	.loc 1 717 22 is_stmt 0
	sw	s2,36(sp)
	.loc 1 718 4 is_stmt 1
	.loc 1 721 14 is_stmt 0
	sw	a5,52(sp)
	.loc 1 722 14
	lw	a5,172(sp)
	.loc 1 718 11
	sw	s0,40(sp)
	.loc 1 719 4 is_stmt 1
	.loc 1 720 4
	.loc 1 721 4
	.loc 1 722 4
	.loc 1 725 14 is_stmt 0
	sw	s6,108(sp)
	.loc 1 722 14
	sw	a5,56(sp)
	.loc 1 723 4 is_stmt 1
	.loc 1 723 20 is_stmt 0
	lw	a5,176(sp)
	.loc 1 737 7
	addi	a1,sp,12
	.loc 1 723 20
	sw	a5,92(sp)
	.loc 1 724 4 is_stmt 1
	.loc 1 724 24 is_stmt 0
	lw	a5,180(sp)
	sw	a5,96(sp)
	.loc 1 725 4 is_stmt 1
	.loc 1 726 4
	.loc 1 726 13 is_stmt 0
	lw	a5,188(sp)
	sw	a5,60(sp)
	.loc 1 727 4 is_stmt 1
	.loc 1 727 14 is_stmt 0
	lw	a5,192(sp)
	sw	a5,64(sp)
	.loc 1 728 4 is_stmt 1
	.loc 1 728 11 is_stmt 0
	lw	a5,196(sp)
	sw	a5,68(sp)
	.loc 1 729 4 is_stmt 1
	.loc 1 729 15 is_stmt 0
	lw	a5,200(sp)
	sw	a5,80(sp)
	.loc 1 730 4 is_stmt 1
	.loc 1 730 13 is_stmt 0
	lw	a5,204(sp)
	sw	a5,84(sp)
	.loc 1 731 4 is_stmt 1
	.loc 1 731 15 is_stmt 0
	lw	a5,208(sp)
	sw	a5,88(sp)
	.loc 1 732 4 is_stmt 1
	.loc 1 732 21 is_stmt 0
	lw	a5,212(sp)
	sw	a5,100(sp)
	.loc 1 733 4 is_stmt 1
	.loc 1 733 22 is_stmt 0
	lw	a5,216(sp)
	sw	a5,104(sp)
	.loc 1 735 4 is_stmt 1
	.loc 1 735 6 is_stmt 0
	li	a5,1
	beq	s0,a5,.L267
	.loc 1 741 7 is_stmt 1
	lui	a0,%hi(convolution_3x3)
	addi	a0,a0,%lo(convolution_3x3)
	call	ztaDualHartExecute
.LVL582:
.L265:
	.loc 1 743 4
	mv	a0,s1
	call	ztaJobDone
.LVL583:
	.loc 1 744 1 is_stmt 0
	lw	ra,156(sp)
	.cfi_remember_state
	.cfi_restore 1
	lw	s0,152(sp)
	.cfi_restore 8
.LVL584:
	lw	s1,148(sp)
	.cfi_restore 9
.LVL585:
	lw	s2,144(sp)
	.cfi_restore 18
.LVL586:
	lw	s3,140(sp)
	.cfi_restore 19
.LVL587:
	lw	s4,136(sp)
	.cfi_restore 20
.LVL588:
	lw	s5,132(sp)
	.cfi_restore 21
.LVL589:
	lw	s6,128(sp)
	.cfi_restore 22
	lw	s7,124(sp)
	.cfi_restore 23
.LVL590:
	lw	s8,120(sp)
	.cfi_restore 24
.LVL591:
	addi	sp,sp,160
	.cfi_def_cfa_offset 0
.LVL592:
	jr	ra
.LVL593:
.L267:
	.cfi_restore_state
	.loc 1 737 7 is_stmt 1
	lui	a0,%hi(convolution_1x1)
	addi	a0,a0,%lo(convolution_1x1)
	call	ztaDualHartExecute
.LVL594:
	j	.L265
	.cfi_endproc
.LFE13:
	.size	kernel_convolution_exe, .-kernel_convolution_exe
	.align	2
	.globl	kernel_convolution_depthwise_exe
	.type	kernel_convolution_depthwise_exe, @function
kernel_convolution_depthwise_exe:
.LFB14:
	.loc 1 774 1
	.cfi_startproc
.LVL595:
	.loc 1 775 4
	.loc 1 776 4
	.loc 1 778 4
	.loc 1 774 1 is_stmt 0
	addi	sp,sp,-160
	.cfi_def_cfa_offset 160
	sw	s0,152(sp)
	sw	s6,128(sp)
	.cfi_offset 8, -8
	.cfi_offset 22, -32
	mv	s0,a0
	lw	s6,184(sp)
	.loc 1 778 4
	lui	a0,%hi(zta_pcore_img)
.LVL596:
	addi	a0,a0,%lo(zta_pcore_img)
	.loc 1 774 1
	sw	ra,156(sp)
	sw	s1,148(sp)
	sw	s2,144(sp)
	sw	s3,140(sp)
	sw	s4,136(sp)
	sw	s5,132(sp)
	sw	s7,124(sp)
	sw	s8,120(sp)
	.cfi_offset 1, -4
	.cfi_offset 9, -12
	.cfi_offset 18, -16
	.cfi_offset 19, -20
	.cfi_offset 20, -24
	.cfi_offset 21, -28
	.cfi_offset 23, -36
	.cfi_offset 24, -40
	.loc 1 774 1
	mv	s7,a2
	mv	s5,a3
	mv	s4,a4
	mv	s2,a6
	mv	s1,a7
	mv	s8,a1
	mv	s3,a5
	.loc 1 778 4
	call	ztaInitPcore
.LVL597:
	.loc 1 779 4 is_stmt 1
	mv	a0,s6
	call	ztaInitStream
.LVL598:
	.loc 1 781 4
	.loc 1 788 14 is_stmt 0
	lw	a5,160(sp)
	.loc 1 781 12
	sw	s8,12(sp)
	.loc 1 782 4 is_stmt 1
	.loc 1 782 14 is_stmt 0
	sw	s7,20(sp)
	.loc 1 783 4 is_stmt 1
	.loc 1 788 14 is_stmt 0
	sw	a5,44(sp)
	.loc 1 789 14
	lw	a5,164(sp)
	.loc 1 783 14
	sw	s5,24(sp)
	.loc 1 784 4 is_stmt 1
	.loc 1 784 11 is_stmt 0
	sw	s4,28(sp)
	.loc 1 785 4 is_stmt 1
	.loc 1 789 14 is_stmt 0
	sw	a5,48(sp)
	.loc 1 790 14
	lw	a5,168(sp)
	.loc 1 785 11
	sw	s3,32(sp)
	.loc 1 786 4 is_stmt 1
	.loc 1 786 22 is_stmt 0
	sw	s2,36(sp)
	.loc 1 787 4 is_stmt 1
	.loc 1 790 14 is_stmt 0
	sw	a5,52(sp)
	.loc 1 791 14
	lw	a5,172(sp)
	.loc 1 787 11
	sw	s1,40(sp)
	.loc 1 788 4 is_stmt 1
	.loc 1 789 4
	.loc 1 790 4
	.loc 1 791 4
	.loc 1 794 14 is_stmt 0
	sw	s6,108(sp)
	.loc 1 791 14
	sw	a5,56(sp)
	.loc 1 792 4 is_stmt 1
	.loc 1 792 20 is_stmt 0
	lw	a5,176(sp)
	.loc 1 804 4
	lui	a0,%hi(convolution_depthwise)
	addi	a1,sp,12
	.loc 1 792 20
	sw	a5,92(sp)
	.loc 1 793 4 is_stmt 1
	.loc 1 793 24 is_stmt 0
	lw	a5,180(sp)
	.loc 1 804 4
	addi	a0,a0,%lo(convolution_depthwise)
	.loc 1 793 24
	sw	a5,96(sp)
	.loc 1 794 4 is_stmt 1
	.loc 1 795 4
	.loc 1 795 13 is_stmt 0
	lw	a5,188(sp)
	sw	a5,60(sp)
	.loc 1 796 4 is_stmt 1
	.loc 1 796 14 is_stmt 0
	lw	a5,192(sp)
	sw	a5,64(sp)
	.loc 1 797 4 is_stmt 1
	.loc 1 797 11 is_stmt 0
	lw	a5,196(sp)
	sw	a5,68(sp)
	.loc 1 798 4 is_stmt 1
	.loc 1 798 15 is_stmt 0
	lw	a5,200(sp)
	sw	a5,80(sp)
	.loc 1 799 4 is_stmt 1
	.loc 1 799 13 is_stmt 0
	lw	a5,204(sp)
	sw	a5,84(sp)
	.loc 1 800 4 is_stmt 1
	.loc 1 800 15 is_stmt 0
	lw	a5,208(sp)
	sw	a5,88(sp)
	.loc 1 801 4 is_stmt 1
	.loc 1 801 21 is_stmt 0
	lw	a5,212(sp)
	sw	a5,100(sp)
	.loc 1 802 4 is_stmt 1
	.loc 1 802 22 is_stmt 0
	lw	a5,216(sp)
	sw	a5,104(sp)
	.loc 1 804 4 is_stmt 1
	call	ztaDualHartExecute
.LVL599:
	.loc 1 806 4
	mv	a0,s0
	call	ztaJobDone
.LVL600:
	.loc 1 807 1 is_stmt 0
	lw	ra,156(sp)
	.cfi_restore 1
	lw	s0,152(sp)
	.cfi_restore 8
.LVL601:
	lw	s1,148(sp)
	.cfi_restore 9
.LVL602:
	lw	s2,144(sp)
	.cfi_restore 18
.LVL603:
	lw	s3,140(sp)
	.cfi_restore 19
.LVL604:
	lw	s4,136(sp)
	.cfi_restore 20
.LVL605:
	lw	s5,132(sp)
	.cfi_restore 21
.LVL606:
	lw	s6,128(sp)
	.cfi_restore 22
	lw	s7,124(sp)
	.cfi_restore 23
.LVL607:
	lw	s8,120(sp)
	.cfi_restore 24
.LVL608:
	addi	sp,sp,160
	.cfi_def_cfa_offset 0
.LVL609:
	jr	ra
	.cfi_endproc
.LFE14:
	.size	kernel_convolution_depthwise_exe, .-kernel_convolution_depthwise_exe
	.section	.rodata
	.align	2
	.set	.LANCHOR0,. + 0
	.type	kfunc.0, @object
	.size	kfunc.0, 32
kfunc.0:
	.word	4227
	.word	4163
	.word	4067
	.word	3939
	.word	3779
	.word	3587
	.word	3363
	.word	3107
	.data
	.align	2
	.type	zta_pcore_img, @object
	.size	zta_pcore_img, 2202
zta_pcore_img:
	.half	2192
	.half	72
	.half	8
	.half	0
	.half	0
	.half	3417
	.half	0
	.half	16400
	.half	0
	.half	76
	.half	3080
	.half	1045
	.half	3232
	.half	0
	.half	6
	.half	0
	.half	0
	.half	48
	.half	-23544
	.half	1045
	.half	32
	.half	0
	.half	6
	.half	0
	.half	0
	.half	48
	.half	-23544
	.half	1045
	.half	32
	.half	0
	.half	6
	.half	0
	.half	0
	.half	48
	.half	-23544
	.half	1045
	.half	32
	.half	0
	.half	6
	.half	0
	.half	0
	.half	48
	.half	-23544
	.half	1045
	.half	32
	.half	0
	.half	6
	.half	0
	.half	0
	.half	48
	.half	-23544
	.half	1045
	.half	96
	.half	0
	.half	6
	.half	0
	.half	0
	.half	52
	.half	-13304
	.half	81
	.half	3296
	.half	2393
	.half	6
	.half	0
	.half	4
	.half	72
	.half	8
	.half	0
	.half	0
	.half	4381
	.half	0
	.half	4098
	.half	0
	.half	72
	.half	8
	.half	0
	.half	0
	.half	0
	.half	0
	.half	2048
	.half	0
	.half	72
	.half	4104
	.half	1044
	.half	1572
	.half	0
	.half	1034
	.half	0
	.half	0
	.half	72
	.half	4104
	.half	1044
	.half	1636
	.half	3923
	.half	1034
	.half	0
	.half	0
	.half	72
	.half	4104
	.half	1044
	.half	1700
	.half	0
	.half	1034
	.half	0
	.half	0
	.half	72
	.half	4104
	.half	1044
	.half	1764
	.half	3923
	.half	1034
	.half	0
	.half	-32768
	.half	72
	.half	8
	.half	0
	.half	0
	.half	3920
	.half	0
	.half	0
	.half	0
	.half	72
	.half	4104
	.half	1044
	.half	1892
	.half	7730
	.half	1034
	.half	0
	.half	-32768
	.half	72
	.half	8
	.half	0
	.half	0
	.half	7155
	.half	0
	.half	0
	.half	-32768
	.half	72
	.half	8
	.half	0
	.half	0
	.half	7091
	.half	0
	.half	0
	.half	-32768
	.half	72
	.half	8
	.half	0
	.half	0
	.half	2987
	.half	0
	.half	0
	.half	-32768
	.half	72
	.half	8
	.half	0
	.half	0
	.half	3514
	.half	0
	.half	0
	.half	18048
	.half	72
	.half	2056
	.half	1044
	.half	1828
	.half	3440
	.half	265
	.half	2048
	.half	-32768
	.half	56
	.half	-13304
	.half	49
	.half	58
	.half	0
	.half	7
	.half	0
	.half	0
	.half	56
	.half	-13304
	.half	81
	.half	122
	.half	0
	.half	7
	.half	0
	.half	0
	.half	56
	.half	-13304
	.half	113
	.half	186
	.half	2571
	.half	7
	.half	0
	.half	-32768
	.half	56
	.half	-13304
	.half	145
	.half	1594
	.half	0
	.half	7
	.half	0
	.half	0
	.half	56
	.half	-13304
	.half	177
	.half	1658
	.half	0
	.half	7
	.half	0
	.half	0
	.half	56
	.half	-13304
	.half	209
	.half	1722
	.half	2955
	.half	7
	.half	0
	.half	-32768
	.half	56
	.half	-13304
	.half	241
	.half	1594
	.half	0
	.half	7
	.half	0
	.half	0
	.half	56
	.half	-13304
	.half	273
	.half	1658
	.half	0
	.half	7
	.half	0
	.half	0
	.half	56
	.half	-13304
	.half	305
	.half	1722
	.half	0
	.half	7
	.half	2048
	.half	0
	.half	56
	.half	-19448
	.half	1045
	.half	40
	.half	4187
	.half	7
	.half	6208
	.half	-32756
	.half	56
	.half	-19448
	.half	1045
	.half	3624
	.half	5083
	.half	7
	.half	8254
	.half	-32756
	.half	56
	.half	-20472
	.half	1045
	.half	3624
	.half	0
	.half	7
	.half	2048
	.half	0
	.half	72
	.half	4104
	.half	1044
	.half	2084
	.half	0
	.half	1034
	.half	0
	.half	0
	.half	72
	.half	4104
	.half	1044
	.half	2148
	.half	3923
	.half	1034
	.half	0
	.half	0
	.half	72
	.half	4104
	.half	1044
	.half	2212
	.half	3923
	.half	1034
	.half	0
	.half	-32768
	.half	72
	.half	8
	.half	0
	.half	0
	.half	3920
	.half	0
	.half	0
	.half	0
	.half	72
	.half	4104
	.half	1044
	.half	2340
	.half	7730
	.half	1034
	.half	0
	.half	-32768
	.half	72
	.half	8
	.half	0
	.half	0
	.half	7155
	.half	0
	.half	0
	.half	-32768
	.half	72
	.half	8
	.half	0
	.half	0
	.half	7091
	.half	0
	.half	0
	.half	-32768
	.half	72
	.half	8
	.half	0
	.half	0
	.half	2987
	.half	0
	.half	0
	.half	-32768
	.half	72
	.half	8
	.half	0
	.half	0
	.half	3514
	.half	0
	.half	0
	.half	16424
	.half	72
	.half	2056
	.half	1044
	.half	2276
	.half	3440
	.half	393
	.half	2048
	.half	-32768
	.half	72
	.half	4104
	.half	1044
	.half	2084
	.half	0
	.half	1034
	.half	0
	.half	0
	.half	72
	.half	4104
	.half	1044
	.half	2148
	.half	3921
	.half	1034
	.half	0
	.half	0
	.half	72
	.half	8
	.half	0
	.half	0
	.half	3921
	.half	0
	.half	0
	.half	-32768
	.half	72
	.half	4104
	.half	1044
	.half	2212
	.half	11867
	.half	1034
	.half	0
	.half	12
	.half	72
	.half	8
	.half	0
	.half	0
	.half	3920
	.half	0
	.half	0
	.half	0
	.half	72
	.half	4104
	.half	1044
	.half	2340
	.half	15963
	.half	1034
	.half	0
	.half	-32740
	.half	72
	.half	8
	.half	0
	.half	0
	.half	7058
	.half	0
	.half	0
	.half	-32768
	.half	72
	.half	8
	.half	0
	.half	0
	.half	7027
	.half	0
	.half	0
	.half	-32768
	.half	72
	.half	8
	.half	0
	.half	0
	.half	7059
	.half	0
	.half	0
	.half	-32768
	.half	72
	.half	8
	.half	0
	.half	0
	.half	2747
	.half	0
	.half	0
	.half	0
	.half	72
	.half	8
	.half	0
	.half	0
	.half	6643
	.half	0
	.half	0
	.half	-32768
	.half	72
	.half	8
	.half	0
	.half	0
	.half	7131
	.half	0
	.half	0
	.half	-32760
	.half	72
	.half	8
	.half	0
	.half	0
	.half	7059
	.half	0
	.half	0
	.half	-32768
	.half	72
	.half	8
	.half	0
	.half	0
	.half	2875
	.half	0
	.half	0
	.half	0
	.half	72
	.half	8
	.half	0
	.half	0
	.half	3506
	.half	0
	.half	0
	.half	16424
	.half	72
	.half	2056
	.half	1044
	.half	2276
	.half	3440
	.half	393
	.half	2048
	.half	-32768
	.half	76
	.half	3080
	.half	1045
	.half	10912
	.half	0
	.half	7
	.half	0
	.half	0
	.half	56
	.half	-23544
	.half	1045
	.half	32
	.half	0
	.half	7
	.half	0
	.half	0
	.half	56
	.half	-23544
	.half	1045
	.half	32
	.half	0
	.half	7
	.half	0
	.half	0
	.half	56
	.half	-23544
	.half	1045
	.half	32
	.half	0
	.half	7
	.half	0
	.half	0
	.half	56
	.half	-23544
	.half	1045
	.half	32
	.half	0
	.half	7
	.half	0
	.half	0
	.half	56
	.half	-23544
	.half	1045
	.half	96
	.half	0
	.half	7
	.half	0
	.half	0
	.half	60
	.half	-13304
	.half	81
	.half	10976
	.half	0
	.half	7
	.half	0
	.half	0
	.half	60
	.half	-13304
	.half	49
	.half	58
	.half	0
	.half	7
	.half	0
	.half	0
	.half	60
	.half	-13304
	.half	81
	.half	122
	.half	0
	.half	7
	.half	0
	.half	0
	.half	60
	.half	-13304
	.half	113
	.half	186
	.half	2571
	.half	7
	.half	0
	.half	-32768
	.half	60
	.half	-13304
	.half	145
	.half	1594
	.half	0
	.half	7
	.half	0
	.half	0
	.half	60
	.half	-13304
	.half	177
	.half	1658
	.half	0
	.half	7
	.half	0
	.half	0
	.half	60
	.half	-13304
	.half	209
	.half	1722
	.half	2955
	.half	7
	.half	0
	.half	-32768
	.half	60
	.half	-13304
	.half	241
	.half	1594
	.half	0
	.half	7
	.half	0
	.half	0
	.half	60
	.half	-13304
	.half	273
	.half	1658
	.half	0
	.half	7
	.half	0
	.half	0
	.half	60
	.half	-13304
	.half	305
	.half	1722
	.half	0
	.half	7
	.half	0
	.half	0
	.half	56
	.half	-19448
	.half	1045
	.half	40
	.half	4187
	.half	7
	.half	6298
	.half	12
	.half	56
	.half	-19448
	.half	1045
	.half	3112
	.half	4955
	.half	7
	.half	8344
	.half	12
	.half	56
	.half	-20472
	.half	1045
	.half	3112
	.half	0
	.half	7
	.half	2048
	.half	0
	.half	72
	.half	8
	.half	0
	.half	0
	.half	3417
	.half	0
	.half	16556
	.half	0
	.half	76
	.half	3080
	.half	1045
	.half	352
	.half	0
	.half	6
	.half	0
	.half	0
	.half	48
	.half	-23544
	.half	1045
	.half	32
	.half	0
	.half	6
	.half	0
	.half	0
	.half	48
	.half	-23544
	.half	1045
	.half	32
	.half	0
	.half	6
	.half	0
	.half	0
	.half	48
	.half	-23544
	.half	1045
	.half	32
	.half	0
	.half	6
	.half	0
	.half	0
	.half	48
	.half	-23544
	.half	1045
	.half	32
	.half	0
	.half	6
	.half	0
	.half	0
	.half	48
	.half	-23544
	.half	1045
	.half	96
	.half	0
	.half	6
	.half	0
	.half	0
	.half	52
	.half	-13304
	.half	81
	.half	416
	.half	2393
	.half	6
	.half	0
	.half	4
	.half	72
	.half	8
	.half	0
	.half	0
	.half	4381
	.half	0
	.half	4254
	.half	0
	.half	72
	.half	8
	.half	0
	.half	0
	.half	0
	.half	0
	.half	2048
	.half	0
	.half	72
	.half	4104
	.half	1044
	.half	36
	.half	0
	.half	1034
	.half	0
	.half	0
	.half	72
	.half	4104
	.half	1044
	.half	100
	.half	3923
	.half	1034
	.half	0
	.half	-32768
	.half	72
	.half	4104
	.half	1044
	.half	164
	.half	3923
	.half	1034
	.half	0
	.half	0
	.half	72
	.half	4104
	.half	1044
	.half	228
	.half	3920
	.half	1034
	.half	0
	.half	0
	.half	72
	.half	8
	.half	0
	.half	0
	.half	7155
	.half	0
	.half	0
	.half	-32768
	.half	72
	.half	8
	.half	0
	.half	0
	.half	3043
	.half	0
	.half	0
	.half	-32768
	.half	72
	.half	8
	.half	0
	.half	0
	.half	3514
	.half	0
	.half	0
	.half	20704
	.half	72
	.half	8
	.half	0
	.half	0
	.half	3427
	.half	0
	.half	0
	.half	-32768
	.half	72
	.half	8
	.half	0
	.half	0
	.half	3514
	.half	0
	.half	2048
	.half	-16356
	.half	72
	.half	-13304
	.half	37
	.half	62
	.half	2072
	.half	9
	.half	0
	.half	-32768
	.half	200
	.half	-13304
	.half	37
	.half	54
	.half	2176
	.half	25
	.half	0
	.half	-32768
	.half	328
	.half	-13304
	.half	37
	.half	54
	.half	2176
	.half	41
	.half	0
	.half	-32768
	.half	456
	.half	-13304
	.half	37
	.half	54
	.half	2176
	.half	57
	.half	0
	.half	-32768
	.half	584
	.half	-13304
	.half	37
	.half	54
	.half	2176
	.half	73
	.half	0
	.half	-32768
	.half	712
	.half	-13304
	.half	37
	.half	54
	.half	2176
	.half	89
	.half	0
	.half	-32768
	.half	840
	.half	-13304
	.half	37
	.half	54
	.half	2176
	.half	105
	.half	0
	.half	-32768
	.half	968
	.half	-13304
	.half	37
	.half	54
	.half	0
	.half	121
	.half	2048
	.half	0
	.half	72
	.half	-13304
	.half	37
	.half	62
	.half	2072
	.half	9
	.half	0
	.half	-32768
	.half	200
	.half	-13304
	.half	37
	.half	54
	.half	2176
	.half	25
	.half	0
	.half	-32768
	.half	328
	.half	-13304
	.half	37
	.half	54
	.half	2176
	.half	41
	.half	0
	.half	-32768
	.half	456
	.half	-13304
	.half	37
	.half	54
	.half	2176
	.half	57
	.half	0
	.half	-32768
	.half	584
	.half	-13304
	.half	37
	.half	54
	.half	2176
	.half	73
	.half	0
	.half	-32768
	.half	712
	.half	-13304
	.half	37
	.half	54
	.half	2176
	.half	89
	.half	0
	.half	-32768
	.half	840
	.half	-13304
	.half	37
	.half	54
	.half	0
	.half	105
	.half	2048
	.half	0
	.half	72
	.half	-13304
	.half	37
	.half	62
	.half	2072
	.half	9
	.half	0
	.half	-32768
	.half	200
	.half	-13304
	.half	37
	.half	54
	.half	2176
	.half	25
	.half	0
	.half	-32768
	.half	328
	.half	-13304
	.half	37
	.half	54
	.half	2176
	.half	41
	.half	0
	.half	-32768
	.half	456
	.half	-13304
	.half	37
	.half	54
	.half	2176
	.half	57
	.half	0
	.half	-32768
	.half	584
	.half	-13304
	.half	37
	.half	54
	.half	2176
	.half	73
	.half	0
	.half	-32768
	.half	712
	.half	-13304
	.half	37
	.half	54
	.half	0
	.half	89
	.half	2048
	.half	0
	.half	72
	.half	-13304
	.half	37
	.half	62
	.half	2072
	.half	9
	.half	0
	.half	-32768
	.half	200
	.half	-13304
	.half	37
	.half	54
	.half	2176
	.half	25
	.half	0
	.half	-32768
	.half	328
	.half	-13304
	.half	37
	.half	54
	.half	2176
	.half	41
	.half	0
	.half	-32768
	.half	456
	.half	-13304
	.half	37
	.half	54
	.half	2176
	.half	57
	.half	0
	.half	-32768
	.half	584
	.half	-13304
	.half	37
	.half	54
	.half	0
	.half	73
	.half	2048
	.half	0
	.half	72
	.half	-13304
	.half	37
	.half	62
	.half	2072
	.half	9
	.half	0
	.half	-32768
	.half	200
	.half	-13304
	.half	37
	.half	54
	.half	2176
	.half	25
	.half	0
	.half	-32768
	.half	328
	.half	-13304
	.half	37
	.half	54
	.half	2176
	.half	41
	.half	0
	.half	-32768
	.half	456
	.half	-13304
	.half	37
	.half	54
	.half	0
	.half	57
	.half	2048
	.half	0
	.half	72
	.half	-13304
	.half	37
	.half	62
	.half	2072
	.half	9
	.half	0
	.half	-32768
	.half	200
	.half	-13304
	.half	37
	.half	54
	.half	2176
	.half	25
	.half	0
	.half	-32768
	.half	328
	.half	-13304
	.half	37
	.half	54
	.half	0
	.half	41
	.half	2048
	.half	0
	.half	72
	.half	-13304
	.half	37
	.half	62
	.half	2072
	.half	9
	.half	0
	.half	-32768
	.half	200
	.half	-13304
	.half	37
	.half	54
	.half	0
	.half	25
	.half	2048
	.half	0
	.half	72
	.half	-13304
	.half	37
	.half	62
	.half	0
	.half	9
	.half	2048
	.half	0
	.half	56
	.half	-19448
	.half	1045
	.half	3112
	.half	4955
	.half	7
	.half	6414
	.half	-32756
	.half	56
	.half	-19448
	.half	1045
	.half	3624
	.half	5083
	.half	7
	.half	8460
	.half	-32756
	.half	56
	.half	-20472
	.half	1045
	.half	3624
	.half	0
	.half	142
	.half	2048
	.half	0
	.half	76
	.half	6152
	.half	51
	.half	38
	.half	0
	.half	41
	.half	2048
	.half	0
	.half	6
	.half	3
	.half	2
	.half	1
	.text
.Letext0:
	.file 2 "/opt/riscv-xpack/riscv-none-elf/include/machine/_default_types.h"
	.file 3 "/opt/riscv-xpack/riscv-none-elf/include/sys/_stdint.h"
	.file 4 "apps/nn/kernels/../../../base/ztalib.h"
	.file 5 "apps/nn/kernels/conv.p.img"