	.file	"fcn.m.c"
	.option nopic
	.attribute arch, "rv32i2p1_m2p0"
	.attribute unaligned_access, 0
	.attribute stack_align, 16
	.text
.Ltext0:
	.cfi_sections	.debug_frame
	.file 0 "/home/mahmoudsamy/grad/ZC702/SW" "apps/nn/kernels/fcn.m.c"
	.align	2
	.type	innerProduct, @function
innerProduct:
.LFB8:
	.file 1 "apps/nn/kernels/fcn.m.c"
	.loc 1 48 44
	.cfi_startproc
.LVL0:
	.loc 1 49 4
	.loc 1 48 44 is_stmt 0
	addi	sp,sp,-144
	.cfi_def_cfa_offset 144
	sw	s5,116(sp)
	sw	s7,108(sp)
	sw	s8,104(sp)
	sw	s9,100(sp)
	sw	ra,140(sp)
	sw	s0,136(sp)
	.loc 1 61 11
	lw	a2,56(a0)
.LBB2:
	.loc 1 65 94
	li	a4,-2147483648
	li	a3,4096
.LBE2:
	.loc 1 61 11
	sw	a2,24(sp)
	.cfi_offset 21, -28
	.cfi_offset 23, -36
	.cfi_offset 24, -40
	.cfi_offset 25, -44
	.cfi_offset 1, -4
	.cfi_offset 8, -8
	.loc 1 62 14
	lw	s0,36(a0)
	.loc 1 63 7
	lw	ra,44(a0)
.LBB3:
	.loc 1 65 123
	li	t6,-2147483648
	.loc 1 65 94
	sw	a3,1696(a4)
	.loc 1 65 146
	li	a4,16384
	.loc 1 65 123
	sw	zero,1824(t6)
	.loc 1 65 146
	li	a5,-2147483648
	addi	a4,a4,-1
	sw	a4,1952(a5)
	.loc 1 65 191
	li	t5,-2147479552
	sw	zero,-1120(t5)
	.loc 1 65 220
	li	a5,-2147479552
	li	a4,256
	sw	a4,-2016(a5)
	.loc 1 65 54
	addi	t5,a2,-1
	sw	t5,12(sp)
	.loc 1 65 248
	li	t4,-2147479552
	.loc 1 65 271
	li	a4,65536
	.loc 1 65 248
	sw	t5,-1888(t4)
	.loc 1 65 271
	li	a5,-2147479552
	addi	a4,a4,-1
	sw	a4,-1760(a5)
	.loc 1 65 309
	li	t3,-2147479552
	sw	zero,-992(t3)
	.loc 1 65 336
	li	t1,-2147483648
	sw	zero,672(t1)
	.loc 1 65 355
	li	a5,-2147483648
	li	a4,1
	sw	a4,1056(a5)
	.loc 1 65 375
	li	a7,-2147483648
	sw	zero,1568(a7)
	.loc 1 65 395
	li	a6,-2147479552
	sw	zero,-864(a6)
	.loc 1 65 414
	li	a5,-2147483648
	li	a4,88
	sw	a4,544(a5)
.LBE3:
	.loc 1 48 44
	mv	s8,a0
.LVL1:
	.loc 1 50 4 is_stmt 1
	.loc 1 51 4
	.loc 1 52 4
	.loc 1 53 4
	.loc 1 54 4
	.loc 1 55 4
	.loc 1 56 4
	.loc 1 57 4
	.loc 1 58 4
	.loc 1 59 4
	.loc 1 61 4
	.loc 1 62 4
.LBB4:
	.loc 1 65 500 is_stmt 0
	li	a5,524288
	.loc 1 65 458
	li	a0,-2147479552
.LVL2:
	sw	a2,-736(a0)
	.loc 1 65 500
	li	a3,-2147479552
	addi	a5,a5,127
	sw	a5,-1632(a3)
.LBE4:
	.loc 1 65 613
	lw	a5,48(s8)
	.loc 1 65 608
	li	a2,-2147479552
.LVL3:
	.loc 1 65 643
	li	t2,1036288
	.loc 1 65 608
	sw	a5,-480(a2)
	.loc 1 65 643
	addi	t2,t2,-1923
	.loc 1 65 692
	li	t0,393216
	.loc 1 66 19
	li	a5,9175040
	.loc 1 65 643
	sw	t2,-1632(a3)
	.loc 1 65 692
	li	a4,-2147483648
	addi	t0,t0,1
	.loc 1 66 19
	slli	s5,t5,26
	addi	a5,a5,4
	.loc 1 65 692
	sw	t0,20(a4)
	.loc 1 66 19
	add	a5,s5,a5
	.loc 1 66 18
	sw	a5,20(a4)
	.loc 1 67 4
	li	a3,-2147483648
	sw	zero,36(a3)
	.loc 1 48 44
	mv	s9,a1
	.loc 1 62 14
	slli	a5,s0,3
	sw	a5,4(sp)
.LVL4:
	.loc 1 63 4 is_stmt 1
	.loc 1 63 7 is_stmt 0
	slli	s7,ra,3
.LVL5:
.LBB5:
	.loc 1 65 3 is_stmt 1
	.loc 1 65 77
	.loc 1 65 106
	.loc 1 65 129
	.loc 1 65 174
	.loc 1 65 203
	.loc 1 65 231
	.loc 1 65 254
	.loc 1 65 292
	.loc 1 65 320
	.loc 1 65 339
	.loc 1 65 358
	.loc 1 65 378
	.loc 1 65 398
	.loc 1 65 441
	.loc 1 65 483
.LBE5:
	.loc 1 65 590
	.loc 1 65 591
	.loc 1 65 626
	.loc 1 65 675
	.loc 1 65 676
	.loc 1 66 1
	.loc 1 66 2
	.loc 1 67 4
	.loc 1 67 4
	call	_taskYield
.LVL6:
	.loc 1 67 18 discriminator 1
	.loc 1 68 4
	.loc 1 68 20 is_stmt 0
	beq	s9,zero,.L2
	.loc 1 68 20 discriminator 1
	lw	s9,44(s8)
.LVL7:
.L2:
	.loc 1 68 31 is_stmt 1 discriminator 5
	lw	a5,20(s8)
	bge	s9,a5,.L1
.LBB6:
	.loc 1 72 277 is_stmt 0
	li	a5,-2147479552
	addi	a5,a5,-1760
	sw	s10,96(sp)
	sw	a5,20(sp)
	.cfi_offset 26, -48
	.loc 1 72 570
	li	s10,-2147479552
	.loc 1 72 277
	li	a5,65536
	addi	a5,a5,-1
	.loc 1 72 570
	addi	s10,s10,-1632
	sw	s6,112(sp)
	sw	s11,92(sp)
	.cfi_offset 22, -32
	.cfi_offset 27, -52
	li	s6,1032192
	.loc 1 72 452
	li	s11,-2147483648
	addi	s11,s11,544
	.loc 1 72 277
	sw	a5,8(sp)
	.loc 1 72 570
	addi	s6,s6,127
	mv	a5,s10
	sw	s1,132(sp)
	mv	s10,s9
	sw	s2,128(sp)
	mv	s9,s11
.LVL8:
	sw	s3,124(sp)
	sw	s4,120(sp)
	.cfi_offset 9, -12
	.cfi_offset 18, -16
	.cfi_offset 19, -20
	.cfi_offset 20, -24
	.loc 1 72 570
	sw	s5,72(sp)
	sw	s7,76(sp)
	sw	s6,68(sp)
	mv	s11,a5
.LVL9:
.L3:
.LBE6:
	.loc 1 69 7 is_stmt 1
	.loc 1 70 13 is_stmt 0
	lw	a4,60(s8)
.LBB7:
	.loc 1 72 103
	li	s1,-2147483648
	li	s3,4096
	sw	s3,1696(s1)
	.loc 1 72 132
	li	t6,-2147483648
	.loc 1 72 23
	addi	a5,a4,-1
	.loc 1 72 170
	slli	a3,a4,12
	.loc 1 72 132
	sw	a5,1824(t6)
	.loc 1 72 177
	addi	s6,a3,-1
	sw	s6,28(sp)
	.loc 1 72 155
	li	s5,-2147483648
	sw	s6,1952(s5)
	.loc 1 72 197
	li	t5,-2147479552
	.loc 1 72 508
	lw	a3,24(sp)
	.loc 1 72 226
	li	s0,-2147479552
	.loc 1 72 197
	sw	zero,-1120(t5)
	.loc 1 72 226
	li	s2,256
	sw	s2,-2016(s0)
	.loc 1 72 254
	lw	s7,12(sp)
	li	t4,-2147479552
	.loc 1 72 508
	mul	a4,a3,a4
	.loc 1 72 254
	sw	s7,-1888(t4)
	.loc 1 72 277
	lw	a7,20(sp)
	lw	a3,8(sp)
	.loc 1 72 315
	li	t3,-2147479552
	.loc 1 72 342
	li	a1,-2147483648
	.loc 1 72 277
	sw	a3,0(a7)
	.loc 1 72 315
	sw	zero,-992(t3)
	.loc 1 72 342
	li	ra,7
	sw	ra,672(a1)
	.loc 1 72 387
	li	a0,-2147483648
	li	t2,1
	sw	t2,1056(a0)
	.loc 1 72 413
	li	a2,-2147483648
	sw	ra,1568(a2)
	.loc 1 72 433
	li	a3,-2147479552
	sw	zero,-864(a3)
	.loc 1 72 452
	li	a6,72
	sw	a6,0(s9)
	.loc 1 72 500
	li	t1,-2147479552
	.loc 1 72 515
	slli	a4,a4,3
	.loc 1 72 500
	sw	a4,-736(t1)
	.loc 1 72 570
	lw	a6,68(sp)
.LBE7:
.LBB8:
	.loc 1 72 867
	li	s4,1036288
	addi	s4,s4,125
.LBE8:
.LBB9:
	.loc 1 72 570
	sw	a6,0(s11)
.LBE9:
.LBB10:
	.loc 1 72 633
	lw	a6,44(s8)
	.loc 1 72 674
	sw	t2,1056(a0)
.LBE10:
	.loc 1 72 920
	li	t0,393216
.LBB11:
	.loc 1 72 633
	add	a6,s10,a6
	.loc 1 72 627
	addi	a6,a6,-1
	.loc 1 72 645
	sub	a6,a6,s10
	.loc 1 72 701
	sw	a6,672(a1)
	.loc 1 72 739
	lw	a7,20(s8)
.LBE11:
	.loc 1 72 920
	li	a6,-2147483648
	addi	t0,t0,1
.LBB12:
	.loc 1 72 739
	addi	a7,a7,-1
	.loc 1 72 741
	sub	a7,a7,s10
	.loc 1 72 724
	sw	a7,1568(a2)
	.loc 1 72 764
	sw	s10,-864(a3)
	.loc 1 72 828
	lw	a7,4(s8)
	srli	a7,a7,1
	.loc 1 72 813
	add	a7,a7,s10
	.loc 1 72 808
	sw	a7,0(s9)
	.loc 1 72 867
	sw	s4,0(s11)
.LBE12:
	.loc 1 72 920
	sw	t0,20(a6)
.LBB13:
	.loc 1 73 103
	sw	s3,1696(s1)
	.loc 1 73 132
	sw	a5,1824(t6)
	.loc 1 73 155
	sw	s6,1952(t6)
	.loc 1 73 197
	sw	zero,-1120(t5)
	.loc 1 73 226
	sw	s2,-2016(s0)
	.loc 1 73 254
	sw	s7,-1888(t4)
	.loc 1 73 277
	lw	a7,20(sp)
	lw	t4,8(sp)
.LBE13:
	.loc 1 74 19
	slli	s0,a5,18
.LBB14:
	.loc 1 73 277
	sw	t4,0(a7)
	.loc 1 73 315
	sw	zero,-992(t3)
	.loc 1 73 342
	sw	ra,672(a1)
	.loc 1 73 387
	sw	t2,1056(a0)
	.loc 1 73 413
	sw	ra,1568(a2)
	.loc 1 73 433
	sw	zero,-864(a3)
	.loc 1 73 452
	li	a7,80
	sw	a7,0(s9)
	.loc 1 73 500
	sw	a4,-736(t1)
	.loc 1 73 570
	lw	a4,68(sp)
	sw	a4,0(s11)
.LBE14:
.LBB15:
	.loc 1 73 633
	lw	a4,44(s8)
	.loc 1 73 674
	sw	t2,1056(a0)
.LBE15:
	.loc 1 74 19
	li	a0,8388608
.LBB16:
	.loc 1 73 633
	add	a4,s10,a4
	.loc 1 73 627
	addi	a4,a4,-1
	.loc 1 73 645
	sub	a4,a4,s10
	.loc 1 73 701
	sw	a4,672(a1)
	.loc 1 73 739
	lw	a4,20(s8)
.LBE16:
	.loc 1 74 19
	addi	a0,a0,516
	add	a0,s0,a0
.LBB17:
	.loc 1 73 739
	addi	a5,a4,-1
	.loc 1 73 741
	sub	a5,a5,s10
	.loc 1 73 724
	sw	a5,1568(a2)
	.loc 1 73 764
	sw	s10,-864(a3)
	.loc 1 73 828
	lw	a5,8(s8)
.LBE17:
	.loc 1 74 19
	lw	a4,72(sp)
.LBB18:
	.loc 1 73 828
	srli	a5,a5,1
	.loc 1 73 813
	add	a5,a5,s10
	.loc 1 73 808
	sw	a5,0(s9)
	.loc 1 73 867
	sw	s4,0(s11)
.LBE18:
	.loc 1 73 920
	sw	t0,20(a6)
	.loc 1 74 19
	add	a0,a0,a4
	.loc 1 74 18
	sw	a0,20(a6)
	.loc 1 75 7
	li	a5,-2147483648
	sw	zero,36(a5)
.LBB19:
	.loc 1 72 155
	addi	a5,t6,1952
	sw	a5,16(sp)
.LBE19:
	.loc 1 69 13
	slli	a5,s10,3
	sw	a5,32(sp)
.LVL10:
	.loc 1 70 7 is_stmt 1
.LBB20:
	.loc 1 72 3
	.loc 1 72 86
	.loc 1 72 115
	.loc 1 72 138
	.loc 1 72 180
	.loc 1 72 209
	.loc 1 72 237
	.loc 1 72 260
	.loc 1 72 298
	.loc 1 72 326
	.loc 1 72 371
	.loc 1 72 396
	.loc 1 72 416
	.loc 1 72 436
	.loc 1 72 483
	.loc 1 72 553
.LBE20:
.LBB21:
	.loc 1 72 607
	.loc 1 72 658
	.loc 1 72 685
	.loc 1 72 707
	.loc 1 72 747
	.loc 1 72 773
	.loc 1 72 792
	.loc 1 72 849
	.loc 1 72 850
.LBE21:
	.loc 1 72 903
	.loc 1 72 904
.LBB22:
	.loc 1 73 3
	.loc 1 73 86
	.loc 1 73 115
	.loc 1 73 138
	.loc 1 73 180
	.loc 1 73 209
	.loc 1 73 237
	.loc 1 73 260
	.loc 1 73 298
	.loc 1 73 326
	.loc 1 73 371
	.loc 1 73 396
	.loc 1 73 416
	.loc 1 73 436
	.loc 1 73 483
	.loc 1 73 553
.LBE22:
.LBB23:
	.loc 1 73 607
	.loc 1 73 658
	.loc 1 73 685
	.loc 1 73 707
	.loc 1 73 747
	.loc 1 73 773
	.loc 1 73 792
	.loc 1 73 849
	.loc 1 73 850
.LBE23:
	.loc 1 73 903
	.loc 1 73 904
	.loc 1 74 1
	.loc 1 74 2
	.loc 1 75 7
	.loc 1 75 7
	call	_taskYield
.LVL11:
	.loc 1 75 21 discriminator 1
	.loc 1 79 7
	.loc 1 79 25 discriminator 1
	lw	a5,28(s8)
	ble	a5,zero,.L8
.LBB24:
	.loc 1 81 872 is_stmt 0
	lw	a4,76(sp)
	slli	a0,s10,3
.LBE24:
	.loc 1 83 19
	li	a5,8392704
.LBB25:
	.loc 1 81 872
	add	a3,a4,a0
	.loc 1 81 1135
	lw	a4,4(sp)
	.loc 1 81 861
	addi	a3,a3,-1
	.loc 1 81 880
	sub	a3,a3,a0
	.loc 1 81 1135
	addi	a2,a4,-1
	.loc 1 81 880
	sw	a3,36(sp)
	.loc 1 81 1137
	sub	a3,a2,a0
	sw	a3,40(sp)
.LBE25:
	.loc 1 83 19
	lw	a3,72(sp)
	addi	a5,a5,-1788
	add	a4,s0,a5
	add	a4,a4,a3
.LBB26:
	.loc 1 81 108
	li	a6,-2147483648
.LBE26:
	.loc 1 85 19
	li	a1,8392704
.LBB27:
	.loc 1 81 159
	li	a7,-2147483648
.LBE27:
	.loc 1 83 19
	sw	a4,44(sp)
.LBB28:
	.loc 1 81 108
	addi	a4,a6,800
.LBE28:
	.loc 1 85 19
	addi	a1,a1,260
.LBB29:
	.loc 1 81 108
	sw	a4,48(sp)
	.loc 1 81 159
	addi	a4,a7,1440
.LBE29:
	.loc 1 85 19
	add	a5,s0,a1
.LBB30:
	.loc 1 81 159
	sw	a4,52(sp)
	li	a4,16384
	addi	a4,a4,-1
.LBE30:
	.loc 1 85 19
	add	a5,a5,a3
	.loc 1 83 19
	li	s1,0
	.loc 1 79 20
	li	s3,0
.LBB31:
	.loc 1 81 159
	sw	a4,56(sp)
.LBE31:
	.loc 1 85 19
	sw	a5,64(sp)
	sw	s10,60(sp)
.LVL12:
.L9:
.LBB32:
	.loc 1 81 31
	lw	a5,60(s8)
	.loc 1 81 108
	lw	a4,48(sp)
	li	s6,4096
	.loc 1 81 136
	li	s0,-2147483648
	.loc 1 81 108
	sw	s6,0(a4)
	.loc 1 81 23
	addi	a4,a5,-1
	.loc 1 81 136
	sw	a4,928(s0)
	.loc 1 81 159
	lw	a4,52(sp)
	lw	a3,56(sp)
	.loc 1 81 196
	li	ra,-2147479552
	.loc 1 81 225
	li	s10,-2147483648
	.loc 1 81 159
	sw	a3,0(a4)
	.loc 1 81 196
	sw	zero,-1248(ra)
	.loc 1 81 225
	li	a4,256
	sw	a4,1696(s10)
	.loc 1 81 253
	lw	a3,12(sp)
	li	t2,-2147483648
	.loc 1 81 314
	li	t0,-2147479552
	.loc 1 81 253
	sw	a3,1824(t2)
	.loc 1 81 276
	lw	a2,16(sp)
	lw	a1,8(sp)
	.loc 1 81 342
	li	a6,7
	li	t1,-2147479552
	.loc 1 81 276
	sw	a1,0(a2)
	.loc 1 81 647
	lw	a0,24(sp)
	.loc 1 81 314
	sw	zero,-1120(t0)
	.loc 1 81 342
	sw	a6,-1888(t1)
	.loc 1 81 398
	li	s7,-2147479552
	li	ra,8
	sw	ra,-2016(s7)
	.loc 1 81 647
	mul	a5,a5,a0
	.loc 1 81 424
	lw	s0,20(sp)
	li	a0,63
	.loc 1 81 445
	li	a7,-2147479552
	.loc 1 81 424
	sw	a0,0(s0)
	.loc 1 81 445
	sw	zero,-992(a7)
	.loc 1 81 464
	li	a1,-2147483648
	sw	a6,672(a1)
	.loc 1 81 518
	li	a2,-2147483648
	li	t3,1
	sw	t3,1056(a2)
	.loc 1 81 544
	li	a3,-2147483648
	sw	a0,1568(a3)
	.loc 1 81 565
	li	a4,-2147479552
	sw	zero,-864(a4)
	.loc 1 81 584
	sw	zero,0(s9)
	.loc 1 81 639
	li	t5,-2147479552
	.loc 1 81 654
	slli	a5,a5,6
	.loc 1 81 752
	li	a0,1032192
	.loc 1 81 639
	sw	a5,-736(t5)
	.loc 1 81 752
	addi	a0,a0,159
	sw	a0,0(s11)
.LBE32:
.LBB33:
	.loc 1 81 910
	lw	a0,4(sp)
	.loc 1 81 1284
	li	t6,1036288
	addi	t6,t6,157
	.loc 1 81 910
	sw	a0,-2016(s7)
	.loc 1 81 949
	sw	zero,-1888(t1)
	.loc 1 81 991
	lw	a5,40(s8)
	.loc 1 81 1230
	lw	s2,32(sp)
	.loc 1 81 996
	sw	a0,4(sp)
	.loc 1 81 991
	sub	a5,a5,s3
	.loc 1 81 996
	mul	a5,a5,a0
	.loc 1 81 1230
	add	t4,s2,s1
.LBE33:
	.loc 1 81 1339
	li	s6,327680
	li	a0,-2147483648
	addi	s6,s6,1
.LBB34:
	.loc 1 82 287
	li	s5,524288
	addi	s5,s5,8
	.loc 1 82 412
	li	s4,524288
	addi	s4,s4,159
.LBE34:
.LBB35:
	.loc 1 81 225
	addi	s10,s10,1696
.LBE35:
.LBB36:
	.loc 1 81 1013
	addi	a5,a5,-1
	.loc 1 81 972
	sw	a5,0(s0)
	.loc 1 81 1033
	sw	s1,-992(a7)
	.loc 1 81 1071
	sw	t3,1056(a2)
	.loc 1 81 1098
	lw	a5,36(sp)
.LBE36:
.LBB37:
	.loc 1 81 398
	addi	s7,s7,-2016
	.loc 1 81 639
	addi	t5,t5,-736
.LBE37:
.LBB38:
	.loc 1 81 1098
	sw	a5,672(a1)
	.loc 1 81 1121
	lw	a5,40(sp)
.LBE38:
.LBB39:
	.loc 1 81 518
	addi	a2,a2,1056
	.loc 1 81 464
	addi	a1,a1,672
.LBE39:
.LBB40:
	.loc 1 81 1121
	sw	a5,1568(a3)
	.loc 1 81 1160
	sw	s2,-864(a4)
	.loc 1 81 1230
	lw	ra,0(s8)
	slli	a5,s3,3
.LVL13:
.LBE40:
.LBB41:
	.loc 1 81 3 is_stmt 1
	.loc 1 81 92
	.loc 1 81 120
	.loc 1 81 142
	.loc 1 81 179
	.loc 1 81 208
	.loc 1 81 236
	.loc 1 81 259
	.loc 1 81 297
	.loc 1 81 325
	.loc 1 81 381
	.loc 1 81 407
	.loc 1 81 428
	.loc 1 81 448
	.loc 1 81 502
	.loc 1 81 527
	.loc 1 81 548
	.loc 1 81 568
	.loc 1 81 622
	.loc 1 81 735
.LBE41:
.LBB42:
	.loc 1 81 791
	.loc 1 81 893
	.loc 1 81 932
	.loc 1 81 955
	.loc 1 81 1016
	.loc 1 81 1055
	.loc 1 81 1082
	.loc 1 81 1104
	.loc 1 81 1143
	.loc 1 81 1169
	.loc 1 81 1209
.LBE42:
	.loc 1 82 819 is_stmt 0
	li	s2,196608
.LBB43:
	.loc 1 81 1230
	add	t4,t4,ra
	.loc 1 81 1225
	sw	t4,0(s9)
.LVL14:
	.loc 1 81 1266 is_stmt 1
	.loc 1 81 1267
	.loc 1 81 1284 is_stmt 0
	sw	t6,0(s11)
.LBE43:
	.loc 1 81 1322 is_stmt 1
	.loc 1 81 1323
	.loc 1 81 1339 is_stmt 0
	sw	s6,20(a0)
.LBB44:
	.loc 1 82 3 is_stmt 1
.LVL15:
	.loc 1 82 38
	.loc 1 82 55 is_stmt 0
	li	s6,4096
	sw	s6,0(s7)
	.loc 1 82 67 is_stmt 1
	.loc 1 82 84 is_stmt 0
	sw	zero,-1888(t1)
	.loc 1 82 90 is_stmt 1
	.loc 1 82 107 is_stmt 0
	lw	t4,28(sp)
	.loc 1 82 349
	li	ra,8
.LBE44:
	.loc 1 82 819
	addi	s2,s2,1
.LBB45:
	.loc 1 82 107
	sw	t4,0(s0)
	.loc 1 82 132 is_stmt 1
	.loc 1 82 149 is_stmt 0
	sw	zero,-992(a7)
	.loc 1 82 161 is_stmt 1
	.loc 1 82 177 is_stmt 0
	sw	a6,0(a1)
	.loc 1 82 206 is_stmt 1
	.loc 1 82 222 is_stmt 0
	sw	t3,0(a2)
	.loc 1 82 231 is_stmt 1
	.loc 1 82 248 is_stmt 0
	sw	a6,1568(a3)
	.loc 1 82 251 is_stmt 1
	.loc 1 82 268 is_stmt 0
	sw	zero,-864(a4)
	.loc 1 82 271 is_stmt 1
	.loc 1 82 287 is_stmt 0
	sw	s5,0(s9)
	.loc 1 82 332 is_stmt 1
	.loc 1 82 349 is_stmt 0
	sw	ra,0(t5)
	.loc 1 82 395 is_stmt 1
	.loc 1 82 412 is_stmt 0
	sw	s4,0(s11)
.LBE45:
.LBB46:
	.loc 1 82 505 is_stmt 1
.LVL16:
	.loc 1 82 562
	.loc 1 82 578 is_stmt 0
	sw	t3,0(a2)
	.loc 1 82 589 is_stmt 1
	.loc 1 82 605 is_stmt 0
	sw	a6,0(a1)
	.loc 1 82 611 is_stmt 1
	.loc 1 82 643 is_stmt 0
	lw	t4,28(s8)
	addi	s4,a5,8
.LBE46:
.LBB47:
	.loc 1 81 544
	addi	a3,a3,1568
.LBE47:
.LBB48:
	.loc 1 82 643
	addi	t4,t4,-1
	.loc 1 82 645
	sub	t4,t4,a5
	.loc 1 82 628
	sw	t4,0(a3)
	.loc 1 82 651 is_stmt 1
	.loc 1 82 668 is_stmt 0
	sw	a5,-864(a4)
	.loc 1 82 677 is_stmt 1
.LVL17:
	.loc 1 82 696
	.loc 1 82 717 is_stmt 0
	lw	t4,12(s8)
.LBE48:
	.loc 1 81 1339
	addi	a0,a0,20
.LBB49:
	.loc 1 81 565
	addi	a4,a4,-864
.LBE49:
.LBB50:
	.loc 1 82 717
	add	a5,a5,t4
	.loc 1 82 712
	sw	a5,0(s9)
	.loc 1 82 749 is_stmt 1
	.loc 1 82 750
	.loc 1 82 767 is_stmt 0
	sw	t6,0(s11)
.LBE50:
	.loc 1 82 802 is_stmt 1
	.loc 1 82 803
	.loc 1 82 819 is_stmt 0
	sw	s2,0(a0)
	.loc 1 83 1 is_stmt 1
	.loc 1 83 2
	.loc 1 83 18 is_stmt 0
	lw	t4,44(sp)
.LBB51:
	.loc 1 81 342
	addi	t1,t1,-1888
	.loc 1 81 445
	addi	a7,a7,-992
.LBE51:
	.loc 1 83 18
	sw	t4,0(a0)
	.loc 1 84 10 is_stmt 1
	.loc 1 84 12 is_stmt 0
	lw	a5,28(s8)
.LBB52:
	.loc 1 81 253
	addi	t2,t2,1824
	.loc 1 81 314
	addi	t0,t0,-1120
.LBE52:
	.loc 1 84 12
	bgt	a5,s4,.L6
	.loc 1 85 1 is_stmt 1
	.loc 1 85 2
	.loc 1 85 18 is_stmt 0
	lw	t4,64(sp)
.LBB53:
	.loc 1 86 294
	li	t6,1036288
	addi	t6,t6,159
.LBE53:
	.loc 1 85 18
	sw	t4,0(a0)
.LBB54:
	.loc 1 86 3 is_stmt 1
.LVL18:
	.loc 1 86 29 is_stmt 0
	lw	a5,44(s8)
	.loc 1 86 70
	sw	t3,0(a2)
.LVL19:
	.loc 1 86 29
	lw	s2,60(sp)
.LBE54:
	.loc 1 79 61 discriminator 2
	addi	s3,s3,1
.LVL20:
.LBB55:
	.loc 1 86 29
	add	a5,s2,a5
	.loc 1 86 23
	addi	a5,a5,-1
	.loc 1 86 41
	sub	a5,a5,s2
.LVL21:
	.loc 1 86 54 is_stmt 1
	.loc 1 86 81
	.loc 1 86 97 is_stmt 0
	sw	a5,0(a1)
	.loc 1 86 103 is_stmt 1
	.loc 1 86 135 is_stmt 0
	lw	t4,20(s8)
	.loc 1 86 267
	addi	a5,a5,1
.LVL22:
	.loc 1 86 135
	addi	t4,t4,-1
	.loc 1 86 137
	sub	t4,t4,s2
	.loc 1 86 120
	sw	t4,0(a3)
.LVL23:
	.loc 1 86 143 is_stmt 1
	.loc 1 86 160 is_stmt 0
	sw	s2,0(a4)
	.loc 1 86 169 is_stmt 1
.LVL24:
	.loc 1 86 188
	.loc 1 86 209 is_stmt 0
	lw	ra,16(s8)
.LBE55:
.LBB56:
	.loc 1 86 843
	li	t4,1032192
	addi	t4,t4,157
.LBE56:
.LBB57:
	.loc 1 86 209
	add	ra,s2,ra
	.loc 1 86 204
	sw	ra,0(s9)
	.loc 1 86 241 is_stmt 1
	.loc 1 86 242
	.loc 1 86 259 is_stmt 0
	sw	a5,0(t5)
	.loc 1 86 277 is_stmt 1
	.loc 1 86 294 is_stmt 0
	sw	t6,0(s11)
.LBE57:
.LBB58:
	.loc 1 86 330 is_stmt 1
.LVL25:
	.loc 1 86 350 is_stmt 0
	lw	a5,60(s8)
.LVL26:
	.loc 1 86 438
	sw	s6,0(s10)
.LBE58:
	.loc 1 86 895
	li	t5,65536
.LBB59:
	.loc 1 86 350
	addi	a5,a5,-1
.LVL27:
	.loc 1 86 421 is_stmt 1
	.loc 1 86 450
	.loc 1 86 467 is_stmt 0
	sw	a5,0(t2)
	.loc 1 86 473 is_stmt 1
	.loc 1 86 513 is_stmt 0
	lw	a5,60(s8)
.LVL28:
	.loc 1 86 490
	lw	t6,16(sp)
.LBE59:
	.loc 1 86 895
	addi	t5,t5,1
.LBB60:
	.loc 1 86 513
	slli	a5,a5,12
	.loc 1 86 520
	addi	a5,a5,-1
	.loc 1 86 490
	sw	a5,0(t6)
.LVL29:
	.loc 1 86 523 is_stmt 1
	.loc 1 86 540 is_stmt 0
	sw	zero,0(t0)
	.loc 1 86 552 is_stmt 1
	.loc 1 86 569 is_stmt 0
	li	a5,256
	sw	a5,0(s7)
	.loc 1 86 580 is_stmt 1
	.loc 1 86 597 is_stmt 0
	lw	a5,12(sp)
	sw	a5,0(t1)
	.loc 1 86 603 is_stmt 1
	.loc 1 86 620 is_stmt 0
	lw	a5,8(sp)
	sw	a5,0(s0)
	.loc 1 86 641 is_stmt 1
	.loc 1 86 658 is_stmt 0
	sw	zero,0(a7)
	.loc 1 86 669 is_stmt 1
	.loc 1 86 685 is_stmt 0
	sw	a6,0(a1)
	.loc 1 86 714 is_stmt 1
	.loc 1 86 730 is_stmt 0
	sw	t3,0(a2)
	.loc 1 86 739 is_stmt 1
	.loc 1 86 756 is_stmt 0
	sw	a6,0(a3)
	.loc 1 86 759 is_stmt 1
	.loc 1 86 776 is_stmt 0
	sw	zero,0(a4)
	.loc 1 86 779 is_stmt 1
	.loc 1 86 795 is_stmt 0
	li	a5,64
	sw	a5,0(s9)
	.loc 1 86 826 is_stmt 1
	.loc 1 86 843 is_stmt 0
	sw	t4,0(s11)
.LBE60:
	.loc 1 86 878 is_stmt 1
	.loc 1 86 879
	.loc 1 88 10 is_stmt 0
	li	a5,-2147483648
	.loc 1 86 895
	sw	t5,0(a0)
	.loc 1 88 10 is_stmt 1
	sw	zero,36(a5)
	.loc 1 88 10
	call	_taskYield
.LVL30:
	.loc 1 88 24 discriminator 1
	.loc 1 79 55 discriminator 2
	.loc 1 79 25 discriminator 1
	lw	a0,4(sp)
	lw	a5,28(s8)
	add	s1,s1,a0
	bgt	a5,s4,.L9
.LVL31:
.L16:
	lw	s10,60(sp)
.LVL32:
.L8:
	.loc 1 68 47 discriminator 6
	.loc 1 68 51 is_stmt 0 discriminator 6
	lw	a5,44(s8)
	.loc 1 68 31 discriminator 5
	lw	a4,20(s8)
	.loc 1 68 51 discriminator 6
	slli	a5,a5,1
	.loc 1 68 47 discriminator 6
	add	s10,s10,a5
.LVL33:
	.loc 1 68 31 is_stmt 1 discriminator 5
	bgt	a4,s10,.L3
	lw	s1,132(sp)
	.cfi_restore 9
	lw	s2,128(sp)
	.cfi_restore 18
	lw	s3,124(sp)
	.cfi_restore 19
	lw	s4,120(sp)
	.cfi_restore 20
	lw	s6,112(sp)
	.cfi_restore 22
	lw	s10,96(sp)
	.cfi_restore 26
.LVL34:
	lw	s11,92(sp)
	.cfi_restore 27
.LVL35:
.L1:
	.loc 1 91 1 is_stmt 0
	lw	ra,140(sp)
	.cfi_restore 1
	lw	s0,136(sp)
	.cfi_restore 8
	lw	s5,116(sp)
	.cfi_restore 21
	lw	s7,108(sp)
	.cfi_restore 23
	lw	s8,104(sp)
	.cfi_restore 24
.LVL36:
	lw	s9,100(sp)
	.cfi_restore 25
	addi	sp,sp,144
	.cfi_def_cfa_offset 0
	jr	ra
.LVL37:
.L6:
	.cfi_def_cfa_offset 144
	.cfi_offset 1, -4
	.cfi_offset 8, -8
	.cfi_offset 9, -12
	.cfi_offset 18, -16
	.cfi_offset 19, -20
	.cfi_offset 20, -24
	.cfi_offset 21, -28
	.cfi_offset 22, -32
	.cfi_offset 23, -36
	.cfi_offset 24, -40
	.cfi_offset 25, -44
	.cfi_offset 26, -48
	.cfi_offset 27, -52
	.loc 1 88 10 is_stmt 1
	li	a5,-2147483648
	sw	zero,36(a5)
	.loc 1 88 10
	call	_taskYield
.LVL38:
	.loc 1 88 24 discriminator 1
	.loc 1 79 55 discriminator 2
	.loc 1 79 25 is_stmt 0 discriminator 1
	lw	a4,4(sp)
	lw	a5,28(s8)
	.loc 1 79 61 discriminator 2
	addi	s3,s3,1
.LVL39:
	.loc 1 79 25 is_stmt 1 discriminator 1
	add	s1,s1,a4
	bgt	a5,s4,.L9
	j	.L16
	.cfi_endproc
.LFE8:
	.size	innerProduct, .-innerProduct
	.align	2
	.type	pooling, @function
pooling:
.LFB9:
	.loc 1 108 39
	.cfi_startproc
.LVL40:
	.loc 1 109 4
	.loc 1 108 39 is_stmt 0
	addi	sp,sp,-128
	.cfi_def_cfa_offset 128
	sw	s1,116(sp)
	sw	s3,108(sp)
	sw	ra,124(sp)
	sw	s4,104(sp)
	.loc 1 119 13
	lw	a4,12(a0)
	.cfi_offset 9, -12
	.cfi_offset 19, -20
	.cfi_offset 1, -4
	.cfi_offset 20, -24
	.loc 1 118 7
	lw	s4,0(a0)
	.loc 1 108 39
	sw	a0,28(sp)
	.loc 1 110 4 is_stmt 1
	.loc 1 111 4
	.loc 1 112 4
	.loc 1 113 4
.LVL41:
	.loc 1 114 4
	.loc 1 115 4
	.loc 1 117 4
	.loc 1 118 4
	.loc 1 119 4
	.loc 1 119 9 is_stmt 0
	mul	a4,a4,a4
	.loc 1 124 9
	srli	a5,s4,31
	add	a5,a5,s4
	srai	s3,a5,1
	mv	s1,a1
	.loc 1 119 9
	sw	a4,16(sp)
.LVL42:
	.loc 1 120 4 is_stmt 1
	.loc 1 122 4
	.loc 1 122 6 is_stmt 0
	beq	a1,zero,.L19
	.loc 1 126 11
	mv	s1,s3
	.loc 1 127 9
	mv	s3,s4
.L19:
.LVL43:
.LBB61:
	.loc 1 129 3 is_stmt 1
	.loc 1 129 70
	.loc 1 129 87 is_stmt 0
	li	a5,-2147483648
	li	a4,4096
.LVL44:
	sw	a4,1696(a5)
.LVL45:
	.loc 1 129 99 is_stmt 1
	.loc 1 129 116 is_stmt 0
	li	t1,-2147483648
	.loc 1 129 139
	li	a4,16384
	.loc 1 129 116
	sw	zero,1824(t1)
	.loc 1 129 122 is_stmt 1
	.loc 1 129 139 is_stmt 0
	addi	a4,a4,-1
	sw	a4,32(sp)
	li	a5,-2147483648
	sw	a4,1952(a5)
	.loc 1 129 160 is_stmt 1
	.loc 1 129 177 is_stmt 0
	li	a7,-2147479552
	sw	zero,-1120(a7)
	.loc 1 129 189 is_stmt 1
	.loc 1 129 206 is_stmt 0
	li	a5,-2147479552
	li	a3,256
	sw	a3,-2016(a5)
	.loc 1 129 217 is_stmt 1
	.loc 1 129 234 is_stmt 0
	li	a4,-2147479552
	li	a3,15
	sw	a3,-1888(a4)
	.loc 1 129 240 is_stmt 1
	.loc 1 129 257 is_stmt 0
	li	a4,65536
	addi	a4,a4,-1
	sw	a4,36(sp)
	li	a5,-2147479552
	sw	a4,-1760(a5)
	.loc 1 129 278 is_stmt 1
	.loc 1 129 295 is_stmt 0
	li	a6,-2147479552
	sw	zero,-992(a6)
	.loc 1 129 306 is_stmt 1
	.loc 1 129 322 is_stmt 0
	li	a0,-2147483648
.LVL46:
	sw	zero,672(a0)
	.loc 1 129 325 is_stmt 1
	.loc 1 129 341 is_stmt 0
	li	a5,-2147483648
	li	a4,1
	sw	a4,1056(a5)
	.loc 1 129 344 is_stmt 1
	.loc 1 129 361 is_stmt 0
	li	a1,-2147483648
.LVL47:
	sw	zero,1568(a1)
	.loc 1 129 364 is_stmt 1
	.loc 1 129 381 is_stmt 0
	li	a2,-2147479552
	sw	zero,-864(a2)
	.loc 1 129 384 is_stmt 1
	.loc 1 129 400 is_stmt 0
	li	a5,-2147483648
	li	a4,72
	sw	a4,544(a5)
	.loc 1 129 427 is_stmt 1
	.loc 1 129 444 is_stmt 0
	li	a3,-2147479552
	li	t3,16
	.loc 1 129 486
	li	a5,524288
	.loc 1 129 444
	sw	t3,-736(a3)
	.loc 1 129 469 is_stmt 1
	.loc 1 129 486 is_stmt 0
	li	a4,-2147479552
	addi	a5,a5,127
	sw	a5,-1632(a4)
.LBE61:
	.loc 1 129 576 is_stmt 1
	.loc 1 129 577
	.loc 1 129 599 is_stmt 0
	lw	a5,28(sp)
	.loc 1 129 594
	li	a3,-2147479552
	.loc 1 129 632
	li	t3,1036288
	.loc 1 129 599
	lw	a5,32(a5)
	.loc 1 129 632
	addi	t3,t3,-1923
	.loc 1 129 681
	li	t4,393216
	.loc 1 129 594
	sw	a5,-480(a3)
	.loc 1 129 615 is_stmt 1
	.loc 1 129 632 is_stmt 0
	sw	t3,-1632(a4)
	.loc 1 129 664 is_stmt 1
	.loc 1 129 665
	.loc 1 129 681 is_stmt 0
	li	a5,-2147483648
	addi	t4,t4,1
	.loc 1 130 18
	li	t3,1015812096
	.loc 1 129 681
	sw	t4,20(a5)
	.loc 1 130 1 is_stmt 1
	.loc 1 130 2
	.loc 1 130 18 is_stmt 0
	addi	t3,t3,1028
	.loc 1 131 4
	li	a4,-2147483648
	.loc 1 130 18
	sw	t3,20(a5)
	.loc 1 131 4 is_stmt 1
	sw	zero,36(a4)
	.loc 1 131 4
	call	_taskYield
.LVL48:
	.loc 1 131 18 discriminator 1
	.loc 1 133 4
	.loc 1 133 17 discriminator 1
	bge	s1,s3,.L18
	lw	a3,16(sp)
	sub	a5,s4,s1
	sw	s2,112(sp)
	neg	a4,a3
	mul	a5,a5,a3
	.cfi_offset 18, -16
	slli	s2,a4,9
	addi	s4,s4,-1
.LVL49:
	sw	s0,120(sp)
	sw	s5,100(sp)
	sw	s6,96(sp)
	sw	s7,92(sp)
	sw	s8,88(sp)
	sw	s9,84(sp)
	sw	s10,80(sp)
	mul	a4,s1,a3
	addi	a5,a5,-1
	sw	s11,76(sp)
	.cfi_offset 8, -8
	.cfi_offset 21, -28
	.cfi_offset 22, -32
	.cfi_offset 23, -36
	.cfi_offset 24, -40
	.cfi_offset 25, -44
	.cfi_offset 26, -48
	.cfi_offset 27, -52
	sw	a5,24(sp)
	sw	s3,56(sp)
	sw	s4,60(sp)
	sw	a4,20(sp)
.LVL50:
.L21:
	.loc 1 136 17 discriminator 1
	lw	a5,16(sp)
	.loc 1 136 12 is_stmt 0
	li	s11,0
	addi	a4,a5,-1
	sw	a4,40(sp)
	.loc 1 136 17 discriminator 1
	beq	a5,zero,.L23
.LBB62:
	.loc 1 138 270
	li	a5,-2147483648
	addi	a5,a5,1440
	.loc 1 138 1149
	li	a4,1036288
	.loc 1 138 701
	li	s10,-2147479552
	.loc 1 138 1149
	li	s9,-2147479552
	.loc 1 138 270
	sw	a5,12(sp)
	.loc 1 138 1149
	addi	a5,a4,-1889
	.loc 1 138 701
	addi	s10,s10,-1760
	.loc 1 138 1149
	addi	s9,s9,-1632
	sw	a5,44(sp)
	sw	s1,48(sp)
	sw	s2,52(sp)
.LVL51:
.L22:
	.loc 1 138 3 is_stmt 1
	.loc 1 138 162
	.loc 1 138 178 is_stmt 0
	li	s0,-2147483648
	li	a5,1024
	sw	a5,800(s0)
	.loc 1 138 231 is_stmt 1
	.loc 1 138 247 is_stmt 0
	li	ra,-2147483648
	li	s7,3
	sw	s7,928(ra)
	.loc 1 138 253 is_stmt 1
	.loc 1 138 270 is_stmt 0
	lw	s5,12(sp)
	li	t5,4096
	addi	a4,t5,-1
	sw	a4,0(s5)
	.loc 1 138 338 is_stmt 1
	.loc 1 138 355 is_stmt 0
	li	t4,-2147479552
	sw	zero,-1248(t4)
	.loc 1 138 408 is_stmt 1
	.loc 1 138 425 is_stmt 0
	li	t2,-2147483648
	li	a4,64
	sw	a4,1696(t2)
	.loc 1 138 467 is_stmt 1
	.loc 1 138 484 is_stmt 0
	li	t0,-2147483648
	li	s6,15
	sw	s6,1824(t0)
	.loc 1 138 490 is_stmt 1
	.loc 1 138 507 is_stmt 0
	li	t6,-2147483648
	li	a3,1023
	sw	a3,1952(t6)
	.loc 1 138 564 is_stmt 1
	.loc 1 138 581 is_stmt 0
	li	t3,-2147479552
	sw	zero,-1120(t3)
	.loc 1 138 623 is_stmt 1
	.loc 1 138 640 is_stmt 0
	li	t1,-2147479552
	li	a0,8
	sw	a0,-2016(t1)
	.loc 1 138 661 is_stmt 1
	.loc 1 138 678 is_stmt 0
	li	a5,7
	li	a6,-2147479552
	sw	a5,-1888(a6)
	.loc 1 138 684 is_stmt 1
	.loc 1 138 701 is_stmt 0
	li	s4,63
	sw	s4,0(s10)
	.loc 1 138 747 is_stmt 1
	.loc 1 138 764 is_stmt 0
	li	a0,-2147479552
	sw	zero,-992(a0)
	.loc 1 138 785 is_stmt 1
	.loc 1 138 801 is_stmt 0
	li	a7,-2147483648
	li	s3,1
	sw	s3,1056(a7)
	.loc 1 138 812 is_stmt 1
	.loc 1 138 828 is_stmt 0
	li	a1,-2147483648
	sw	a5,672(a1)
	.loc 1 138 834 is_stmt 1
	.loc 1 138 851 is_stmt 0
	li	a2,-2147483648
	sw	a5,1568(a2)
	.loc 1 138 872 is_stmt 1
	.loc 1 138 889 is_stmt 0
	li	a3,-2147479552
	sw	zero,-864(a3)
	.loc 1 138 898 is_stmt 1
.LVL52:
	.loc 1 138 1030
	.loc 1 138 1046 is_stmt 0
	li	a4,-2147483648
	sw	zero,544(a4)
	.loc 1 138 1075 is_stmt 1
	.loc 1 138 1076
	.loc 1 138 1093 is_stmt 0
	li	s1,-2147479552
	sw	t5,-736(s1)
	.loc 1 138 1132 is_stmt 1
	.loc 1 138 1149 is_stmt 0
	lw	s2,44(sp)
.LBE62:
.LBB63:
	.loc 1 138 1348
	li	t5,511
.LBE63:
.LBB64:
	.loc 1 138 1149
	sw	s2,0(s9)
.LBE64:
.LBB65:
	.loc 1 138 1182 is_stmt 1
.LVL53:
	.loc 1 138 1297
	.loc 1 138 1314 is_stmt 0
	lw	s2,16(sp)
	sw	s2,-2016(t1)
.LVL54:
	.loc 1 138 1331 is_stmt 1
	.loc 1 138 1348 is_stmt 0
	sw	t5,-1888(a6)
	.loc 1 138 1354 is_stmt 1
	.loc 1 138 1371 is_stmt 0
	lw	s8,24(sp)
	sw	s8,0(s10)
	.loc 1 138 1398 is_stmt 1
	.loc 1 138 1415 is_stmt 0
	lw	s8,20(sp)
	sw	s8,-992(a0)
	.loc 1 138 1432 is_stmt 1
	.loc 1 138 1448 is_stmt 0
	sw	s3,1056(a7)
	.loc 1 138 1459 is_stmt 1
	.loc 1 138 1475 is_stmt 0
	sw	a5,672(a1)
	.loc 1 138 1481 is_stmt 1
	lw	t5,40(sp)
	sub	t5,t5,s11
	.loc 1 138 1498 is_stmt 0
	sw	t5,1568(a2)
	.loc 1 138 1515 is_stmt 1
	.loc 1 138 1532 is_stmt 0
	sw	s11,-864(a3)
	.loc 1 138 1541 is_stmt 1
.LVL55:
	.loc 1 138 1576
	.loc 1 138 1597 is_stmt 0
	lw	t5,28(sp)
	lw	s2,28(t5)
	add	t5,s11,s8
	.loc 1 138 1644
	li	s8,1036288
	.loc 1 138 1597
	add	t5,t5,s2
	.loc 1 138 1592
	sw	t5,544(a4)
	.loc 1 138 1626 is_stmt 1
	.loc 1 138 1627
	.loc 1 138 1644 is_stmt 0
	addi	s8,s8,157
.LBE65:
	.loc 1 138 1693
	li	s2,393216
.LBB66:
	.loc 1 138 1644
	sw	s8,0(s9)
.LBE66:
	.loc 1 138 1676 is_stmt 1
	.loc 1 138 1677
	.loc 1 138 1693 is_stmt 0
	li	t5,-2147483648
	addi	s2,s2,17
	sw	s2,20(t5)
.LBB67:
	.loc 1 138 1783 is_stmt 1
.LVL56:
	.loc 1 138 1855
	.loc 1 138 1872 is_stmt 0
	li	s8,4096
	sw	s8,-2016(t1)
	.loc 1 138 1884 is_stmt 1
	.loc 1 138 1901 is_stmt 0
	sw	s7,-1888(a6)
	.loc 1 138 1907 is_stmt 1
	.loc 1 138 1924 is_stmt 0
	lw	s8,32(sp)
.LBE67:
	.loc 1 136 27 discriminator 3
	addi	s11,s11,8
.LVL57:
.LBB68:
	.loc 1 138 1924
	sw	s8,0(s10)
	.loc 1 138 1945 is_stmt 1
	.loc 1 138 1962 is_stmt 0
	sw	zero,-992(a0)
	.loc 1 138 1974 is_stmt 1
	.loc 1 138 1990 is_stmt 0
	li	s8,256
	sw	s8,800(s0)
	.loc 1 138 2001 is_stmt 1
	.loc 1 138 2017 is_stmt 0
	sw	s6,928(ra)
	.loc 1 138 2023 is_stmt 1
	.loc 1 138 2040 is_stmt 0
	lw	s8,36(sp)
	sw	s5,12(sp)
	sw	s8,0(s5)
	.loc 1 138 2061 is_stmt 1
	.loc 1 138 2078 is_stmt 0
	sw	zero,-1248(t4)
	.loc 1 138 2089 is_stmt 1
	.loc 1 138 2105 is_stmt 0
	sw	a5,672(a1)
	.loc 1 138 2134 is_stmt 1
	.loc 1 138 2150 is_stmt 0
	li	s5,8
	sw	s5,1056(a7)
	.loc 1 138 2159 is_stmt 1
	.loc 1 138 2176 is_stmt 0
	sw	s4,1568(a2)
	.loc 1 138 2180 is_stmt 1
	.loc 1 138 2197 is_stmt 0
	sw	zero,-864(a3)
	.loc 1 138 2200 is_stmt 1
	.loc 1 138 2217 is_stmt 0
	sw	a5,1824(t0)
	.loc 1 138 2255 is_stmt 1
	.loc 1 138 2272 is_stmt 0
	sw	s3,1696(t2)
	.loc 1 138 2281 is_stmt 1
	.loc 1 138 2298 is_stmt 0
	sw	s4,1952(t6)
	.loc 1 138 2302 is_stmt 1
	.loc 1 138 2319 is_stmt 0
	sw	zero,-1120(t3)
	.loc 1 138 2322 is_stmt 1
	.loc 1 138 2338 is_stmt 0
	sw	zero,544(a4)
	.loc 1 138 2376 is_stmt 1
	.loc 1 138 2393 is_stmt 0
	li	s5,4096
	.loc 1 138 2496
	li	s8,1032192
	.loc 1 138 2393
	sw	s5,-736(s1)
	.loc 1 138 2479 is_stmt 1
	.loc 1 138 2496 is_stmt 0
	addi	s8,s8,1183
	sw	s8,0(s9)
.LBE68:
.LBB69:
	.loc 1 138 2529 is_stmt 1
.LVL58:
	.loc 1 138 2688
	.loc 1 138 2705 is_stmt 0
	li	s1,1024
	sw	s1,-2016(t1)
	.loc 1 138 2758 is_stmt 1
	.loc 1 138 2775 is_stmt 0
	sw	s7,-1888(a6)
	.loc 1 138 2781 is_stmt 1
	.loc 1 138 2798 is_stmt 0
	addi	a6,s5,-1
	sw	a6,0(s10)
	.loc 1 138 2866 is_stmt 1
	.loc 1 138 2883 is_stmt 0
	sw	zero,-992(a0)
	.loc 1 138 2936 is_stmt 1
	.loc 1 138 2952 is_stmt 0
	li	a0,64
	sw	a0,800(s0)
	.loc 1 138 2994 is_stmt 1
	.loc 1 138 3010 is_stmt 0
	sw	s6,928(ra)
	.loc 1 138 3016 is_stmt 1
	.loc 1 138 3033 is_stmt 0
	lw	s5,12(sp)
	li	a0,1023
	sw	a0,0(s5)
	.loc 1 138 3090 is_stmt 1
	.loc 1 138 3107 is_stmt 0
	sw	zero,-1248(t4)
	.loc 1 138 3149 is_stmt 1
	.loc 1 138 3166 is_stmt 0
	li	a0,8
	sw	a0,1696(t2)
	.loc 1 138 3187 is_stmt 1
	.loc 1 138 3204 is_stmt 0
	sw	a5,1824(t0)
	.loc 1 138 3210 is_stmt 1
	.loc 1 138 3227 is_stmt 0
	sw	s4,1952(t6)
	.loc 1 138 3273 is_stmt 1
	.loc 1 138 3290 is_stmt 0
	sw	zero,-1120(t3)
	.loc 1 138 3311 is_stmt 1
	.loc 1 138 3327 is_stmt 0
	sw	s3,1056(a7)
	.loc 1 138 3338 is_stmt 1
	.loc 1 138 3354 is_stmt 0
	sw	a5,672(a1)
	.loc 1 138 3360 is_stmt 1
	.loc 1 138 3377 is_stmt 0
	sw	a5,1568(a2)
	.loc 1 138 3398 is_stmt 1
	.loc 1 138 3415 is_stmt 0
	sw	zero,-864(a3)
	.loc 1 138 3424 is_stmt 1
.LVL59:
	.loc 1 138 3556
	.loc 1 138 3619 is_stmt 0
	li	a5,1036288
	.loc 1 138 3572
	sw	zero,544(a4)
	.loc 1 138 3601 is_stmt 1
	.loc 1 138 3602
	.loc 1 138 3619 is_stmt 0
	addi	a5,a5,-1891
	sw	a5,0(s9)
.LBE69:
	.loc 1 138 3651 is_stmt 1
	.loc 1 138 3652
	.loc 1 139 18 is_stmt 0
	li	a7,1015812096
	.loc 1 138 3668
	sw	s2,20(t5)
	.loc 1 139 1 is_stmt 1
	.loc 1 139 2
	.loc 1 139 18 is_stmt 0
	addi	a7,a7,1540
	.loc 1 140 10
	li	a5,-2147483648
	.loc 1 139 18
	sw	a7,20(t5)
	.loc 1 140 10 is_stmt 1
	sw	zero,36(a5)
	.loc 1 140 10
	call	_taskYield
.LVL60:
	.loc 1 140 24 discriminator 1
	.loc 1 136 27 discriminator 3
	.loc 1 136 17 discriminator 1
	lw	s2,16(sp)
	bgt	s2,s11,.L22
	lw	s1,48(sp)
	lw	s2,52(sp)
.LVL61:
.L23:
	.loc 1 142 1
	.loc 1 142 2
	.loc 1 142 18 is_stmt 0
	li	a4,1015816192
	addi	a4,a4,-252
	li	s0,-2147483648
	.loc 1 143 7
	li	a5,-2147483648
	.loc 1 142 18
	sw	a4,20(s0)
	.loc 1 143 7 is_stmt 1
	sw	zero,36(a5)
	.loc 1 143 7
	call	_taskYield
.LVL62:
	.loc 1 143 21 discriminator 1
.LBB70:
	.loc 1 147 3
	.loc 1 147 65
	.loc 1 147 81 is_stmt 0
	li	a1,-2147483648
	li	t5,1
	sw	t5,1056(a1)
	.loc 1 147 92 is_stmt 1
	.loc 1 147 108 is_stmt 0
	li	a0,-2147483648
	li	a5,511
	sw	a5,672(a0)
	.loc 1 147 114 is_stmt 1
	lw	a3,60(sp)
	.loc 1 147 131 is_stmt 0
	li	a4,-2147483648
	.loc 1 147 163
	li	a5,-2147479552
	sub	a3,a3,s1
	.loc 1 147 131
	sw	a3,1568(a4)
	.loc 1 147 146 is_stmt 1
	.loc 1 147 163 is_stmt 0
	sw	s1,-864(a5)
	.loc 1 147 172 is_stmt 1
.LVL63:
	.loc 1 147 191
	.loc 1 147 212 is_stmt 0
	lw	a3,28(sp)
	.loc 1 147 207
	li	a2,-2147483648
	.loc 1 147 259
	li	a7,-2147479552
	.loc 1 147 212
	lw	a3,24(a3)
	.loc 1 147 259
	li	t1,512
	.loc 1 147 294
	li	a6,1036288
	.loc 1 147 212
	add	a3,s1,a3
	.loc 1 147 207
	sw	a3,544(a2)
	.loc 1 147 241 is_stmt 1
	.loc 1 147 242
	.loc 1 147 259 is_stmt 0
	sw	t1,-736(a7)
	.loc 1 147 277 is_stmt 1
	.loc 1 147 294 is_stmt 0
	li	a3,-2147479552
	addi	a6,a6,159
	sw	a6,-1632(a3)
.LBE70:
.LBB71:
	.loc 1 147 327 is_stmt 1
.LVL64:
	.loc 1 147 399
	.loc 1 147 416 is_stmt 0
	li	a7,4096
	li	t4,-2147483648
	sw	a7,1696(t4)
	.loc 1 147 428 is_stmt 1
	.loc 1 147 445 is_stmt 0
	li	a6,-2147483648
	li	a7,3
	sw	a7,1824(a6)
	.loc 1 147 451 is_stmt 1
	.loc 1 147 468 is_stmt 0
	lw	a6,32(sp)
	li	t3,-2147483648
	.loc 1 147 506
	li	t1,-2147479552
	.loc 1 147 468
	sw	a6,1952(t3)
	.loc 1 147 489 is_stmt 1
	.loc 1 147 506 is_stmt 0
	sw	zero,-1120(t1)
	.loc 1 147 518 is_stmt 1
	.loc 1 147 535 is_stmt 0
	li	a7,-2147479552
	li	t6,256
	sw	t6,-2016(a7)
	.loc 1 147 546 is_stmt 1
	.loc 1 147 563 is_stmt 0
	li	a6,-2147479552
	li	t6,15
	sw	t6,-1888(a6)
	.loc 1 147 569 is_stmt 1
	.loc 1 147 586 is_stmt 0
	lw	t1,36(sp)
	li	a7,-2147479552
	.loc 1 147 624
	li	a6,-2147479552
	.loc 1 147 586
	sw	t1,-1760(a7)
	.loc 1 147 607 is_stmt 1
	.loc 1 147 624 is_stmt 0
	sw	zero,-992(a6)
	.loc 1 147 635 is_stmt 1
	.loc 1 147 651 is_stmt 0
	li	t6,7
	sw	t6,672(a0)
	.loc 1 147 680 is_stmt 1
	.loc 1 147 696 is_stmt 0
	sw	t5,1056(a1)
	.loc 1 147 705 is_stmt 1
	.loc 1 147 722 is_stmt 0
	sw	t6,1568(a4)
	.loc 1 147 725 is_stmt 1
	.loc 1 147 742 is_stmt 0
	sw	zero,-864(a5)
	.loc 1 147 745 is_stmt 1
	.loc 1 147 809 is_stmt 0
	li	a1,1032192
	.loc 1 147 761
	li	a0,64
	sw	a0,544(a2)
	.loc 1 147 792 is_stmt 1
	.loc 1 147 809 is_stmt 0
	addi	a1,a1,157
.LBE71:
	.loc 1 147 858
	li	a2,65536
.LBB72:
	.loc 1 147 809
	sw	a1,-1632(a3)
.LBE72:
	.loc 1 147 841 is_stmt 1
	.loc 1 147 842
	.loc 1 147 858 is_stmt 0
	addi	a2,a2,1
	sw	a2,20(s0)
	.loc 1 133 23 is_stmt 1 discriminator 2
	.loc 1 133 17 is_stmt 0 discriminator 1
	lw	a5,24(sp)
	.loc 1 133 23 discriminator 2
	addi	s1,s1,512
.LVL65:
	.loc 1 133 17 is_stmt 1 discriminator 1
	add	a5,a5,s2
	sw	a5,24(sp)
	lw	a5,20(sp)
	sub	a5,a5,s2
	sw	a5,20(sp)
	lw	a5,56(sp)
	bgt	a5,s1,.L21
	lw	s0,120(sp)
	.cfi_restore 8
	lw	s2,112(sp)
	.cfi_restore 18
	lw	s5,100(sp)
	.cfi_restore 21
	lw	s6,96(sp)
	.cfi_restore 22
	lw	s7,92(sp)
	.cfi_restore 23
	lw	s8,88(sp)
	.cfi_restore 24
	lw	s9,84(sp)
	.cfi_restore 25
	lw	s10,80(sp)
	.cfi_restore 26
	lw	s11,76(sp)
	.cfi_restore 27
.LVL66:
.L18:
	.loc 1 149 1 is_stmt 0
	lw	ra,124(sp)
	.cfi_restore 1
	lw	s1,116(sp)
	.cfi_restore 9
.LVL67:
	lw	s3,108(sp)
	.cfi_restore 19
	lw	s4,104(sp)
	.cfi_restore 20
	addi	sp,sp,128
	.cfi_def_cfa_offset 0
	jr	ra
	.cfi_endproc
.LFE9:
	.size	pooling, .-pooling
	.align	2
	.globl	kernel_concatenate_exe
	.type	kernel_concatenate_exe, @function
kernel_concatenate_exe:
.LFB10:
	.loc 1 162 1 is_stmt 1
	.cfi_startproc
.LVL68:
	.loc 1 163 4
	.loc 1 164 4
	.loc 1 165 4
	.loc 1 166 4
	.loc 1 167 4
	.loc 1 169 4
	.loc 1 162 1 is_stmt 0
	addi	sp,sp,-144
	.cfi_def_cfa_offset 144
	sw	s0,136(sp)
	.cfi_offset 8, -8
	mv	s0,a0
	.loc 1 169 4
	lui	a0,%hi(.LANCHOR0)
.LVL69:
	.loc 1 162 1
	sw	s3,124(sp)
	.loc 1 169 4
	addi	a0,a0,%lo(.LANCHOR0)
	.cfi_offset 19, -20
	.loc 1 162 1
	mv	s3,a1
	sw	ra,140(sp)
	sw	a2,28(sp)
	sw	a3,24(sp)
	sw	a4,20(sp)
	sw	a5,16(sp)
	.cfi_offset 1, -4
	.loc 1 169 4
	call	ztaInitPcore
.LVL70:
	.loc 1 171 4 is_stmt 1
	.loc 1 172 4
	.loc 1 172 14 discriminator 1
	ble	s3,zero,.L39
.LBB73:
	.loc 1 188 418 is_stmt 0
	li	a5,1032192
	addi	a5,a5,159
	lw	a3,20(sp)
	lw	a1,28(sp)
	lw	a2,24(sp)
	sw	a5,32(sp)
	lw	a5,16(sp)
	sw	s8,104(sp)
	sw	s9,100(sp)
	.cfi_offset 24, -40
	.cfi_offset 25, -44
	.loc 1 188 293
	li	s8,524288
	.loc 1 188 55
	li	s9,-2147479552
	.loc 1 188 107
	li	a4,16384
	.loc 1 188 55
	addi	s9,s9,-2016
	.loc 1 188 107
	addi	a4,a4,-1
	.loc 1 188 293
	addi	s8,s8,8
	sw	s1,132(sp)
	sw	s2,128(sp)
	sw	s4,120(sp)
	sw	s5,116(sp)
	sw	s6,112(sp)
	sw	s7,108(sp)
	sw	s10,96(sp)
	sw	s11,92(sp)
	.cfi_offset 9, -12
	.cfi_offset 18, -16
	.cfi_offset 20, -24
	.cfi_offset 21, -28
	.cfi_offset 22, -32
	.cfi_offset 23, -36
	.cfi_offset 26, -48
	.cfi_offset 27, -52
	li	s1,0
	li	s2,0
	.loc 1 188 107
	sw	a4,12(sp)
	sw	s0,76(sp)
	sw	s3,48(sp)
	sw	a1,52(sp)
	sw	a2,56(sp)
	sw	a3,60(sp)
	sw	a5,64(sp)
	sw	s9,16(sp)
.LVL71:
	sw	s8,20(sp)
.LVL72:
.L34:
.LBE73:
	.loc 1 173 7 is_stmt 1
	.loc 1 175 10 is_stmt 0
	lw	a5,60(sp)
	add	a5,a5,s1
	lw	a0,0(a5)
	.loc 1 173 10
	lw	a5,52(sp)
	add	a3,a5,s1
	.loc 1 174 15
	lw	a5,56(sp)
	.loc 1 173 10
	lw	a3,0(a3)
	.loc 1 174 15
	add	a4,a5,s1
	.loc 1 176 11
	lw	a5,64(sp)
	.loc 1 173 10
	sw	a3,24(sp)
.LVL73:
	.loc 1 174 7 is_stmt 1
	.loc 1 174 15 is_stmt 0
	lw	s0,0(a4)
.LVL74:
	.loc 1 175 7 is_stmt 1
	.loc 1 176 7
	.loc 1 176 11 is_stmt 0
	add	a5,a5,s1
	lw	a5,0(a5)
	sw	a5,28(sp)
.LVL75:
	.loc 1 177 7 is_stmt 1
	.loc 1 177 9 is_stmt 0
	bne	a0,zero,.L35
.LVL76:
	.loc 1 183 20 is_stmt 1
	ble	s0,zero,.L36
.LBB74:
	.loc 1 191 132 is_stmt 0
	addi	a5,s0,-1
.LVL77:
	sw	a5,36(sp)
.LBE74:
.LBB75:
	.loc 1 188 582
	li	a5,67108864
.LBE75:
.LBB76:
	.loc 1 188 84
	li	s7,-2147479552
	.loc 1 188 107
	li	s6,-2147479552
	.loc 1 188 152
	li	s5,-2147479552
	.loc 1 188 225
	li	t4,-2147483648
	.loc 1 188 251
	li	t3,-2147483648
	.loc 1 188 293
	li	t1,-2147483648
	.loc 1 188 418
	li	a7,-2147479552
.LBE76:
	.loc 1 188 745
	li	a6,-2147483648
	li	s4,393216
.LBB77:
	.loc 1 188 582
	addi	a5,a5,-1
.LBE77:
.LBB78:
	.loc 1 191 132
	li	t6,0
.LBE78:
.LBB79:
	.loc 1 188 84
	addi	s7,s7,-1888
	.loc 1 188 107
	addi	s6,s6,-1760
	.loc 1 188 152
	addi	s5,s5,-992
	.loc 1 188 225
	addi	t4,t4,1056
	li	t5,1
	.loc 1 188 251
	addi	t3,t3,1568
	.loc 1 188 293
	addi	t1,t1,544
	.loc 1 188 418
	addi	a7,a7,-1632
.LBE79:
.LBB80:
	.loc 1 188 582
	sw	a5,40(sp)
.LBE80:
	.loc 1 188 745
	addi	a6,a6,20
	addi	s4,s4,1
	sw	s1,44(sp)
	sw	s2,68(sp)
.LVL78:
.L37:
	.loc 1 184 10 is_stmt 1
	.loc 1 185 10
	.loc 1 186 10
.LBB81:
	.loc 1 188 582 is_stmt 0
	lw	a5,40(sp)
.LBE81:
.LBB82:
	.loc 1 188 180
	li	a1,-2147483648
	.loc 1 188 274
	li	a2,-2147479552
.LBE82:
.LBB83:
	.loc 1 188 582
	sub	s11,a5,t6
	.loc 1 188 654
	lw	a5,24(sp)
.LBE83:
.LBB84:
	.loc 1 188 355
	li	a0,-2147479552
.LBE84:
.LBB85:
	.loc 1 188 696
	li	s1,1036288
	.loc 1 188 654
	add	s10,t6,a5
.LBE85:
.LBB86:
	.loc 1 191 134
	lw	a5,36(sp)
.LBE86:
.LBB87:
	.loc 1 193 284
	li	t2,1036288
.LBE87:
.LBB88:
	.loc 1 193 669
	li	t0,1032192
.LBE88:
.LBB89:
	.loc 1 191 134
	sub	s9,a5,t6
	.loc 1 191 206
	lw	a5,28(sp)
.LBE89:
	.loc 1 186 12
	li	a4,1600
.LBB90:
	.loc 1 188 180
	addi	a1,a1,672
.LBE90:
.LBB91:
	.loc 1 191 206
	add	s8,t6,a5
.LBE91:
	.loc 1 185 14
	addi	a5,s0,7
	.loc 1 185 13
	andi	a5,a5,-8
.LBB92:
	.loc 1 188 274
	addi	a2,a2,-864
	.loc 1 188 355
	addi	a0,a0,-736
	mv	a3,t6
.LBE92:
.LBB93:
	.loc 1 188 696
	addi	s1,s1,157
.LBE93:
	.loc 1 189 18
	li	s2,88
.LBB94:
	.loc 1 193 284
	addi	t2,t2,159
.LBE94:
.LBB95:
	.loc 1 193 669
	addi	t0,t0,157
.LBE95:
	.loc 1 186 12
	ble	a5,a4,.L40
	li	a5,1600
.L40:
.LVL79:
.LBB96:
	.loc 1 188 3 is_stmt 1
	.loc 1 188 38
	.loc 1 188 55 is_stmt 0
	lw	a4,16(sp)
	li	s3,4096
.LBE96:
.LBB97:
	.loc 1 188 481
	add	t6,t6,a5
.LVL80:
.LBE97:
.LBB98:
	.loc 1 188 55
	sw	s3,0(a4)
	.loc 1 188 67 is_stmt 1
	.loc 1 188 84 is_stmt 0
	sw	zero,0(s7)
	.loc 1 188 90 is_stmt 1
	.loc 1 188 107 is_stmt 0
	lw	s3,12(sp)
	.loc 1 188 251
	li	a4,1599
.LBE98:
	.loc 1 197 17
	sub	s0,s0,a5
.LVL81:
.LBB99:
	.loc 1 188 107
	sw	s3,0(s6)
	.loc 1 188 135 is_stmt 1
	.loc 1 188 152 is_stmt 0
	sw	zero,0(s5)
	.loc 1 188 164 is_stmt 1
	.loc 1 188 205 is_stmt 0
	addi	s3,a5,-1
	.loc 1 188 180
	sw	s3,0(a1)
	.loc 1 188 209 is_stmt 1
	.loc 1 188 225 is_stmt 0
	sw	t5,0(t4)
	.loc 1 188 234 is_stmt 1
	.loc 1 188 251 is_stmt 0
	sw	a4,0(t3)
	.loc 1 188 257 is_stmt 1
	.loc 1 188 274 is_stmt 0
	sw	zero,0(a2)
	.loc 1 188 277 is_stmt 1
	.loc 1 188 293 is_stmt 0
	lw	a4,20(sp)
	sw	a4,0(t1)
	.loc 1 188 338 is_stmt 1
	.loc 1 188 355 is_stmt 0
	sw	a5,0(a0)
	.loc 1 188 401 is_stmt 1
	.loc 1 188 418 is_stmt 0
	lw	a4,32(sp)
	sw	a4,0(a7)
.LBE99:
.LBB100:
	.loc 1 188 451 is_stmt 1
.LVL82:
	.loc 1 188 473 is_stmt 0
	addi	a4,t6,-1
.LVL83:
	.loc 1 188 518
	sw	t5,0(t4)
	.loc 1 188 489
	sub	a4,a4,a3
.LVL84:
	.loc 1 188 502 is_stmt 1
	.loc 1 188 529
	.loc 1 188 545 is_stmt 0
	sw	a4,0(a1)
	.loc 1 188 551 is_stmt 1
	.loc 1 188 568 is_stmt 0
	sw	s11,0(t3)
	.loc 1 188 588 is_stmt 1
	.loc 1 188 605 is_stmt 0
	sw	a3,0(a2)
	.loc 1 188 614 is_stmt 1
.LVL85:
	.loc 1 188 633
	.loc 1 188 649 is_stmt 0
	sw	s10,0(t1)
.LVL86:
	.loc 1 188 678 is_stmt 1
	.loc 1 188 679
	.loc 1 188 696 is_stmt 0
	sw	s1,0(a7)
.LBE100:
	.loc 1 188 728 is_stmt 1
	.loc 1 188 729
	.loc 1 188 745 is_stmt 0
	sw	s4,0(a6)
	.loc 1 189 1 is_stmt 1
	.loc 1 189 2
	.loc 1 189 18 is_stmt 0
	sw	s2,0(a6)
	.loc 1 190 10 is_stmt 1
.LBB101:
	.loc 1 193 70 is_stmt 0
	sw	t5,0(t4)
	.loc 1 193 97
	sw	a4,0(a1)
	.loc 1 193 120
	sw	s9,0(t3)
	.loc 1 193 157
	sw	a3,0(a2)
	.loc 1 193 201
	sw	s8,0(t1)
.LBE101:
.LBB102:
	.loc 1 191 257
	addi	a4,a4,1
.LVL87:
.LBE102:
.LBB103:
	.loc 1 193 3 is_stmt 1
	.loc 1 193 54
	.loc 1 193 81
	.loc 1 193 103
	.loc 1 193 140
	.loc 1 193 166
	.loc 1 193 185
	.loc 1 193 231
	.loc 1 193 232
	.loc 1 193 249 is_stmt 0
	sw	a4,0(a0)
	.loc 1 193 267 is_stmt 1
	.loc 1 193 284 is_stmt 0
	sw	t2,0(a7)
.LBE103:
.LBB104:
	.loc 1 193 317 is_stmt 1
.LVL88:
	.loc 1 193 352
	.loc 1 193 369 is_stmt 0
	lw	a4,16(sp)
.LVL89:
	li	a3,4096
.LVL90:
	sw	a3,0(a4)
	.loc 1 193 381 is_stmt 1
	.loc 1 193 398 is_stmt 0
	sw	zero,0(s7)
	.loc 1 193 404 is_stmt 1
	.loc 1 193 421 is_stmt 0
	lw	a4,12(sp)
	sw	a4,0(s6)
	.loc 1 193 449 is_stmt 1
	.loc 1 193 466 is_stmt 0
	sw	zero,0(s5)
	.loc 1 193 478 is_stmt 1
	.loc 1 193 494 is_stmt 0
	sw	s3,0(a1)
	.loc 1 193 523 is_stmt 1
	.loc 1 193 539 is_stmt 0
	sw	t5,0(t4)
	.loc 1 193 548 is_stmt 1
	.loc 1 193 565 is_stmt 0
	li	a4,1599
	sw	a4,0(t3)
	.loc 1 193 571 is_stmt 1
	.loc 1 193 588 is_stmt 0
	sw	zero,0(a2)
	.loc 1 193 591 is_stmt 1
	.loc 1 193 607 is_stmt 0
	lw	a4,20(sp)
	sw	a4,0(t1)
	.loc 1 193 652 is_stmt 1
	.loc 1 193 669 is_stmt 0
	sw	t0,0(a7)
.LBE104:
	.loc 1 193 701 is_stmt 1
	.loc 1 193 702
	.loc 1 193 718 is_stmt 0
	sw	s4,0(a6)
	.loc 1 195 1 is_stmt 1
	.loc 1 195 2
	.loc 1 195 18 is_stmt 0
	sw	s2,0(a6)
	.loc 1 196 10 is_stmt 1
.LVL91:
	.loc 1 197 10
	.loc 1 183 20
	bgt	s0,zero,.L37
	lw	s1,44(sp)
	lw	s2,68(sp)
.LVL92:
.L36:
	.loc 1 172 21 discriminator 2
	.loc 1 172 14 is_stmt 0 discriminator 1
	lw	a5,48(sp)
	.loc 1 172 21 discriminator 2
	addi	s2,s2,1
.LVL93:
	.loc 1 172 14 is_stmt 1 discriminator 1
	addi	s1,s1,4
	bne	a5,s2,.L34
	lw	s0,76(sp)
.LVL94:
	lw	s1,132(sp)
	.cfi_restore 9
	lw	s2,128(sp)
	.cfi_restore 18
.LVL95:
	lw	s4,120(sp)
	.cfi_restore 20
	lw	s5,116(sp)
	.cfi_restore 21
	lw	s6,112(sp)
	.cfi_restore 22
	lw	s7,108(sp)
	.cfi_restore 23
	lw	s8,104(sp)
	.cfi_restore 24
	lw	s9,100(sp)
	.cfi_restore 25
	lw	s10,96(sp)
	.cfi_restore 26
	lw	s11,92(sp)
	.cfi_restore 27
.LVL96:
.L39:
	.loc 1 200 4
	mv	a0,s0
	.loc 1 201 1 is_stmt 0
	lw	s0,136(sp)
	.cfi_restore 8
	lw	ra,140(sp)
	.cfi_restore 1
	lw	s3,124(sp)
	.cfi_restore 19
	addi	sp,sp,144
	.cfi_def_cfa_offset 0
	.loc 1 200 4
	tail	ztaJobDone
.LVL97:
.L35:
	.cfi_def_cfa_offset 144
	.cfi_offset 1, -4
	.cfi_offset 8, -8
	.cfi_offset 9, -12
	.cfi_offset 18, -16
	.cfi_offset 19, -20
	.cfi_offset 20, -24
	.cfi_offset 21, -28
	.cfi_offset 22, -32
	.cfi_offset 23, -36
	.cfi_offset 24, -40
	.cfi_offset 25, -44
	.cfi_offset 26, -48
	.cfi_offset 27, -52
	.loc 1 179 10 is_stmt 1
	call	ztaInitStream
.LVL98:
	.loc 1 183 20
	ble	s0,zero,.L36
.LBB105:
	.loc 1 191 132 is_stmt 0
	addi	a5,s0,-1
	sw	a5,36(sp)
.LBE105:
.LBB106:
	.loc 1 188 582
	li	a5,67108864
	addi	a5,a5,-1
.LBE106:
	.loc 1 188 745
	li	a4,393216
.LBB107:
	.loc 1 188 84
	li	s6,-2147479552
	.loc 1 188 107
	li	s5,-2147479552
	.loc 1 188 152
	li	s7,-2147479552
	.loc 1 188 180
	li	t4,-2147483648
	.loc 1 188 225
	li	t3,-2147483648
	.loc 1 188 251
	li	t1,-2147483648
	.loc 1 188 293
	li	a7,-2147483648
	.loc 1 188 418
	li	a6,-2147479552
.LBE107:
	.loc 1 188 745
	li	a0,-2147483648
.LBB108:
	.loc 1 188 582
	sw	a5,40(sp)
.LBE108:
	.loc 1 188 745
	addi	a5,a4,1
.LBB109:
	.loc 1 191 132
	li	t6,0
.LBE109:
.LBB110:
	.loc 1 188 84
	addi	s6,s6,-1888
	.loc 1 188 107
	addi	s5,s5,-1760
	.loc 1 188 152
	addi	s7,s7,-992
	.loc 1 188 180
	addi	t4,t4,672
	.loc 1 188 225
	addi	t3,t3,1056
	li	t5,1
	.loc 1 188 251
	addi	t1,t1,1568
	.loc 1 188 293
	addi	a7,a7,544
	.loc 1 188 418
	addi	a6,a6,-1632
.LBE110:
	.loc 1 188 745
	addi	a0,a0,20
	sw	a5,44(sp)
	sw	s1,68(sp)
	sw	s2,72(sp)
.LVL99:
.L38:
	.loc 1 184 10 is_stmt 1
	.loc 1 185 10
	.loc 1 186 10
.LBB111:
	.loc 1 188 582 is_stmt 0
	lw	a5,40(sp)
.LBE111:
.LBB112:
	.loc 1 188 274
	li	a2,-2147479552
	.loc 1 188 355
	li	a1,-2147479552
.LBE112:
.LBB113:
	.loc 1 188 582
	sub	s11,a5,t6
	.loc 1 188 654
	lw	a5,24(sp)
	.loc 1 188 696
	li	s2,1036288
.LBE113:
.LBB114:
	.loc 1 191 284
	li	s1,1036288
.LBE114:
.LBB115:
	.loc 1 188 654
	add	s10,t6,a5
.LBE115:
.LBB116:
	.loc 1 191 134
	lw	a5,36(sp)
.LBE116:
.LBB117:
	.loc 1 191 669
	li	t2,1032192
.LBE117:
	.loc 1 191 718
	li	t0,65536
.LBB118:
	.loc 1 191 134
	sub	s9,a5,t6
	.loc 1 191 206
	lw	a5,28(sp)
.LBE118:
	.loc 1 186 12
	li	a4,1600
.LBB119:
	.loc 1 188 274
	addi	a2,a2,-864
.LBE119:
.LBB120:
	.loc 1 191 206
	add	s8,t6,a5
.LBE120:
	.loc 1 185 14
	addi	a5,s0,7
	.loc 1 185 13
	andi	a5,a5,-8
.LBB121:
	.loc 1 188 355
	addi	a1,a1,-736
	mv	a3,t6
.LBE121:
.LBB122:
	.loc 1 188 696
	addi	s2,s2,157
.LBE122:
	.loc 1 189 18
	li	s3,88
.LBB123:
	.loc 1 191 284
	addi	s1,s1,159
.LBE123:
.LBB124:
	.loc 1 191 669
	addi	t2,t2,157
.LBE124:
	.loc 1 191 718
	addi	t0,t0,1
	.loc 1 186 12
	ble	a5,a4,.L42
	li	a5,1600
.L42:
.LVL100:
.LBB125:
	.loc 1 188 3 is_stmt 1
	.loc 1 188 38
	.loc 1 188 55 is_stmt 0
	lw	a4,16(sp)
	li	s4,4096
.LBE125:
.LBB126:
	.loc 1 188 481
	add	t6,t6,a5
.LVL101:
.LBE126:
.LBB127:
	.loc 1 188 55
	sw	s4,0(a4)
	.loc 1 188 67 is_stmt 1
	.loc 1 188 84 is_stmt 0
	sw	zero,0(s6)
	.loc 1 188 90 is_stmt 1
	.loc 1 188 107 is_stmt 0
	lw	s4,12(sp)
	.loc 1 188 251
	li	a4,1599
.LBE127:
	.loc 1 197 17
	sub	s0,s0,a5
.LVL102:
.LBB128:
	.loc 1 188 107
	sw	s4,0(s5)
	.loc 1 188 135 is_stmt 1
	.loc 1 188 152 is_stmt 0
	sw	zero,0(s7)
	.loc 1 188 164 is_stmt 1
	.loc 1 188 205 is_stmt 0
	addi	s4,a5,-1
	.loc 1 188 180
	sw	s4,0(t4)
	.loc 1 188 209 is_stmt 1
	.loc 1 188 225 is_stmt 0
	sw	t5,0(t3)
	.loc 1 188 234 is_stmt 1
	.loc 1 188 251 is_stmt 0
	sw	a4,0(t1)
	.loc 1 188 257 is_stmt 1
	.loc 1 188 274 is_stmt 0
	sw	zero,0(a2)
	.loc 1 188 277 is_stmt 1
	.loc 1 188 293 is_stmt 0
	lw	a4,20(sp)
	sw	a4,0(a7)
	.loc 1 188 338 is_stmt 1
	.loc 1 188 355 is_stmt 0
	sw	a5,0(a1)
	.loc 1 188 401 is_stmt 1
	.loc 1 188 418 is_stmt 0
	lw	a4,32(sp)
	sw	a4,0(a6)
.LBE128:
.LBB129:
	.loc 1 188 451 is_stmt 1
.LVL103:
	.loc 1 188 473 is_stmt 0
	addi	a4,t6,-1
.LVL104:
	.loc 1 188 518
	sw	t5,0(t3)
	.loc 1 188 489
	sub	a4,a4,a3
.LVL105:
	.loc 1 188 502 is_stmt 1
	.loc 1 188 529
	.loc 1 188 545 is_stmt 0
	sw	a4,0(t4)
	.loc 1 188 551 is_stmt 1
	.loc 1 188 568 is_stmt 0
	sw	s11,0(t1)
	.loc 1 188 588 is_stmt 1
	.loc 1 188 605 is_stmt 0
	sw	a3,0(a2)
	.loc 1 188 614 is_stmt 1
.LVL106:
	.loc 1 188 633
	.loc 1 188 649 is_stmt 0
	sw	s10,0(a7)
.LVL107:
	.loc 1 188 678 is_stmt 1
	.loc 1 188 679
	.loc 1 188 696 is_stmt 0
	sw	s2,0(a6)
.LBE129:
	.loc 1 188 728 is_stmt 1
	.loc 1 188 729
	.loc 1 188 745 is_stmt 0
	lw	s2,44(sp)
	sw	s2,0(a0)
	.loc 1 189 1 is_stmt 1
	.loc 1 189 2
	.loc 1 189 18 is_stmt 0
	sw	s3,0(a0)
	.loc 1 190 10 is_stmt 1
.LBB130:
	.loc 1 191 70 is_stmt 0
	sw	t5,0(t3)
	.loc 1 191 97
	sw	a4,0(t4)
	.loc 1 191 120
	sw	s9,0(t1)
	.loc 1 191 157
	sw	a3,0(a2)
	.loc 1 191 201
	sw	s8,0(a7)
	.loc 1 191 257
	addi	a4,a4,1
.LVL108:
	.loc 1 191 3 is_stmt 1
	.loc 1 191 54
	.loc 1 191 81
	.loc 1 191 103
	.loc 1 191 140
	.loc 1 191 166
	.loc 1 191 185
	.loc 1 191 231
	.loc 1 191 232
	.loc 1 191 249 is_stmt 0
	sw	a4,0(a1)
	.loc 1 191 267 is_stmt 1
	.loc 1 191 284 is_stmt 0
	sw	s1,0(a6)
.LBE130:
.LBB131:
	.loc 1 191 317 is_stmt 1
.LVL109:
	.loc 1 191 352
	.loc 1 191 369 is_stmt 0
	lw	a4,16(sp)
.LVL110:
	li	a3,4096
.LVL111:
	sw	a3,0(a4)
	.loc 1 191 381 is_stmt 1
	.loc 1 191 398 is_stmt 0
	sw	zero,0(s6)
	.loc 1 191 404 is_stmt 1
	.loc 1 191 421 is_stmt 0
	lw	a4,12(sp)
	sw	a4,0(s5)
	.loc 1 191 449 is_stmt 1
	.loc 1 191 466 is_stmt 0
	sw	zero,0(s7)
	.loc 1 191 478 is_stmt 1
	.loc 1 191 494 is_stmt 0
	sw	s4,0(t4)
	.loc 1 191 523 is_stmt 1
	.loc 1 191 539 is_stmt 0
	sw	t5,0(t3)
	.loc 1 191 548 is_stmt 1
	.loc 1 191 565 is_stmt 0
	li	a4,1599
	sw	a4,0(t1)
	.loc 1 191 571 is_stmt 1
	.loc 1 191 588 is_stmt 0
	sw	zero,0(a2)
	.loc 1 191 591 is_stmt 1
	.loc 1 191 607 is_stmt 0
	lw	a4,20(sp)
	sw	a4,0(a7)
	.loc 1 191 652 is_stmt 1
	.loc 1 191 669 is_stmt 0
	sw	t2,0(a6)
.LBE131:
	.loc 1 191 701 is_stmt 1
	.loc 1 191 702
	.loc 1 191 718 is_stmt 0
	sw	t0,0(a0)
	.loc 1 195 1 is_stmt 1
	.loc 1 195 2
	.loc 1 195 18 is_stmt 0
	sw	s3,0(a0)
	.loc 1 196 10 is_stmt 1
.LVL112:
	.loc 1 197 10
	.loc 1 183 20
	bgt	s0,zero,.L38
	lw	s1,68(sp)
	lw	s2,72(sp)
	j	.L36
	.cfi_endproc
.LFE10:
	.size	kernel_concatenate_exe, .-kernel_concatenate_exe
	.align	2
	.globl	kernel_logistic_exe
	.type	kernel_logistic_exe, @function
kernel_logistic_exe:
.LFB11:
	.loc 1 211 3
	.cfi_startproc
.LVL113:
	.loc 1 212 4
	.loc 1 213 4
	.loc 1 214 4
	.loc 1 215 4
	.loc 1 216 4
	.loc 1 218 4
	.loc 1 211 3 is_stmt 0
	addi	sp,sp,-112
	.cfi_def_cfa_offset 112
	sw	s1,100(sp)
	.cfi_offset 9, -12
	mv	s1,a0
	.loc 1 218 4
	lui	a0,%hi(.LANCHOR0)
.LVL114:
	addi	a0,a0,%lo(.LANCHOR0)
	.loc 1 211 3
	sw	ra,108(sp)
	sw	s0,104(sp)
	sw	s2,96(sp)
	.cfi_offset 1, -4
	.cfi_offset 8, -8
	.cfi_offset 18, -16
	mv	s0,a1
	mv	s2,a4
	sw	a2,24(sp)
	sw	a3,28(sp)
	.loc 1 218 4
	call	ztaInitPcore
.LVL115:
	.loc 1 219 4 is_stmt 1
	mv	a0,s2
	call	ztaInitStream
.LVL116:
	.loc 1 221 4
	.loc 1 222 4
	.loc 1 223 4
	.loc 1 225 4
	.loc 1 226 4
	.loc 1 227 4
	.loc 1 227 17
.LBB132:
	.loc 1 234 132 is_stmt 0
	addi	a5,s0,-1
	sw	a5,20(sp)
.LBE132:
	.loc 1 227 17
	ble	s0,zero,.L53
.LBB133:
	.loc 1 232 107
	li	a5,16384
	.loc 1 232 418
	li	a4,1032192
	sw	s11,60(sp)
	.cfi_offset 27, -52
	.loc 1 232 107
	addi	s11,a5,-1
	.loc 1 232 418
	addi	a5,a4,159
	sw	a5,32(sp)
.LBE133:
.LBB134:
	.loc 1 232 582
	li	a5,67108864
	addi	a5,a5,-1
	sw	s5,84(sp)
.LBE134:
	.loc 1 232 745
	li	a3,196608
	.cfi_offset 21, -28
.LBB135:
	.loc 1 232 107
	li	s5,-2147479552
	addi	s5,s5,-1760
	sw	s7,76(sp)
.LBE135:
.LBB136:
	.loc 1 232 582
	sw	a5,36(sp)
	.cfi_offset 23, -36
.LBE136:
.LBB137:
	.loc 1 232 55
	li	s7,-2147479552
.LBE137:
	.loc 1 232 745
	addi	a5,a3,1
.LBB138:
	.loc 1 232 55
	addi	s7,s7,-2016
	sw	s6,80(sp)
	sw	s8,72(sp)
	sw	s10,64(sp)
	.cfi_offset 22, -32
	.cfi_offset 24, -40
	.cfi_offset 26, -48
	.loc 1 232 84
	li	s6,-2147479552
	.loc 1 232 152
	li	s10,-2147479552
	.loc 1 232 180
	li	t4,-2147483648
	.loc 1 232 225
	li	t3,-2147483648
	.loc 1 232 251
	li	t1,-2147483648
	.loc 1 232 293
	li	a7,-2147483648
	li	s8,524288
	.loc 1 232 418
	li	a6,-2147479552
.LBE138:
	.loc 1 232 745
	li	a1,-2147483648
	sw	a5,40(sp)
	mv	a5,s5
	sw	s9,68(sp)
	mv	s5,s7
	sw	s3,92(sp)
	sw	s4,88(sp)
	.cfi_offset 25, -44
	.cfi_offset 19, -20
	.cfi_offset 20, -24
	li	t5,0
.LBB139:
	.loc 1 232 84
	addi	s6,s6,-1888
	.loc 1 232 152
	addi	s10,s10,-992
	.loc 1 232 180
	addi	t4,t4,672
	.loc 1 232 225
	addi	t3,t3,1056
	li	t6,1
	.loc 1 232 251
	addi	t1,t1,1568
	li	s9,1599
	.loc 1 232 293
	addi	a7,a7,544
	addi	s8,s8,8
	.loc 1 232 418
	addi	a6,a6,-1632
.LBE139:
	.loc 1 232 745
	addi	a1,a1,20
	sw	s1,44(sp)
	mv	s7,a5
.LVL117:
.L52:
	.loc 1 228 7 is_stmt 1
	.loc 1 229 7
	.loc 1 230 7
.LBB140:
	.loc 1 232 582 is_stmt 0
	lw	a5,36(sp)
.LBE140:
.LBB141:
	.loc 1 232 274
	li	a2,-2147479552
	.loc 1 232 355
	li	a0,-2147479552
.LBE141:
.LBB142:
	.loc 1 232 582
	sub	a5,a5,t5
	mv	s3,a5
	.loc 1 232 654
	lw	a5,24(sp)
	.loc 1 232 696
	li	s2,1036288
.LBE142:
.LBB143:
	.loc 1 234 284
	li	s1,1036288
.LBE143:
.LBB144:
	.loc 1 232 654
	add	a5,t5,a5
	sw	a5,8(sp)
.LBE144:
.LBB145:
	.loc 1 234 134
	lw	a5,20(sp)
.LBE145:
.LBB146:
	.loc 1 234 669
	li	t2,1032192
.LBE146:
	.loc 1 234 718
	li	t0,65536
.LBB147:
	.loc 1 234 134
	sub	a5,a5,t5
	sw	a5,12(sp)
	.loc 1 234 206
	lw	a5,28(sp)
.LBE147:
	.loc 1 230 9
	li	a4,1600
.LBB148:
	.loc 1 232 274
	addi	a2,a2,-864
.LBE148:
.LBB149:
	.loc 1 234 206
	add	a5,t5,a5
	sw	a5,16(sp)
.LBE149:
	.loc 1 229 11
	addi	a5,s0,7
	.loc 1 229 10
	andi	a5,a5,-8
.LBB150:
	.loc 1 232 355
	addi	a0,a0,-736
	mv	a3,t5
.LBE150:
.LBB151:
	.loc 1 232 696
	addi	s2,s2,157
.LBE151:
.LBB152:
	.loc 1 234 284
	addi	s1,s1,159
.LBE152:
.LBB153:
	.loc 1 234 669
	addi	t2,t2,157
.LBE153:
	.loc 1 234 718
	addi	t0,t0,1
	.loc 1 230 9
	ble	a5,a4,.L51
	li	a5,1600
.L51:
.LVL118:
.LBB154:
	.loc 1 232 3 is_stmt 1
	.loc 1 232 38
	.loc 1 232 55 is_stmt 0
	li	a4,4096
	sw	a4,0(s5)
	.loc 1 232 67 is_stmt 1
	.loc 1 232 84 is_stmt 0
	sw	zero,0(s6)
	.loc 1 232 90 is_stmt 1
	.loc 1 232 107 is_stmt 0
	sw	s11,0(s7)
	.loc 1 232 135 is_stmt 1
	.loc 1 232 152 is_stmt 0
	sw	zero,0(s10)
	.loc 1 232 164 is_stmt 1
	.loc 1 232 205 is_stmt 0
	addi	s4,a5,-1
	.loc 1 232 180
	sw	s4,0(t4)
	.loc 1 232 209 is_stmt 1
	.loc 1 232 225 is_stmt 0
	sw	t6,0(t3)
	.loc 1 232 234 is_stmt 1
	.loc 1 232 251 is_stmt 0
	sw	s9,0(t1)
	.loc 1 232 257 is_stmt 1
	.loc 1 232 274 is_stmt 0
	sw	zero,0(a2)
	.loc 1 232 277 is_stmt 1
	.loc 1 232 293 is_stmt 0
	sw	s8,0(a7)
	.loc 1 232 338 is_stmt 1
	.loc 1 232 355 is_stmt 0
	sw	a5,0(a0)
	.loc 1 232 401 is_stmt 1
	.loc 1 232 418 is_stmt 0
	lw	a4,32(sp)
.LBE154:
.LBB155:
	.loc 1 232 481
	add	t5,t5,a5
.LVL119:
.LBE155:
	.loc 1 237 14
	sub	s0,s0,a5
.LVL120:
.LBB156:
	.loc 1 232 418
	sw	a4,0(a6)
.LBE156:
.LBB157:
	.loc 1 232 451 is_stmt 1
.LVL121:
	.loc 1 232 473 is_stmt 0
	addi	a4,t5,-1
.LVL122:
	.loc 1 232 518
	sw	t6,0(t3)
	.loc 1 232 489
	sub	a4,a4,a3
.LVL123:
	.loc 1 232 502 is_stmt 1
	.loc 1 232 529
	.loc 1 232 545 is_stmt 0
	sw	a4,0(t4)
	.loc 1 232 551 is_stmt 1
	.loc 1 232 568 is_stmt 0
	sw	s3,0(t1)
	.loc 1 232 588 is_stmt 1
	.loc 1 232 605 is_stmt 0
	sw	a3,0(a2)
	.loc 1 232 614 is_stmt 1
.LVL124:
	.loc 1 232 633
	.loc 1 232 649 is_stmt 0
	lw	s3,8(sp)
	sw	s3,0(a7)
.LVL125:
	.loc 1 232 678 is_stmt 1
	.loc 1 232 679
	.loc 1 232 696 is_stmt 0
	sw	s2,0(a6)
.LBE157:
	.loc 1 232 728 is_stmt 1
	.loc 1 232 729
	.loc 1 232 745 is_stmt 0
	lw	s2,40(sp)
	.loc 1 233 18
	li	s3,88
	.loc 1 232 745
	sw	s2,0(a1)
	.loc 1 233 1 is_stmt 1
	.loc 1 233 2
	.loc 1 233 18 is_stmt 0
	sw	s3,0(a1)
.LBB158:
	.loc 1 234 3 is_stmt 1
.LVL126:
	.loc 1 234 54
	.loc 1 234 70 is_stmt 0
	sw	t6,0(t3)
	.loc 1 234 81 is_stmt 1
	.loc 1 234 97 is_stmt 0
	sw	a4,0(t4)
	.loc 1 234 103 is_stmt 1
	.loc 1 234 120 is_stmt 0
	lw	s2,12(sp)
	.loc 1 234 257
	addi	a4,a4,1
.LVL127:
	.loc 1 234 120
	sw	s2,0(t1)
.LVL128:
	.loc 1 234 140 is_stmt 1
	.loc 1 234 157 is_stmt 0
	sw	a3,0(a2)
	.loc 1 234 166 is_stmt 1
.LVL129:
	.loc 1 234 185
	.loc 1 234 201 is_stmt 0
	lw	a3,16(sp)
.LVL130:
	sw	a3,0(a7)
.LVL131:
	.loc 1 234 231 is_stmt 1
	.loc 1 234 232
	.loc 1 234 249 is_stmt 0
	sw	a4,0(a0)
	.loc 1 234 267 is_stmt 1
	.loc 1 234 284 is_stmt 0
	sw	s1,0(a6)
.LBE158:
.LBB159:
	.loc 1 234 317 is_stmt 1
.LVL132:
	.loc 1 234 352
	.loc 1 234 369 is_stmt 0
	li	a4,4096
.LVL133:
	sw	a4,0(s5)
	.loc 1 234 381 is_stmt 1
	.loc 1 234 398 is_stmt 0
	sw	zero,0(s6)
	.loc 1 234 404 is_stmt 1
	.loc 1 234 421 is_stmt 0
	sw	s11,0(s7)
	.loc 1 234 449 is_stmt 1
	.loc 1 234 466 is_stmt 0
	sw	zero,0(s10)
	.loc 1 234 478 is_stmt 1
	.loc 1 234 494 is_stmt 0
	sw	s4,0(t4)
	.loc 1 234 523 is_stmt 1
	.loc 1 234 539 is_stmt 0
	sw	t6,0(t3)
	.loc 1 234 548 is_stmt 1
	.loc 1 234 565 is_stmt 0
	sw	s9,0(t1)
	.loc 1 234 571 is_stmt 1
	.loc 1 234 588 is_stmt 0
	sw	zero,0(a2)
	.loc 1 234 591 is_stmt 1
	.loc 1 234 607 is_stmt 0
	sw	s8,0(a7)
	.loc 1 234 652 is_stmt 1
	.loc 1 234 669 is_stmt 0
	sw	t2,0(a6)
.LBE159:
	.loc 1 234 701 is_stmt 1
	.loc 1 234 702
	.loc 1 234 718 is_stmt 0
	sw	t0,0(a1)
	.loc 1 235 1 is_stmt 1
	.loc 1 235 2
	.loc 1 235 18 is_stmt 0
	sw	s3,0(a1)
	.loc 1 236 7 is_stmt 1
.LVL134:
	.loc 1 237 7
	.loc 1 227 17
	bgt	s0,zero,.L52
	lw	s1,44(sp)
	lw	s3,92(sp)
	.cfi_restore 19
	lw	s4,88(sp)
	.cfi_restore 20
	lw	s5,84(sp)
	.cfi_restore 21
	lw	s6,80(sp)
	.cfi_restore 22
	lw	s7,76(sp)
	.cfi_restore 23
	lw	s8,72(sp)
	.cfi_restore 24
	lw	s9,68(sp)
	.cfi_restore 25
	lw	s10,64(sp)
	.cfi_restore 26
	lw	s11,60(sp)
	.cfi_restore 27
.LVL135:
.L53:
	.loc 1 239 4
	.loc 1 240 1 is_stmt 0
	lw	s0,104(sp)
	.cfi_restore 8
.LVL136:
	lw	ra,108(sp)
	.cfi_restore 1
	lw	s2,96(sp)
	.cfi_restore 18
	.loc 1 239 4
	mv	a0,s1
	.loc 1 240 1
	lw	s1,100(sp)
	.cfi_restore 9
	addi	sp,sp,112
	.cfi_def_cfa_offset 0
	.loc 1 239 4
	tail	ztaJobDone
.LVL137:
	.cfi_endproc
.LFE11:
	.size	kernel_logistic_exe, .-kernel_logistic_exe
	.align	2
	.globl	kernel_innerProduct_exe
	.type	kernel_innerProduct_exe, @function
kernel_innerProduct_exe:
.LFB12:
	.loc 1 260 1 is_stmt 1
	.cfi_startproc
.LVL138:
	.loc 1 261 4
	.loc 1 263 4
	.loc 1 260 1 is_stmt 0
	addi	sp,sp,-112
	.cfi_def_cfa_offset 112
	sw	s0,104(sp)
	sw	s6,80(sp)
	.cfi_offset 8, -8
	.cfi_offset 22, -32
	mv	s0,a0
	lw	s6,120(sp)
	.loc 1 263 4
	lui	a0,%hi(.LANCHOR0)
.LVL139:
	addi	a0,a0,%lo(.LANCHOR0)
	.loc 1 260 1
	sw	ra,108(sp)
	sw	s1,100(sp)
	sw	s2,96(sp)
	sw	s3,92(sp)
	sw	s4,88(sp)
	sw	s5,84(sp)
	sw	s7,76(sp)
	sw	s8,72(sp)
	sw	s9,68(sp)
	sw	s10,64(sp)
	.cfi_offset 1, -4
	.cfi_offset 9, -12
	.cfi_offset 18, -16
	.cfi_offset 19, -20
	.cfi_offset 20, -24
	.cfi_offset 21, -28
	.cfi_offset 23, -36
	.cfi_offset 24, -40
	.cfi_offset 25, -44
	.cfi_offset 26, -48
	.loc 1 260 1
	mv	s9,a2
	mv	s8,a3
	mv	s7,a4
	mv	s2,a6
	mv	s1,a7
	lw	s5,128(sp)
	lw	s4,132(sp)
	mv	s10,a1
	mv	s3,a5
	.loc 1 263 4
	call	ztaInitPcore
.LVL140:
	.loc 1 264 4 is_stmt 1
	mv	a0,s6
	call	ztaInitStream
.LVL141:
	.loc 1 266 4
	.loc 1 279 24 is_stmt 0
	mul	t1,s5,s4
	.loc 1 273 18
	lw	a5,112(sp)
	.loc 1 281 4
	lui	a0,%hi(innerProduct)
	mv	a1,sp
	.loc 1 273 18
	sw	a5,36(sp)
	.loc 1 274 18
	lw	a5,116(sp)
	.loc 1 281 4
	addi	a0,a0,%lo(innerProduct)
	.loc 1 266 12
	sw	s10,0(sp)
	.loc 1 267 4 is_stmt 1
	.loc 1 274 18 is_stmt 0
	sw	a5,40(sp)
	.loc 1 276 17
	lw	a5,124(sp)
	.loc 1 279 39
	slli	t1,t1,3
	.loc 1 267 14
	sw	s9,4(sp)
	.loc 1 268 4 is_stmt 1
	.loc 1 268 14 is_stmt 0
	sw	s8,8(sp)
	.loc 1 269 4 is_stmt 1
	.loc 1 269 11 is_stmt 0
	sw	s7,12(sp)
	.loc 1 270 4 is_stmt 1
	.loc 1 270 11 is_stmt 0
	sw	s3,16(sp)
	.loc 1 271 4 is_stmt 1
	.loc 1 271 14 is_stmt 0
	sw	s2,20(sp)
	.loc 1 272 4 is_stmt 1
	.loc 1 272 14 is_stmt 0
	sw	s1,28(sp)
	.loc 1 273 4 is_stmt 1
	.loc 1 274 4
	.loc 1 275 4
	.loc 1 275 14 is_stmt 0
	sw	s6,52(sp)
	.loc 1 276 4 is_stmt 1
	.loc 1 276 17 is_stmt 0
	sw	a5,48(sp)
	.loc 1 277 4 is_stmt 1
	.loc 1 277 17 is_stmt 0
	sw	s5,60(sp)
	.loc 1 278 4 is_stmt 1
	.loc 1 278 18 is_stmt 0
	sw	s4,56(sp)
	.loc 1 279 4 is_stmt 1
	.loc 1 279 10 is_stmt 0
	sw	t1,44(sp)
	.loc 1 281 4 is_stmt 1
	call	ztaDualHartExecute
.LVL142:
	.loc 1 283 4
	mv	a0,s0
	call	ztaJobDone
.LVL143:
	.loc 1 284 1 is_stmt 0
	lw	ra,108(sp)
	.cfi_restore 1
	lw	s0,104(sp)
	.cfi_restore 8
.LVL144:
	lw	s1,100(sp)
	.cfi_restore 9
.LVL145:
	lw	s2,96(sp)
	.cfi_restore 18
.LVL146:
	lw	s3,92(sp)
	.cfi_restore 19
.LVL147:
	lw	s4,88(sp)
	.cfi_restore 20
	lw	s5,84(sp)
	.cfi_restore 21
	lw	s6,80(sp)
	.cfi_restore 22
	lw	s7,76(sp)
	.cfi_restore 23
.LVL148:
	lw	s8,72(sp)
	.cfi_restore 24
.LVL149:
	lw	s9,68(sp)
	.cfi_restore 25
.LVL150:
	lw	s10,64(sp)
	.cfi_restore 26
.LVL151:
	addi	sp,sp,112
	.cfi_def_cfa_offset 0
.LVL152:
	jr	ra
	.cfi_endproc
.LFE12:
	.size	kernel_innerProduct_exe, .-kernel_innerProduct_exe
	.align	2
	.globl	kernel_Pooling_exe
	.type	kernel_Pooling_exe, @function
kernel_Pooling_exe:
.LFB13:
	.loc 1 301 1 is_stmt 1
	.cfi_startproc
.LVL153:
	.loc 1 302 4
	.loc 1 304 4
	.loc 1 301 1 is_stmt 0
	addi	sp,sp,-96
	.cfi_def_cfa_offset 96
	sw	s0,88(sp)
	sw	s6,64(sp)
	.cfi_offset 8, -8
	.cfi_offset 22, -32
	mv	s0,a0
	lw	s6,100(sp)
	.loc 1 304 4
	lui	a0,%hi(.LANCHOR0)
.LVL154:
	addi	a0,a0,%lo(.LANCHOR0)
	.loc 1 301 1
	sw	ra,92(sp)
	sw	s1,84(sp)
	sw	s2,80(sp)
	sw	s3,76(sp)
	sw	s4,72(sp)
	sw	s5,68(sp)
	sw	s7,60(sp)
	sw	s8,56(sp)
	.cfi_offset 1, -4
	.cfi_offset 9, -12
	.cfi_offset 18, -16
	.cfi_offset 19, -20
	.cfi_offset 20, -24
	.cfi_offset 21, -28
	.cfi_offset 23, -36
	.cfi_offset 24, -40
	.loc 1 301 1
	mv	s7,a2
	mv	s5,a3
	mv	s4,a4
	mv	s2,a6
	mv	s1,a7
	mv	s8,a1
	mv	s3,a5
	.loc 1 304 4
	call	ztaInitPcore
.LVL155:
	.loc 1 305 4 is_stmt 1
	mv	a0,s6
	call	ztaInitStream
.LVL156:
	.loc 1 307 4
	.loc 1 314 14 is_stmt 0
	lw	a5,96(sp)
	.loc 1 318 4
	lui	a0,%hi(pooling)
	addi	a1,sp,8
	.loc 1 314 14
	sw	a5,20(sp)
	.loc 1 316 20
	lw	a5,104(sp)
	.loc 1 318 4
	addi	a0,a0,%lo(pooling)
	.loc 1 307 11
	sw	s8,36(sp)
	.loc 1 308 4 is_stmt 1
	.loc 1 308 11 is_stmt 0
	sw	s7,32(sp)
	.loc 1 309 4 is_stmt 1
	.loc 1 309 11 is_stmt 0
	sw	s5,24(sp)
	.loc 1 310 4 is_stmt 1
	.loc 1 310 14 is_stmt 0
	sw	s4,28(sp)
	.loc 1 311 4 is_stmt 1
	.loc 1 311 14 is_stmt 0
	sw	s3,8(sp)
	.loc 1 312 4 is_stmt 1
	.loc 1 312 14 is_stmt 0
	sw	s2,12(sp)
	.loc 1 313 4 is_stmt 1
	.loc 1 313 14 is_stmt 0
	sw	s1,16(sp)
	.loc 1 314 4 is_stmt 1
	.loc 1 315 4
	.loc 1 315 14 is_stmt 0
	sw	s6,44(sp)
	.loc 1 316 4 is_stmt 1
	.loc 1 316 20 is_stmt 0
	sw	a5,40(sp)
	.loc 1 318 4 is_stmt 1
	call	ztaDualHartExecute
.LVL157:
	.loc 1 320 4
	mv	a0,s0
	call	ztaJobDone
.LVL158:
	.loc 1 321 1 is_stmt 0
	lw	ra,92(sp)
	.cfi_restore 1
	lw	s0,88(sp)
	.cfi_restore 8
.LVL159:
	lw	s1,84(sp)
	.cfi_restore 9
.LVL160:
	lw	s2,80(sp)
	.cfi_restore 18
.LVL161:
	lw	s3,76(sp)
	.cfi_restore 19
.LVL162:
	lw	s4,72(sp)
	.cfi_restore 20
.LVL163:
	lw	s5,68(sp)
	.cfi_restore 21
.LVL164:
	lw	s6,64(sp)
	.cfi_restore 22
	lw	s7,60(sp)
	.cfi_restore 23
.LVL165:
	lw	s8,56(sp)
	.cfi_restore 24
.LVL166:
	addi	sp,sp,96
	.cfi_def_cfa_offset 0
.LVL167:
	jr	ra
	.cfi_endproc
.LFE13:
	.size	kernel_Pooling_exe, .-kernel_Pooling_exe
	.data
	.align	2
	.set	.LANCHOR0,. + 0
	.type	zta_pcore_img, @object
	.size	zta_pcore_img, 588
zta_pcore_img:
	.half	576
	.half	72
	.half	4104
	.half	1044
	.half	5668
	.half	0
	.half	1034
	.half	0
	.half	0
	.half	72
	.half	8
	.half	0
	.half	0
	.half	3440
	.half	0
	.half	2048
	.half	0
	.half	76
	.half	3080
	.half	1045
	.half	612
	.half	0
	.half	9
	.half	0
	.half	0
	.half	72
	.half	-23544
	.half	1045
	.half	32
	.half	0
	.half	9
	.half	0
	.half	0
	.half	72
	.half	-23544
	.half	1045
	.half	32
	.half	0
	.half	9
	.half	0
	.half	0
	.half	72
	.half	-23544
	.half	1045
	.half	32
	.half	0
	.half	9
	.half	0
	.half	0
	.half	72
	.half	-23544
	.half	1045
	.half	32
	.half	0
	.half	9
	.half	0
	.half	0
	.half	72
	.half	-23544
	.half	1045
	.half	96
	.half	0
	.half	9
	.half	0
	.half	0
	.half	76
	.half	-13304
	.half	81
	.half	676
	.half	0
	.half	9
	.half	2048
	.half	0
	.half	72
	.half	-13304
	.half	19
	.half	546
	.half	0
	.half	9
	.half	0
	.half	0
	.half	72
	.half	-13304
	.half	51
	.half	610
	.half	0
	.half	9
	.half	0
	.half	0
	.half	72
	.half	-13304
	.half	83
	.half	674
	.half	0
	.half	9
	.half	0
	.half	0
	.half	72
	.half	-13304
	.half	115
	.half	738
	.half	0
	.half	9
	.half	0
	.half	0
	.half	72
	.half	-13304
	.half	147
	.half	802
	.half	0
	.half	9
	.half	0
	.half	0
	.half	72
	.half	-13304
	.half	179
	.half	866
	.half	0
	.half	9
	.half	0
	.half	0
	.half	72
	.half	-13304
	.half	211
	.half	930
	.half	0
	.half	9
	.half	0
	.half	0
	.half	72
	.half	-13304
	.half	243
	.half	994
	.half	0
	.half	9
	.half	2048
	.half	0
	.half	72
	.half	-19448
	.half	1045
	.half	40
	.half	4187
	.half	9
	.half	6182
	.half	-32756
	.half	72
	.half	-19448
	.half	1045
	.half	3624
	.half	5083
	.half	9
	.half	8228
	.half	-32756
	.half	72
	.half	-20472
	.half	1045
	.half	3624
	.half	0
	.half	137
	.half	2048
	.half	0
	.half	72
	.half	4104
	.half	1044
	.half	4644
	.half	0
	.half	1034
	.half	0
	.half	0
	.half	72
	.half	3080
	.half	1045
	.half	224
	.half	3440
	.half	9
	.half	2048
	.half	0
	.half	72
	.half	8
	.half	0
	.half	0
	.half	3419
	.half	0
	.half	0
	.half	-32768
	.half	76
	.half	-13304
	.half	81
	.half	1580
	.half	3035
	.half	9
	.half	0
	.half	-32764
	.half	76
	.half	-13304
	.half	81
	.half	1580
	.half	3035
	.half	9
	.half	0
	.half	-32764
	.half	76
	.half	-13304
	.half	81
	.half	1580
	.half	3035
	.half	9
	.half	0
	.half	-32764
	.half	76
	.half	-13304
	.half	81
	.half	1580
	.half	3035
	.half	9
	.half	0
	.half	-32764
	.half	76
	.half	-13304
	.half	81
	.half	1580
	.half	3035
	.half	9
	.half	0
	.half	-32764
	.half	76
	.half	-13304
	.half	81
	.half	1580
	.half	3035
	.half	9
	.half	0
	.half	-32764
	.half	76
	.half	-13304
	.half	81
	.half	1580
	.half	3035
	.half	9
	.half	0
	.half	-32764
	.half	76
	.half	-13304
	.half	81
	.half	1580
	.half	3035
	.half	9
	.half	2048
	.half	-32764
	.half	72
	.half	-19448
	.half	1045
	.half	40
	.half	4187
	.half	9
	.half	6210
	.half	-32756
	.half	72
	.half	-19448
	.half	1045
	.half	3624
	.half	5083
	.half	9
	.half	8256
	.half	-32756
	.half	72
	.half	-20472
	.half	1045
	.half	3624
	.half	0
	.half	137
	.half	0
	.half	0
	.half	72
	.half	3080
	.half	1045
	.half	224
	.half	0
	.half	9
	.half	2048
	.half	0
	.half	72
	.half	2056
	.half	1044
	.half	36
	.half	0
	.half	136
	.half	2048
	.half	0
	.half	8
	.half	3
	.half	2
	.half	1
	.half	0
	.text
.Letext0:
	.file 2 "/opt/riscv-xpack/riscv-none-elf/include/machine/_default_types.h"
	.file 3 "/opt/riscv-xpack/riscv-none-elf/include/sys/_stdint.h"
	.file 4 "apps/nn/kernels/../../../base/ztalib.h"
	.file 5 "apps/nn/kernels/fcn.p.img"