	.file	"of.m.c"
	.option nopic
	.attribute arch, "rv32i2p1_m2p0"
	.attribute unaligned_access, 0
	.attribute stack_align, 16
	.text
.Ltext0:
	.cfi_sections	.debug_frame
	.file 0 "/home/mahmoudsamy/grad/ZC702/SW" "apps/of/kernels/of.m.c"
	.align	2
	.type	of_phase_1, @function
of_phase_1:
.LFB1:
	.file 1 "apps/of/kernels/of.m.c"
	.loc 1 172 42
	.cfi_startproc
.LVL0:
	.loc 1 173 4
	.loc 1 172 42 is_stmt 0
	addi	sp,sp,-272
	.cfi_def_cfa_offset 272
	sw	ra,268(sp)
	sw	s0,264(sp)
	.cfi_offset 1, -4
	.cfi_offset 8, -8
	.loc 1 190 5
	lw	s0,40(a0)
	.loc 1 189 5
	lw	a3,36(a0)
	.loc 1 172 42
	sw	a0,36(sp)
	.loc 1 174 4 is_stmt 1
	.loc 1 175 4
	.loc 1 176 4
	.loc 1 177 4
	.loc 1 178 4
	.loc 1 179 4
	.loc 1 180 4
	.loc 1 181 4
	.loc 1 182 4
	.loc 1 183 4
	.loc 1 184 4
	.loc 1 185 4
	.loc 1 186 4
.LVL1:
	.loc 1 188 4
	.loc 1 189 4
	.loc 1 195 15 is_stmt 0
	addi	a4,s0,31
	.loc 1 195 9
	srai	a5,a4,31
	andi	a5,a5,31
	add	a5,a5,a4
	.loc 1 189 5
	sw	a3,32(sp)
.LVL2:
	.loc 1 190 4 is_stmt 1
	.loc 1 191 4
	.loc 1 192 4
	.loc 1 193 4
	.loc 1 194 4
	.loc 1 195 4
	.loc 1 195 9 is_stmt 0
	srai	a3,a5,5
.LVL3:
	.loc 1 172 42
	sw	a1,184(sp)
	.loc 1 195 9
	sw	a3,196(sp)
.LVL4:
	.loc 1 196 4 is_stmt 1
	.loc 1 197 4
	.loc 1 197 6 is_stmt 0
	bne	a1,zero,.L2
	.loc 1 198 7 is_stmt 1
.LVL5:
	.loc 1 199 7
	.loc 1 199 26 is_stmt 0
	li	a5,63
	bgt	a4,a5,.L25
.LVL6:
.L3:
	.loc 1 207 1 is_stmt 1
	.loc 1 207 2
	.loc 1 207 18 is_stmt 0
	li	a3,1015824384
.LVL7:
	li	a4,-2147483648
.LVL8:
	addi	a3,a3,-508
	sw	a3,20(a4)
.LVL9:
	.loc 1 208 4 is_stmt 1
	li	a5,-2147483648
	sw	zero,36(a5)
	.loc 1 208 4
	call	_taskYield
.LVL10:
	.loc 1 208 18 discriminator 1
	.loc 1 210 4
	.loc 1 210 19 is_stmt 0
	lw	t1,32(sp)
	.loc 1 211 14
	lw	a5,36(sp)
	.loc 1 225 17 discriminator 1
	lw	t4,184(sp)
	.loc 1 210 19
	mul	a0,t1,s0
	.loc 1 216 14
	lw	a3,12(a5)
	.loc 1 211 14
	lw	a4,8(a5)
	.loc 1 221 14
	lw	a5,16(a5)
	.loc 1 212 21
	slli	a1,t1,2
	.loc 1 217 14
	sub	a2,a3,a1
	.loc 1 222 14
	sub	a3,a5,a1
	.loc 1 225 17 discriminator 1
	lw	a5,196(sp)
	.loc 1 212 21
	sw	a1,76(sp)
	.loc 1 212 14
	sub	a4,a4,a1
	.loc 1 210 21
	slli	t3,a0,1
	.loc 1 210 19
	sw	a0,84(sp)
	.loc 1 210 21
	sw	t3,172(sp)
.LVL11:
	.loc 1 211 4 is_stmt 1
	.loc 1 212 4
	.loc 1 213 4
	.loc 1 213 17 is_stmt 0
	add	a6,t3,a1
.LVL12:
	.loc 1 215 4 is_stmt 1
	.loc 1 216 4
	.loc 1 217 4
	.loc 1 218 4
	.loc 1 220 4
	.loc 1 221 4
	.loc 1 222 4
	.loc 1 223 4
	.loc 1 225 4
	.loc 1 225 17 discriminator 1
	bge	t4,a5,.L1
	.loc 1 196 25 is_stmt 0
	addi	a1,s0,3
	.loc 1 196 6
	srai	a5,a1,31
	andi	a5,a5,3
	add	a5,a5,a1
	.loc 1 194 15
	addi	a7,t1,13
.LBB2:
	.loc 1 311 3093
	add	a1,t3,a0
.LBE2:
	.loc 1 194 9
	li	a0,14
	div	a0,a7,a0
.LBB3:
	.loc 1 311 3105
	addi	a1,a1,-1
	sw	a1,176(sp)
.LBE3:
.LBB4:
	.loc 1 315 3111
	addi	a1,t3,-1
	sw	a1,180(sp)
.LBE4:
	.loc 1 196 6
	srai	a5,a5,2
.LBB5:
	.loc 1 247 2295
	srai	a6,a6,1
.LVL13:
	.loc 1 247 2354
	srli	a4,a4,1
.LVL14:
.LBE5:
.LBB6:
	.loc 1 250 2354
	srli	a2,a2,1
.LVL15:
.LBE6:
.LBB7:
	.loc 1 253 2354
	srli	a3,a3,1
.LVL16:
.LBE7:
	.loc 1 194 9
	sw	a0,152(sp)
	ble	t1,zero,.L1
	sub	a3,a3,a4
	sw	a3,164(sp)
	addi	a3,t1,-1
	sw	a3,148(sp)
	slli	a3,t1,5
	slli	a1,t4,3
	sw	a3,204(sp)
.LBB8:
	.loc 1 240 105
	li	a3,16384
	sub	a5,a5,a1
	sw	s11,220(sp)
.LVL17:
	.cfi_offset 27, -52
	addi	s11,a3,-1
.LBE8:
.LBB9:
	.loc 1 247 2052
	li	a3,67108864
	add	a1,t3,t1
	addi	a3,a3,-1
	mul	a5,a5,t1
.LBE9:
.LBB10:
	.loc 1 247 3158
	li	t3,524288
.LVL18:
.LBE10:
.LBB11:
	.loc 1 247 2052
	sw	a3,80(sp)
.LBE11:
.LBB12:
	.loc 1 247 3158
	addi	a3,t3,24
	slli	a0,t4,5
	sw	a3,168(sp)
	sub	a0,s0,a0
	neg	a7,t1
	slli	a7,a7,5
	add	a6,a6,a4
	mul	a3,t4,t1
	slli	a5,a5,2
	addi	a5,a5,-1
	sw	a5,64(sp)
	sub	a2,a2,a4
	sw	s1,260(sp)
	sw	s2,256(sp)
	sw	s3,252(sp)
	sw	s4,248(sp)
	sw	s5,244(sp)
	mul	a0,a0,t1
	slli	a5,a3,5
	add	a3,a1,a5
	sw	a5,24(sp)
	add	a5,a5,a4
	sw	a5,188(sp)
	sw	s6,240(sp)
	sw	s7,236(sp)
	sw	s8,232(sp)
	sw	s9,228(sp)
	addi	a5,a0,-1
	sw	s10,224(sp)
	.cfi_offset 9, -12
	.cfi_offset 18, -16
	.cfi_offset 19, -20
	.cfi_offset 20, -24
	.cfi_offset 21, -28
	.cfi_offset 22, -32
	.cfi_offset 23, -36
	.cfi_offset 24, -40
	.cfi_offset 25, -44
	.cfi_offset 26, -48
	sw	a7,200(sp)
	sw	a6,156(sp)
	sw	a2,160(sp)
	sw	a3,144(sp)
	sw	a5,60(sp)
.LVL19:
.L6:
.LBE12:
	.loc 1 226 17 is_stmt 1 discriminator 1
	lw	a5,144(sp)
	lw	a4,32(sp)
	sub	a5,a5,a4
	sw	a5,192(sp)
	lw	a5,184(sp)
	beq	a5,zero,.L26
.LBB13:
	.loc 1 240 54 is_stmt 0
	li	s3,-2147483648
	li	s9,4096
	sw	s9,800(s3)
.LVL20:
	.loc 1 240 82
	li	t6,-2147483648
	sw	zero,928(t6)
	.loc 1 240 105
	li	ra,-2147483648
	sw	s11,1440(ra)
	.loc 1 240 150
	li	t2,-2147479552
	sw	zero,-1248(t2)
	.loc 1 240 179
	li	a2,7
	li	t0,-2147483648
	.loc 1 240 312
	li	a5,-2147483648
.LVL21:
	.loc 1 240 179
	sw	a2,1824(t0)
	.loc 1 240 312
	mv	s8,a5
	.loc 1 240 245
	li	s6,-2147483648
	li	a5,64
	sw	a5,1696(s6)
	.loc 1 240 312
	li	a5,511
	sw	a5,1952(s8)
	.loc 1 240 334
	li	s5,-2147479552
	.loc 1 240 354
	li	a3,-2147479552
	.loc 1 240 334
	sw	zero,-1120(s5)
	.loc 1 240 354
	mv	a1,a3
	sw	a1,16(sp)
	li	a3,1
	sw	a3,-1888(a1)
	.loc 1 240 400
	li	s10,-2147479552
	li	a0,8
	sw	a0,-2016(s10)
	.loc 1 240 443
	li	t5,-2147479552
	sw	a5,-1760(t5)
	.loc 1 240 465
	li	t3,-2147479552
	sw	zero,-992(t3)
	.loc 1 240 484
	li	t1,-2147483648
	sw	a2,672(t1)
	.loc 1 240 540
	li	a7,-2147483648
	sw	a3,1056(a7)
	.loc 1 240 568
	li	a6,-2147483648
	sw	a5,1568(a6)
	.loc 1 240 590
	li	a0,-2147479552
	.loc 1 240 609
	li	a4,524288
	.loc 1 240 590
	sw	zero,-864(a0)
	.loc 1 240 609
	li	t4,-2147483648
	addi	a4,a4,8
	sw	a4,544(t4)
	.loc 1 240 745
	li	s2,-2147479552
	li	s0,128
	.loc 1 240 887
	li	s1,1032192
	.loc 1 240 745
	sw	s0,-736(s2)
	.loc 1 240 887
	li	a4,-2147479552
	addi	s1,s1,127
	sw	s1,-1632(a4)
.LBE13:
	.loc 1 240 960
	li	s0,1036288
	.loc 1 240 938
	sw	zero,-480(a1)
	.loc 1 240 960
	addi	s0,s0,-1923
	.loc 1 240 1009
	li	s7,393216
	.loc 1 240 960
	sw	s0,-1632(a4)
	.loc 1 240 1009
	li	s4,-2147483648
	addi	s7,s7,1
	sw	s7,20(s4)
.LBB14:
	.loc 1 241 54
	sw	s9,800(s3)
	.loc 1 241 82
	sw	zero,928(t6)
	.loc 1 241 105
	sw	s11,1440(ra)
	.loc 1 241 150
	sw	zero,-1248(t2)
	.loc 1 241 179
	sw	a2,1824(t0)
	.loc 1 241 245
	li	s9,64
	sw	s9,1696(s6)
	.loc 1 241 312
	sw	s8,12(sp)
	sw	a5,1952(s8)
	.loc 1 241 334
	sw	zero,-1120(s5)
	.loc 1 241 354
	lw	s9,16(sp)
	.loc 1 241 400
	li	s8,8
.LBE14:
.LBB15:
	.loc 1 240 609
	addi	t4,t4,544
.LBE15:
.LBB16:
	.loc 1 241 354
	sw	a3,-1888(s9)
	.loc 1 241 400
	sw	s8,-2016(s10)
	.loc 1 241 443
	sw	a5,-1760(t5)
	.loc 1 241 465
	sw	zero,-992(t3)
	.loc 1 241 484
	sw	a2,672(t1)
	.loc 1 241 540
	sw	a3,1056(a7)
	.loc 1 241 568
	sw	a5,1568(a6)
	.loc 1 241 609
	li	s8,524288
	.loc 1 241 590
	sw	zero,-864(a0)
	.loc 1 241 609
	addi	s8,s8,520
	sw	s8,0(t4)
	.loc 1 241 747
	li	s8,128
	sw	s8,-736(s2)
	.loc 1 241 889
	sw	s1,-1632(a4)
.LBE16:
	.loc 1 241 940
	sw	zero,-480(a1)
	.loc 1 241 962
	sw	s0,-1632(a4)
	.loc 1 241 1011
	sw	s7,20(s4)
.LBB17:
	.loc 1 242 54
	li	s8,4096
	sw	s8,800(s3)
	.loc 1 242 82
	sw	zero,928(t6)
	.loc 1 242 105
	sw	s11,1440(ra)
	.loc 1 242 150
	sw	zero,-1248(t2)
	.loc 1 242 179
	sw	a2,1824(t0)
	.loc 1 242 245
	li	t0,64
	sw	t0,1696(s6)
	.loc 1 242 312
	lw	s8,12(sp)
.LBE17:
.LBB18:
	.loc 1 240 82
	addi	t6,t6,928
	.loc 1 240 443
	addi	t5,t5,-1760
.LBE18:
.LBB19:
	.loc 1 242 312
	sw	a5,1952(s8)
	.loc 1 242 334
	sw	zero,-1120(s5)
	.loc 1 242 354
	sw	a3,-1888(s9)
	.loc 1 242 400
	li	s8,8
	sw	s8,-2016(s10)
	.loc 1 242 443
	sw	a5,0(t5)
	.loc 1 242 465
	sw	zero,-992(t3)
	.loc 1 242 484
	sw	a2,672(t1)
	.loc 1 242 540
	sw	a3,1056(a7)
	.loc 1 242 568
	sw	a5,1568(a6)
	.loc 1 242 609
	li	a5,524288
	addi	a5,a5,1032
	.loc 1 242 590
	sw	zero,-864(a0)
	.loc 1 242 748
	li	s8,128
	.loc 1 242 609
	sw	a5,0(t4)
	.loc 1 242 748
	sw	s8,-736(s2)
	.loc 1 242 890
	sw	s1,-1632(a4)
.LBE19:
	.loc 1 242 941
	sw	zero,-480(a1)
	.loc 1 242 963
	sw	s0,-1632(a4)
	lw	a5,148(sp)
.LBB20:
	.loc 1 247 337
	li	t0,7
	mv	s2,t6
	sw	a5,28(sp)
.LBE20:
	.loc 1 227 10 is_stmt 1
.LVL22:
	.loc 1 230 10
.LBB21:
	.loc 1 240 3
	.loc 1 240 38
	.loc 1 240 66
	.loc 1 240 88
	.loc 1 240 133
	.loc 1 240 162
	.loc 1 240 228
	.loc 1 240 295
	.loc 1 240 317
	.loc 1 240 337
	.loc 1 240 383
	.loc 1 240 426
	.loc 1 240 448
	.loc 1 240 468
	.loc 1 240 524
	.loc 1 240 551
	.loc 1 240 573
	.loc 1 240 593
	.loc 1 240 728
	.loc 1 240 870
.LBE21:
	.loc 1 240 920
	.loc 1 240 921
	.loc 1 240 943
	.loc 1 240 992
	.loc 1 240 993
.LBB22:
	.loc 1 241 3
	.loc 1 241 38
	.loc 1 241 66
	.loc 1 241 88
	.loc 1 241 133
	.loc 1 241 162
	.loc 1 241 228
	.loc 1 241 295
	.loc 1 241 317
	.loc 1 241 337
	.loc 1 241 383
	.loc 1 241 426
	.loc 1 241 448
	.loc 1 241 468
	.loc 1 241 524
	.loc 1 241 551
	.loc 1 241 573
	.loc 1 241 593
	.loc 1 241 730
	.loc 1 241 872
.LBE22:
	.loc 1 241 922
	.loc 1 241 923
	.loc 1 241 945
	.loc 1 241 994
	.loc 1 241 995
.LBB23:
	.loc 1 242 3
	.loc 1 242 38
	.loc 1 242 66
	.loc 1 242 88
	.loc 1 242 133
	.loc 1 242 162
	.loc 1 242 228
	.loc 1 242 295
	.loc 1 242 317
	.loc 1 242 337
	.loc 1 242 383
	.loc 1 242 426
	.loc 1 242 448
	.loc 1 242 468
	.loc 1 242 524
	.loc 1 242 551
	.loc 1 242 573
	.loc 1 242 593
	.loc 1 242 731
	.loc 1 242 873
.LBE23:
	.loc 1 242 923
	.loc 1 242 924
	.loc 1 242 946
	.loc 1 242 995
	.loc 1 242 996
	.loc 1 242 1012 is_stmt 0
	sw	s7,20(s4)
	lw	a5,188(sp)
	sw	zero,88(sp)
.LBB24:
	.loc 1 247 337
	mv	s0,t5
.LBE24:
	.loc 1 242 1012
	sw	a5,56(sp)
.LBB25:
	.loc 1 247 337
	mv	s1,t4
	j	.L9
.LVL23:
.L27:
.LBE25:
	.loc 1 227 10 is_stmt 1
	.loc 1 230 10
.LBB26:
	.loc 1 232 3
	.loc 1 232 38
	.loc 1 232 54 is_stmt 0
	li	t2,-2147483648
	li	a3,4096
	sw	a3,800(t2)
.LVL24:
	.loc 1 232 66 is_stmt 1
	.loc 1 232 82 is_stmt 0
	sw	zero,0(s2)
	.loc 1 232 88 is_stmt 1
	.loc 1 232 105 is_stmt 0
	li	t6,-2147483648
	sw	s11,1440(t6)
	.loc 1 232 133 is_stmt 1
	.loc 1 232 150 is_stmt 0
	li	t5,-2147479552
	sw	zero,-1248(t5)
	.loc 1 232 162 is_stmt 1
	.loc 1 232 179 is_stmt 0
	li	t4,-2147483648
	li	s6,7
	sw	s6,1824(t4)
	.loc 1 232 228 is_stmt 1
	.loc 1 232 245 is_stmt 0
	li	s10,-2147483648
	li	s5,64
	sw	s5,1696(s10)
	.loc 1 232 295 is_stmt 1
	.loc 1 232 312 is_stmt 0
	li	a5,511
	li	t3,-2147483648
	sw	a5,1952(t3)
	.loc 1 232 317 is_stmt 1
	.loc 1 232 334 is_stmt 0
	li	t1,-2147479552
	sw	zero,-1120(t1)
	.loc 1 232 337 is_stmt 1
	.loc 1 232 354 is_stmt 0
	li	a4,1
	li	a7,-2147479552
	sw	a4,-1888(a7)
	.loc 1 232 383 is_stmt 1
	.loc 1 232 400 is_stmt 0
	li	s9,-2147479552
	li	s4,8
	sw	s4,-2016(s9)
	.loc 1 232 426 is_stmt 1
	.loc 1 232 443 is_stmt 0
	sw	a5,0(s0)
	.loc 1 232 448 is_stmt 1
	.loc 1 232 465 is_stmt 0
	li	a6,-2147479552
	sw	zero,-992(a6)
	.loc 1 232 468 is_stmt 1
	.loc 1 232 484 is_stmt 0
	li	a0,-2147483648
	sw	s6,672(a0)
	.loc 1 232 524 is_stmt 1
	.loc 1 232 540 is_stmt 0
	li	a1,-2147483648
	sw	a4,1056(a1)
	.loc 1 232 551 is_stmt 1
	.loc 1 232 568 is_stmt 0
	li	a2,-2147483648
	sw	a5,1568(a2)
	.loc 1 232 573 is_stmt 1
	.loc 1 232 590 is_stmt 0
	li	s3,-2147479552
	.loc 1 232 609
	li	ra,524288
	.loc 1 232 590
	sw	zero,-864(s3)
	.loc 1 232 593 is_stmt 1
	.loc 1 232 609 is_stmt 0
	addi	ra,ra,8
	sw	ra,0(s1)
	.loc 1 232 728 is_stmt 1
	.loc 1 232 745 is_stmt 0
	li	s7,128
	.loc 1 232 887
	li	s8,1032192
	.loc 1 232 745
	sw	s7,-736(s3)
	.loc 1 232 887
	li	ra,-2147479552
	addi	s8,s8,127
	sw	s8,-1632(ra)
.LBE26:
.LBB27:
	.loc 1 232 985
	sw	a3,800(t2)
	.loc 1 232 1013
	sw	zero,0(s2)
	.loc 1 232 1036
	addi	s7,a3,-1
	sw	s7,1440(t6)
	.loc 1 232 1081
	li	s7,12288
	sw	s7,-1248(t5)
	.loc 1 232 1110
	sw	s6,1824(t4)
	.loc 1 232 1176
	sw	s5,1696(s10)
	.loc 1 232 1243
	sw	a5,1952(t3)
	.loc 1 232 1265
	sw	zero,-1120(t1)
	.loc 1 232 1285
	sw	a4,-1888(a7)
	.loc 1 232 1369
	sw	s4,-2016(s9)
	.loc 1 232 1412
	sw	a5,0(s0)
	.loc 1 232 1434
	sw	zero,-992(a6)
	.loc 1 232 1453
	sw	s6,672(a0)
	.loc 1 232 1509
	sw	a4,1056(a1)
	.loc 1 232 1559
	li	a3,-2147479552
	.loc 1 232 1537
	sw	a5,1568(a2)
	.loc 1 232 1578
	li	s6,536576
	.loc 1 232 1559
	sw	zero,-864(a3)
	.loc 1 232 1578
	addi	s6,s6,24
	.loc 1 232 1732
	li	a3,1032192
	.loc 1 232 1578
	sw	s6,0(s1)
	.loc 1 232 1732
	addi	s6,a3,125
	mv	a3,s6
	sw	a3,12(sp)
.LBE27:
	.loc 1 232 1781
	li	s6,393216
.LBB28:
	.loc 1 232 1732
	sw	a3,-1632(ra)
.LBE28:
	.loc 1 232 1781
	li	s7,-2147483648
	addi	s6,s6,1
	sw	s6,20(s7)
.LBB29:
	.loc 1 234 54
	li	s6,4096
	sw	s6,800(t2)
	.loc 1 234 82
	sw	zero,0(s2)
	.loc 1 234 105
	sw	s11,1440(t6)
	.loc 1 234 150
	sw	zero,-1248(t5)
	.loc 1 234 179
	li	s6,7
	sw	s6,1824(t4)
	.loc 1 234 245
	sw	s5,1696(s10)
	.loc 1 234 312
	sw	a5,1952(t3)
	.loc 1 234 334
	sw	zero,-1120(t1)
	.loc 1 234 354
	sw	a4,-1888(a7)
	.loc 1 234 400
	sw	s4,-2016(s9)
	.loc 1 234 443
	sw	a5,0(s0)
	.loc 1 234 465
	sw	zero,-992(a6)
	.loc 1 234 484
	sw	s6,672(a0)
	.loc 1 234 540
	sw	a4,1056(a1)
	.loc 1 234 568
	sw	a5,1568(a2)
	.loc 1 234 590
	li	a3,-2147479552
	.loc 1 234 609
	li	s6,524288
	.loc 1 234 590
	sw	zero,-864(a3)
	.loc 1 234 609
	addi	s6,s6,520
	sw	s6,0(s1)
.LBE29:
.LBB30:
	.loc 1 232 745
	addi	s3,s3,-736
	.loc 1 232 870 is_stmt 1
.LBE30:
.LBB31:
	.loc 1 232 920
.LVL25:
	.loc 1 232 969
	.loc 1 232 997
	.loc 1 232 1019
	.loc 1 232 1064
	.loc 1 232 1093
	.loc 1 232 1159
	.loc 1 232 1226
	.loc 1 232 1248
	.loc 1 232 1268
	.loc 1 232 1352
	.loc 1 232 1395
	.loc 1 232 1417
	.loc 1 232 1437
	.loc 1 232 1493
	.loc 1 232 1520
	.loc 1 232 1542
	.loc 1 232 1562
	.loc 1 232 1715
.LBE31:
	.loc 1 232 1764
	.loc 1 232 1765
.LBB32:
	.loc 1 234 3
	.loc 1 234 38
	.loc 1 234 66
	.loc 1 234 88
	.loc 1 234 133
	.loc 1 234 162
	.loc 1 234 228
	.loc 1 234 295
	.loc 1 234 317
	.loc 1 234 337
	.loc 1 234 383
	.loc 1 234 426
	.loc 1 234 448
	.loc 1 234 468
	.loc 1 234 524
	.loc 1 234 551
	.loc 1 234 573
	.loc 1 234 593
	.loc 1 234 730
	.loc 1 234 747 is_stmt 0
	sw	s3,16(sp)
	li	s6,128
	sw	s6,0(s3)
	.loc 1 234 872 is_stmt 1
	.loc 1 234 889 is_stmt 0
	sw	s8,20(sp)
	sw	s8,-1632(ra)
.LBE32:
.LBB33:
	.loc 1 234 922 is_stmt 1
.LVL26:
	.loc 1 234 971
	.loc 1 234 987 is_stmt 0
	li	s3,4096
	sw	s3,800(t2)
	.loc 1 234 999 is_stmt 1
	.loc 1 234 1015 is_stmt 0
	sw	zero,0(s2)
	.loc 1 234 1021 is_stmt 1
	.loc 1 234 1038 is_stmt 0
	mv	a3,s3
	addi	s3,s3,-1
	sw	s3,1440(t6)
	.loc 1 234 1066 is_stmt 1
	.loc 1 234 1083 is_stmt 0
	li	s6,12288
	sw	s6,-1248(t5)
	.loc 1 234 1095 is_stmt 1
	.loc 1 234 1112 is_stmt 0
	li	s6,7
	sw	s6,1824(t4)
	.loc 1 234 1161 is_stmt 1
	.loc 1 234 1178 is_stmt 0
	sw	s5,1696(s10)
	.loc 1 234 1228 is_stmt 1
	.loc 1 234 1245 is_stmt 0
	sw	a5,1952(t3)
	.loc 1 234 1250 is_stmt 1
	.loc 1 234 1267 is_stmt 0
	sw	zero,-1120(t1)
	.loc 1 234 1270 is_stmt 1
	.loc 1 234 1287 is_stmt 0
	sw	a4,-1888(a7)
	.loc 1 234 1354 is_stmt 1
	.loc 1 234 1371 is_stmt 0
	sw	s4,-2016(s9)
	.loc 1 234 1397 is_stmt 1
	.loc 1 234 1414 is_stmt 0
	sw	a5,0(s0)
	.loc 1 234 1419 is_stmt 1
	.loc 1 234 1436 is_stmt 0
	sw	zero,-992(a6)
	.loc 1 234 1439 is_stmt 1
	.loc 1 234 1455 is_stmt 0
	sw	s6,672(a0)
	.loc 1 234 1495 is_stmt 1
	.loc 1 234 1511 is_stmt 0
	sw	a4,1056(a1)
	.loc 1 234 1522 is_stmt 1
	.loc 1 234 1539 is_stmt 0
	sw	a5,1568(a2)
	.loc 1 234 1544 is_stmt 1
	.loc 1 234 1455 is_stmt 0
	mv	s3,s6
	.loc 1 234 1561
	li	s8,-2147479552
	.loc 1 234 1580
	li	s6,536576
	.loc 1 234 1561
	sw	zero,-864(s8)
	.loc 1 234 1564 is_stmt 1
	.loc 1 234 1580 is_stmt 0
	addi	s6,s6,536
	sw	s6,0(s1)
	.loc 1 234 1719 is_stmt 1
	.loc 1 234 1736 is_stmt 0
	lw	s8,12(sp)
.LBE33:
	.loc 1 234 1785
	li	s6,393216
	addi	s6,s6,9
.LBB34:
	.loc 1 234 1736
	sw	s8,-1632(ra)
.LBE34:
	.loc 1 234 1768 is_stmt 1
	.loc 1 234 1769
	.loc 1 234 1785 is_stmt 0
	sw	s6,20(s7)
.LBB35:
	.loc 1 237 3 is_stmt 1
.LVL27:
	.loc 1 237 38
	.loc 1 237 54 is_stmt 0
	sw	a3,800(t2)
	.loc 1 237 66 is_stmt 1
	.loc 1 237 82 is_stmt 0
	sw	zero,0(s2)
	.loc 1 237 88 is_stmt 1
	.loc 1 237 105 is_stmt 0
	sw	s11,1440(t6)
	.loc 1 237 133 is_stmt 1
	.loc 1 237 150 is_stmt 0
	sw	zero,-1248(t5)
	.loc 1 237 162 is_stmt 1
	.loc 1 237 179 is_stmt 0
	sw	s3,1824(t4)
	.loc 1 237 228 is_stmt 1
	.loc 1 237 245 is_stmt 0
	sw	s5,1696(s10)
	.loc 1 237 295 is_stmt 1
	.loc 1 237 312 is_stmt 0
	sw	a5,1952(t3)
	.loc 1 237 317 is_stmt 1
	.loc 1 237 334 is_stmt 0
	sw	zero,-1120(t1)
	.loc 1 237 337 is_stmt 1
	.loc 1 237 354 is_stmt 0
	sw	a4,-1888(a7)
	.loc 1 237 383 is_stmt 1
	.loc 1 237 400 is_stmt 0
	sw	s4,-2016(s9)
	.loc 1 237 426 is_stmt 1
	.loc 1 237 443 is_stmt 0
	sw	a5,0(s0)
	.loc 1 237 448 is_stmt 1
	.loc 1 237 465 is_stmt 0
	sw	zero,-992(a6)
	.loc 1 237 468 is_stmt 1
	.loc 1 237 484 is_stmt 0
	sw	s3,672(a0)
	.loc 1 237 524 is_stmt 1
	.loc 1 237 540 is_stmt 0
	sw	a4,1056(a1)
	.loc 1 237 551 is_stmt 1
	.loc 1 237 568 is_stmt 0
	sw	a5,1568(a2)
	.loc 1 237 573 is_stmt 1
	.loc 1 237 590 is_stmt 0
	li	s3,-2147479552
	.loc 1 237 609
	li	s8,524288
	.loc 1 237 590
	sw	zero,-864(s3)
	.loc 1 237 593 is_stmt 1
	.loc 1 237 609 is_stmt 0
	addi	s8,s8,1032
	sw	s8,0(s1)
	.loc 1 237 731 is_stmt 1
	.loc 1 237 748 is_stmt 0
	lw	s3,16(sp)
	li	s8,128
	sw	s8,0(s3)
	.loc 1 237 873 is_stmt 1
	.loc 1 237 890 is_stmt 0
	lw	s8,20(sp)
.LBE35:
.LBB36:
	.loc 1 237 1113
	li	s3,7
.LBE36:
.LBB37:
	.loc 1 237 890
	sw	s8,-1632(ra)
.LBE37:
.LBB38:
	.loc 1 237 923 is_stmt 1
.LVL28:
	.loc 1 237 972
	.loc 1 237 988 is_stmt 0
	sw	a3,800(t2)
	.loc 1 237 1000 is_stmt 1
	.loc 1 237 1016 is_stmt 0
	sw	zero,0(s2)
	.loc 1 237 1022 is_stmt 1
	.loc 1 237 1039 is_stmt 0
	addi	t2,a3,-1
	sw	t2,1440(t6)
	.loc 1 237 1067 is_stmt 1
	.loc 1 237 1084 is_stmt 0
	li	t6,12288
	sw	t6,-1248(t5)
	.loc 1 237 1096 is_stmt 1
	.loc 1 237 1113 is_stmt 0
	sw	s3,1824(t4)
	.loc 1 237 1162 is_stmt 1
	.loc 1 237 1179 is_stmt 0
	sw	s5,1696(s10)
	.loc 1 237 1229 is_stmt 1
	.loc 1 237 1246 is_stmt 0
	sw	a5,1952(t3)
	.loc 1 237 1251 is_stmt 1
	.loc 1 237 1268 is_stmt 0
	sw	zero,-1120(t1)
	.loc 1 237 1271 is_stmt 1
	.loc 1 237 1288 is_stmt 0
	sw	a4,-1888(a7)
	.loc 1 237 1355 is_stmt 1
	.loc 1 237 1372 is_stmt 0
	sw	s4,-2016(s9)
	.loc 1 237 1398 is_stmt 1
	.loc 1 237 1415 is_stmt 0
	sw	a5,0(s0)
	.loc 1 237 1420 is_stmt 1
	.loc 1 237 1437 is_stmt 0
	sw	zero,-992(a6)
	.loc 1 237 1440 is_stmt 1
	.loc 1 237 1456 is_stmt 0
	sw	s3,672(a0)
	.loc 1 237 1496 is_stmt 1
	.loc 1 237 1512 is_stmt 0
	sw	a4,1056(a1)
	.loc 1 237 1523 is_stmt 1
	.loc 1 237 1540 is_stmt 0
	sw	a5,1568(a2)
	.loc 1 237 1545 is_stmt 1
	.loc 1 237 1562 is_stmt 0
	li	a4,-2147479552
	.loc 1 237 1581
	li	a5,536576
	.loc 1 237 1562
	sw	zero,-864(a4)
	.loc 1 237 1565 is_stmt 1
	.loc 1 237 1581 is_stmt 0
	addi	a5,a5,1048
	sw	a5,0(s1)
	.loc 1 237 1721 is_stmt 1
	.loc 1 237 1738 is_stmt 0
	lw	a5,12(sp)
	sw	a5,-1632(ra)
.LBE38:
	.loc 1 237 1770 is_stmt 1
	.loc 1 237 1771
	.loc 1 237 1787 is_stmt 0
	sw	s6,20(s7)
.LVL29:
.L9:
	.loc 1 244 1 is_stmt 1
	.loc 1 244 2
	.loc 1 244 18 is_stmt 0
	li	a5,-2147483648
	addi	t4,a5,20
	sw	t4,12(sp)
.LBB39:
	.loc 1 247 228
	li	t3,-2147483648
.LBE39:
	.loc 1 244 18
	li	a5,88
	sw	a5,0(t4)
.LBB40:
	.loc 1 247 3 is_stmt 1
.LVL30:
	.loc 1 247 212
	.loc 1 247 228 is_stmt 0
	addi	t3,t3,800
	li	t6,128
	sw	t6,0(t3)
	.loc 1 247 321 is_stmt 1
	.loc 1 247 360 is_stmt 0
	li	t2,-2147483648
	.loc 1 247 337
	sw	t0,0(s2)
	.loc 1 247 343 is_stmt 1
	.loc 1 247 360 is_stmt 0
	addi	t2,t2,1440
	li	t5,1023
	sw	t5,0(t2)
	.loc 1 247 478 is_stmt 1
	.loc 1 247 605 is_stmt 0
	li	a7,-2147483648
	.loc 1 247 495
	li	a0,-2147479552
	sw	zero,-1248(a0)
	.loc 1 247 588 is_stmt 1
	.loc 1 247 605 is_stmt 0
	addi	a7,a7,1696
	li	t6,16
	sw	t6,0(a7)
	.loc 1 247 668 is_stmt 1
	.loc 1 247 685 is_stmt 0
	li	a1,-2147483648
	.loc 1 247 708
	li	t1,-2147483648
	.loc 1 247 685
	sw	t0,1824(a1)
	.loc 1 247 691 is_stmt 1
	.loc 1 247 708 is_stmt 0
	addi	t1,t1,1952
	li	t5,127
	sw	t5,0(t1)
	.loc 1 247 805 is_stmt 1
	.loc 1 247 822 is_stmt 0
	li	a2,-2147479552
	.loc 1 247 902
	li	a3,-2147479552
	.loc 1 247 822
	sw	zero,-1120(a2)
	.loc 1 247 885 is_stmt 1
	.loc 1 247 902 is_stmt 0
	addi	a3,a3,-2016
	.loc 1 247 964
	li	a4,-2147479552
	.loc 1 247 902
	li	a5,4
	.loc 1 247 964
	li	s4,3
	addi	a4,a4,-1888
	.loc 1 247 902
	sw	a5,0(a3)
	.loc 1 247 947 is_stmt 1
	.loc 1 247 964 is_stmt 0
	sw	s4,0(a4)
	.loc 1 247 970 is_stmt 1
	.loc 1 247 1071 is_stmt 0
	li	a5,-2147479552
	.loc 1 247 987
	li	s3,15
	.loc 1 247 1132
	li	s10,-2147483648
	.loc 1 247 1071
	addi	a5,a5,-992
	.loc 1 247 987
	sw	s3,0(s0)
	.loc 1 247 1054 is_stmt 1
	.loc 1 247 1132 is_stmt 0
	li	s5,1
	.loc 1 247 1159
	li	s9,-2147483648
	.loc 1 247 1132
	addi	s10,s10,1056
	.loc 1 247 1071
	sw	zero,0(a5)
	.loc 1 247 1116 is_stmt 1
	.loc 1 247 1182 is_stmt 0
	li	s8,-2147483648
	.loc 1 247 1159
	addi	s9,s9,672
	.loc 1 247 1132
	sw	s5,0(s10)
	.loc 1 247 1143 is_stmt 1
	.loc 1 247 1244 is_stmt 0
	li	s7,-2147479552
	.loc 1 247 1182
	addi	s8,s8,1568
	.loc 1 247 1159
	sw	s4,0(s9)
	.loc 1 247 1165 is_stmt 1
	.loc 1 247 1244 is_stmt 0
	addi	s7,s7,-864
	.loc 1 247 1182
	sw	s4,0(s8)
	.loc 1 247 1227 is_stmt 1
	.loc 1 247 1244 is_stmt 0
	sw	zero,0(s7)
	.loc 1 247 1253 is_stmt 1
.LVL31:
	.loc 1 247 1470
	.loc 1 247 1533 is_stmt 0
	li	t4,-2147479552
	.loc 1 247 1486
	sw	zero,0(s1)
	.loc 1 247 1515 is_stmt 1
	.loc 1 247 1516
	.loc 1 247 1533 is_stmt 0
	addi	ra,t4,-736
	sw	ra,16(sp)
	.loc 1 247 1589
	li	t4,1036288
	.loc 1 247 1533
	li	t6,1024
	.loc 1 247 1589
	li	s6,-2147479552
	.loc 1 247 1533
	sw	t6,0(ra)
	.loc 1 247 1572 is_stmt 1
	.loc 1 247 1589 is_stmt 0
	addi	a6,t4,-1921
	addi	s6,s6,-1632
	sw	a6,68(sp)
	sw	a6,0(s6)
.LBE40:
.LBB41:
	.loc 1 247 1622 is_stmt 1
.LVL32:
	.loc 1 247 1806
	.loc 1 247 1823 is_stmt 0
	lw	a6,76(sp)
.LBE41:
.LBB42:
	.loc 1 247 3296
	li	t6,1024
.LBE42:
.LBB43:
	.loc 1 247 685
	addi	a1,a1,1824
.LBE43:
.LBB44:
	.loc 1 247 1823
	sw	a6,0(a7)
.LVL33:
	.loc 1 247 1854 is_stmt 1
	.loc 1 247 1871 is_stmt 0
	sw	t0,0(a1)
	.loc 1 247 1877 is_stmt 1
	.loc 1 247 1894 is_stmt 0
	lw	ra,64(sp)
.LBE44:
.LBB45:
	.loc 1 247 822
	addi	a2,a2,-1120
	.loc 1 247 495
	addi	a0,a0,-1248
.LBE45:
.LBB46:
	.loc 1 247 1894
	sw	ra,0(t1)
	.loc 1 247 1934 is_stmt 1
	.loc 1 247 1951 is_stmt 0
	lw	a6,24(sp)
	sw	a6,0(a2)
	.loc 1 247 1982 is_stmt 1
	.loc 1 247 1999 is_stmt 0
	lw	a6,32(sp)
	sw	a6,0(a3)
	.loc 1 247 2012 is_stmt 1
	.loc 1 247 2029 is_stmt 0
	sw	t0,0(a4)
	.loc 1 247 2035 is_stmt 1
	.loc 1 247 2052 is_stmt 0
	lw	a6,80(sp)
	sw	a6,0(s0)
	.loc 1 247 2064 is_stmt 1
	.loc 1 247 2081 is_stmt 0
	sw	zero,0(a5)
	.loc 1 247 2094 is_stmt 1
	.loc 1 247 2110 is_stmt 0
	sw	s5,0(s10)
	.loc 1 247 2121 is_stmt 1
	lw	t4,88(sp)
	.loc 1 247 2137 is_stmt 0
	sw	s3,0(s9)
	.loc 1 247 2143 is_stmt 1
	slli	a6,t4,3
	sub	a6,a6,t4
	slli	s3,a6,1
	.loc 1 247 2160 is_stmt 0
	lw	a6,28(sp)
	.loc 1 247 2277
	li	t4,-2147479552
	addi	t4,t4,-96
	.loc 1 247 2160
	sw	a6,0(s8)
	.loc 1 247 2173 is_stmt 1
	lw	ra,56(sp)
	lw	t5,156(sp)
	.loc 1 247 2190 is_stmt 0
	sw	s3,52(sp)
	sw	s3,0(s7)
	.loc 1 247 2199 is_stmt 1
.LVL34:
	.loc 1 247 2260
	sub	a6,t5,ra
	.loc 1 247 2277 is_stmt 0
	sw	t4,44(sp)
	sw	a6,40(sp)
	sw	a6,0(t4)
	.loc 1 247 2318 is_stmt 1
	.loc 1 247 2319
	.loc 1 247 2335 is_stmt 0
	sw	ra,56(sp)
	.loc 1 247 2389
	li	t5,1036288
	.loc 1 247 2335
	sw	ra,0(s1)
	.loc 1 247 2371 is_stmt 1
	.loc 1 247 2372
	.loc 1 247 2389 is_stmt 0
	addi	t4,t5,125
	sw	t4,48(sp)
	sw	t4,0(s6)
.LBE46:
	.loc 1 247 2421 is_stmt 1
	.loc 1 247 2422
	.loc 1 247 2438 is_stmt 0
	lw	t4,12(sp)
	li	t5,393216
	addi	a6,t5,17
	sw	a6,20(sp)
	sw	a6,0(t4)
.LBB47:
	.loc 1 247 2528 is_stmt 1
.LVL35:
	.loc 1 247 2573
	.loc 1 247 2590 is_stmt 0
	li	a6,4096
	sw	a6,0(a3)
	.loc 1 247 2602 is_stmt 1
	.loc 1 247 2619 is_stmt 0
	sw	s4,0(a4)
	.loc 1 247 2625 is_stmt 1
	.loc 1 247 2642 is_stmt 0
	sw	s11,0(s0)
	.loc 1 247 2670 is_stmt 1
	.loc 1 247 2687 is_stmt 0
	sw	zero,0(a5)
	.loc 1 247 2699 is_stmt 1
	.loc 1 247 2780 is_stmt 0
	li	a6,64
	.loc 1 247 2716
	sw	t0,0(a1)
	.loc 1 247 2763 is_stmt 1
	.loc 1 247 2847 is_stmt 0
	li	s3,511
	.loc 1 247 2780
	sw	a6,0(a7)
	.loc 1 247 2830 is_stmt 1
	.loc 1 247 2847 is_stmt 0
	sw	s3,0(t1)
	.loc 1 247 2852 is_stmt 1
	.loc 1 247 2869 is_stmt 0
	sw	zero,0(a2)
	.loc 1 247 2872 is_stmt 1
	.loc 1 247 2888 is_stmt 0
	sw	s4,0(s9)
	.loc 1 247 2935 is_stmt 1
	.loc 1 247 2951 is_stmt 0
	li	ra,8
	sw	ra,0(s10)
	.loc 1 247 2977 is_stmt 1
	.loc 1 247 2994 is_stmt 0
	sw	s3,0(s8)
	.loc 1 247 2999 is_stmt 1
	.loc 1 247 3016 is_stmt 0
	sw	zero,0(s7)
	.loc 1 247 3019 is_stmt 1
	.loc 1 247 3035 is_stmt 0
	sw	t0,0(s2)
	.loc 1 247 3073 is_stmt 1
	.loc 1 247 3089 is_stmt 0
	sw	s5,0(t3)
	.loc 1 247 3100 is_stmt 1
	.loc 1 247 3117 is_stmt 0
	sw	s3,0(t2)
	.loc 1 247 3122 is_stmt 1
	.loc 1 247 3139 is_stmt 0
	sw	zero,0(a0)
	.loc 1 247 3142 is_stmt 1
	.loc 1 247 3158 is_stmt 0
	lw	t5,168(sp)
	sw	t5,0(s1)
	.loc 1 247 3279 is_stmt 1
	.loc 1 247 3296 is_stmt 0
	lw	ra,16(sp)
	.loc 1 247 3452
	li	t5,1032192
	addi	t5,t5,1151
	.loc 1 247 3296
	sw	t6,0(ra)
	.loc 1 247 3435 is_stmt 1
	.loc 1 247 3452 is_stmt 0
	sw	t5,92(sp)
	sw	t5,0(s6)
.LBE47:
.LBB48:
	.loc 1 247 3485 is_stmt 1
.LVL36:
	.loc 1 247 3694
	.loc 1 247 3710 is_stmt 0
	li	t6,128
	sw	t6,0(t3)
	.loc 1 247 3803 is_stmt 1
	.loc 1 247 3819 is_stmt 0
	sw	t0,0(s2)
	.loc 1 247 3825 is_stmt 1
	.loc 1 247 3842 is_stmt 0
	li	t5,1023
	sw	t5,0(t2)
	.loc 1 247 3960 is_stmt 1
	.loc 1 247 3977 is_stmt 0
	sw	zero,0(a0)
	.loc 1 247 4070 is_stmt 1
	.loc 1 247 4087 is_stmt 0
	li	t6,16
	sw	t6,0(a7)
	.loc 1 247 0 is_stmt 1
	sw	t0,0(a1)
	.loc 1 247 0
	li	t5,127
	sw	t5,0(t1)
	.loc 1 247 0
	sw	zero,0(a2)
	.loc 1 247 0
	li	t6,4
	sw	t6,0(a3)
	.loc 1 247 0
	sw	s4,0(a4)
	.loc 1 247 0
	li	t6,15
	sw	t6,0(s0)
	.loc 1 247 0
	sw	zero,0(a5)
	.loc 1 247 0
	sw	s5,0(s10)
	.loc 1 247 0
	sw	s4,0(s9)
	.loc 1 247 0
	sw	s4,0(s8)
	.loc 1 247 0
	sw	zero,0(s7)
	.loc 1 247 0
.LVL37:
	.loc 1 247 0
	li	t5,1036288
	sw	zero,0(s1)
	.loc 1 247 0
	.loc 1 247 0
	addi	t6,t5,-1923
	sw	t6,72(sp)
	sw	t6,0(s6)
.LBE48:
	.loc 1 247 0
	.loc 1 247 0
	lw	t6,20(sp)
.LBB49:
	.loc 1 250 360 is_stmt 0
	li	t5,1023
.LBE49:
	.loc 1 247 0
	sw	t6,0(t4)
.LBB50:
	.loc 1 250 3 is_stmt 1
.LVL38:
	.loc 1 250 212
	.loc 1 250 228 is_stmt 0
	li	t6,128
	sw	t6,0(t3)
	.loc 1 250 321 is_stmt 1
	.loc 1 250 337 is_stmt 0
	sw	t0,0(s2)
	.loc 1 250 343 is_stmt 1
	.loc 1 250 360 is_stmt 0
	sw	t5,0(t2)
	.loc 1 250 478 is_stmt 1
	.loc 1 250 495 is_stmt 0
	sw	zero,0(a0)
	.loc 1 250 588 is_stmt 1
	.loc 1 250 605 is_stmt 0
	li	t6,16
	sw	t6,0(a7)
	.loc 1 250 668 is_stmt 1
	.loc 1 250 685 is_stmt 0
	sw	t0,0(a1)
	.loc 1 250 691 is_stmt 1
	.loc 1 250 708 is_stmt 0
	li	t5,127
	sw	t5,0(t1)
	.loc 1 250 805 is_stmt 1
	.loc 1 250 822 is_stmt 0
	sw	zero,0(a2)
	.loc 1 250 885 is_stmt 1
	.loc 1 250 902 is_stmt 0
	li	t6,4
	sw	t6,0(a3)
	.loc 1 250 947 is_stmt 1
	.loc 1 250 964 is_stmt 0
	sw	s4,0(a4)
	.loc 1 250 970 is_stmt 1
	.loc 1 250 987 is_stmt 0
	li	t6,15
	sw	t6,0(s0)
	.loc 1 250 1054 is_stmt 1
	.loc 1 250 1071 is_stmt 0
	sw	zero,0(a5)
	.loc 1 250 1116 is_stmt 1
	.loc 1 250 1132 is_stmt 0
	sw	s5,0(s10)
	.loc 1 250 1143 is_stmt 1
	.loc 1 250 1159 is_stmt 0
	sw	s4,0(s9)
	.loc 1 250 1165 is_stmt 1
	.loc 1 250 1182 is_stmt 0
	sw	s4,0(s8)
	.loc 1 250 1227 is_stmt 1
	.loc 1 250 1244 is_stmt 0
	sw	zero,0(s7)
	.loc 1 250 1253 is_stmt 1
.LVL39:
	.loc 1 250 1470
	.loc 1 250 1486 is_stmt 0
	sw	zero,0(s1)
	.loc 1 250 1515 is_stmt 1
	.loc 1 250 1516
	.loc 1 250 1533 is_stmt 0
	sw	ra,16(sp)
	.loc 1 250 987
	mv	t5,t6
	.loc 1 250 1533
	li	t6,1024
	sw	t6,0(ra)
	.loc 1 250 1572 is_stmt 1
	.loc 1 250 1589 is_stmt 0
	lw	ra,68(sp)
	sw	ra,0(s6)
.LBE50:
.LBB51:
	.loc 1 250 1622 is_stmt 1
.LVL40:
	.loc 1 250 1806
	.loc 1 250 1823 is_stmt 0
	lw	ra,76(sp)
	sw	ra,0(a7)
	.loc 1 250 1854 is_stmt 1
	.loc 1 250 1871 is_stmt 0
	sw	t0,0(a1)
	.loc 1 250 1877 is_stmt 1
	.loc 1 250 1894 is_stmt 0
	lw	ra,64(sp)
	sw	ra,0(t1)
	.loc 1 250 1934 is_stmt 1
	.loc 1 250 1951 is_stmt 0
	lw	ra,24(sp)
	sw	ra,0(a2)
	.loc 1 250 1982 is_stmt 1
	.loc 1 250 1999 is_stmt 0
	lw	ra,32(sp)
	sw	ra,0(a3)
	.loc 1 250 2012 is_stmt 1
	.loc 1 250 2029 is_stmt 0
	sw	t0,0(a4)
	.loc 1 250 2035 is_stmt 1
	.loc 1 250 2052 is_stmt 0
	lw	t6,80(sp)
	sw	t6,0(s0)
	.loc 1 250 2064 is_stmt 1
	.loc 1 250 2081 is_stmt 0
	sw	zero,0(a5)
	.loc 1 250 2094 is_stmt 1
	.loc 1 250 2110 is_stmt 0
	sw	s5,0(s10)
	.loc 1 250 2121 is_stmt 1
	.loc 1 250 2137 is_stmt 0
	sw	t5,0(s9)
	.loc 1 250 2143 is_stmt 1
	.loc 1 250 2160 is_stmt 0
	lw	ra,28(sp)
	sw	ra,0(s8)
	.loc 1 250 2173 is_stmt 1
	.loc 1 250 2190 is_stmt 0
	lw	ra,52(sp)
	sw	ra,0(s7)
	.loc 1 250 2199 is_stmt 1
.LVL41:
	.loc 1 250 2260
	.loc 1 250 2277 is_stmt 0
	lw	ra,44(sp)
	lw	t6,40(sp)
	sw	t6,0(ra)
	.loc 1 250 2318 is_stmt 1
	.loc 1 250 2319
	.loc 1 250 2340 is_stmt 0
	lw	ra,56(sp)
	lw	t5,160(sp)
	add	t5,t5,ra
	.loc 1 250 2335
	sw	t5,0(s1)
	.loc 1 250 2371 is_stmt 1
	.loc 1 250 2372
	.loc 1 250 2389 is_stmt 0
	lw	t6,48(sp)
.LBE51:
.LBB52:
	.loc 1 250 3158
	li	t5,524288
	addi	t5,t5,536
.LBE52:
.LBB53:
	.loc 1 250 2389
	sw	t6,0(s6)
.LBE53:
	.loc 1 250 2421 is_stmt 1
	.loc 1 250 2422
	.loc 1 250 2438 is_stmt 0
	lw	ra,20(sp)
	sw	t4,12(sp)
.LBB54:
	.loc 1 250 3298
	li	t6,1024
.LBE54:
	.loc 1 250 2438
	sw	ra,0(t4)
.LBB55:
	.loc 1 250 2528 is_stmt 1
.LVL42:
	.loc 1 250 2573
	.loc 1 250 2590 is_stmt 0
	li	t4,4096
	sw	t4,0(a3)
	.loc 1 250 2602 is_stmt 1
	.loc 1 250 2619 is_stmt 0
	sw	s4,0(a4)
	.loc 1 250 2625 is_stmt 1
	.loc 1 250 2642 is_stmt 0
	sw	s11,0(s0)
	.loc 1 250 2670 is_stmt 1
	.loc 1 250 2687 is_stmt 0
	sw	zero,0(a5)
	.loc 1 250 2699 is_stmt 1
	.loc 1 250 2716 is_stmt 0
	sw	t0,0(a1)
	.loc 1 250 2763 is_stmt 1
	.loc 1 250 2780 is_stmt 0
	sw	a6,0(a7)
	.loc 1 250 2830 is_stmt 1
	.loc 1 250 2847 is_stmt 0
	sw	s3,0(t1)
	.loc 1 250 2852 is_stmt 1
	.loc 1 250 2869 is_stmt 0
	sw	zero,0(a2)
	.loc 1 250 2872 is_stmt 1
	.loc 1 250 2888 is_stmt 0
	sw	s4,0(s9)
	.loc 1 250 2935 is_stmt 1
	.loc 1 250 2951 is_stmt 0
	li	ra,8
	sw	ra,0(s10)
	.loc 1 250 2977 is_stmt 1
	.loc 1 250 2994 is_stmt 0
	sw	s3,0(s8)
	.loc 1 250 2999 is_stmt 1
	.loc 1 250 3016 is_stmt 0
	sw	zero,0(s7)
	.loc 1 250 3019 is_stmt 1
	.loc 1 250 3035 is_stmt 0
	sw	t0,0(s2)
	.loc 1 250 3073 is_stmt 1
	.loc 1 250 3089 is_stmt 0
	sw	s5,0(t3)
	.loc 1 250 3100 is_stmt 1
	.loc 1 250 3117 is_stmt 0
	sw	s3,0(t2)
	.loc 1 250 3122 is_stmt 1
	.loc 1 250 3139 is_stmt 0
	sw	zero,0(a0)
	.loc 1 250 3142 is_stmt 1
	.loc 1 250 3158 is_stmt 0
	sw	t5,0(s1)
	.loc 1 250 3281 is_stmt 1
	.loc 1 250 3298 is_stmt 0
	lw	ra,16(sp)
.LBE55:
.LBB56:
	.loc 1 250 3844
	li	t4,1023
.LBE56:
.LBB57:
	.loc 1 250 3298
	sw	t6,0(ra)
	.loc 1 250 3437 is_stmt 1
	.loc 1 250 3454 is_stmt 0
	lw	t5,92(sp)
.LBE57:
.LBB58:
	.loc 1 250 3712
	li	t6,128
.LBE58:
.LBB59:
	.loc 1 250 3454
	sw	t5,0(s6)
.LBE59:
.LBB60:
	.loc 1 250 3487 is_stmt 1
.LVL43:
	.loc 1 250 3696
	.loc 1 250 3712 is_stmt 0
	sw	t6,0(t3)
	.loc 1 250 3805 is_stmt 1
	.loc 1 250 3821 is_stmt 0
	sw	t0,0(s2)
	.loc 1 250 3827 is_stmt 1
	.loc 1 250 3844 is_stmt 0
	sw	t4,0(t2)
	.loc 1 250 3962 is_stmt 1
	.loc 1 250 3979 is_stmt 0
	sw	zero,0(a0)
	.loc 1 250 4072 is_stmt 1
	.loc 1 250 4089 is_stmt 0
	li	t6,16
	sw	t6,0(a7)
	.loc 1 250 0 is_stmt 1
	sw	t0,0(a1)
	.loc 1 250 0
	li	t4,127
	sw	t4,0(t1)
	.loc 1 250 0
	sw	zero,0(a2)
	.loc 1 250 0
	li	t6,4
	sw	t6,0(a3)
	.loc 1 250 0
	sw	s4,0(a4)
	.loc 1 250 0
	li	t6,15
	sw	t6,0(s0)
	.loc 1 250 0
	sw	zero,0(a5)
	.loc 1 250 0
	sw	s5,0(s10)
	.loc 1 250 0
	sw	s4,0(s9)
	.loc 1 250 0
	sw	s4,0(s8)
	.loc 1 250 0
	sw	zero,0(s7)
	.loc 1 250 0
.LVL44:
	.loc 1 250 0
	sw	zero,0(s1)
	.loc 1 250 0
	.loc 1 250 0
	lw	t4,72(sp)
	mv	t5,t6
	sw	t4,0(s6)
.LBE60:
	.loc 1 250 0
	.loc 1 250 0
	lw	t4,12(sp)
	lw	t6,20(sp)
	sw	t6,0(t4)
.LBB61:
	.loc 1 253 3
.LVL45:
	.loc 1 253 212
	.loc 1 253 228 is_stmt 0
	li	t6,128
	sw	t6,0(t3)
	.loc 1 253 321 is_stmt 1
	.loc 1 253 337 is_stmt 0
	sw	t0,0(s2)
	.loc 1 253 343 is_stmt 1
	.loc 1 253 360 is_stmt 0
	li	t6,1023
	sw	t6,0(t2)
	.loc 1 253 478 is_stmt 1
	.loc 1 253 495 is_stmt 0
	sw	zero,0(a0)
	.loc 1 253 588 is_stmt 1
	.loc 1 253 605 is_stmt 0
	li	t6,16
	sw	t6,0(a7)
	.loc 1 253 668 is_stmt 1
	.loc 1 253 708 is_stmt 0
	li	t6,127
	.loc 1 253 685
	sw	t0,0(a1)
	.loc 1 253 691 is_stmt 1
	.loc 1 253 708 is_stmt 0
	sw	t6,0(t1)
	.loc 1 253 805 is_stmt 1
	.loc 1 253 822 is_stmt 0
	sw	zero,0(a2)
	.loc 1 253 885 is_stmt 1
	.loc 1 253 902 is_stmt 0
	li	t6,4
	sw	t6,0(a3)
	.loc 1 253 947 is_stmt 1
	.loc 1 253 964 is_stmt 0
	sw	s4,0(a4)
	.loc 1 253 970 is_stmt 1
	.loc 1 253 987 is_stmt 0
	sw	t5,0(s0)
	.loc 1 253 1054 is_stmt 1
	.loc 1 253 1071 is_stmt 0
	sw	zero,0(a5)
	.loc 1 253 1116 is_stmt 1
	.loc 1 253 1132 is_stmt 0
	sw	s5,0(s10)
	.loc 1 253 1143 is_stmt 1
	.loc 1 253 1159 is_stmt 0
	sw	s4,0(s9)
	.loc 1 253 1165 is_stmt 1
	.loc 1 253 1182 is_stmt 0
	sw	s4,0(s8)
	.loc 1 253 1227 is_stmt 1
	.loc 1 253 1244 is_stmt 0
	sw	zero,0(s7)
	.loc 1 253 1253 is_stmt 1
.LVL46:
	.loc 1 253 1470
	.loc 1 253 1486 is_stmt 0
	sw	zero,0(s1)
	.loc 1 253 1515 is_stmt 1
	.loc 1 253 1516
	.loc 1 253 1533 is_stmt 0
	sw	ra,16(sp)
	li	t6,1024
	sw	t6,0(ra)
	.loc 1 253 1572 is_stmt 1
	.loc 1 253 1589 is_stmt 0
	lw	t6,68(sp)
	sw	t6,0(s6)
.LBE61:
.LBB62:
	.loc 1 253 1622 is_stmt 1
.LVL47:
	.loc 1 253 1806
	.loc 1 253 1823 is_stmt 0
	lw	t6,76(sp)
	sw	t6,0(a7)
	.loc 1 253 1854 is_stmt 1
	.loc 1 253 1871 is_stmt 0
	sw	t0,0(a1)
	.loc 1 253 1877 is_stmt 1
	.loc 1 253 1894 is_stmt 0
	lw	t6,64(sp)
	sw	t6,0(t1)
	.loc 1 253 1934 is_stmt 1
	.loc 1 253 1951 is_stmt 0
	lw	t6,24(sp)
	sw	t6,0(a2)
	.loc 1 253 1982 is_stmt 1
	.loc 1 253 1999 is_stmt 0
	lw	ra,32(sp)
	sw	ra,0(a3)
	.loc 1 253 2012 is_stmt 1
	.loc 1 253 2029 is_stmt 0
	sw	t0,0(a4)
	.loc 1 253 2035 is_stmt 1
	.loc 1 253 2052 is_stmt 0
	lw	t6,80(sp)
	sw	t6,0(s0)
	.loc 1 253 2064 is_stmt 1
	.loc 1 253 2081 is_stmt 0
	sw	zero,0(a5)
	.loc 1 253 2094 is_stmt 1
	.loc 1 253 2110 is_stmt 0
	sw	s5,0(s10)
	.loc 1 253 2121 is_stmt 1
	.loc 1 253 2137 is_stmt 0
	sw	t5,0(s9)
	.loc 1 253 2143 is_stmt 1
	.loc 1 253 2160 is_stmt 0
	lw	t6,28(sp)
	sw	t6,0(s8)
	.loc 1 253 2173 is_stmt 1
	.loc 1 253 2190 is_stmt 0
	lw	ra,52(sp)
	sw	ra,0(s7)
	.loc 1 253 2199 is_stmt 1
.LVL48:
	.loc 1 253 2260
	.loc 1 253 2277 is_stmt 0
	lw	t6,44(sp)
	lw	ra,40(sp)
	sw	ra,0(t6)
	.loc 1 253 2318 is_stmt 1
	.loc 1 253 2319
	.loc 1 253 2340 is_stmt 0
	lw	ra,56(sp)
	lw	t5,164(sp)
	add	t5,t5,ra
	.loc 1 253 2335
	sw	t5,0(s1)
	.loc 1 253 2371 is_stmt 1
	.loc 1 253 2372
	.loc 1 253 2389 is_stmt 0
	lw	ra,48(sp)
.LBE62:
.LBB63:
	.loc 1 253 3158
	li	t5,524288
	addi	t5,t5,1048
.LBE63:
.LBB64:
	.loc 1 253 2389
	sw	ra,0(s6)
.LBE64:
	.loc 1 253 2421 is_stmt 1
	.loc 1 253 2422
	.loc 1 253 2438 is_stmt 0
	lw	t6,20(sp)
	sw	t4,12(sp)
.LBB65:
	.loc 1 253 2951
	li	ra,8
.LBE65:
	.loc 1 253 2438
	sw	t6,0(t4)
.LBB66:
	.loc 1 253 2528 is_stmt 1
.LVL49:
	.loc 1 253 2573
	.loc 1 253 2590 is_stmt 0
	li	t4,4096
	sw	t4,0(a3)
	.loc 1 253 2602 is_stmt 1
	.loc 1 253 2619 is_stmt 0
	sw	s4,0(a4)
	.loc 1 253 2625 is_stmt 1
	.loc 1 253 2642 is_stmt 0
	sw	s11,0(s0)
	.loc 1 253 2670 is_stmt 1
	.loc 1 253 2687 is_stmt 0
	sw	zero,0(a5)
	.loc 1 253 2699 is_stmt 1
	.loc 1 253 2716 is_stmt 0
	sw	t0,0(a1)
	.loc 1 253 2763 is_stmt 1
	.loc 1 253 2780 is_stmt 0
	sw	a6,0(a7)
	.loc 1 253 2830 is_stmt 1
	.loc 1 253 2847 is_stmt 0
	sw	s3,0(t1)
	.loc 1 253 2852 is_stmt 1
	.loc 1 253 2869 is_stmt 0
	sw	zero,0(a2)
	.loc 1 253 2872 is_stmt 1
	.loc 1 253 2888 is_stmt 0
	sw	s4,0(s9)
	.loc 1 253 2935 is_stmt 1
	.loc 1 253 2951 is_stmt 0
	sw	ra,0(s10)
	.loc 1 253 2977 is_stmt 1
	.loc 1 253 2994 is_stmt 0
	sw	s3,0(s8)
	.loc 1 253 2999 is_stmt 1
	.loc 1 253 3016 is_stmt 0
	sw	zero,0(s7)
	.loc 1 253 3019 is_stmt 1
	.loc 1 253 3035 is_stmt 0
	sw	t0,0(s2)
	.loc 1 253 3073 is_stmt 1
	.loc 1 253 3089 is_stmt 0
	sw	s5,0(t3)
	.loc 1 253 3100 is_stmt 1
	.loc 1 253 3117 is_stmt 0
	sw	s3,0(t2)
	.loc 1 253 3122 is_stmt 1
	.loc 1 253 3139 is_stmt 0
	sw	zero,0(a0)
	.loc 1 253 3142 is_stmt 1
	.loc 1 253 3158 is_stmt 0
	sw	t5,0(s1)
	.loc 1 253 3282 is_stmt 1
	.loc 1 253 2951 is_stmt 0
	mv	t4,ra
	.loc 1 253 3299
	lw	ra,16(sp)
	li	t5,1024
	sw	t5,0(ra)
	.loc 1 253 3438 is_stmt 1
	.loc 1 253 3455 is_stmt 0
	lw	t5,92(sp)
.LBE66:
.LBB67:
	.loc 1 253 3845
	li	ra,1023
.LBE67:
.LBB68:
	.loc 1 253 3455
	sw	t5,0(s6)
.LBE68:
.LBB69:
	.loc 1 253 3488 is_stmt 1
.LVL50:
	.loc 1 253 3697
	.loc 1 253 3713 is_stmt 0
	li	t5,128
	sw	t5,0(t3)
	.loc 1 253 3806 is_stmt 1
	.loc 1 253 3822 is_stmt 0
	sw	t0,0(s2)
	.loc 1 253 3828 is_stmt 1
	.loc 1 253 3845 is_stmt 0
	sw	ra,0(t2)
	.loc 1 253 3963 is_stmt 1
	.loc 1 253 3980 is_stmt 0
	sw	zero,0(a0)
	.loc 1 253 4073 is_stmt 1
	.loc 1 253 4090 is_stmt 0
	li	t5,16
	sw	t5,0(a7)
	.loc 1 253 0 is_stmt 1
	sw	t0,0(a1)
	.loc 1 253 0
	li	t5,127
	sw	t5,0(t1)
	.loc 1 253 0
	sw	zero,0(a2)
	.loc 1 253 0
	li	ra,4
	sw	ra,0(a3)
	.loc 1 253 0
	sw	s4,0(a4)
	.loc 1 253 0
	li	t5,15
	sw	t5,0(s0)
	.loc 1 253 0
	sw	zero,0(a5)
	.loc 1 253 0
	sw	s5,0(s10)
	.loc 1 253 0
	sw	s4,0(s9)
	.loc 1 253 0
	sw	s4,0(s8)
	.loc 1 253 0
	sw	zero,0(s7)
	.loc 1 253 0
.LVL51:
	.loc 1 253 0
	sw	zero,0(s1)
	.loc 1 253 0
	.loc 1 253 0
	lw	t5,72(sp)
.LBE69:
.LBB70:
	.loc 1 259 440 is_stmt 0
	mv	ra,t4
.LBE70:
.LBB71:
	.loc 1 253 0
	sw	t5,0(s6)
.LBE71:
	.loc 1 253 0 is_stmt 1
	.loc 1 253 0
	lw	t5,12(sp)
	sw	t6,20(sp)
	sw	t6,0(t5)
.LBB72:
	.loc 1 259 3
.LVL52:
	.loc 1 259 42
	.loc 1 259 58 is_stmt 0
	li	t6,4096
	sw	t6,0(t3)
	.loc 1 259 70 is_stmt 1
	.loc 1 259 86 is_stmt 0
	li	t5,2
	sw	t5,0(s2)
	.loc 1 259 92 is_stmt 1
	.loc 1 259 109 is_stmt 0
	sw	s11,0(t2)
	.loc 1 259 137 is_stmt 1
	.loc 1 259 154 is_stmt 0
	sw	zero,0(a0)
	.loc 1 259 166 is_stmt 1
	.loc 1 259 183 is_stmt 0
	sw	t0,0(a1)
	.loc 1 259 232 is_stmt 1
	.loc 1 259 249 is_stmt 0
	sw	a6,0(a7)
	.loc 1 259 299 is_stmt 1
	.loc 1 259 316 is_stmt 0
	sw	s3,0(t1)
	.loc 1 259 321 is_stmt 1
	.loc 1 259 338 is_stmt 0
	sw	zero,0(a2)
	.loc 1 259 341 is_stmt 1
	.loc 1 259 358 is_stmt 0
	sw	s5,0(a4)
	.loc 1 259 423 is_stmt 1
	.loc 1 259 440 is_stmt 0
	sw	t4,0(a3)
	.loc 1 259 466 is_stmt 1
	.loc 1 259 483 is_stmt 0
	sw	s3,0(s0)
	.loc 1 259 488 is_stmt 1
	.loc 1 259 505 is_stmt 0
	sw	zero,0(a5)
	.loc 1 259 508 is_stmt 1
	.loc 1 259 524 is_stmt 0
	sw	t0,0(s9)
	.loc 1 259 564 is_stmt 1
	.loc 1 259 580 is_stmt 0
	sw	s5,0(s10)
	.loc 1 259 591 is_stmt 1
	.loc 1 259 608 is_stmt 0
	sw	s3,0(s8)
	.loc 1 259 613 is_stmt 1
	.loc 1 259 649 is_stmt 0
	li	t4,524288
	.loc 1 259 630
	sw	zero,0(s7)
	.loc 1 259 633 is_stmt 1
	.loc 1 259 649 is_stmt 0
	addi	t4,t4,56
	sw	t4,0(s1)
	.loc 1 259 786 is_stmt 1
	.loc 1 259 803 is_stmt 0
	lw	t4,16(sp)
	li	t5,384
	sw	t5,0(t4)
	.loc 1 259 964 is_stmt 1
	.loc 1 259 981 is_stmt 0
	li	t4,1032192
	addi	t4,t4,127
	sw	t4,40(sp)
	sw	t4,0(s6)
.LBE72:
.LBB73:
	.loc 1 259 1014 is_stmt 1
.LVL53:
	.loc 1 259 1059
	.loc 1 259 1075 is_stmt 0
	sw	t6,0(t3)
	.loc 1 259 1087 is_stmt 1
	.loc 1 259 1103 is_stmt 0
	li	t4,2
	.loc 1 259 1126
	li	t5,12288
	.loc 1 259 1103
	sw	t4,0(s2)
	.loc 1 259 1109 is_stmt 1
	.loc 1 259 1126 is_stmt 0
	addi	t5,t5,-1
	sw	t5,44(sp)
	sw	t5,0(t2)
	.loc 1 259 1154 is_stmt 1
	.loc 1 259 1171 is_stmt 0
	sw	t6,0(a0)
	.loc 1 259 1183 is_stmt 1
	.loc 1 259 1200 is_stmt 0
	sw	t0,0(a1)
	.loc 1 259 1249 is_stmt 1
	.loc 1 259 1266 is_stmt 0
	sw	a6,0(a7)
	.loc 1 259 1316 is_stmt 1
	.loc 1 259 1333 is_stmt 0
	sw	s3,0(t1)
	.loc 1 259 1338 is_stmt 1
	.loc 1 259 1355 is_stmt 0
	sw	zero,0(a2)
	.loc 1 259 1358 is_stmt 1
	.loc 1 259 1375 is_stmt 0
	sw	s5,0(a4)
	.loc 1 259 1408 is_stmt 1
	.loc 1 259 1425 is_stmt 0
	sw	ra,0(a3)
	.loc 1 259 1451 is_stmt 1
	.loc 1 259 1468 is_stmt 0
	sw	s3,0(s0)
	.loc 1 259 1473 is_stmt 1
	.loc 1 259 1490 is_stmt 0
	sw	zero,0(a5)
	.loc 1 259 1493 is_stmt 1
	.loc 1 259 1509 is_stmt 0
	sw	t0,0(s9)
	.loc 1 259 1549 is_stmt 1
	.loc 1 259 1565 is_stmt 0
	sw	s5,0(s10)
	.loc 1 259 1576 is_stmt 1
	.loc 1 259 1593 is_stmt 0
	sw	s3,0(s8)
	.loc 1 259 1598 is_stmt 1
	.loc 1 259 1425 is_stmt 0
	mv	t5,ra
	.loc 1 259 1634
	li	t6,528384
	.loc 1 259 1772
	li	ra,1032192
	.loc 1 259 1615
	sw	zero,0(s7)
	.loc 1 259 1618 is_stmt 1
	.loc 1 259 1634 is_stmt 0
	addi	t6,t6,24
	.loc 1 259 1772
	addi	ra,ra,125
	.loc 1 259 1634
	sw	t6,0(s1)
	.loc 1 259 1755 is_stmt 1
	.loc 1 259 1772 is_stmt 0
	mv	t6,ra
	sw	t6,48(sp)
	sw	t6,0(s6)
.LBE73:
	.loc 1 259 1804 is_stmt 1
	.loc 1 259 1805
	.loc 1 259 1821 is_stmt 0
	lw	t6,12(sp)
	li	ra,393216
	addi	ra,ra,9
	sw	ra,0(t6)
.LBB74:
	.loc 1 263 3 is_stmt 1
.LVL54:
	.loc 1 263 48
	.loc 1 263 64 is_stmt 0
	li	t6,4096
	sw	t6,0(t3)
	.loc 1 263 76 is_stmt 1
	.loc 1 263 92 is_stmt 0
	sw	t4,0(s2)
	.loc 1 263 98 is_stmt 1
	.loc 1 263 115 is_stmt 0
	lw	t4,44(sp)
	sw	t4,0(t2)
	.loc 1 263 143 is_stmt 1
	.loc 1 263 160 is_stmt 0
	sw	t6,0(a0)
	.loc 1 263 172 is_stmt 1
	.loc 1 263 189 is_stmt 0
	sw	t0,0(a1)
	.loc 1 263 238 is_stmt 1
	.loc 1 263 255 is_stmt 0
	sw	a6,0(a7)
	.loc 1 263 305 is_stmt 1
	.loc 1 263 322 is_stmt 0
	sw	s3,0(t1)
	.loc 1 263 327 is_stmt 1
	.loc 1 263 344 is_stmt 0
	sw	zero,0(a2)
	.loc 1 263 347 is_stmt 1
	.loc 1 263 364 is_stmt 0
	sw	s5,0(a4)
	.loc 1 263 393 is_stmt 1
	.loc 1 263 410 is_stmt 0
	sw	t5,0(a3)
	.loc 1 263 436 is_stmt 1
	.loc 1 263 453 is_stmt 0
	sw	s3,0(s0)
	.loc 1 263 458 is_stmt 1
	.loc 1 263 475 is_stmt 0
	sw	zero,0(a5)
	.loc 1 263 478 is_stmt 1
	.loc 1 263 494 is_stmt 0
	sw	t0,0(s9)
	.loc 1 263 534 is_stmt 1
	.loc 1 263 550 is_stmt 0
	sw	s5,0(s10)
	.loc 1 263 561 is_stmt 1
	.loc 1 263 578 is_stmt 0
	sw	s3,0(s8)
	.loc 1 263 583 is_stmt 1
	.loc 1 263 619 is_stmt 0
	li	t6,528384
	.loc 1 263 600
	sw	zero,0(s7)
	.loc 1 263 603 is_stmt 1
	.loc 1 263 619 is_stmt 0
	addi	t6,t6,8
	sw	t6,0(s1)
	.loc 1 263 738 is_stmt 1
	.loc 1 263 755 is_stmt 0
	lw	t4,16(sp)
	li	t5,384
	sw	t5,0(t4)
	.loc 1 263 880 is_stmt 1
	.loc 1 263 897 is_stmt 0
	lw	t6,40(sp)
.LBE74:
.LBB75:
	.loc 1 263 1013
	li	t5,2
.LBE75:
.LBB76:
	.loc 1 263 897
	sw	t6,0(s6)
.LBE76:
.LBB77:
	.loc 1 263 930 is_stmt 1
.LVL55:
	.loc 1 263 969
	.loc 1 263 985 is_stmt 0
	li	t6,4096
	sw	t6,0(t3)
	.loc 1 263 997 is_stmt 1
	.loc 1 263 1013 is_stmt 0
	sw	t5,0(s2)
	.loc 1 263 1019 is_stmt 1
	.loc 1 263 1036 is_stmt 0
	sw	s11,0(t2)
	.loc 1 263 1064 is_stmt 1
	.loc 1 263 1081 is_stmt 0
	sw	zero,0(a0)
	.loc 1 263 1093 is_stmt 1
	.loc 1 263 1110 is_stmt 0
	sw	t0,0(a1)
	.loc 1 263 1159 is_stmt 1
	.loc 1 263 1176 is_stmt 0
	sw	a6,0(a7)
	.loc 1 263 1226 is_stmt 1
	.loc 1 263 1243 is_stmt 0
	sw	s3,0(t1)
	.loc 1 263 1248 is_stmt 1
	.loc 1 263 1265 is_stmt 0
	sw	zero,0(a2)
	.loc 1 263 1268 is_stmt 1
	.loc 1 263 1361 is_stmt 0
	li	t5,8
	.loc 1 263 1285
	sw	s5,0(a4)
	.loc 1 263 1344 is_stmt 1
	.loc 1 263 1361 is_stmt 0
	sw	t5,0(a3)
	.loc 1 263 1387 is_stmt 1
	.loc 1 263 1404 is_stmt 0
	sw	s3,0(s0)
	.loc 1 263 1409 is_stmt 1
	.loc 1 263 1426 is_stmt 0
	sw	zero,0(a5)
	.loc 1 263 1429 is_stmt 1
	.loc 1 263 1445 is_stmt 0
	sw	t0,0(s9)
	.loc 1 263 1485 is_stmt 1
	.loc 1 263 1501 is_stmt 0
	sw	s5,0(s10)
	.loc 1 263 1512 is_stmt 1
	.loc 1 263 1529 is_stmt 0
	sw	s3,0(s8)
	.loc 1 263 1534 is_stmt 1
	.loc 1 263 1570 is_stmt 0
	li	t5,524288
	.loc 1 263 1551
	sw	zero,0(s7)
	.loc 1 263 1554 is_stmt 1
	.loc 1 263 1570 is_stmt 0
	addi	t5,t5,40
	sw	t5,92(sp)
	sw	t5,0(s1)
	.loc 1 263 1703 is_stmt 1
	.loc 1 263 1720 is_stmt 0
	lw	t5,48(sp)
	sw	t5,0(s6)
.LBE77:
	.loc 1 263 1752 is_stmt 1
	.loc 1 263 1753
	.loc 1 263 1769 is_stmt 0
	lw	t5,12(sp)
	sw	ra,0(t5)
.LBB78:
	.loc 1 267 3 is_stmt 1
.LVL56:
	.loc 1 267 42
	.loc 1 267 58 is_stmt 0
	sw	t6,0(t3)
	.loc 1 267 70 is_stmt 1
	.loc 1 267 86 is_stmt 0
	li	t5,2
	sw	t5,0(s2)
	.loc 1 267 92 is_stmt 1
	.loc 1 267 109 is_stmt 0
	sw	s11,0(t2)
	.loc 1 267 137 is_stmt 1
	.loc 1 267 154 is_stmt 0
	sw	zero,0(a0)
	.loc 1 267 166 is_stmt 1
	.loc 1 267 183 is_stmt 0
	sw	t0,0(a1)
	.loc 1 267 232 is_stmt 1
	.loc 1 267 249 is_stmt 0
	sw	a6,0(a7)
	.loc 1 267 299 is_stmt 1
	.loc 1 267 316 is_stmt 0
	sw	s3,0(t1)
	.loc 1 267 321 is_stmt 1
	.loc 1 267 338 is_stmt 0
	sw	zero,0(a2)
	.loc 1 267 341 is_stmt 1
	.loc 1 267 358 is_stmt 0
	sw	s5,0(a4)
	.loc 1 267 423 is_stmt 1
	.loc 1 267 440 is_stmt 0
	li	t5,8
	sw	t5,0(a3)
	.loc 1 267 466 is_stmt 1
	.loc 1 267 483 is_stmt 0
	sw	s3,0(s0)
	.loc 1 267 488 is_stmt 1
	.loc 1 267 505 is_stmt 0
	sw	zero,0(a5)
	.loc 1 267 508 is_stmt 1
	.loc 1 267 524 is_stmt 0
	sw	t0,0(s9)
	.loc 1 267 564 is_stmt 1
	.loc 1 267 580 is_stmt 0
	sw	s5,0(s10)
	.loc 1 267 591 is_stmt 1
	.loc 1 267 608 is_stmt 0
	sw	s3,0(s8)
	.loc 1 267 613 is_stmt 1
	.loc 1 267 649 is_stmt 0
	li	t6,524288
	.loc 1 267 630
	sw	zero,0(s7)
	.loc 1 267 633 is_stmt 1
	.loc 1 267 649 is_stmt 0
	addi	t6,t6,568
	sw	t6,0(s1)
	.loc 1 267 788 is_stmt 1
	.loc 1 267 805 is_stmt 0
	li	t5,384
	sw	t5,0(t4)
	.loc 1 267 966 is_stmt 1
	.loc 1 267 983 is_stmt 0
	lw	t6,40(sp)
.LBE78:
.LBB79:
	.loc 1 267 1105
	li	t5,2
.LBE79:
.LBB80:
	.loc 1 267 983
	sw	t6,0(s6)
.LBE80:
.LBB81:
	.loc 1 267 1016 is_stmt 1
.LVL57:
	.loc 1 267 1061
	.loc 1 267 1077 is_stmt 0
	li	t6,4096
	sw	t6,0(t3)
	.loc 1 267 1089 is_stmt 1
	.loc 1 267 1105 is_stmt 0
	sw	t5,0(s2)
	.loc 1 267 1111 is_stmt 1
	.loc 1 267 1128 is_stmt 0
	lw	t5,44(sp)
	sw	t5,0(t2)
	.loc 1 267 1156 is_stmt 1
	.loc 1 267 1173 is_stmt 0
	sw	t6,0(a0)
	.loc 1 267 1185 is_stmt 1
	.loc 1 267 1202 is_stmt 0
	sw	t0,0(a1)
	.loc 1 267 1251 is_stmt 1
	.loc 1 267 1268 is_stmt 0
	sw	a6,0(a7)
	.loc 1 267 1318 is_stmt 1
	.loc 1 267 1335 is_stmt 0
	sw	s3,0(t1)
	.loc 1 267 1340 is_stmt 1
	.loc 1 267 1357 is_stmt 0
	sw	zero,0(a2)
	.loc 1 267 1360 is_stmt 1
	.loc 1 267 1377 is_stmt 0
	sw	s5,0(a4)
	.loc 1 267 1410 is_stmt 1
	.loc 1 267 1427 is_stmt 0
	li	t5,8
	sw	t5,0(a3)
	.loc 1 267 1453 is_stmt 1
	.loc 1 267 1470 is_stmt 0
	sw	s3,0(s0)
	.loc 1 267 1475 is_stmt 1
	.loc 1 267 1492 is_stmt 0
	sw	zero,0(a5)
	.loc 1 267 1495 is_stmt 1
	.loc 1 267 1511 is_stmt 0
	sw	t0,0(s9)
	.loc 1 267 1551 is_stmt 1
	.loc 1 267 1567 is_stmt 0
	sw	s5,0(s10)
	.loc 1 267 1578 is_stmt 1
	.loc 1 267 1595 is_stmt 0
	sw	s3,0(s8)
	.loc 1 267 1600 is_stmt 1
	.loc 1 267 1636 is_stmt 0
	li	t6,528384
	.loc 1 267 1617
	sw	zero,0(s7)
	.loc 1 267 1620 is_stmt 1
	.loc 1 267 1636 is_stmt 0
	addi	t6,t6,536
	sw	t6,0(s1)
	.loc 1 267 1759 is_stmt 1
	.loc 1 267 1776 is_stmt 0
	lw	t5,48(sp)
.LBE81:
.LBB82:
	.loc 1 271 64
	li	t6,4096
.LBE82:
.LBB83:
	.loc 1 267 1776
	sw	t5,0(s6)
.LBE83:
	.loc 1 267 1808 is_stmt 1
	.loc 1 267 1809
	.loc 1 267 1825 is_stmt 0
	lw	t5,12(sp)
	sw	ra,0(t5)
.LBB84:
	.loc 1 271 3 is_stmt 1
.LVL58:
	.loc 1 271 48
	.loc 1 271 64 is_stmt 0
	sw	t6,0(t3)
	.loc 1 271 76 is_stmt 1
	.loc 1 271 92 is_stmt 0
	li	t5,2
	sw	t5,0(s2)
	.loc 1 271 98 is_stmt 1
	.loc 1 271 115 is_stmt 0
	lw	t5,44(sp)
	sw	t5,0(t2)
	.loc 1 271 143 is_stmt 1
	.loc 1 271 160 is_stmt 0
	sw	t6,0(a0)
	.loc 1 271 172 is_stmt 1
	.loc 1 271 189 is_stmt 0
	sw	t0,0(a1)
	.loc 1 271 238 is_stmt 1
	.loc 1 271 255 is_stmt 0
	sw	a6,0(a7)
	.loc 1 271 305 is_stmt 1
	.loc 1 271 322 is_stmt 0
	sw	s3,0(t1)
	.loc 1 271 327 is_stmt 1
	.loc 1 271 344 is_stmt 0
	sw	zero,0(a2)
	.loc 1 271 347 is_stmt 1
	.loc 1 271 364 is_stmt 0
	sw	s5,0(a4)
	.loc 1 271 393 is_stmt 1
	.loc 1 271 410 is_stmt 0
	li	t5,8
	sw	t5,0(a3)
	.loc 1 271 436 is_stmt 1
	.loc 1 271 453 is_stmt 0
	sw	s3,0(s0)
	.loc 1 271 458 is_stmt 1
	.loc 1 271 475 is_stmt 0
	sw	zero,0(a5)
	.loc 1 271 478 is_stmt 1
	.loc 1 271 494 is_stmt 0
	sw	t0,0(s9)
	.loc 1 271 534 is_stmt 1
	.loc 1 271 550 is_stmt 0
	sw	s5,0(s10)
	.loc 1 271 561 is_stmt 1
	.loc 1 271 578 is_stmt 0
	sw	s3,0(s8)
	.loc 1 271 583 is_stmt 1
	.loc 1 271 619 is_stmt 0
	li	t6,528384
	.loc 1 271 600
	sw	zero,0(s7)
	.loc 1 271 603 is_stmt 1
	.loc 1 271 619 is_stmt 0
	addi	t6,t6,520
	sw	t6,0(s1)
	.loc 1 271 740 is_stmt 1
	.loc 1 271 757 is_stmt 0
	li	t5,384
	sw	t5,0(t4)
	.loc 1 271 882 is_stmt 1
	.loc 1 271 899 is_stmt 0
	lw	t6,40(sp)
.LBE84:
.LBB85:
	.loc 1 271 1015
	li	t5,2
.LBE85:
.LBB86:
	.loc 1 271 899
	sw	t6,0(s6)
.LBE86:
.LBB87:
	.loc 1 271 932 is_stmt 1
.LVL59:
	.loc 1 271 971
	.loc 1 271 987 is_stmt 0
	li	t6,4096
	sw	t6,0(t3)
	.loc 1 271 999 is_stmt 1
	.loc 1 271 1015 is_stmt 0
	sw	t5,0(s2)
	.loc 1 271 1021 is_stmt 1
	.loc 1 271 1038 is_stmt 0
	sw	s11,0(t2)
	.loc 1 271 1066 is_stmt 1
	.loc 1 271 1083 is_stmt 0
	sw	zero,0(a0)
	.loc 1 271 1095 is_stmt 1
	.loc 1 271 1112 is_stmt 0
	sw	t0,0(a1)
	.loc 1 271 1161 is_stmt 1
	.loc 1 271 1178 is_stmt 0
	sw	a6,0(a7)
	.loc 1 271 1228 is_stmt 1
	.loc 1 271 1245 is_stmt 0
	sw	s3,0(t1)
	.loc 1 271 1250 is_stmt 1
	.loc 1 271 1267 is_stmt 0
	sw	zero,0(a2)
	.loc 1 271 1270 is_stmt 1
	.loc 1 271 1287 is_stmt 0
	sw	s5,0(a4)
	.loc 1 271 1346 is_stmt 1
	.loc 1 271 1363 is_stmt 0
	li	t5,8
	sw	t5,0(a3)
	.loc 1 271 1389 is_stmt 1
	.loc 1 271 1406 is_stmt 0
	sw	s3,0(s0)
	.loc 1 271 1411 is_stmt 1
	.loc 1 271 1428 is_stmt 0
	sw	zero,0(a5)
	.loc 1 271 1431 is_stmt 1
	.loc 1 271 1447 is_stmt 0
	sw	t0,0(s9)
	.loc 1 271 1487 is_stmt 1
	.loc 1 271 1503 is_stmt 0
	sw	s5,0(s10)
	.loc 1 271 1514 is_stmt 1
	.loc 1 271 1531 is_stmt 0
	sw	s3,0(s8)
	.loc 1 271 1536 is_stmt 1
	.loc 1 271 1572 is_stmt 0
	li	t5,524288
	.loc 1 271 1553
	sw	zero,0(s7)
	.loc 1 271 1556 is_stmt 1
	.loc 1 271 1572 is_stmt 0
	addi	t5,t5,552
	sw	t5,96(sp)
	sw	t5,0(s1)
	.loc 1 271 1707 is_stmt 1
	.loc 1 271 1724 is_stmt 0
	lw	t5,48(sp)
	sw	t5,0(s6)
.LBE87:
	.loc 1 271 1756 is_stmt 1
	.loc 1 271 1757
	.loc 1 271 1773 is_stmt 0
	lw	t5,12(sp)
	sw	ra,0(t5)
.LBB88:
	.loc 1 275 3 is_stmt 1
.LVL60:
	.loc 1 275 42
	.loc 1 275 86 is_stmt 0
	li	t5,2
	.loc 1 275 58
	sw	t6,0(t3)
	.loc 1 275 70 is_stmt 1
	.loc 1 275 86 is_stmt 0
	sw	t5,0(s2)
	.loc 1 275 92 is_stmt 1
	.loc 1 275 109 is_stmt 0
	sw	s11,0(t2)
	.loc 1 275 137 is_stmt 1
	.loc 1 275 154 is_stmt 0
	sw	zero,0(a0)
	.loc 1 275 166 is_stmt 1
	.loc 1 275 183 is_stmt 0
	sw	t0,0(a1)
	.loc 1 275 232 is_stmt 1
	.loc 1 275 249 is_stmt 0
	sw	a6,0(a7)
	.loc 1 275 299 is_stmt 1
	.loc 1 275 316 is_stmt 0
	sw	s3,0(t1)
	.loc 1 275 321 is_stmt 1
	.loc 1 275 338 is_stmt 0
	sw	zero,0(a2)
	.loc 1 275 341 is_stmt 1
	.loc 1 275 358 is_stmt 0
	sw	s5,0(a4)
	.loc 1 275 423 is_stmt 1
	.loc 1 275 440 is_stmt 0
	li	t5,8
	sw	t5,0(a3)
	.loc 1 275 466 is_stmt 1
	.loc 1 275 483 is_stmt 0
	sw	s3,0(s0)
	.loc 1 275 488 is_stmt 1
	.loc 1 275 505 is_stmt 0
	sw	zero,0(a5)
	.loc 1 275 508 is_stmt 1
	.loc 1 275 524 is_stmt 0
	sw	t0,0(s9)
	.loc 1 275 564 is_stmt 1
	.loc 1 275 580 is_stmt 0
	sw	s5,0(s10)
	.loc 1 275 591 is_stmt 1
	.loc 1 275 608 is_stmt 0
	sw	s3,0(s8)
	.loc 1 275 613 is_stmt 1
	.loc 1 275 649 is_stmt 0
	li	t6,524288
	.loc 1 275 630
	sw	zero,0(s7)
	.loc 1 275 633 is_stmt 1
	.loc 1 275 649 is_stmt 0
	addi	t6,t6,1080
	sw	t6,0(s1)
	.loc 1 275 789 is_stmt 1
	.loc 1 275 806 is_stmt 0
	sw	t4,16(sp)
	li	t5,384
	sw	t5,0(t4)
	.loc 1 275 967 is_stmt 1
	.loc 1 275 984 is_stmt 0
	lw	t6,40(sp)
.LBE88:
.LBB89:
	.loc 1 275 1106
	li	t5,2
.LBE89:
.LBB90:
	.loc 1 275 984
	sw	t6,0(s6)
.LBE90:
.LBB91:
	.loc 1 275 1017 is_stmt 1
.LVL61:
	.loc 1 275 1062
	.loc 1 275 1078 is_stmt 0
	li	t6,4096
	sw	t6,0(t3)
	.loc 1 275 1090 is_stmt 1
	.loc 1 275 1106 is_stmt 0
	sw	t5,0(s2)
	.loc 1 275 1112 is_stmt 1
	.loc 1 275 1129 is_stmt 0
	lw	t4,44(sp)
	.loc 1 275 1428
	li	t5,8
	.loc 1 275 1129
	sw	t4,0(t2)
	.loc 1 275 1157 is_stmt 1
	.loc 1 275 1174 is_stmt 0
	sw	t6,0(a0)
	.loc 1 275 1186 is_stmt 1
	.loc 1 275 1203 is_stmt 0
	sw	t0,0(a1)
	.loc 1 275 1252 is_stmt 1
	.loc 1 275 1269 is_stmt 0
	sw	a6,0(a7)
	.loc 1 275 1319 is_stmt 1
	.loc 1 275 1336 is_stmt 0
	sw	s3,0(t1)
	.loc 1 275 1341 is_stmt 1
	.loc 1 275 1358 is_stmt 0
	sw	zero,0(a2)
	.loc 1 275 1361 is_stmt 1
	.loc 1 275 1378 is_stmt 0
	sw	s5,0(a4)
	.loc 1 275 1411 is_stmt 1
	.loc 1 275 1428 is_stmt 0
	sw	t5,0(a3)
	.loc 1 275 1454 is_stmt 1
	.loc 1 275 1471 is_stmt 0
	sw	s3,0(s0)
	.loc 1 275 1476 is_stmt 1
	.loc 1 275 1493 is_stmt 0
	sw	zero,0(a5)
	.loc 1 275 1496 is_stmt 1
	.loc 1 275 1512 is_stmt 0
	sw	t0,0(s9)
	.loc 1 275 1552 is_stmt 1
	.loc 1 275 1568 is_stmt 0
	sw	s5,0(s10)
	.loc 1 275 1579 is_stmt 1
	.loc 1 275 1596 is_stmt 0
	sw	s3,0(s8)
	.loc 1 275 1601 is_stmt 1
	.loc 1 275 1637 is_stmt 0
	li	t6,528384
	.loc 1 275 1618
	sw	zero,0(s7)
	.loc 1 275 1621 is_stmt 1
	.loc 1 275 1637 is_stmt 0
	addi	t6,t6,1048
	sw	t6,0(s1)
	.loc 1 275 1761 is_stmt 1
	.loc 1 275 1428 is_stmt 0
	mv	t4,t5
	.loc 1 275 1778
	lw	t5,48(sp)
.LBE91:
.LBB92:
	.loc 1 279 64
	li	t6,4096
.LBE92:
.LBB93:
	.loc 1 275 1778
	sw	t5,0(s6)
.LBE93:
	.loc 1 275 1810 is_stmt 1
	.loc 1 275 1811
	.loc 1 275 1827 is_stmt 0
	lw	t5,12(sp)
	sw	ra,0(t5)
.LBB94:
	.loc 1 279 3 is_stmt 1
.LVL62:
	.loc 1 279 48
	.loc 1 279 64 is_stmt 0
	sw	t6,0(t3)
	.loc 1 279 76 is_stmt 1
	.loc 1 279 92 is_stmt 0
	li	t5,2
	sw	t5,0(s2)
	.loc 1 279 98 is_stmt 1
	.loc 1 279 115 is_stmt 0
	lw	t5,44(sp)
	sw	t5,0(t2)
	.loc 1 279 143 is_stmt 1
	.loc 1 279 160 is_stmt 0
	sw	t6,0(a0)
	.loc 1 279 172 is_stmt 1
	.loc 1 279 189 is_stmt 0
	sw	t0,0(a1)
	.loc 1 279 238 is_stmt 1
	.loc 1 279 255 is_stmt 0
	sw	a6,0(a7)
	.loc 1 279 305 is_stmt 1
	.loc 1 279 322 is_stmt 0
	sw	s3,0(t1)
	.loc 1 279 327 is_stmt 1
	.loc 1 279 344 is_stmt 0
	sw	zero,0(a2)
	.loc 1 279 347 is_stmt 1
	.loc 1 279 364 is_stmt 0
	sw	s5,0(a4)
	.loc 1 279 393 is_stmt 1
	.loc 1 279 410 is_stmt 0
	sw	t4,0(a3)
	.loc 1 279 436 is_stmt 1
	.loc 1 279 453 is_stmt 0
	sw	s3,0(s0)
	.loc 1 279 458 is_stmt 1
	.loc 1 279 475 is_stmt 0
	sw	zero,0(a5)
	.loc 1 279 478 is_stmt 1
	.loc 1 279 494 is_stmt 0
	sw	t0,0(s9)
	.loc 1 279 534 is_stmt 1
	.loc 1 279 550 is_stmt 0
	sw	s5,0(s10)
	.loc 1 279 561 is_stmt 1
	.loc 1 279 578 is_stmt 0
	sw	s3,0(s8)
	.loc 1 279 583 is_stmt 1
	.loc 1 279 619 is_stmt 0
	li	t4,528384
	.loc 1 279 600
	sw	zero,0(s7)
	.loc 1 279 603 is_stmt 1
	.loc 1 279 619 is_stmt 0
	addi	t4,t4,1032
	sw	t4,0(s1)
	.loc 1 279 741 is_stmt 1
	.loc 1 279 758 is_stmt 0
	lw	t4,16(sp)
	li	t5,384
	sw	t5,0(t4)
	.loc 1 279 883 is_stmt 1
	.loc 1 279 900 is_stmt 0
	lw	t4,40(sp)
.LBE94:
	.loc 1 290 10
	li	t5,-2147483648
	addi	t5,t5,36
.LBB95:
	.loc 1 279 900
	sw	t4,0(s6)
.LBE95:
.LBB96:
	.loc 1 279 933 is_stmt 1
.LVL63:
	.loc 1 279 972
	.loc 1 279 988 is_stmt 0
	sw	t6,0(t3)
	sw	t3,140(sp)
	.loc 1 279 1000 is_stmt 1
	.loc 1 279 1016 is_stmt 0
	li	t3,2
	sw	t3,0(s2)
	.loc 1 279 1022 is_stmt 1
	.loc 1 279 1039 is_stmt 0
	sw	s11,0(t2)
	sw	t2,136(sp)
	.loc 1 279 1067 is_stmt 1
	.loc 1 279 1084 is_stmt 0
	sw	zero,0(a0)
	.loc 1 279 1096 is_stmt 1
	.loc 1 279 1113 is_stmt 0
	sw	t0,0(a1)
	.loc 1 279 1162 is_stmt 1
	.loc 1 279 1179 is_stmt 0
	sw	a6,0(a7)
	sw	a7,128(sp)
	.loc 1 279 1229 is_stmt 1
	.loc 1 279 1246 is_stmt 0
	sw	s3,0(t1)
	sw	t1,124(sp)
	.loc 1 279 1251 is_stmt 1
	.loc 1 279 1268 is_stmt 0
	sw	zero,0(a2)
	.loc 1 279 1271 is_stmt 1
	.loc 1 279 1288 is_stmt 0
	sw	s5,0(a4)
	sw	a4,120(sp)
	.loc 1 279 1347 is_stmt 1
	.loc 1 279 1364 is_stmt 0
	li	a4,8
	sw	a4,0(a3)
	sw	a3,116(sp)
	.loc 1 279 1390 is_stmt 1
	.loc 1 279 1407 is_stmt 0
	sw	s3,0(s0)
	.loc 1 279 1412 is_stmt 1
	.loc 1 279 1429 is_stmt 0
	sw	zero,0(a5)
	sw	a5,112(sp)
	.loc 1 279 1432 is_stmt 1
	.loc 1 279 1488
	.loc 1 279 1448 is_stmt 0
	sw	t0,0(s9)
	.loc 1 279 1504
	sw	s5,0(s10)
	.loc 1 279 1515 is_stmt 1
	.loc 1 279 1532 is_stmt 0
	sw	s3,0(s8)
	.loc 1 279 1537 is_stmt 1
	.loc 1 279 1573 is_stmt 0
	li	t4,524288
	.loc 1 279 1554
	sw	zero,0(s7)
	.loc 1 279 1557 is_stmt 1
	.loc 1 279 1573 is_stmt 0
	addi	t4,t4,1064
	sw	t4,0(s1)
	.loc 1 279 1726
	lw	a3,48(sp)
	.loc 1 279 1573
	sw	t4,108(sp)
	.loc 1 279 1709 is_stmt 1
.LBE96:
	.loc 1 281 18 is_stmt 0
	li	a6,88
.LBB97:
	.loc 1 279 1726
	sw	a3,0(s6)
.LBE97:
	.loc 1 279 1758 is_stmt 1
	.loc 1 279 1759
	.loc 1 279 1775 is_stmt 0
	lw	a5,12(sp)
	.loc 1 288 18
	li	t6,1015828480
	addi	t6,t6,-1532
	.loc 1 279 1775
	sw	ra,0(a5)
	.loc 1 281 1 is_stmt 1
	.loc 1 281 2
	.loc 1 281 18 is_stmt 0
	sw	a6,0(a5)
	.loc 1 283 10 is_stmt 1
	.loc 1 288 1
	.loc 1 288 2
	.loc 1 288 18 is_stmt 0
	sw	a5,12(sp)
	sw	t6,0(a5)
	.loc 1 290 10 is_stmt 1
	sw	zero,0(t5)
	.loc 1 290 10
.LBB98:
	.loc 1 247 685 is_stmt 0
	sw	a1,104(sp)
	.loc 1 247 822
	sw	a2,100(sp)
	.loc 1 247 495
	sw	a0,44(sp)
.LBE98:
	.loc 1 290 10
	sw	t5,132(sp)
	call	_taskYield
.LVL64:
	.loc 1 290 24 is_stmt 1 discriminator 1
.LBB99:
	.loc 1 293 3
	.loc 1 293 50
	.loc 1 293 66 is_stmt 0
	lw	t3,140(sp)
	li	t0,4096
	.loc 1 293 251
	li	a6,64
	.loc 1 293 66
	sw	t0,0(t3)
	.loc 1 293 78 is_stmt 1
	.loc 1 293 94 is_stmt 0
	sw	s4,0(s2)
	.loc 1 293 100 is_stmt 1
	.loc 1 293 117 is_stmt 0
	lw	t2,136(sp)
	.loc 1 293 445
	li	t6,8
	.loc 1 293 529
	li	ra,7
	.loc 1 293 117
	sw	s11,0(t2)
	.loc 1 293 145 is_stmt 1
	.loc 1 293 162 is_stmt 0
	lw	a0,44(sp)
	.loc 1 293 529
	mv	t5,ra
	.loc 1 293 804
	li	t0,512
	.loc 1 293 162
	sw	zero,0(a0)
	.loc 1 293 174 is_stmt 1
	.loc 1 293 191 is_stmt 0
	lw	a1,104(sp)
	sw	s4,0(a1)
	.loc 1 293 234 is_stmt 1
	.loc 1 293 251 is_stmt 0
	lw	a7,128(sp)
	sw	a6,0(a7)
	.loc 1 293 298 is_stmt 1
	.loc 1 293 315 is_stmt 0
	lw	t1,124(sp)
	sw	s3,0(t1)
	.loc 1 293 320 is_stmt 1
	.loc 1 293 337 is_stmt 0
	lw	a2,100(sp)
	sw	zero,0(a2)
	.loc 1 293 340 is_stmt 1
	.loc 1 293 357 is_stmt 0
	lw	a4,120(sp)
	sw	s4,0(a4)
	.loc 1 293 428 is_stmt 1
	.loc 1 293 445 is_stmt 0
	lw	a3,116(sp)
	sw	t6,0(a3)
	.loc 1 293 471 is_stmt 1
	.loc 1 293 488 is_stmt 0
	sw	s3,0(s0)
	.loc 1 293 493 is_stmt 1
	.loc 1 293 510 is_stmt 0
	lw	a5,112(sp)
	sw	zero,0(a5)
	.loc 1 293 513 is_stmt 1
	.loc 1 293 529 is_stmt 0
	sw	ra,0(s9)
	.loc 1 293 569 is_stmt 1
	.loc 1 293 585 is_stmt 0
	sw	s5,0(s10)
	.loc 1 293 596 is_stmt 1
	.loc 1 293 613 is_stmt 0
	sw	s3,0(s8)
	.loc 1 293 618 is_stmt 1
	.loc 1 293 635 is_stmt 0
	sw	zero,0(s7)
	.loc 1 293 638 is_stmt 1
	.loc 1 293 654 is_stmt 0
	lw	t4,108(sp)
	sw	t4,0(s1)
	.loc 1 293 787 is_stmt 1
	.loc 1 293 804 is_stmt 0
	lw	ra,16(sp)
	sw	t0,0(ra)
	.loc 1 293 965 is_stmt 1
	.loc 1 293 982 is_stmt 0
	lw	ra,40(sp)
.LBE99:
.LBB100:
	.loc 1 293 1078
	li	t0,4096
.LBE100:
.LBB101:
	.loc 1 293 982
	sw	ra,0(s6)
.LBE101:
.LBB102:
	.loc 1 293 1015 is_stmt 1
.LVL65:
	.loc 1 293 1062
	.loc 1 293 1078 is_stmt 0
	sw	t0,0(t3)
	sw	t3,128(sp)
	.loc 1 293 1090 is_stmt 1
	.loc 1 293 1106 is_stmt 0
	sw	s4,0(s2)
	.loc 1 293 1112 is_stmt 1
	.loc 1 293 1129 is_stmt 0
	sw	s11,0(t2)
	sw	t2,124(sp)
	.loc 1 293 1157 is_stmt 1
	.loc 1 293 1174 is_stmt 0
	sw	zero,0(a0)
	sw	a0,120(sp)
	.loc 1 293 1186 is_stmt 1
	.loc 1 293 1203 is_stmt 0
	sw	s4,0(a1)
	sw	a1,116(sp)
	.loc 1 293 1246 is_stmt 1
	.loc 1 293 1263 is_stmt 0
	sw	a6,0(a7)
	sw	a7,112(sp)
	.loc 1 293 1310 is_stmt 1
	.loc 1 293 1327 is_stmt 0
	sw	s3,0(t1)
	sw	t1,108(sp)
	.loc 1 293 1332 is_stmt 1
	.loc 1 293 1349 is_stmt 0
	sw	zero,0(a2)
	sw	a2,104(sp)
	.loc 1 293 1352 is_stmt 1
	.loc 1 293 1369 is_stmt 0
	sw	s4,0(a4)
	sw	a4,100(sp)
	.loc 1 293 1440 is_stmt 1
	.loc 1 293 1457 is_stmt 0
	sw	t6,0(a3)
	sw	a3,44(sp)
	.loc 1 293 1483 is_stmt 1
	.loc 1 293 1500 is_stmt 0
	sw	s3,0(s0)
	.loc 1 293 1505 is_stmt 1
	.loc 1 293 1522 is_stmt 0
	sw	zero,0(a5)
	sw	a5,40(sp)
	.loc 1 293 1525 is_stmt 1
	.loc 1 293 1541 is_stmt 0
	sw	t5,0(s9)
	.loc 1 293 1581 is_stmt 1
	.loc 1 293 1597 is_stmt 0
	sw	s5,0(s10)
	.loc 1 293 1608 is_stmt 1
	.loc 1 293 1625 is_stmt 0
	sw	s3,0(s8)
	.loc 1 293 1630 is_stmt 1
	.loc 1 293 1647 is_stmt 0
	sw	zero,0(s7)
	.loc 1 293 1650 is_stmt 1
	.loc 1 293 1666 is_stmt 0
	sw	t4,0(s1)
	.loc 1 293 1799 is_stmt 1
	.loc 1 293 1816 is_stmt 0
	lw	a2,48(sp)
.LBE102:
	.loc 1 293 1865
	li	t6,65536
	addi	t6,t6,1
.LBB103:
	.loc 1 293 1816
	sw	a2,0(s6)
.LBE103:
	.loc 1 293 1848 is_stmt 1
	.loc 1 293 1849
	.loc 1 293 1865 is_stmt 0
	lw	a5,12(sp)
	.loc 1 295 18
	li	t4,1015877632
	addi	t4,t4,-508
	.loc 1 293 1865
	sw	t6,0(a5)
	.loc 1 295 1 is_stmt 1
	.loc 1 295 2
	.loc 1 295 18 is_stmt 0
	sw	a5,12(sp)
	sw	t4,0(a5)
	.loc 1 297 10 is_stmt 1
	lw	t5,132(sp)
	sw	zero,0(t5)
	.loc 1 297 10
	call	_taskYield
.LVL66:
	.loc 1 297 24 discriminator 1
	.loc 1 299 1
	.loc 1 299 2
	.loc 1 299 18 is_stmt 0
	lw	t5,12(sp)
	li	a6,88
.LBB104:
	.loc 1 303 373
	li	a3,7
.LBE104:
	.loc 1 299 18
	sw	a6,0(t5)
.LBB105:
	.loc 1 303 3 is_stmt 1
.LVL67:
	.loc 1 303 230
	.loc 1 303 246 is_stmt 0
	lw	t3,128(sp)
	li	a6,64
	.loc 1 303 677
	li	a4,16
	.loc 1 303 246
	sw	a6,0(t3)
	.loc 1 303 357 is_stmt 1
	.loc 1 303 373 is_stmt 0
	sw	a3,0(s2)
	.loc 1 303 379 is_stmt 1
	.loc 1 303 396 is_stmt 0
	lw	t2,124(sp)
	.loc 1 303 804
	li	a2,63
	.loc 1 303 1040
	li	t4,4
	.loc 1 303 396
	sw	s3,0(t2)
	.loc 1 303 532 is_stmt 1
	.loc 1 303 549 is_stmt 0
	lw	a0,120(sp)
	.loc 1 303 1149
	li	a5,15
	.loc 1 303 1833
	li	t0,512
	.loc 1 303 549
	sw	zero,0(a0)
	.loc 1 303 660 is_stmt 1
	.loc 1 303 677 is_stmt 0
	lw	a7,112(sp)
.LBE105:
.LBB106:
	.loc 1 303 2360
	li	t6,8
.LBE106:
.LBB107:
	.loc 1 303 677
	sw	a4,0(a7)
	.loc 1 303 764 is_stmt 1
	.loc 1 303 781 is_stmt 0
	lw	a1,116(sp)
	sw	s4,0(a1)
	.loc 1 303 787 is_stmt 1
	.loc 1 303 804 is_stmt 0
	lw	t1,108(sp)
	sw	a2,0(t1)
	.loc 1 303 919 is_stmt 1
	.loc 1 303 936 is_stmt 0
	lw	a2,104(sp)
	sw	zero,0(a2)
	.loc 1 303 1023 is_stmt 1
	.loc 1 303 1040 is_stmt 0
	lw	a3,44(sp)
	sw	t4,0(a3)
	.loc 1 303 1109 is_stmt 1
	.loc 1 303 1126 is_stmt 0
	lw	a4,100(sp)
	sw	s4,0(a4)
	.loc 1 303 1132 is_stmt 1
	.loc 1 303 1149 is_stmt 0
	sw	a5,0(s0)
	.loc 1 303 1240 is_stmt 1
	.loc 1 303 1257 is_stmt 0
	lw	a5,40(sp)
	sw	zero,0(a5)
	.loc 1 303 1326 is_stmt 1
	.loc 1 303 1342 is_stmt 0
	sw	s5,0(s10)
	.loc 1 303 1353 is_stmt 1
	.loc 1 303 1369 is_stmt 0
	sw	s4,0(s9)
	.loc 1 303 1375 is_stmt 1
	.loc 1 303 1392 is_stmt 0
	sw	s4,0(s8)
	.loc 1 303 1461 is_stmt 1
	.loc 1 303 1478 is_stmt 0
	sw	zero,0(s7)
	.loc 1 303 1487 is_stmt 1
.LVL68:
	.loc 1 303 1770
	.loc 1 303 1786 is_stmt 0
	sw	zero,0(s1)
	.loc 1 303 1815 is_stmt 1
	.loc 1 303 1816
	.loc 1 303 1833 is_stmt 0
	lw	t4,16(sp)
	sw	t0,0(t4)
	.loc 1 303 1872 is_stmt 1
	.loc 1 303 1889 is_stmt 0
	lw	t4,68(sp)
.LBE107:
.LBB108:
	.loc 1 303 1984
	li	t0,4096
.LBE108:
.LBB109:
	.loc 1 303 1889
	sw	t4,0(s6)
.LBE109:
.LBB110:
	.loc 1 303 1922 is_stmt 1
.LVL69:
	.loc 1 303 1967
	.loc 1 303 1984 is_stmt 0
	sw	t0,0(a3)
	.loc 1 303 1996 is_stmt 1
	.loc 1 303 2013 is_stmt 0
	sw	s4,0(a4)
	.loc 1 303 2019 is_stmt 1
	.loc 1 303 2036 is_stmt 0
	sw	s11,0(s0)
	.loc 1 303 2064 is_stmt 1
	.loc 1 303 2081 is_stmt 0
	sw	zero,0(a5)
	.loc 1 303 2093 is_stmt 1
	.loc 1 303 2110 is_stmt 0
	sw	s4,0(a1)
	.loc 1 303 2151 is_stmt 1
	.loc 1 303 2168 is_stmt 0
	sw	a6,0(a7)
	.loc 1 303 2215 is_stmt 1
	.loc 1 303 2232 is_stmt 0
	sw	s3,0(t1)
	.loc 1 303 2237 is_stmt 1
	.loc 1 303 2254 is_stmt 0
	sw	zero,0(a2)
	.loc 1 303 2257 is_stmt 1
	.loc 1 303 2273 is_stmt 0
	sw	s4,0(s9)
	.loc 1 303 2344 is_stmt 1
	.loc 1 303 2360 is_stmt 0
	sw	t6,0(s10)
	.loc 1 303 2386 is_stmt 1
	.loc 1 303 2403 is_stmt 0
	sw	s3,0(s8)
	.loc 1 303 2408 is_stmt 1
	.loc 1 303 2425 is_stmt 0
	sw	zero,0(s7)
	.loc 1 303 2428 is_stmt 1
	.loc 1 303 2444 is_stmt 0
	li	t4,7
	sw	t4,0(s2)
	.loc 1 303 2482 is_stmt 1
	.loc 1 303 2498 is_stmt 0
	sw	s5,0(t3)
	.loc 1 303 2509 is_stmt 1
	.loc 1 303 2526 is_stmt 0
	sw	s3,0(t2)
	.loc 1 303 2531 is_stmt 1
	.loc 1 303 2548 is_stmt 0
	sw	zero,0(a0)
	.loc 1 303 2551 is_stmt 1
	.loc 1 303 2567 is_stmt 0
	lw	t0,92(sp)
	.loc 1 303 2714
	li	t4,1032192
	addi	t4,t4,1149
	.loc 1 303 2567
	sw	t0,0(s1)
	.loc 1 303 2697 is_stmt 1
	.loc 1 303 2714 is_stmt 0
	sw	t4,0(s6)
.LBE110:
	.loc 1 303 2746 is_stmt 1
	.loc 1 303 2747
	.loc 1 303 2763 is_stmt 0
	lw	t6,20(sp)
	sw	t5,12(sp)
	sw	t6,0(t5)
.LBB111:
	.loc 1 303 2853 is_stmt 1
.LVL70:
	.loc 1 303 2980
	.loc 1 303 2997 is_stmt 0
	lw	t5,32(sp)
	sw	t5,0(a3)
.LVL71:
	.loc 1 303 3010 is_stmt 1
	.loc 1 303 3027 is_stmt 0
	li	t5,31
	sw	t5,0(a4)
	.loc 1 303 3033 is_stmt 1
	.loc 1 303 3050 is_stmt 0
	lw	t0,60(sp)
	.loc 1 303 3144
	li	t5,15
	.loc 1 303 3050
	sw	t0,0(s0)
	.loc 1 303 3071 is_stmt 1
	.loc 1 303 3088 is_stmt 0
	lw	t6,24(sp)
	sw	t6,0(a5)
	.loc 1 303 3101 is_stmt 1
	.loc 1 303 3117 is_stmt 0
	sw	s5,0(s10)
	.loc 1 303 3128 is_stmt 1
	.loc 1 303 3144 is_stmt 0
	sw	t5,0(s9)
	.loc 1 303 3150 is_stmt 1
	.loc 1 303 3167 is_stmt 0
	lw	t0,28(sp)
	sw	t0,0(s8)
	.loc 1 303 3180 is_stmt 1
	.loc 1 303 3197 is_stmt 0
	lw	t5,52(sp)
	sw	t5,0(s7)
	.loc 1 303 3206 is_stmt 1
.LVL72:
	.loc 1 303 3237
	.loc 1 303 3273 is_stmt 0
	lw	t5,36(sp)
	lw	t0,148(sp)
	sw	t6,24(sp)
	lw	t5,20(t5)
	sw	t5,40(sp)
	add	t5,t0,t6
	lw	t0,28(sp)
	sub	t6,t5,t0
	lw	t0,40(sp)
	.loc 1 303 3258
	sw	t6,40(sp)
	.loc 1 303 3273
	srli	t5,t0,1
	.loc 1 303 3258
	add	t5,t5,t6
	.loc 1 303 3253
	sw	t5,0(s1)
	.loc 1 303 3290 is_stmt 1
	.loc 1 303 3291
	.loc 1 303 3308 is_stmt 0
	lw	t6,16(sp)
	li	t0,512
	.loc 1 303 3350
	li	t5,1036288
	.loc 1 303 3308
	sw	t0,0(t6)
	.loc 1 303 3333 is_stmt 1
	.loc 1 303 3350 is_stmt 0
	addi	t5,t5,127
	sw	t5,0(s6)
.LBE111:
.LBB112:
	.loc 1 303 3383 is_stmt 1
.LVL73:
	.loc 1 303 3610
	.loc 1 303 3626 is_stmt 0
	sw	a6,0(t3)
	.loc 1 303 3737 is_stmt 1
	.loc 1 303 3753 is_stmt 0
	li	t6,7
	sw	t6,0(s2)
	.loc 1 303 3759 is_stmt 1
	.loc 1 303 3776 is_stmt 0
	sw	s3,0(t2)
	.loc 1 303 3912 is_stmt 1
	.loc 1 303 3929 is_stmt 0
	sw	zero,0(a0)
	.loc 1 303 4040 is_stmt 1
	.loc 1 303 4057 is_stmt 0
	li	t6,16
	sw	t6,0(a7)
	.loc 1 303 0 is_stmt 1
	sw	s4,0(a1)
	.loc 1 303 0
	li	t0,63
	sw	t0,0(t1)
	.loc 1 303 0
	sw	zero,0(a2)
	.loc 1 303 0
	li	t6,4
	sw	t6,0(a3)
	.loc 1 303 0
	sw	s4,0(a4)
	.loc 1 303 0
	li	t6,15
	sw	t6,0(s0)
	.loc 1 303 0
	sw	zero,0(a5)
	.loc 1 303 0
	sw	s5,0(s10)
	.loc 1 303 0
	sw	s4,0(s9)
	.loc 1 303 0
	sw	s4,0(s8)
	.loc 1 303 0
	sw	zero,0(s7)
	.loc 1 303 0
.LVL74:
	.loc 1 303 0
	sw	zero,0(s1)
	.loc 1 303 0
	.loc 1 303 0
	lw	t0,72(sp)
	sw	t0,0(s6)
.LBE112:
	.loc 1 303 0
	.loc 1 303 0
	lw	t6,12(sp)
	lw	t0,20(sp)
	sw	t0,0(t6)
.LBB113:
	.loc 1 306 3
.LVL75:
	.loc 1 306 230
	.loc 1 306 246 is_stmt 0
	sw	a6,0(t3)
	.loc 1 306 357 is_stmt 1
	.loc 1 306 373 is_stmt 0
	li	t6,7
	sw	t6,0(s2)
	.loc 1 306 379 is_stmt 1
	.loc 1 306 396 is_stmt 0
	sw	s3,0(t2)
	.loc 1 306 532 is_stmt 1
	.loc 1 306 549 is_stmt 0
	sw	zero,0(a0)
	.loc 1 306 660 is_stmt 1
	.loc 1 306 677 is_stmt 0
	li	t6,16
	sw	t6,0(a7)
	.loc 1 306 764 is_stmt 1
	.loc 1 306 781 is_stmt 0
	sw	s4,0(a1)
	.loc 1 306 787 is_stmt 1
	.loc 1 306 804 is_stmt 0
	li	t0,63
	sw	t0,0(t1)
	.loc 1 306 919 is_stmt 1
	.loc 1 306 936 is_stmt 0
	sw	zero,0(a2)
	.loc 1 306 1023 is_stmt 1
	.loc 1 306 1040 is_stmt 0
	li	t6,4
	sw	t6,0(a3)
	.loc 1 306 1109 is_stmt 1
	.loc 1 306 1126 is_stmt 0
	sw	s4,0(a4)
	.loc 1 306 1132 is_stmt 1
	.loc 1 306 1149 is_stmt 0
	li	t6,15
	sw	t6,0(s0)
	.loc 1 306 1240 is_stmt 1
	.loc 1 306 1257 is_stmt 0
	sw	zero,0(a5)
	.loc 1 306 1326 is_stmt 1
	.loc 1 306 1342 is_stmt 0
	sw	s5,0(s10)
	.loc 1 306 1353 is_stmt 1
	.loc 1 306 1369 is_stmt 0
	sw	s4,0(s9)
	.loc 1 306 1375 is_stmt 1
	.loc 1 306 1392 is_stmt 0
	sw	s4,0(s8)
	.loc 1 306 1461 is_stmt 1
	.loc 1 306 1478 is_stmt 0
	sw	zero,0(s7)
	.loc 1 306 1487 is_stmt 1
.LVL76:
	.loc 1 306 1770
	.loc 1 306 1786 is_stmt 0
	sw	zero,0(s1)
	.loc 1 306 1815 is_stmt 1
	.loc 1 306 1816
	.loc 1 306 1833 is_stmt 0
	lw	t6,16(sp)
	li	t0,512
	sw	t0,0(t6)
	.loc 1 306 1872 is_stmt 1
	.loc 1 306 1889 is_stmt 0
	lw	t0,68(sp)
.LBE113:
.LBB114:
	.loc 1 306 2360
	li	t6,8
.LBE114:
.LBB115:
	.loc 1 306 1889
	sw	t0,0(s6)
.LBE115:
.LBB116:
	.loc 1 306 1922 is_stmt 1
.LVL77:
	.loc 1 306 1967
	.loc 1 306 1984 is_stmt 0
	li	t0,4096
	sw	t0,0(a3)
	.loc 1 306 1996 is_stmt 1
	.loc 1 306 2013 is_stmt 0
	sw	s4,0(a4)
	.loc 1 306 2019 is_stmt 1
	.loc 1 306 2036 is_stmt 0
	sw	s11,0(s0)
	.loc 1 306 2064 is_stmt 1
	.loc 1 306 2081 is_stmt 0
	sw	zero,0(a5)
	.loc 1 306 2093 is_stmt 1
	.loc 1 306 2110 is_stmt 0
	sw	s4,0(a1)
	.loc 1 306 2151 is_stmt 1
	.loc 1 306 2168 is_stmt 0
	sw	a6,0(a7)
	.loc 1 306 2215 is_stmt 1
	.loc 1 306 2232 is_stmt 0
	sw	s3,0(t1)
	.loc 1 306 2237 is_stmt 1
	.loc 1 306 2254 is_stmt 0
	sw	zero,0(a2)
	.loc 1 306 2257 is_stmt 1
	.loc 1 306 2273 is_stmt 0
	sw	s4,0(s9)
	.loc 1 306 2344 is_stmt 1
	.loc 1 306 2360 is_stmt 0
	sw	t6,0(s10)
	.loc 1 306 2386 is_stmt 1
	.loc 1 306 2403 is_stmt 0
	sw	s3,0(s8)
	.loc 1 306 2408 is_stmt 1
	.loc 1 306 2425 is_stmt 0
	sw	zero,0(s7)
	.loc 1 306 2428 is_stmt 1
	.loc 1 306 2444 is_stmt 0
	li	t0,7
	sw	t0,0(s2)
	.loc 1 306 2482 is_stmt 1
	.loc 1 306 2498 is_stmt 0
	sw	s5,0(t3)
	.loc 1 306 2509 is_stmt 1
	.loc 1 306 2526 is_stmt 0
	sw	s3,0(t2)
	.loc 1 306 2531 is_stmt 1
	.loc 1 306 2548 is_stmt 0
	sw	zero,0(a0)
	.loc 1 306 2551 is_stmt 1
	.loc 1 306 2567 is_stmt 0
	lw	t6,96(sp)
.LBE116:
.LBB117:
	.loc 1 306 3310
	li	t0,512
.LBE117:
.LBB118:
	.loc 1 306 2567
	sw	t6,0(s1)
	.loc 1 306 2699 is_stmt 1
	.loc 1 306 2716 is_stmt 0
	sw	t4,0(s6)
.LBE118:
	.loc 1 306 2748 is_stmt 1
	.loc 1 306 2749
	.loc 1 306 2765 is_stmt 0
	lw	t6,12(sp)
	lw	t4,20(sp)
	sw	t4,0(t6)
.LBB119:
	.loc 1 306 2855 is_stmt 1
.LVL78:
	.loc 1 306 2982
	.loc 1 306 2999 is_stmt 0
	lw	t4,32(sp)
	sw	t4,0(a3)
	.loc 1 306 3012 is_stmt 1
	.loc 1 306 3029 is_stmt 0
	li	t4,31
	sw	t4,0(a4)
	.loc 1 306 3035 is_stmt 1
	.loc 1 306 3052 is_stmt 0
	lw	t4,60(sp)
	sw	t4,0(s0)
	.loc 1 306 3073 is_stmt 1
	.loc 1 306 3090 is_stmt 0
	lw	t4,24(sp)
	sw	t4,0(a5)
	.loc 1 306 3103 is_stmt 1
	.loc 1 306 3119 is_stmt 0
	sw	s5,0(s10)
	.loc 1 306 3130 is_stmt 1
	.loc 1 306 3146 is_stmt 0
	li	t4,15
	sw	t4,0(s9)
	.loc 1 306 3152 is_stmt 1
	.loc 1 306 3169 is_stmt 0
	lw	t4,28(sp)
	sw	t4,0(s8)
	.loc 1 306 3182 is_stmt 1
	.loc 1 306 3199 is_stmt 0
	lw	t4,52(sp)
	sw	t4,0(s7)
	.loc 1 306 3208 is_stmt 1
.LVL79:
	.loc 1 306 3239
	.loc 1 306 3275 is_stmt 0
	lw	t4,36(sp)
	.loc 1 306 3260
	lw	t6,40(sp)
	.loc 1 306 3275
	lw	t4,24(t4)
	srli	t4,t4,1
	.loc 1 306 3260
	add	t4,t4,t6
	.loc 1 306 3255
	sw	t4,0(s1)
	.loc 1 306 3292 is_stmt 1
	.loc 1 306 3293
	.loc 1 306 3310 is_stmt 0
	lw	t6,16(sp)
.LBE119:
.LBB120:
	.loc 1 306 0
	li	t4,15
.LBE120:
.LBB121:
	.loc 1 306 3310
	sw	t0,0(t6)
	.loc 1 306 3335 is_stmt 1
	.loc 1 306 3352 is_stmt 0
	sw	t5,0(s6)
.LBE121:
.LBB122:
	.loc 1 306 3385 is_stmt 1
.LVL80:
	.loc 1 306 3612
	.loc 1 306 3628 is_stmt 0
	sw	a6,0(t3)
	.loc 1 306 3739 is_stmt 1
	.loc 1 306 3755 is_stmt 0
	li	t5,7
	sw	t5,0(s2)
	.loc 1 306 3761 is_stmt 1
	.loc 1 306 3778 is_stmt 0
	sw	s3,0(t2)
	.loc 1 306 3914 is_stmt 1
	.loc 1 306 3931 is_stmt 0
	sw	zero,0(a0)
	.loc 1 306 4042 is_stmt 1
	.loc 1 306 4059 is_stmt 0
	li	t5,16
	sw	t5,0(a7)
	.loc 1 306 0 is_stmt 1
	sw	s4,0(a1)
	.loc 1 306 0
	li	t0,63
	sw	t0,0(t1)
	.loc 1 306 0
	sw	zero,0(a2)
	.loc 1 306 0
	li	t5,4
	sw	t5,0(a3)
	.loc 1 306 0
	sw	s4,0(a4)
	.loc 1 306 0
	sw	t4,0(s0)
	.loc 1 306 0
	sw	zero,0(a5)
	.loc 1 306 0
	sw	s5,0(s10)
	.loc 1 306 0
	sw	s4,0(s9)
	.loc 1 306 0
	sw	s4,0(s8)
	.loc 1 306 0
	sw	zero,0(s7)
	.loc 1 306 0
.LVL81:
	.loc 1 306 0
	sw	zero,0(s1)
	.loc 1 306 0
	.loc 1 306 0
	lw	t0,72(sp)
	sw	t0,0(s6)
.LBE122:
	.loc 1 306 0
	.loc 1 306 0
	lw	t5,12(sp)
	lw	t0,20(sp)
	sw	t0,0(t5)
	.loc 1 308 10
	.loc 1 308 12 is_stmt 0
	lw	t5,36(sp)
	li	t0,7
	lw	t4,28(t5)
	beq	t4,zero,.L7
.LBB123:
	.loc 1 311 3 is_stmt 1
.LVL82:
	.loc 1 311 230
	.loc 1 311 246 is_stmt 0
	sw	a6,0(t3)
	.loc 1 311 357 is_stmt 1
	.loc 1 311 373 is_stmt 0
	li	t4,7
	sw	t4,0(s2)
	.loc 1 311 379 is_stmt 1
	.loc 1 311 396 is_stmt 0
	sw	s3,0(t2)
	.loc 1 311 532 is_stmt 1
	.loc 1 311 549 is_stmt 0
	sw	zero,0(a0)
	.loc 1 311 660 is_stmt 1
	.loc 1 311 677 is_stmt 0
	li	t5,16
	sw	t5,0(a7)
	.loc 1 311 764 is_stmt 1
	.loc 1 311 781 is_stmt 0
	sw	s4,0(a1)
	.loc 1 311 787 is_stmt 1
	.loc 1 311 804 is_stmt 0
	li	t5,63
	sw	t5,0(t1)
	.loc 1 311 919 is_stmt 1
	.loc 1 311 936 is_stmt 0
	sw	zero,0(a2)
	.loc 1 311 1023 is_stmt 1
	.loc 1 311 1040 is_stmt 0
	li	t5,4
	sw	t5,0(a3)
	.loc 1 311 1109 is_stmt 1
	.loc 1 311 1126 is_stmt 0
	sw	s4,0(a4)
	.loc 1 311 1132 is_stmt 1
	.loc 1 311 1149 is_stmt 0
	li	t4,15
	sw	t4,0(s0)
	.loc 1 311 1240 is_stmt 1
	.loc 1 311 1257 is_stmt 0
	sw	zero,0(a5)
	.loc 1 311 1326 is_stmt 1
	.loc 1 311 1342 is_stmt 0
	sw	s5,0(s10)
	.loc 1 311 1353 is_stmt 1
	.loc 1 311 1369 is_stmt 0
	sw	s4,0(s9)
	.loc 1 311 1375 is_stmt 1
	.loc 1 311 1392 is_stmt 0
	sw	s4,0(s8)
	.loc 1 311 1461 is_stmt 1
	.loc 1 311 1478 is_stmt 0
	sw	zero,0(s7)
	.loc 1 311 1487 is_stmt 1
.LVL83:
	.loc 1 311 1770
	.loc 1 311 1786 is_stmt 0
	sw	zero,0(s1)
	.loc 1 311 1815 is_stmt 1
	.loc 1 311 1816
	.loc 1 311 1833 is_stmt 0
	sw	t6,16(sp)
	li	t5,512
	.loc 1 311 1889
	li	t4,1036288
	.loc 1 311 1833
	sw	t5,0(t6)
	.loc 1 311 1872 is_stmt 1
	.loc 1 311 1889 is_stmt 0
	addi	t4,t4,-1889
	sw	t4,48(sp)
	sw	t4,0(s6)
.LBE123:
.LBB124:
	.loc 1 311 1922 is_stmt 1
.LVL84:
	.loc 1 311 1967
	.loc 1 311 1984 is_stmt 0
	li	t4,4096
	sw	t4,0(a3)
	.loc 1 311 1996 is_stmt 1
	.loc 1 311 2013 is_stmt 0
	sw	s4,0(a4)
	.loc 1 311 2019 is_stmt 1
	.loc 1 311 2036 is_stmt 0
	sw	s11,0(s0)
	.loc 1 311 2064 is_stmt 1
	.loc 1 311 2081 is_stmt 0
	sw	zero,0(a5)
	.loc 1 311 2093 is_stmt 1
	.loc 1 311 2110 is_stmt 0
	sw	s4,0(a1)
	.loc 1 311 2151 is_stmt 1
	.loc 1 311 2168 is_stmt 0
	sw	a6,0(a7)
	.loc 1 311 2215 is_stmt 1
	.loc 1 311 2232 is_stmt 0
	sw	s3,0(t1)
	.loc 1 311 2237 is_stmt 1
	.loc 1 311 2254 is_stmt 0
	sw	zero,0(a2)
	.loc 1 311 2257 is_stmt 1
	.loc 1 311 2273 is_stmt 0
	sw	s4,0(s9)
	.loc 1 311 2344 is_stmt 1
	.loc 1 311 2360 is_stmt 0
	li	t6,8
	sw	t6,0(s10)
	.loc 1 311 2386 is_stmt 1
	.loc 1 311 2403 is_stmt 0
	sw	s3,0(s8)
	.loc 1 311 2408 is_stmt 1
	.loc 1 311 2444 is_stmt 0
	li	t6,7
	.loc 1 311 2425
	sw	zero,0(s7)
	.loc 1 311 2428 is_stmt 1
	.loc 1 311 2444 is_stmt 0
	sw	t6,0(s2)
	.loc 1 311 2482 is_stmt 1
	.loc 1 311 2498 is_stmt 0
	sw	s5,0(t3)
	.loc 1 311 2509 is_stmt 1
	.loc 1 311 2526 is_stmt 0
	sw	s3,0(t2)
	.loc 1 311 2531 is_stmt 1
	.loc 1 311 2548 is_stmt 0
	sw	zero,0(a0)
	.loc 1 311 2551 is_stmt 1
	.loc 1 311 2714 is_stmt 0
	li	t6,1032192
	mv	t5,t6
	.loc 1 311 2567
	lw	t6,92(sp)
.LBE124:
	.loc 1 311 2763
	li	t4,196608
	addi	t4,t4,17
.LBB125:
	.loc 1 311 2567
	sw	t6,0(s1)
	.loc 1 311 2697 is_stmt 1
	.loc 1 311 2714 is_stmt 0
	addi	t6,t5,1181
	sw	t6,68(sp)
	sw	t6,0(s6)
.LBE125:
	.loc 1 311 2746 is_stmt 1
	.loc 1 311 2747
	.loc 1 311 2763 is_stmt 0
	lw	t6,12(sp)
	sw	t4,0(t6)
.LBB126:
	.loc 1 311 2851 is_stmt 1
.LVL85:
	.loc 1 311 3009
	.loc 1 311 3026 is_stmt 0
	lw	t6,84(sp)
	.loc 1 311 3306
	li	t4,15
	.loc 1 311 3026
	sw	t6,0(a7)
	.loc 1 311 3043 is_stmt 1
	.loc 1 311 3060 is_stmt 0
	sw	zero,0(a1)
	.loc 1 311 3066 is_stmt 1
	.loc 1 311 3083 is_stmt 0
	lw	t5,176(sp)
	.loc 1 311 3189
	li	t6,31
	.loc 1 311 3083
	sw	t5,0(t1)
	.loc 1 311 3108 is_stmt 1
	.loc 1 311 3125 is_stmt 0
	sw	zero,0(a2)
	.loc 1 311 3142 is_stmt 1
	.loc 1 311 3159 is_stmt 0
	lw	t5,32(sp)
	sw	t5,0(a3)
	.loc 1 311 3172 is_stmt 1
	.loc 1 311 3189 is_stmt 0
	sw	t6,0(a4)
	.loc 1 311 3195 is_stmt 1
	.loc 1 311 3212 is_stmt 0
	lw	t6,60(sp)
	sw	t6,0(s0)
	.loc 1 311 3233 is_stmt 1
	.loc 1 311 3250 is_stmt 0
	lw	t5,24(sp)
	sw	t5,0(a5)
	.loc 1 311 3263 is_stmt 1
	.loc 1 311 3279 is_stmt 0
	sw	s5,0(s10)
	.loc 1 311 3290 is_stmt 1
	.loc 1 311 3306 is_stmt 0
	sw	t4,0(s9)
	.loc 1 311 3312 is_stmt 1
	.loc 1 311 3329 is_stmt 0
	lw	t5,28(sp)
	sw	t5,0(s8)
	.loc 1 311 3342 is_stmt 1
	.loc 1 311 3359 is_stmt 0
	lw	t6,52(sp)
	.loc 1 311 3536
	li	t5,1036288
	addi	t5,t5,159
	.loc 1 311 3359
	sw	t6,0(s7)
	.loc 1 311 3368 is_stmt 1
.LVL86:
	.loc 1 311 3415
	.loc 1 311 3436 is_stmt 0
	lw	t6,36(sp)
	.loc 1 311 3536
	sw	t5,44(sp)
	.loc 1 311 3487
	li	t5,512
	.loc 1 311 3436
	lw	t4,28(t6)
	lw	t6,40(sp)
	add	t6,t6,t4
	.loc 1 311 3431
	sw	t6,0(s1)
	.loc 1 311 3469 is_stmt 1
	.loc 1 311 3470
	.loc 1 311 3487 is_stmt 0
	lw	t6,16(sp)
	sw	t5,0(t6)
	.loc 1 311 3519 is_stmt 1
	.loc 1 311 3536 is_stmt 0
	lw	t4,44(sp)
.LBE126:
.LBB127:
	.loc 1 311 0
	li	t5,63
.LBE127:
.LBB128:
	.loc 1 311 3536
	sw	t4,0(s6)
.LBE128:
.LBB129:
	.loc 1 311 3569 is_stmt 1
.LVL87:
	.loc 1 311 3796
	.loc 1 311 3812 is_stmt 0
	sw	a6,0(t3)
	.loc 1 311 3923 is_stmt 1
	.loc 1 311 3939 is_stmt 0
	li	t4,7
	sw	t4,0(s2)
	.loc 1 311 3945 is_stmt 1
	.loc 1 311 3962 is_stmt 0
	sw	s3,0(t2)
	.loc 1 311 0 is_stmt 1
	sw	zero,0(a0)
	.loc 1 311 0
	li	t4,16
	sw	t4,0(a7)
	.loc 1 311 0
	sw	s4,0(a1)
	.loc 1 311 0
	sw	t5,0(t1)
	.loc 1 311 0
	sw	zero,0(a2)
	.loc 1 311 0
	li	t4,4
	sw	t4,0(a3)
	.loc 1 311 0
	sw	s4,0(a4)
	.loc 1 311 0
	li	t4,15
	sw	t4,0(s0)
	.loc 1 311 0
	sw	zero,0(a5)
	.loc 1 311 0
	sw	s5,0(s10)
	.loc 1 311 0
	sw	s4,0(s9)
	.loc 1 311 0
	sw	s4,0(s8)
	.loc 1 311 0
	sw	zero,0(s7)
	.loc 1 311 0
.LVL88:
	.loc 1 311 0
	li	t4,1036288
	sw	zero,0(s1)
	.loc 1 311 0
	.loc 1 311 0
	addi	t4,t4,-1891
	sw	t4,40(sp)
	sw	t4,0(s6)
.LBE129:
	.loc 1 311 0
	.loc 1 311 0
	lw	t4,12(sp)
	lw	t5,20(sp)
	sw	t5,0(t4)
.LBB130:
	.loc 1 315 3
.LVL89:
	.loc 1 315 230
	.loc 1 315 246 is_stmt 0
	sw	a6,0(t3)
	.loc 1 315 357 is_stmt 1
	.loc 1 315 373 is_stmt 0
	li	t4,7
	sw	t4,0(s2)
	.loc 1 315 379 is_stmt 1
	.loc 1 315 396 is_stmt 0
	sw	s3,0(t2)
	.loc 1 315 532 is_stmt 1
	.loc 1 315 549 is_stmt 0
	sw	zero,0(a0)
	.loc 1 315 660 is_stmt 1
	.loc 1 315 677 is_stmt 0
	li	t4,16
	sw	t4,0(a7)
	.loc 1 315 764 is_stmt 1
	.loc 1 315 804 is_stmt 0
	li	t5,63
	.loc 1 315 781
	sw	s4,0(a1)
	.loc 1 315 787 is_stmt 1
	.loc 1 315 804 is_stmt 0
	sw	t5,0(t1)
	.loc 1 315 919 is_stmt 1
	.loc 1 315 936 is_stmt 0
	sw	zero,0(a2)
	.loc 1 315 1023 is_stmt 1
	.loc 1 315 1040 is_stmt 0
	li	t4,4
	sw	t4,0(a3)
	.loc 1 315 1109 is_stmt 1
	.loc 1 315 1126 is_stmt 0
	sw	s4,0(a4)
	.loc 1 315 1132 is_stmt 1
	.loc 1 315 1149 is_stmt 0
	li	t4,15
	sw	t4,0(s0)
	.loc 1 315 1240 is_stmt 1
	.loc 1 315 1257 is_stmt 0
	sw	zero,0(a5)
	.loc 1 315 1326 is_stmt 1
	.loc 1 315 1342 is_stmt 0
	sw	s5,0(s10)
	.loc 1 315 1353 is_stmt 1
	.loc 1 315 1369 is_stmt 0
	sw	s4,0(s9)
	.loc 1 315 1375 is_stmt 1
	.loc 1 315 1392 is_stmt 0
	sw	s4,0(s8)
	.loc 1 315 1461 is_stmt 1
	.loc 1 315 1478 is_stmt 0
	sw	zero,0(s7)
	.loc 1 315 1487 is_stmt 1
.LVL90:
	.loc 1 315 1770
	.loc 1 315 1786 is_stmt 0
	sw	zero,0(s1)
	.loc 1 315 1815 is_stmt 1
	.loc 1 315 1816
	.loc 1 315 1833 is_stmt 0
	sw	t6,16(sp)
	li	t5,512
	sw	t5,0(t6)
	.loc 1 315 1872 is_stmt 1
	.loc 1 315 1889 is_stmt 0
	lw	t5,48(sp)
.LBE130:
.LBB131:
	.loc 1 315 1984
	li	t4,4096
	.loc 1 315 2360
	li	t6,8
.LBE131:
.LBB132:
	.loc 1 315 1889
	sw	t5,0(s6)
.LBE132:
.LBB133:
	.loc 1 315 1922 is_stmt 1
.LVL91:
	.loc 1 315 1967
	.loc 1 315 1984 is_stmt 0
	sw	t4,0(a3)
	.loc 1 315 1996 is_stmt 1
	.loc 1 315 2013 is_stmt 0
	sw	s4,0(a4)
	.loc 1 315 2019 is_stmt 1
	.loc 1 315 2036 is_stmt 0
	sw	s11,0(s0)
	.loc 1 315 2064 is_stmt 1
	.loc 1 315 2081 is_stmt 0
	sw	zero,0(a5)
	.loc 1 315 2093 is_stmt 1
	.loc 1 315 2110 is_stmt 0
	sw	s4,0(a1)
	.loc 1 315 2151 is_stmt 1
	.loc 1 315 2168 is_stmt 0
	sw	a6,0(a7)
	.loc 1 315 2215 is_stmt 1
	.loc 1 315 2232 is_stmt 0
	sw	s3,0(t1)
	.loc 1 315 2237 is_stmt 1
	.loc 1 315 2254 is_stmt 0
	sw	zero,0(a2)
	.loc 1 315 2257 is_stmt 1
	.loc 1 315 2273 is_stmt 0
	sw	s4,0(s9)
	.loc 1 315 2344 is_stmt 1
	.loc 1 315 2360 is_stmt 0
	sw	t6,0(s10)
	.loc 1 315 2386 is_stmt 1
	.loc 1 315 2403 is_stmt 0
	sw	s3,0(s8)
	.loc 1 315 2408 is_stmt 1
	.loc 1 315 2425 is_stmt 0
	sw	zero,0(s7)
	.loc 1 315 2428 is_stmt 1
	.loc 1 315 2444 is_stmt 0
	li	t6,7
	sw	t6,0(s2)
	.loc 1 315 2482 is_stmt 1
	.loc 1 315 2498 is_stmt 0
	sw	s5,0(t3)
	.loc 1 315 2509 is_stmt 1
	.loc 1 315 2526 is_stmt 0
	sw	s3,0(t2)
	.loc 1 315 2531 is_stmt 1
	.loc 1 315 2548 is_stmt 0
	sw	zero,0(a0)
	.loc 1 315 2551 is_stmt 1
	.loc 1 315 2567 is_stmt 0
	lw	t6,92(sp)
.LBE133:
	.loc 1 315 2763
	li	t4,327680
	addi	t4,t4,17
.LBB134:
	.loc 1 315 2567
	sw	t6,0(s1)
	.loc 1 315 2697 is_stmt 1
	.loc 1 315 2714 is_stmt 0
	lw	t5,68(sp)
	sw	t5,0(s6)
.LBE134:
	.loc 1 315 2746 is_stmt 1
	.loc 1 315 2747
	.loc 1 315 2763 is_stmt 0
	lw	t6,12(sp)
	sw	t4,0(t6)
.LBB135:
	.loc 1 315 2851 is_stmt 1
.LVL92:
	.loc 1 315 3015
	.loc 1 315 3032 is_stmt 0
	lw	t6,84(sp)
	sw	t6,0(a7)
	.loc 1 315 3049 is_stmt 1
	.loc 1 315 3066 is_stmt 0
	sw	zero,0(a1)
	.loc 1 315 3072 is_stmt 1
	.loc 1 315 3089 is_stmt 0
	lw	t4,180(sp)
	sw	t4,0(t1)
	.loc 1 315 3114 is_stmt 1
	.loc 1 315 3131 is_stmt 0
	sw	t6,84(sp)
	sw	t6,0(a2)
	.loc 1 315 3148 is_stmt 1
	.loc 1 315 3165 is_stmt 0
	lw	t6,32(sp)
	.loc 1 315 3312
	li	t4,15
	.loc 1 315 3165
	sw	t6,0(a3)
	.loc 1 315 3178 is_stmt 1
	.loc 1 315 3195 is_stmt 0
	li	t6,31
	sw	t6,0(a4)
	.loc 1 315 3201 is_stmt 1
	.loc 1 315 3218 is_stmt 0
	lw	t5,60(sp)
	sw	t5,0(s0)
	.loc 1 315 3239 is_stmt 1
	.loc 1 315 3256 is_stmt 0
	lw	t6,24(sp)
	sw	t6,0(a5)
	.loc 1 315 3269 is_stmt 1
	.loc 1 315 3285 is_stmt 0
	sw	s5,0(s10)
	.loc 1 315 3296 is_stmt 1
	.loc 1 315 3312 is_stmt 0
	sw	t4,0(s9)
	.loc 1 315 3318 is_stmt 1
	.loc 1 315 3335 is_stmt 0
	lw	t5,28(sp)
	sw	t5,0(s8)
	.loc 1 315 3348 is_stmt 1
	.loc 1 315 3365 is_stmt 0
	lw	t6,52(sp)
	sw	t6,0(s7)
	.loc 1 315 3374 is_stmt 1
.LVL93:
	.loc 1 315 3421
	.loc 1 315 3442 is_stmt 0
	lw	t6,36(sp)
	sw	t5,28(sp)
	lw	t4,28(t6)
	lw	t6,84(sp)
	sw	t4,72(sp)
	lw	t4,144(sp)
	sub	t4,t4,t6
	addi	t4,t4,-1
	sub	t4,t4,t5
	lw	t5,72(sp)
	add	t4,t4,t5
	.loc 1 315 3437
	sw	t4,0(s1)
	.loc 1 315 3475 is_stmt 1
	.loc 1 315 3476
	.loc 1 315 3493 is_stmt 0
	lw	t6,16(sp)
	li	t5,512
.LBE135:
.LBB136:
	.loc 1 315 3945
	li	t4,7
.LBE136:
.LBB137:
	.loc 1 315 3493
	sw	t5,0(t6)
	.loc 1 315 3525 is_stmt 1
	.loc 1 315 3542 is_stmt 0
	lw	t5,44(sp)
	sw	t5,0(s6)
.LBE137:
.LBB138:
	.loc 1 315 3575 is_stmt 1
.LVL94:
	.loc 1 315 3802
	.loc 1 315 3818 is_stmt 0
	sw	a6,0(t3)
	.loc 1 315 3929 is_stmt 1
	.loc 1 315 3945 is_stmt 0
	sw	t4,0(s2)
	.loc 1 315 3951 is_stmt 1
	.loc 1 315 3968 is_stmt 0
	sw	s3,0(t2)
	.loc 1 315 0 is_stmt 1
	sw	zero,0(a0)
	.loc 1 315 0
	li	t4,16
	sw	t4,0(a7)
	.loc 1 315 0
	sw	s4,0(a1)
	.loc 1 315 0
	li	t5,63
	sw	t5,0(t1)
	.loc 1 315 0
	sw	zero,0(a2)
	.loc 1 315 0
	li	t4,4
	sw	t4,0(a3)
	.loc 1 315 0
	sw	s4,0(a4)
	.loc 1 315 0
	li	t4,15
	sw	t4,0(s0)
	.loc 1 315 0
	sw	zero,0(a5)
	.loc 1 315 0
	sw	s5,0(s10)
	.loc 1 315 0
	sw	s4,0(s9)
	.loc 1 315 0
	sw	s4,0(s8)
	.loc 1 315 0
	sw	zero,0(s7)
	.loc 1 315 0
.LVL95:
	.loc 1 315 0
	sw	zero,0(s1)
	.loc 1 315 0
	.loc 1 315 0
	lw	t4,40(sp)
	sw	t4,0(s6)
.LBE138:
	.loc 1 315 0
	.loc 1 315 0
	lw	t4,12(sp)
	lw	t5,20(sp)
	sw	t5,0(t4)
.LBB139:
	.loc 1 319 3
.LVL96:
	.loc 1 319 230
	.loc 1 319 246 is_stmt 0
	sw	a6,0(t3)
	.loc 1 319 357 is_stmt 1
	.loc 1 319 373 is_stmt 0
	li	t4,7
	sw	t4,0(s2)
	.loc 1 319 379 is_stmt 1
	.loc 1 319 396 is_stmt 0
	sw	s3,0(t2)
	.loc 1 319 532 is_stmt 1
	.loc 1 319 549 is_stmt 0
	sw	zero,0(a0)
	.loc 1 319 660 is_stmt 1
	.loc 1 319 677 is_stmt 0
	li	t4,16
	sw	t4,0(a7)
	.loc 1 319 764 is_stmt 1
	.loc 1 319 804 is_stmt 0
	li	t5,63
	.loc 1 319 781
	sw	s4,0(a1)
	.loc 1 319 787 is_stmt 1
	.loc 1 319 804 is_stmt 0
	sw	t5,0(t1)
	.loc 1 319 919 is_stmt 1
	.loc 1 319 936 is_stmt 0
	sw	zero,0(a2)
	.loc 1 319 1023 is_stmt 1
	.loc 1 319 1040 is_stmt 0
	li	t4,4
	sw	t4,0(a3)
	.loc 1 319 1109 is_stmt 1
	.loc 1 319 1126 is_stmt 0
	sw	s4,0(a4)
	.loc 1 319 1132 is_stmt 1
	.loc 1 319 1149 is_stmt 0
	li	t4,15
	sw	t4,0(s0)
	.loc 1 319 1240 is_stmt 1
	.loc 1 319 1257 is_stmt 0
	sw	zero,0(a5)
	.loc 1 319 1326 is_stmt 1
	.loc 1 319 1342 is_stmt 0
	sw	s5,0(s10)
	.loc 1 319 1353 is_stmt 1
	.loc 1 319 1369 is_stmt 0
	sw	s4,0(s9)
	.loc 1 319 1375 is_stmt 1
	.loc 1 319 1392 is_stmt 0
	sw	s4,0(s8)
	.loc 1 319 1461 is_stmt 1
	.loc 1 319 1478 is_stmt 0
	sw	zero,0(s7)
	.loc 1 319 1487 is_stmt 1
.LVL97:
	.loc 1 319 1770
	.loc 1 319 1786 is_stmt 0
	sw	zero,0(s1)
	.loc 1 319 1815 is_stmt 1
	.loc 1 319 1816
	.loc 1 319 1833 is_stmt 0
	sw	t6,16(sp)
	li	t5,512
	sw	t5,0(t6)
	.loc 1 319 1872 is_stmt 1
	.loc 1 319 1889 is_stmt 0
	lw	t5,48(sp)
.LBE139:
.LBB140:
	.loc 1 319 1984
	li	t4,4096
.LBE140:
.LBB141:
	.loc 1 319 1889
	sw	t5,0(s6)
.LBE141:
.LBB142:
	.loc 1 319 1922 is_stmt 1
.LVL98:
	.loc 1 319 1967
	.loc 1 319 1984 is_stmt 0
	sw	t4,0(a3)
	.loc 1 319 1996 is_stmt 1
	.loc 1 319 2013 is_stmt 0
	sw	s4,0(a4)
	.loc 1 319 2019 is_stmt 1
	.loc 1 319 2036 is_stmt 0
	sw	s11,0(s0)
	.loc 1 319 2064 is_stmt 1
	.loc 1 319 2081 is_stmt 0
	sw	zero,0(a5)
	.loc 1 319 2093 is_stmt 1
	.loc 1 319 2110 is_stmt 0
	sw	s4,0(a1)
	.loc 1 319 2151 is_stmt 1
	.loc 1 319 2168 is_stmt 0
	sw	a6,0(a7)
	.loc 1 319 2215 is_stmt 1
	.loc 1 319 2232 is_stmt 0
	sw	s3,0(t1)
	.loc 1 319 2237 is_stmt 1
	.loc 1 319 2254 is_stmt 0
	sw	zero,0(a2)
	.loc 1 319 2257 is_stmt 1
	.loc 1 319 2273 is_stmt 0
	sw	s4,0(s9)
	.loc 1 319 2344 is_stmt 1
	.loc 1 319 2360 is_stmt 0
	li	t5,8
	sw	t5,0(s10)
	.loc 1 319 2386 is_stmt 1
	.loc 1 319 2403 is_stmt 0
	sw	s3,0(s8)
	.loc 1 319 2408 is_stmt 1
	.loc 1 319 2425 is_stmt 0
	sw	zero,0(s7)
	.loc 1 319 2428 is_stmt 1
	.loc 1 319 2444 is_stmt 0
	li	t5,7
	sw	t5,0(s2)
	.loc 1 319 2482 is_stmt 1
	.loc 1 319 2498 is_stmt 0
	sw	s5,0(t3)
	.loc 1 319 2509 is_stmt 1
	.loc 1 319 2526 is_stmt 0
	sw	s3,0(t2)
	.loc 1 319 2531 is_stmt 1
	.loc 1 319 2548 is_stmt 0
	sw	zero,0(a0)
	.loc 1 319 2551 is_stmt 1
	.loc 1 319 2567 is_stmt 0
	lw	t5,96(sp)
.LBE142:
	.loc 1 319 2765
	li	t4,458752
	addi	t4,t4,17
.LBB143:
	.loc 1 319 2567
	sw	t5,0(s1)
	.loc 1 319 2699 is_stmt 1
	.loc 1 319 2716 is_stmt 0
	lw	t5,68(sp)
	sw	t5,0(s6)
.LBE143:
	.loc 1 319 2748 is_stmt 1
	.loc 1 319 2749
	.loc 1 319 2765 is_stmt 0
	lw	t6,12(sp)
	sw	t4,0(t6)
.LBB144:
	.loc 1 319 2853 is_stmt 1
.LVL99:
	.loc 1 319 3017
	.loc 1 319 3034 is_stmt 0
	lw	t4,84(sp)
	sw	t4,0(a7)
	.loc 1 319 3051 is_stmt 1
	.loc 1 319 3068 is_stmt 0
	sw	zero,0(a1)
	.loc 1 319 3074 is_stmt 1
	.loc 1 319 3113 is_stmt 0
	addi	t4,t4,-1
	.loc 1 319 3091
	sw	t4,0(t1)
	.loc 1 319 3116 is_stmt 1
	.loc 1 319 3133 is_stmt 0
	lw	t5,172(sp)
	sw	t5,0(a2)
	.loc 1 319 3150 is_stmt 1
	.loc 1 319 3167 is_stmt 0
	lw	t4,32(sp)
	sw	t4,0(a3)
	.loc 1 319 3180 is_stmt 1
	.loc 1 319 3197 is_stmt 0
	li	t4,31
	sw	t4,0(a4)
	.loc 1 319 3203 is_stmt 1
	.loc 1 319 3220 is_stmt 0
	lw	t4,60(sp)
	sw	t4,0(s0)
	.loc 1 319 3241 is_stmt 1
	.loc 1 319 3258 is_stmt 0
	lw	t6,24(sp)
	sw	t6,0(a5)
	.loc 1 319 3271 is_stmt 1
	.loc 1 319 3287 is_stmt 0
	sw	s5,0(s10)
	.loc 1 319 3298 is_stmt 1
	.loc 1 319 3314 is_stmt 0
	li	s5,15
	sw	s5,0(s9)
	.loc 1 319 3320 is_stmt 1
	.loc 1 319 3337 is_stmt 0
	lw	t6,28(sp)
	sw	t6,0(s8)
	.loc 1 319 3350 is_stmt 1
	.loc 1 319 3367 is_stmt 0
	lw	t4,52(sp)
	sw	t4,0(s7)
	.loc 1 319 3376 is_stmt 1
.LVL100:
	.loc 1 319 3423
	.loc 1 319 3444 is_stmt 0
	lw	t4,36(sp)
	lw	t5,28(t4)
	lw	t4,144(sp)
	addi	t4,t4,-1
	sub	t4,t4,t6
	add	t4,t4,t5
	.loc 1 319 3439
	sw	t4,0(s1)
	.loc 1 319 3477 is_stmt 1
	.loc 1 319 3478
	.loc 1 319 3495 is_stmt 0
	lw	t5,16(sp)
	li	t6,512
	sw	t6,0(t5)
	.loc 1 319 3527 is_stmt 1
	.loc 1 319 3544 is_stmt 0
	lw	t6,44(sp)
.LBE144:
.LBB145:
	.loc 1 319 3947
	li	t5,7
.LBE145:
.LBB146:
	.loc 1 319 3544
	sw	t6,0(s6)
.LBE146:
.LBB147:
	.loc 1 319 3577 is_stmt 1
.LVL101:
	.loc 1 319 3804
	.loc 1 319 3820 is_stmt 0
	sw	a6,0(t3)
	.loc 1 319 3931 is_stmt 1
	.loc 1 319 3947 is_stmt 0
	sw	t5,0(s2)
	.loc 1 319 3953 is_stmt 1
	.loc 1 319 3970 is_stmt 0
	sw	s3,0(t2)
	.loc 1 319 0 is_stmt 1
	sw	zero,0(a0)
	.loc 1 319 0
	li	a0,16
	sw	a0,0(a7)
	.loc 1 319 0
	sw	s4,0(a1)
	.loc 1 319 0
	li	a1,63
	sw	a1,0(t1)
	.loc 1 319 0
	sw	zero,0(a2)
	.loc 1 319 0
	li	a2,4
	sw	a2,0(a3)
	.loc 1 319 0
	sw	s4,0(a4)
	.loc 1 319 0
	sw	s5,0(s0)
	.loc 1 319 0
	sw	zero,0(a5)
	.loc 1 319 0
.LBE147:
.LBB148:
	.loc 1 319 1342 is_stmt 0
	li	a5,1
.LBE148:
.LBB149:
	.loc 1 319 0
	sw	a5,0(s10)
	.loc 1 319 0 is_stmt 1
.LBE149:
.LBB150:
	.loc 1 315 0 is_stmt 0
	li	a5,3
.LBE150:
.LBB151:
	.loc 1 319 0
	sw	a5,0(s9)
	.loc 1 319 0 is_stmt 1
	sw	a5,0(s8)
	.loc 1 319 0
	sw	zero,0(s7)
	.loc 1 319 0
.LVL102:
	.loc 1 319 0
	sw	zero,0(s1)
	.loc 1 319 0
	.loc 1 319 0
	lw	t4,40(sp)
	sw	t4,0(s6)
.LBE151:
	.loc 1 319 0
	.loc 1 319 0
	lw	t4,12(sp)
	lw	t5,20(sp)
	sw	t5,0(t4)
.LVL103:
.L7:
	.loc 1 226 26 discriminator 2
	.loc 1 226 17 is_stmt 0 discriminator 1
	lw	a4,28(sp)
	.loc 1 226 26 discriminator 2
	lw	a5,88(sp)
	.loc 1 226 17 discriminator 1
	addi	a4,a4,-14
	sw	a4,28(sp)
	lw	a4,56(sp)
	.loc 1 226 26 discriminator 2
	addi	a5,a5,1
	sw	a5,88(sp)
.LVL104:
	.loc 1 226 17 is_stmt 1 discriminator 1
	addi	a4,a4,14
	sw	a4,56(sp)
	lw	a4,152(sp)
	bgt	a4,a5,.L27
.LVL105:
.L8:
	.loc 1 225 23 discriminator 2
	.loc 1 225 17 is_stmt 0 discriminator 1
	lw	a4,32(sp)
	lw	a5,204(sp)
.LVL106:
	lw	a2,64(sp)
	add	a5,a5,a4
	.loc 1 225 23 discriminator 2
	lw	a4,184(sp)
	addi	a3,a4,1
	.loc 1 225 17 discriminator 1
	lw	a4,200(sp)
	.loc 1 225 23 discriminator 2
	sw	a3,184(sp)
.LVL107:
	.loc 1 225 17 is_stmt 1 discriminator 1
	add	a2,a2,a4
	sw	a2,64(sp)
	lw	a2,24(sp)
	sub	a2,a2,a4
	sw	a2,24(sp)
	lw	a2,60(sp)
	add	a2,a2,a4
	sw	a2,60(sp)
	lw	a2,192(sp)
	add	a5,a5,a2
	sw	a5,144(sp)
	lw	a5,188(sp)
	sub	a5,a5,a4
	sw	a5,188(sp)
	lw	a5,196(sp)
	bne	a5,a3,.L6
	lw	s1,260(sp)
	.cfi_restore 9
	lw	s2,256(sp)
	.cfi_restore 18
	lw	s3,252(sp)
	.cfi_restore 19
	lw	s4,248(sp)
	.cfi_restore 20
	lw	s5,244(sp)
	.cfi_restore 21
	lw	s6,240(sp)
	.cfi_restore 22
	lw	s7,236(sp)
	.cfi_restore 23
	lw	s8,232(sp)
	.cfi_restore 24
	lw	s9,228(sp)
	.cfi_restore 25
	lw	s10,224(sp)
	.cfi_restore 26
	lw	s11,220(sp)
	.cfi_restore 27
.LVL108:
.L1:
	.loc 1 323 1 is_stmt 0
	lw	ra,268(sp)
	.cfi_restore 1
	lw	s0,264(sp)
	.cfi_restore 8
	addi	sp,sp,272
	.cfi_def_cfa_offset 0
	jr	ra
.LVL109:
.L26:
	.cfi_def_cfa_offset 272
	.cfi_offset 1, -4
	.cfi_offset 8, -8
	.cfi_offset 9, -12
	.cfi_offset 18, -16
	.cfi_offset 19, -20
	.cfi_offset 20, -24
	.cfi_offset 21, -28
	.cfi_offset 22, -32
	.cfi_offset 23, -36
	.cfi_offset 24, -40
	.cfi_offset 25, -44
	.cfi_offset 26, -48
	.cfi_offset 27, -52
.LBB152:
	.loc 1 240 54
	li	s2,-2147483648
	li	a5,4096
.LVL110:
	sw	a5,800(s2)
.LVL111:
	.loc 1 240 82
	li	t5,-2147483648
	sw	zero,928(t5)
	.loc 1 240 105
	li	t2,-2147483648
	sw	s11,1440(t2)
	.loc 1 240 150
	li	t0,-2147479552
	sw	zero,-1248(t0)
	.loc 1 240 179
	li	a2,7
	li	s5,-2147483648
	sw	a2,1824(s5)
	.loc 1 240 54
	mv	s7,a5
	.loc 1 240 245
	li	s9,-2147483648
	li	a5,64
	sw	a5,1696(s9)
	.loc 1 240 312
	li	a4,-2147483648
	sw	a4,12(sp)
	li	a5,511
	sw	a5,1952(a4)
	.loc 1 240 334
	li	a3,-2147479552
	sw	a3,16(sp)
	sw	zero,-1120(a3)
	.loc 1 240 354
	li	s6,-2147479552
	li	a3,1
	sw	a3,-1888(s6)
	.loc 1 240 400
	li	s10,-2147479552
	li	s8,8
	sw	s8,-2016(s10)
	.loc 1 240 443
	li	t4,-2147479552
	sw	a5,-1760(t4)
	.loc 1 240 465
	li	t3,-2147479552
	sw	zero,-992(t3)
	.loc 1 240 484
	li	t1,-2147483648
	sw	a2,672(t1)
	.loc 1 240 540
	li	a7,-2147483648
	sw	a3,1056(a7)
	.loc 1 240 568
	li	a6,-2147483648
	sw	a5,1568(a6)
	.loc 1 240 590
	li	a0,-2147479552
	.loc 1 240 609
	li	a4,524288
	.loc 1 240 590
	sw	zero,-864(a0)
	.loc 1 240 609
	li	t6,-2147483648
	addi	a4,a4,8
	sw	a4,544(t6)
	.loc 1 240 745
	li	s1,-2147479552
	li	a1,128
	.loc 1 240 887
	li	s0,1032192
	.loc 1 240 745
	sw	a1,-736(s1)
	.loc 1 240 887
	li	a4,-2147479552
	addi	s0,s0,127
	sw	s0,-1632(a4)
.LBE152:
	.loc 1 240 938
	li	a1,-2147479552
	.loc 1 240 960
	li	ra,1036288
	.loc 1 240 938
	sw	zero,-480(a1)
	.loc 1 240 960
	addi	ra,ra,-1923
	.loc 1 240 1009
	li	s4,393216
	.loc 1 240 960
	sw	ra,-1632(a4)
	.loc 1 240 1009
	li	s3,-2147483648
	addi	s4,s4,1
	sw	s4,20(s3)
.LBB153:
	.loc 1 241 54
	sw	s7,800(s2)
	.loc 1 241 82
	sw	zero,928(t5)
	.loc 1 241 105
	sw	s11,1440(t2)
	.loc 1 241 150
	sw	zero,-1248(t0)
	.loc 1 241 179
	sw	a2,1824(s5)
	.loc 1 241 245
	li	s7,64
	sw	s7,1696(s9)
	.loc 1 241 312
	lw	s7,12(sp)
.LBE153:
.LBB154:
	.loc 1 240 609
	addi	t6,t6,544
	.loc 1 240 82
	addi	t5,t5,928
.LBE154:
.LBB155:
	.loc 1 241 312
	sw	a5,1952(s7)
	.loc 1 241 334
	lw	s7,16(sp)
.LBE155:
.LBB156:
	.loc 1 240 443
	addi	t4,t4,-1760
.LBE156:
.LBB157:
	.loc 1 241 334
	sw	zero,-1120(s7)
	.loc 1 241 354
	sw	a3,-1888(s6)
	.loc 1 241 400
	sw	s8,-2016(s10)
	.loc 1 241 443
	sw	a5,0(t4)
	.loc 1 241 465
	sw	zero,-992(t3)
	.loc 1 241 484
	sw	a2,672(t1)
	.loc 1 241 540
	sw	a3,1056(a7)
	.loc 1 241 568
	sw	a5,1568(a6)
	.loc 1 241 609
	li	s7,524288
	.loc 1 241 590
	sw	zero,-864(a0)
	.loc 1 241 609
	addi	s7,s7,520
	sw	s7,0(t6)
	.loc 1 241 747
	li	s7,128
	sw	s7,-736(s1)
	.loc 1 241 889
	sw	s0,-1632(a4)
.LBE157:
	.loc 1 241 940
	sw	zero,-480(a1)
	.loc 1 241 962
	sw	ra,-1632(a4)
	.loc 1 241 1011
	sw	s4,20(s3)
.LBB158:
	.loc 1 242 54
	li	s7,4096
	sw	s7,800(s2)
	.loc 1 242 82
	sw	zero,0(t5)
	.loc 1 242 105
	sw	s11,1440(t2)
	.loc 1 242 150
	sw	zero,-1248(t0)
	.loc 1 242 179
	sw	a2,1824(s5)
	.loc 1 242 245
	li	t0,64
	sw	t0,1696(s9)
	.loc 1 242 312
	lw	s7,12(sp)
.LBE158:
.LBB159:
	.loc 1 247 337
	li	t0,7
	mv	s2,t5
.LBE159:
.LBB160:
	.loc 1 242 312
	sw	a5,1952(s7)
	.loc 1 242 334
	lw	s7,16(sp)
	sw	zero,-1120(s7)
	.loc 1 242 354
	sw	a3,-1888(s6)
	.loc 1 242 400
	sw	s8,-2016(s10)
	.loc 1 242 443
	sw	a5,0(t4)
	.loc 1 242 465
	sw	zero,-992(t3)
	.loc 1 242 484
	sw	a2,672(t1)
	.loc 1 242 540
	sw	a3,1056(a7)
	.loc 1 242 568
	sw	a5,1568(a6)
	.loc 1 242 609
	li	a5,524288
	.loc 1 242 590
	sw	zero,-864(a0)
	.loc 1 242 609
	addi	a5,a5,1032
	sw	a5,0(t6)
	.loc 1 242 748
	li	s7,128
	sw	s7,-736(s1)
	.loc 1 242 890
	sw	s0,-1632(a4)
.LBE160:
	.loc 1 242 941
	sw	zero,-480(a1)
	.loc 1 242 963
	sw	ra,-1632(a4)
	lw	a5,148(sp)
.LBB161:
	.loc 1 247 337
	mv	s0,t4
	mv	s1,t6
	sw	a5,48(sp)
.LBE161:
	.loc 1 227 10 is_stmt 1
.LVL112:
	.loc 1 230 10
.LBB162:
	.loc 1 240 3
	.loc 1 240 38
	.loc 1 240 66
	.loc 1 240 88
	.loc 1 240 133
	.loc 1 240 162
	.loc 1 240 228
	.loc 1 240 295
	.loc 1 240 317
	.loc 1 240 337
	.loc 1 240 383
	.loc 1 240 426
	.loc 1 240 448
	.loc 1 240 468
	.loc 1 240 524
	.loc 1 240 551
	.loc 1 240 573
	.loc 1 240 593
	.loc 1 240 728
	.loc 1 240 870
.LBE162:
	.loc 1 240 920
	.loc 1 240 921
	.loc 1 240 943
	.loc 1 240 992
	.loc 1 240 993
.LBB163:
	.loc 1 241 3
	.loc 1 241 38
	.loc 1 241 66
	.loc 1 241 88
	.loc 1 241 133
	.loc 1 241 162
	.loc 1 241 228
	.loc 1 241 295
	.loc 1 241 317
	.loc 1 241 337
	.loc 1 241 383
	.loc 1 241 426
	.loc 1 241 448
	.loc 1 241 468
	.loc 1 241 524
	.loc 1 241 551
	.loc 1 241 573
	.loc 1 241 593
	.loc 1 241 730
	.loc 1 241 872
.LBE163:
	.loc 1 241 922
	.loc 1 241 923
	.loc 1 241 945
	.loc 1 241 994
	.loc 1 241 995
.LBB164:
	.loc 1 242 3
	.loc 1 242 38
	.loc 1 242 66
	.loc 1 242 88
	.loc 1 242 133
	.loc 1 242 162
	.loc 1 242 228
	.loc 1 242 295
	.loc 1 242 317
	.loc 1 242 337
	.loc 1 242 383
	.loc 1 242 426
	.loc 1 242 448
	.loc 1 242 468
	.loc 1 242 524
	.loc 1 242 551
	.loc 1 242 573
	.loc 1 242 593
	.loc 1 242 731
	.loc 1 242 873
.LBE164:
	.loc 1 242 923
	.loc 1 242 924
	.loc 1 242 946
	.loc 1 242 995
	.loc 1 242 996
	.loc 1 242 1012 is_stmt 0
	sw	s4,20(s3)
	lw	a5,188(sp)
	sw	zero,96(sp)
	sw	a5,88(sp)
	j	.L11
.LVL113:
.L28:
	.loc 1 227 10 is_stmt 1
	.loc 1 230 10
.LBB165:
	.loc 1 232 3
	.loc 1 232 38
	.loc 1 232 54 is_stmt 0
	li	t2,-2147483648
	li	a3,4096
	sw	a3,800(t2)
.LVL114:
	.loc 1 232 66 is_stmt 1
	.loc 1 232 82 is_stmt 0
	sw	zero,0(s2)
	.loc 1 232 88 is_stmt 1
	.loc 1 232 105 is_stmt 0
	li	t6,-2147483648
	sw	s11,1440(t6)
	.loc 1 232 133 is_stmt 1
	.loc 1 232 150 is_stmt 0
	li	t5,-2147479552
	sw	zero,-1248(t5)
	.loc 1 232 162 is_stmt 1
	.loc 1 232 179 is_stmt 0
	li	t4,-2147483648
	li	s6,7
	sw	s6,1824(t4)
	.loc 1 232 228 is_stmt 1
	.loc 1 232 245 is_stmt 0
	li	s10,-2147483648
	li	s5,64
	sw	s5,1696(s10)
	.loc 1 232 295 is_stmt 1
	.loc 1 232 312 is_stmt 0
	li	a5,511
	li	t3,-2147483648
	sw	a5,1952(t3)
	.loc 1 232 317 is_stmt 1
	.loc 1 232 334 is_stmt 0
	li	t1,-2147479552
	sw	zero,-1120(t1)
	.loc 1 232 337 is_stmt 1
	.loc 1 232 354 is_stmt 0
	li	a4,1
	li	a7,-2147479552
	sw	a4,-1888(a7)
	.loc 1 232 383 is_stmt 1
	.loc 1 232 400 is_stmt 0
	li	s9,-2147479552
	li	s4,8
	sw	s4,-2016(s9)
	.loc 1 232 426 is_stmt 1
	.loc 1 232 443 is_stmt 0
	sw	a5,0(s0)
	.loc 1 232 448 is_stmt 1
	.loc 1 232 465 is_stmt 0
	li	a6,-2147479552
	sw	zero,-992(a6)
	.loc 1 232 468 is_stmt 1
	.loc 1 232 484 is_stmt 0
	li	a0,-2147483648
	sw	s6,672(a0)
	.loc 1 232 524 is_stmt 1
	.loc 1 232 540 is_stmt 0
	li	a1,-2147483648
	sw	a4,1056(a1)
	.loc 1 232 551 is_stmt 1
	.loc 1 232 568 is_stmt 0
	li	a2,-2147483648
	sw	a5,1568(a2)
	.loc 1 232 573 is_stmt 1
	.loc 1 232 590 is_stmt 0
	li	s3,-2147479552
	.loc 1 232 609
	li	ra,524288
	.loc 1 232 590
	sw	zero,-864(s3)
	.loc 1 232 593 is_stmt 1
	.loc 1 232 609 is_stmt 0
	addi	ra,ra,8
	sw	ra,0(s1)
	.loc 1 232 728 is_stmt 1
	.loc 1 232 745 is_stmt 0
	li	s7,128
	.loc 1 232 887
	li	s8,1032192
	.loc 1 232 745
	sw	s7,-736(s3)
	.loc 1 232 887
	li	ra,-2147479552
	addi	s8,s8,127
	sw	s8,-1632(ra)
.LBE165:
.LBB166:
	.loc 1 232 985
	sw	a3,800(t2)
	.loc 1 232 1013
	sw	zero,0(s2)
	.loc 1 232 1036
	addi	s7,a3,-1
	sw	s7,1440(t6)
	.loc 1 232 1081
	li	s7,12288
	sw	s7,-1248(t5)
	.loc 1 232 1110
	sw	s6,1824(t4)
	.loc 1 232 1176
	sw	s5,1696(s10)
	.loc 1 232 1243
	sw	a5,1952(t3)
	.loc 1 232 1265
	sw	zero,-1120(t1)
	.loc 1 232 1285
	sw	a4,-1888(a7)
	.loc 1 232 1369
	sw	s4,-2016(s9)
	.loc 1 232 1412
	sw	a5,0(s0)
	.loc 1 232 1434
	sw	zero,-992(a6)
	.loc 1 232 1453
	sw	s6,672(a0)
	.loc 1 232 1509
	sw	a4,1056(a1)
	.loc 1 232 1559
	li	a3,-2147479552
	.loc 1 232 1537
	sw	a5,1568(a2)
	.loc 1 232 1578
	li	s6,536576
	.loc 1 232 1559
	sw	zero,-864(a3)
	.loc 1 232 1578
	addi	s6,s6,24
	.loc 1 232 1732
	li	a3,1032192
	.loc 1 232 1578
	sw	s6,0(s1)
	.loc 1 232 1732
	addi	s6,a3,125
	mv	a3,s6
	sw	a3,12(sp)
.LBE166:
	.loc 1 232 1781
	li	s6,393216
.LBB167:
	.loc 1 232 1732
	sw	a3,-1632(ra)
.LBE167:
	.loc 1 232 1781
	li	s7,-2147483648
	addi	s6,s6,1
	sw	s6,20(s7)
.LBB168:
	.loc 1 234 54
	li	s6,4096
	sw	s6,800(t2)
	.loc 1 234 82
	sw	zero,0(s2)
	.loc 1 234 105
	sw	s11,1440(t6)
	.loc 1 234 150
	sw	zero,-1248(t5)
	.loc 1 234 179
	li	s6,7
	sw	s6,1824(t4)
	.loc 1 234 245
	sw	s5,1696(s10)
	.loc 1 234 312
	sw	a5,1952(t3)
	.loc 1 234 334
	sw	zero,-1120(t1)
	.loc 1 234 354
	sw	a4,-1888(a7)
	.loc 1 234 400
	sw	s4,-2016(s9)
	.loc 1 234 443
	sw	a5,0(s0)
	.loc 1 234 465
	sw	zero,-992(a6)
	.loc 1 234 484
	sw	s6,672(a0)
	.loc 1 234 540
	sw	a4,1056(a1)
	.loc 1 234 568
	sw	a5,1568(a2)
	.loc 1 234 590
	li	a3,-2147479552
	.loc 1 234 609
	li	s6,524288
	.loc 1 234 590
	sw	zero,-864(a3)
	.loc 1 234 609
	addi	s6,s6,520
	sw	s6,0(s1)
.LBE168:
.LBB169:
	.loc 1 232 745
	addi	s3,s3,-736
	.loc 1 232 870 is_stmt 1
.LBE169:
.LBB170:
	.loc 1 232 920
.LVL115:
	.loc 1 232 969
	.loc 1 232 997
	.loc 1 232 1019
	.loc 1 232 1064
	.loc 1 232 1093
	.loc 1 232 1159
	.loc 1 232 1226
	.loc 1 232 1248
	.loc 1 232 1268
	.loc 1 232 1352
	.loc 1 232 1395
	.loc 1 232 1417
	.loc 1 232 1437
	.loc 1 232 1493
	.loc 1 232 1520
	.loc 1 232 1542
	.loc 1 232 1562
	.loc 1 232 1715
.LBE170:
	.loc 1 232 1764
	.loc 1 232 1765
.LBB171:
	.loc 1 234 3
	.loc 1 234 38
	.loc 1 234 66
	.loc 1 234 88
	.loc 1 234 133
	.loc 1 234 162
	.loc 1 234 228
	.loc 1 234 295
	.loc 1 234 317
	.loc 1 234 337
	.loc 1 234 383
	.loc 1 234 426
	.loc 1 234 448
	.loc 1 234 468
	.loc 1 234 524
	.loc 1 234 551
	.loc 1 234 573
	.loc 1 234 593
	.loc 1 234 730
	.loc 1 234 747 is_stmt 0
	sw	s3,16(sp)
	li	s6,128
	sw	s6,0(s3)
	.loc 1 234 872 is_stmt 1
	.loc 1 234 889 is_stmt 0
	sw	s8,20(sp)
	sw	s8,-1632(ra)
.LBE171:
.LBB172:
	.loc 1 234 922 is_stmt 1
.LVL116:
	.loc 1 234 971
	.loc 1 234 987 is_stmt 0
	li	s3,4096
	sw	s3,800(t2)
	.loc 1 234 999 is_stmt 1
	.loc 1 234 1015 is_stmt 0
	sw	zero,0(s2)
	.loc 1 234 1021 is_stmt 1
	.loc 1 234 1038 is_stmt 0
	mv	a3,s3
	addi	s3,s3,-1
	sw	s3,1440(t6)
	.loc 1 234 1066 is_stmt 1
	.loc 1 234 1083 is_stmt 0
	li	s6,12288
	sw	s6,-1248(t5)
	.loc 1 234 1095 is_stmt 1
	.loc 1 234 1112 is_stmt 0
	li	s6,7
	sw	s6,1824(t4)
	.loc 1 234 1161 is_stmt 1
	.loc 1 234 1178 is_stmt 0
	sw	s5,1696(s10)
	.loc 1 234 1228 is_stmt 1
	.loc 1 234 1245 is_stmt 0
	sw	a5,1952(t3)
	.loc 1 234 1250 is_stmt 1
	.loc 1 234 1267 is_stmt 0
	sw	zero,-1120(t1)
	.loc 1 234 1270 is_stmt 1
	.loc 1 234 1287 is_stmt 0
	sw	a4,-1888(a7)
	.loc 1 234 1354 is_stmt 1
	.loc 1 234 1371 is_stmt 0
	sw	s4,-2016(s9)
	.loc 1 234 1397 is_stmt 1
	.loc 1 234 1414 is_stmt 0
	sw	a5,0(s0)
	.loc 1 234 1419 is_stmt 1
	.loc 1 234 1436 is_stmt 0
	sw	zero,-992(a6)
	.loc 1 234 1439 is_stmt 1
	.loc 1 234 1455 is_stmt 0
	sw	s6,672(a0)
	.loc 1 234 1495 is_stmt 1
	.loc 1 234 1511 is_stmt 0
	sw	a4,1056(a1)
	.loc 1 234 1522 is_stmt 1
	.loc 1 234 1539 is_stmt 0
	sw	a5,1568(a2)
	.loc 1 234 1544 is_stmt 1
	.loc 1 234 1455 is_stmt 0
	mv	s3,s6
	.loc 1 234 1561
	li	s8,-2147479552
	.loc 1 234 1580
	li	s6,536576
	.loc 1 234 1561
	sw	zero,-864(s8)
	.loc 1 234 1564 is_stmt 1
	.loc 1 234 1580 is_stmt 0
	addi	s6,s6,536
	sw	s6,0(s1)
	.loc 1 234 1719 is_stmt 1
	.loc 1 234 1736 is_stmt 0
	lw	s8,12(sp)
.LBE172:
	.loc 1 234 1785
	li	s6,393216
	addi	s6,s6,9
.LBB173:
	.loc 1 234 1736
	sw	s8,-1632(ra)
.LBE173:
	.loc 1 234 1768 is_stmt 1
	.loc 1 234 1769
	.loc 1 234 1785 is_stmt 0
	sw	s6,20(s7)
.LBB174:
	.loc 1 237 3 is_stmt 1
.LVL117:
	.loc 1 237 38
	.loc 1 237 54 is_stmt 0
	sw	a3,800(t2)
	.loc 1 237 66 is_stmt 1
	.loc 1 237 82 is_stmt 0
	sw	zero,0(s2)
	.loc 1 237 88 is_stmt 1
	.loc 1 237 105 is_stmt 0
	sw	s11,1440(t6)
	.loc 1 237 133 is_stmt 1
	.loc 1 237 150 is_stmt 0
	sw	zero,-1248(t5)
	.loc 1 237 162 is_stmt 1
	.loc 1 237 179 is_stmt 0
	sw	s3,1824(t4)
	.loc 1 237 228 is_stmt 1
	.loc 1 237 245 is_stmt 0
	sw	s5,1696(s10)
	.loc 1 237 295 is_stmt 1
	.loc 1 237 312 is_stmt 0
	sw	a5,1952(t3)
	.loc 1 237 317 is_stmt 1
	.loc 1 237 334 is_stmt 0
	sw	zero,-1120(t1)
	.loc 1 237 337 is_stmt 1
	.loc 1 237 354 is_stmt 0
	sw	a4,-1888(a7)
	.loc 1 237 383 is_stmt 1
	.loc 1 237 400 is_stmt 0
	sw	s4,-2016(s9)
	.loc 1 237 426 is_stmt 1
	.loc 1 237 443 is_stmt 0
	sw	a5,0(s0)
	.loc 1 237 448 is_stmt 1
	.loc 1 237 465 is_stmt 0
	sw	zero,-992(a6)
	.loc 1 237 468 is_stmt 1
	.loc 1 237 484 is_stmt 0
	sw	s3,672(a0)
	.loc 1 237 524 is_stmt 1
	.loc 1 237 540 is_stmt 0
	sw	a4,1056(a1)
	.loc 1 237 551 is_stmt 1
	.loc 1 237 568 is_stmt 0
	sw	a5,1568(a2)
	.loc 1 237 573 is_stmt 1
	.loc 1 237 590 is_stmt 0
	li	s3,-2147479552
	.loc 1 237 609
	li	s8,524288
	.loc 1 237 590
	sw	zero,-864(s3)
	.loc 1 237 593 is_stmt 1
	.loc 1 237 609 is_stmt 0
	addi	s8,s8,1032
	sw	s8,0(s1)
	.loc 1 237 731 is_stmt 1
	.loc 1 237 748 is_stmt 0
	lw	s3,16(sp)
	li	s8,128
	sw	s8,0(s3)
	.loc 1 237 873 is_stmt 1
	.loc 1 237 890 is_stmt 0
	lw	s8,20(sp)
.LBE174:
.LBB175:
	.loc 1 237 1113
	li	s3,7
.LBE175:
.LBB176:
	.loc 1 237 890
	sw	s8,-1632(ra)
.LBE176:
.LBB177:
	.loc 1 237 923 is_stmt 1
.LVL118:
	.loc 1 237 972
	.loc 1 237 988 is_stmt 0
	sw	a3,800(t2)
	.loc 1 237 1000 is_stmt 1
	.loc 1 237 1016 is_stmt 0
	sw	zero,0(s2)
	.loc 1 237 1022 is_stmt 1
	.loc 1 237 1039 is_stmt 0
	addi	t2,a3,-1
	sw	t2,1440(t6)
	.loc 1 237 1067 is_stmt 1
	.loc 1 237 1084 is_stmt 0
	li	t6,12288
	sw	t6,-1248(t5)
	.loc 1 237 1096 is_stmt 1
	.loc 1 237 1113 is_stmt 0
	sw	s3,1824(t4)
	.loc 1 237 1162 is_stmt 1
	.loc 1 237 1179 is_stmt 0
	sw	s5,1696(s10)
	.loc 1 237 1229 is_stmt 1
	.loc 1 237 1246 is_stmt 0
	sw	a5,1952(t3)
	.loc 1 237 1251 is_stmt 1
	.loc 1 237 1268 is_stmt 0
	sw	zero,-1120(t1)
	.loc 1 237 1271 is_stmt 1
	.loc 1 237 1288 is_stmt 0
	sw	a4,-1888(a7)
	.loc 1 237 1355 is_stmt 1
	.loc 1 237 1372 is_stmt 0
	sw	s4,-2016(s9)
	.loc 1 237 1398 is_stmt 1
	.loc 1 237 1415 is_stmt 0
	sw	a5,0(s0)
	.loc 1 237 1420 is_stmt 1
	.loc 1 237 1437 is_stmt 0
	sw	zero,-992(a6)
	.loc 1 237 1440 is_stmt 1
	.loc 1 237 1456 is_stmt 0
	sw	s3,672(a0)
	.loc 1 237 1496 is_stmt 1
	.loc 1 237 1512 is_stmt 0
	sw	a4,1056(a1)
	.loc 1 237 1523 is_stmt 1
	.loc 1 237 1540 is_stmt 0
	sw	a5,1568(a2)
	.loc 1 237 1545 is_stmt 1
	.loc 1 237 1562 is_stmt 0
	li	a4,-2147479552
	.loc 1 237 1581
	li	a5,536576
	.loc 1 237 1562
	sw	zero,-864(a4)
	.loc 1 237 1565 is_stmt 1
	.loc 1 237 1581 is_stmt 0
	addi	a5,a5,1048
	sw	a5,0(s1)
	.loc 1 237 1721 is_stmt 1
	.loc 1 237 1738 is_stmt 0
	lw	a5,12(sp)
	sw	a5,-1632(ra)
.LBE177:
	.loc 1 237 1770 is_stmt 1
	.loc 1 237 1771
	.loc 1 237 1787 is_stmt 0
	sw	s6,20(s7)
.LVL119:
.L11:
	.loc 1 244 1 is_stmt 1
	.loc 1 244 2
	.loc 1 244 18 is_stmt 0
	li	a5,-2147483648
	addi	a7,a5,20
	li	a5,88
	sw	a5,0(a7)
.LBB178:
	.loc 1 247 3 is_stmt 1
.LVL120:
	.loc 1 247 212
	.loc 1 247 228 is_stmt 0
	li	a4,-2147483648
	li	t2,128
	sw	t2,800(a4)
	.loc 1 247 321 is_stmt 1
	.loc 1 247 337 is_stmt 0
	sw	t0,0(s2)
	.loc 1 247 343 is_stmt 1
	.loc 1 247 360 is_stmt 0
	addi	a5,a4,1440
	sw	a5,16(sp)
	li	t4,1023
	sw	t4,0(a5)
	.loc 1 247 478 is_stmt 1
	.loc 1 247 228 is_stmt 0
	addi	ra,a4,800
	.loc 1 247 495
	li	a4,-2147479552
	sw	a4,12(sp)
	.loc 1 247 605
	li	a0,-2147483648
	.loc 1 247 495
	sw	zero,-1248(a4)
	.loc 1 247 588 is_stmt 1
	.loc 1 247 605 is_stmt 0
	addi	a0,a0,1696
	li	a3,16
	.loc 1 247 685
	li	a1,-2147483648
	.loc 1 247 605
	sw	a3,0(a0)
	.loc 1 247 668 is_stmt 1
	.loc 1 247 708 is_stmt 0
	li	t1,-2147483648
	addi	t1,t1,1952
	.loc 1 247 822
	li	a2,-2147479552
	.loc 1 247 685
	sw	t0,1824(a1)
	.loc 1 247 691 is_stmt 1
	.loc 1 247 708 is_stmt 0
	li	t2,127
	.loc 1 247 822
	addi	a2,a2,-1120
	.loc 1 247 902
	li	a3,-2147479552
	.loc 1 247 708
	sw	t2,0(t1)
	.loc 1 247 805 is_stmt 1
	.loc 1 247 902 is_stmt 0
	addi	a3,a3,-2016
	.loc 1 247 822
	sw	zero,0(a2)
	.loc 1 247 885 is_stmt 1
	.loc 1 247 902 is_stmt 0
	li	a6,4
	.loc 1 247 964
	li	s4,3
	addi	a4,a4,-1888
	.loc 1 247 902
	sw	a6,0(a3)
	.loc 1 247 947 is_stmt 1
	.loc 1 247 1071 is_stmt 0
	li	a5,-2147479552
	.loc 1 247 964
	sw	s4,0(a4)
	.loc 1 247 970 is_stmt 1
	.loc 1 247 987 is_stmt 0
	li	t3,15
	.loc 1 247 1132
	li	s10,-2147483648
	.loc 1 247 1071
	addi	a5,a5,-992
	.loc 1 247 987
	sw	t3,0(s0)
	.loc 1 247 1054 is_stmt 1
	.loc 1 247 1132 is_stmt 0
	li	s5,1
	.loc 1 247 1159
	li	s9,-2147483648
	.loc 1 247 1132
	addi	s10,s10,1056
	.loc 1 247 1071
	sw	zero,0(a5)
	.loc 1 247 1116 is_stmt 1
	.loc 1 247 1182 is_stmt 0
	li	s8,-2147483648
	.loc 1 247 1159
	addi	s9,s9,672
	.loc 1 247 1132
	sw	s5,0(s10)
	.loc 1 247 1143 is_stmt 1
	.loc 1 247 1244 is_stmt 0
	li	s7,-2147479552
	.loc 1 247 1182
	addi	s8,s8,1568
	.loc 1 247 1159
	sw	s4,0(s9)
	.loc 1 247 1165 is_stmt 1
	.loc 1 247 1244 is_stmt 0
	addi	s7,s7,-864
	.loc 1 247 1182
	sw	s4,0(s8)
	.loc 1 247 1227 is_stmt 1
	.loc 1 247 1244 is_stmt 0
	sw	zero,0(s7)
	.loc 1 247 1253 is_stmt 1
.LVL121:
	.loc 1 247 1470
	.loc 1 247 1533 is_stmt 0
	li	s3,-2147479552
	.loc 1 247 1486
	sw	zero,0(s1)
	.loc 1 247 1515 is_stmt 1
	.loc 1 247 1516
	.loc 1 247 1533 is_stmt 0
	addi	a6,s3,-736
	sw	a6,20(sp)
	li	t6,1024
	.loc 1 247 1589
	li	s3,1036288
	li	s6,-2147479552
	.loc 1 247 1533
	sw	t6,0(a6)
	.loc 1 247 1572 is_stmt 1
	.loc 1 247 1589 is_stmt 0
	addi	s3,s3,-1921
	addi	s6,s6,-1632
	sw	s3,92(sp)
	sw	s3,0(s6)
.LBE178:
.LBB179:
	.loc 1 247 1622 is_stmt 1
.LVL122:
	.loc 1 247 1806
	.loc 1 247 1823 is_stmt 0
	lw	s3,76(sp)
.LBE179:
.LBB180:
	.loc 1 247 685
	addi	a1,a1,1824
.LBE180:
.LBB181:
	.loc 1 247 1823
	sw	s3,0(a0)
	.loc 1 247 1854 is_stmt 1
	.loc 1 247 1871 is_stmt 0
	sw	t0,0(a1)
	.loc 1 247 1877 is_stmt 1
	.loc 1 247 1894 is_stmt 0
	lw	a6,64(sp)
	sw	a6,0(t1)
	.loc 1 247 1934 is_stmt 1
	.loc 1 247 1951 is_stmt 0
	lw	s3,24(sp)
	sw	s3,0(a2)
	.loc 1 247 1982 is_stmt 1
	.loc 1 247 1999 is_stmt 0
	lw	s3,32(sp)
	sw	s3,0(a3)
	.loc 1 247 2012 is_stmt 1
	.loc 1 247 2029 is_stmt 0
	sw	t0,0(a4)
	.loc 1 247 2035 is_stmt 1
	.loc 1 247 2052 is_stmt 0
	lw	a6,80(sp)
	sw	a6,0(s0)
	.loc 1 247 2064 is_stmt 1
	.loc 1 247 2081 is_stmt 0
	sw	zero,0(a5)
	.loc 1 247 2094 is_stmt 1
	.loc 1 247 2110 is_stmt 0
	sw	s5,0(s10)
	.loc 1 247 2121 is_stmt 1
	lw	s3,96(sp)
	.loc 1 247 2137 is_stmt 0
	sw	t3,0(s9)
	.loc 1 247 2143 is_stmt 1
	slli	a6,s3,3
	sub	a6,a6,s3
	.loc 1 247 2160 is_stmt 0
	lw	s3,48(sp)
	slli	t3,a6,1
	.loc 1 247 2277
	li	a6,-2147479552
	.loc 1 247 2160
	sw	s3,0(s8)
	.loc 1 247 2173 is_stmt 1
	lw	s3,156(sp)
	.loc 1 247 2277 is_stmt 0
	mv	t5,a6
	lw	a6,88(sp)
	.loc 1 247 2190
	sw	t3,72(sp)
	sw	t3,0(s7)
	.loc 1 247 2199 is_stmt 1
.LVL123:
	.loc 1 247 2260
	sub	t2,s3,a6
	.loc 1 247 2277 is_stmt 0
	addi	s3,t5,-96
	sw	s3,28(sp)
	sw	t2,0(s3)
	.loc 1 247 2318 is_stmt 1
	.loc 1 247 2319
	.loc 1 247 2335 is_stmt 0
	sw	a6,88(sp)
	.loc 1 247 2389
	li	t3,1036288
	.loc 1 247 2335
	sw	a6,0(s1)
	.loc 1 247 2371 is_stmt 1
	.loc 1 247 2372
	.loc 1 247 2389 is_stmt 0
	addi	t3,t3,125
	sw	t3,56(sp)
.LBE181:
	.loc 1 247 2438
	li	a6,393216
.LBB182:
	.loc 1 247 2389
	sw	t3,0(s6)
.LBE182:
	.loc 1 247 2421 is_stmt 1
	.loc 1 247 2422
	.loc 1 247 2438 is_stmt 0
	addi	s3,a6,17
	sw	s3,40(sp)
	sw	s3,0(a7)
.LBB183:
	.loc 1 247 2528 is_stmt 1
.LVL124:
	.loc 1 247 2573
.LBE183:
	.loc 1 247 2438 is_stmt 0
	mv	t3,a7
.LBB184:
	.loc 1 247 2590
	li	a7,4096
	sw	a7,0(a3)
	.loc 1 247 2602 is_stmt 1
	.loc 1 247 2619 is_stmt 0
	sw	s4,0(a4)
	.loc 1 247 2625 is_stmt 1
	.loc 1 247 2642 is_stmt 0
	sw	s11,0(s0)
	.loc 1 247 2670 is_stmt 1
	.loc 1 247 2687 is_stmt 0
	sw	zero,0(a5)
	.loc 1 247 2699 is_stmt 1
	.loc 1 247 2780 is_stmt 0
	li	a6,64
	.loc 1 247 2716
	sw	t0,0(a1)
	.loc 1 247 2763 is_stmt 1
	.loc 1 247 2847 is_stmt 0
	li	s3,511
	.loc 1 247 2780
	sw	a6,0(a0)
	.loc 1 247 2830 is_stmt 1
	.loc 1 247 2847 is_stmt 0
	sw	s3,0(t1)
	.loc 1 247 2852 is_stmt 1
	.loc 1 247 2869 is_stmt 0
	sw	zero,0(a2)
	.loc 1 247 2872 is_stmt 1
.LBE184:
.LBB185:
	.loc 1 247 2277 is_stmt 0
	mv	t5,t2
.LBE185:
.LBB186:
	.loc 1 247 2888
	sw	s4,0(s9)
	.loc 1 247 2935 is_stmt 1
	.loc 1 247 2951 is_stmt 0
	li	t2,8
	sw	t2,0(s10)
	.loc 1 247 2977 is_stmt 1
	.loc 1 247 2994 is_stmt 0
	sw	s3,0(s8)
	.loc 1 247 2999 is_stmt 1
	.loc 1 247 3016 is_stmt 0
	sw	zero,0(s7)
	.loc 1 247 3019 is_stmt 1
	.loc 1 247 3035 is_stmt 0
	sw	t0,0(s2)
	.loc 1 247 3073 is_stmt 1
	.loc 1 247 3089 is_stmt 0
	sw	s5,0(ra)
	.loc 1 247 3100 is_stmt 1
	.loc 1 247 3117 is_stmt 0
	lw	t2,16(sp)
	sw	s3,0(t2)
	.loc 1 247 3122 is_stmt 1
	.loc 1 247 3139 is_stmt 0
	lw	t2,12(sp)
	sw	zero,-1248(t2)
	.loc 1 247 3142 is_stmt 1
	.loc 1 247 3158 is_stmt 0
	lw	t2,168(sp)
	sw	t2,0(s1)
	.loc 1 247 3279 is_stmt 1
	.loc 1 247 3296 is_stmt 0
	lw	t2,20(sp)
	sw	t6,0(t2)
	.loc 1 247 3435 is_stmt 1
	.loc 1 247 3452 is_stmt 0
	li	t2,1032192
	addi	t2,t2,1151
	sw	t2,68(sp)
	sw	t2,0(s6)
.LBE186:
.LBB187:
	.loc 1 247 3485 is_stmt 1
.LVL125:
	.loc 1 247 3694
	.loc 1 247 3710 is_stmt 0
	li	t2,128
	sw	t2,0(ra)
	.loc 1 247 3803 is_stmt 1
	.loc 1 247 3819 is_stmt 0
	sw	t0,0(s2)
	.loc 1 247 3825 is_stmt 1
	.loc 1 247 3842 is_stmt 0
	lw	t2,16(sp)
	sw	t4,0(t2)
	.loc 1 247 3960 is_stmt 1
	.loc 1 247 3977 is_stmt 0
	lw	t2,12(sp)
	sw	zero,-1248(t2)
	.loc 1 247 4070 is_stmt 1
	.loc 1 247 4087 is_stmt 0
	li	t2,16
	sw	t2,0(a0)
	.loc 1 247 0 is_stmt 1
	sw	t0,0(a1)
	.loc 1 247 0
	li	t2,127
	sw	t2,0(t1)
	.loc 1 247 0
	sw	zero,0(a2)
	.loc 1 247 0
	li	t2,4
	sw	t2,0(a3)
	.loc 1 247 0
	sw	s4,0(a4)
	.loc 1 247 0
	li	t2,15
	sw	t2,0(s0)
	.loc 1 247 0
	sw	zero,0(a5)
	.loc 1 247 0
	sw	s5,0(s10)
	.loc 1 247 0
	sw	s4,0(s9)
	.loc 1 247 0
	sw	s4,0(s8)
	.loc 1 247 0
	sw	zero,0(s7)
	.loc 1 247 0
.LVL126:
	.loc 1 247 0
	li	t2,1036288
	addi	t2,t2,-1923
	sw	zero,0(s1)
	.loc 1 247 0
	.loc 1 247 0
	sw	t2,52(sp)
	sw	t2,0(s6)
.LBE187:
	.loc 1 247 0
	.loc 1 247 0
	lw	t2,40(sp)
	sw	t2,0(t3)
.LBB188:
	.loc 1 250 3
.LVL127:
	.loc 1 250 212
	.loc 1 250 228 is_stmt 0
	sw	ra,44(sp)
	li	t2,128
	sw	t2,0(ra)
	.loc 1 250 321 is_stmt 1
	.loc 1 250 337 is_stmt 0
	sw	t0,0(s2)
	.loc 1 250 343 is_stmt 1
	.loc 1 250 360 is_stmt 0
	lw	t2,16(sp)
	sw	t4,0(t2)
	.loc 1 250 478 is_stmt 1
	.loc 1 250 495 is_stmt 0
	lw	ra,12(sp)
	.loc 1 250 708
	li	t2,127
	.loc 1 250 495
	sw	zero,-1248(ra)
	.loc 1 250 588 is_stmt 1
	.loc 1 250 605 is_stmt 0
	li	ra,16
	sw	ra,0(a0)
	.loc 1 250 668 is_stmt 1
	.loc 1 250 685 is_stmt 0
	sw	t0,0(a1)
	.loc 1 250 691 is_stmt 1
	.loc 1 250 708 is_stmt 0
	sw	t2,0(t1)
	.loc 1 250 805 is_stmt 1
	.loc 1 250 822 is_stmt 0
	sw	zero,0(a2)
	.loc 1 250 885 is_stmt 1
	.loc 1 250 902 is_stmt 0
	li	ra,4
	sw	ra,0(a3)
	.loc 1 250 947 is_stmt 1
	.loc 1 250 964 is_stmt 0
	sw	s4,0(a4)
	.loc 1 250 970 is_stmt 1
	.loc 1 250 987 is_stmt 0
	li	ra,15
	sw	ra,0(s0)
	.loc 1 250 1054 is_stmt 1
	.loc 1 250 1071 is_stmt 0
	sw	zero,0(a5)
	.loc 1 250 1116 is_stmt 1
	.loc 1 250 1132 is_stmt 0
	sw	s5,0(s10)
	.loc 1 250 1143 is_stmt 1
	.loc 1 250 1159 is_stmt 0
	sw	s4,0(s9)
	.loc 1 250 1165 is_stmt 1
	.loc 1 250 1182 is_stmt 0
	sw	s4,0(s8)
	.loc 1 250 1227 is_stmt 1
	.loc 1 250 1244 is_stmt 0
	sw	zero,0(s7)
	.loc 1 250 1253 is_stmt 1
.LVL128:
	.loc 1 250 1470
	.loc 1 250 1486 is_stmt 0
	sw	zero,0(s1)
	.loc 1 250 1515 is_stmt 1
	.loc 1 250 1516
	.loc 1 250 1533 is_stmt 0
	lw	t2,20(sp)
	sw	t6,0(t2)
	.loc 1 250 1572 is_stmt 1
	.loc 1 250 1589 is_stmt 0
	lw	t2,92(sp)
	sw	t2,0(s6)
.LBE188:
.LBB189:
	.loc 1 250 1622 is_stmt 1
.LVL129:
	.loc 1 250 1806
	.loc 1 250 1823 is_stmt 0
	lw	t2,76(sp)
	sw	t2,0(a0)
	.loc 1 250 1854 is_stmt 1
	.loc 1 250 1871 is_stmt 0
	sw	t0,0(a1)
	.loc 1 250 1877 is_stmt 1
	.loc 1 250 1894 is_stmt 0
	lw	t2,64(sp)
	sw	t2,0(t1)
	.loc 1 250 1934 is_stmt 1
	.loc 1 250 1951 is_stmt 0
	lw	t2,24(sp)
	sw	t2,0(a2)
	.loc 1 250 1982 is_stmt 1
	.loc 1 250 1999 is_stmt 0
	lw	t2,32(sp)
	sw	t2,0(a3)
	.loc 1 250 2012 is_stmt 1
	.loc 1 250 2029 is_stmt 0
	sw	t0,0(a4)
	.loc 1 250 2035 is_stmt 1
	.loc 1 250 2052 is_stmt 0
	lw	t2,80(sp)
	sw	t2,0(s0)
	.loc 1 250 2064 is_stmt 1
	.loc 1 250 2081 is_stmt 0
	sw	zero,0(a5)
	.loc 1 250 2094 is_stmt 1
	.loc 1 250 2110 is_stmt 0
	sw	s5,0(s10)
	.loc 1 250 2121 is_stmt 1
	.loc 1 250 2137 is_stmt 0
	sw	ra,0(s9)
	.loc 1 250 2143 is_stmt 1
	.loc 1 250 2160 is_stmt 0
	lw	ra,48(sp)
	sw	ra,0(s8)
	.loc 1 250 2173 is_stmt 1
	.loc 1 250 2190 is_stmt 0
	lw	ra,72(sp)
	sw	ra,0(s7)
	.loc 1 250 2199 is_stmt 1
.LVL130:
	.loc 1 250 2260
	.loc 1 250 2277 is_stmt 0
	lw	ra,28(sp)
	sw	t5,0(ra)
	.loc 1 250 2318 is_stmt 1
	.loc 1 250 2319
	.loc 1 250 2340 is_stmt 0
	lw	t2,160(sp)
	lw	ra,88(sp)
	add	ra,t2,ra
	.loc 1 250 2335
	sw	ra,0(s1)
	.loc 1 250 2371 is_stmt 1
	.loc 1 250 2372
	.loc 1 250 2389 is_stmt 0
	lw	ra,56(sp)
	sw	ra,0(s6)
.LBE189:
	.loc 1 250 2421 is_stmt 1
	.loc 1 250 2422
	.loc 1 250 2438 is_stmt 0
	lw	ra,40(sp)
	sw	ra,0(t3)
.LBB190:
	.loc 1 250 2528 is_stmt 1
.LVL131:
	.loc 1 250 2573
	.loc 1 250 2590 is_stmt 0
	sw	a7,0(a3)
	.loc 1 250 2602 is_stmt 1
	.loc 1 250 2619 is_stmt 0
	sw	s4,0(a4)
	.loc 1 250 2625 is_stmt 1
	.loc 1 250 2642 is_stmt 0
	sw	s11,0(s0)
	.loc 1 250 2670 is_stmt 1
	.loc 1 250 2687 is_stmt 0
	sw	zero,0(a5)
	.loc 1 250 2699 is_stmt 1
	.loc 1 250 2716 is_stmt 0
	sw	t0,0(a1)
	.loc 1 250 2763 is_stmt 1
	.loc 1 250 2780 is_stmt 0
	sw	a6,0(a0)
	.loc 1 250 2830 is_stmt 1
	.loc 1 250 2847 is_stmt 0
	sw	s3,0(t1)
	.loc 1 250 2852 is_stmt 1
	.loc 1 250 2869 is_stmt 0
	sw	zero,0(a2)
	.loc 1 250 2872 is_stmt 1
	.loc 1 250 2888 is_stmt 0
	sw	s4,0(s9)
	.loc 1 250 2935 is_stmt 1
	.loc 1 250 2951 is_stmt 0
	li	ra,8
	sw	ra,0(s10)
	.loc 1 250 2977 is_stmt 1
	.loc 1 250 2994 is_stmt 0
	sw	s3,0(s8)
	.loc 1 250 2999 is_stmt 1
	.loc 1 250 3016 is_stmt 0
	sw	zero,0(s7)
	.loc 1 250 3019 is_stmt 1
	.loc 1 250 3035 is_stmt 0
	sw	t0,0(s2)
	.loc 1 250 3073 is_stmt 1
	.loc 1 250 3089 is_stmt 0
	lw	ra,44(sp)
	sw	s5,0(ra)
	.loc 1 250 3100 is_stmt 1
	.loc 1 250 3117 is_stmt 0
	lw	t2,16(sp)
	.loc 1 250 3158
	li	ra,524288
	addi	ra,ra,536
	.loc 1 250 3117
	sw	s3,0(t2)
	.loc 1 250 3122 is_stmt 1
	.loc 1 250 3139 is_stmt 0
	lw	t2,12(sp)
	sw	zero,-1248(t2)
	.loc 1 250 3142 is_stmt 1
	.loc 1 250 3158 is_stmt 0
	sw	ra,0(s1)
	.loc 1 250 3281 is_stmt 1
	.loc 1 250 3298 is_stmt 0
	lw	t2,20(sp)
	sw	t6,0(t2)
	.loc 1 250 3437 is_stmt 1
	.loc 1 250 3454 is_stmt 0
	lw	ra,68(sp)
.LBE190:
.LBB191:
	.loc 1 250 3712
	li	t2,128
.LBE191:
.LBB192:
	.loc 1 250 3454
	sw	ra,0(s6)
.LBE192:
.LBB193:
	.loc 1 250 3487 is_stmt 1
.LVL132:
	.loc 1 250 3696
	.loc 1 250 3712 is_stmt 0
	lw	ra,44(sp)
	sw	t2,0(ra)
	.loc 1 250 3805 is_stmt 1
	.loc 1 250 3821 is_stmt 0
	sw	t0,0(s2)
	.loc 1 250 3827 is_stmt 1
	.loc 1 250 3844 is_stmt 0
	lw	t2,16(sp)
	sw	t4,0(t2)
	.loc 1 250 3962 is_stmt 1
	.loc 1 250 3979 is_stmt 0
	lw	t2,12(sp)
	sw	zero,-1248(t2)
	.loc 1 250 4072 is_stmt 1
	.loc 1 250 4089 is_stmt 0
	li	t2,16
	sw	t2,0(a0)
	.loc 1 250 0 is_stmt 1
	sw	t0,0(a1)
	.loc 1 250 0
	li	t2,127
	sw	t2,0(t1)
	.loc 1 250 0
	sw	zero,0(a2)
	.loc 1 250 0
	li	t2,4
	sw	t2,0(a3)
	.loc 1 250 0
	sw	s4,0(a4)
	.loc 1 250 0
	li	t2,15
	sw	t2,0(s0)
	.loc 1 250 0
	sw	zero,0(a5)
	.loc 1 250 0
	sw	s5,0(s10)
	.loc 1 250 0
	sw	s4,0(s9)
	.loc 1 250 0
	sw	s4,0(s8)
	.loc 1 250 0
	sw	zero,0(s7)
	.loc 1 250 0
.LVL133:
	.loc 1 250 0
	sw	zero,0(s1)
	.loc 1 250 0
	.loc 1 250 0
	lw	t2,52(sp)
	sw	t2,0(s6)
.LBE193:
	.loc 1 250 0
	.loc 1 250 0
	lw	t2,40(sp)
	sw	t2,0(t3)
.LBB194:
	.loc 1 253 3
.LVL134:
	.loc 1 253 212
	.loc 1 253 228 is_stmt 0
	li	t2,128
	sw	t2,0(ra)
	.loc 1 253 321 is_stmt 1
	.loc 1 253 337 is_stmt 0
	sw	t0,0(s2)
	.loc 1 253 343 is_stmt 1
	.loc 1 253 360 is_stmt 0
	lw	t2,16(sp)
	sw	t4,0(t2)
	.loc 1 253 478 is_stmt 1
	.loc 1 253 495 is_stmt 0
	lw	t2,12(sp)
	sw	zero,-1248(t2)
	.loc 1 253 588 is_stmt 1
	.loc 1 253 605 is_stmt 0
	li	t2,16
	sw	t2,0(a0)
	.loc 1 253 668 is_stmt 1
	.loc 1 253 685 is_stmt 0
	sw	t0,0(a1)
	.loc 1 253 691 is_stmt 1
	.loc 1 253 708 is_stmt 0
	li	t2,127
	sw	t2,0(t1)
	.loc 1 253 805 is_stmt 1
	.loc 1 253 822 is_stmt 0
	sw	zero,0(a2)
	.loc 1 253 885 is_stmt 1
	.loc 1 253 902 is_stmt 0
	li	t2,4
	sw	t2,0(a3)
	.loc 1 253 947 is_stmt 1
	.loc 1 253 964 is_stmt 0
	sw	s4,0(a4)
	.loc 1 253 970 is_stmt 1
	.loc 1 253 987 is_stmt 0
	li	t2,15
	sw	t2,0(s0)
	.loc 1 253 1054 is_stmt 1
	.loc 1 253 1071 is_stmt 0
	sw	zero,0(a5)
	.loc 1 253 1116 is_stmt 1
	.loc 1 253 1132 is_stmt 0
	sw	s5,0(s10)
	.loc 1 253 1143 is_stmt 1
	.loc 1 253 1159 is_stmt 0
	sw	s4,0(s9)
	.loc 1 253 1165 is_stmt 1
	.loc 1 253 1182 is_stmt 0
	sw	s4,0(s8)
	.loc 1 253 1227 is_stmt 1
	.loc 1 253 1244 is_stmt 0
	sw	zero,0(s7)
	.loc 1 253 1253 is_stmt 1
.LVL135:
	.loc 1 253 1470
	.loc 1 253 1486 is_stmt 0
	sw	zero,0(s1)
	.loc 1 253 1515 is_stmt 1
	.loc 1 253 1516
	.loc 1 253 1533 is_stmt 0
	lw	t2,20(sp)
	sw	t6,0(t2)
	.loc 1 253 1572 is_stmt 1
	.loc 1 253 1589 is_stmt 0
	lw	t2,92(sp)
	sw	t2,0(s6)
.LBE194:
.LBB195:
	.loc 1 253 1622 is_stmt 1
.LVL136:
	.loc 1 253 1806
	.loc 1 253 1823 is_stmt 0
	lw	t2,76(sp)
	sw	t2,0(a0)
	.loc 1 253 1854 is_stmt 1
	.loc 1 253 1871 is_stmt 0
	sw	t0,0(a1)
	.loc 1 253 1877 is_stmt 1
	.loc 1 253 1894 is_stmt 0
	lw	t2,64(sp)
	sw	t2,0(t1)
	.loc 1 253 1934 is_stmt 1
	.loc 1 253 1951 is_stmt 0
	lw	t2,24(sp)
	sw	t2,0(a2)
	.loc 1 253 1982 is_stmt 1
	.loc 1 253 1999 is_stmt 0
	lw	t2,32(sp)
	sw	t2,0(a3)
	.loc 1 253 2012 is_stmt 1
	.loc 1 253 2029 is_stmt 0
	sw	t0,0(a4)
	.loc 1 253 2035 is_stmt 1
	.loc 1 253 2052 is_stmt 0
	lw	t2,80(sp)
	sw	t2,0(s0)
	.loc 1 253 2064 is_stmt 1
	.loc 1 253 2081 is_stmt 0
	sw	zero,0(a5)
	.loc 1 253 2094 is_stmt 1
	.loc 1 253 2110 is_stmt 0
	sw	s5,0(s10)
	.loc 1 253 2121 is_stmt 1
	.loc 1 253 2137 is_stmt 0
	li	t2,15
	sw	t2,0(s9)
	.loc 1 253 2143 is_stmt 1
	.loc 1 253 2160 is_stmt 0
	lw	t2,48(sp)
	sw	t2,0(s8)
	.loc 1 253 2173 is_stmt 1
	.loc 1 253 2190 is_stmt 0
	lw	t2,72(sp)
	sw	t2,0(s7)
	.loc 1 253 2199 is_stmt 1
.LVL137:
	.loc 1 253 2260
	.loc 1 253 2277 is_stmt 0
	lw	t2,28(sp)
	sw	t5,0(t2)
	.loc 1 253 2318 is_stmt 1
	.loc 1 253 2319
	.loc 1 253 2340 is_stmt 0
	lw	t5,164(sp)
	lw	t2,88(sp)
	add	t2,t5,t2
	.loc 1 253 2335
	sw	t2,0(s1)
	.loc 1 253 2371 is_stmt 1
	.loc 1 253 2372
	.loc 1 253 2389 is_stmt 0
	lw	t2,56(sp)
	sw	t2,0(s6)
.LBE195:
	.loc 1 253 2421 is_stmt 1
	.loc 1 253 2422
	.loc 1 253 2438 is_stmt 0
	lw	t2,40(sp)
	sw	t3,28(sp)
	sw	t2,0(t3)
.LBB196:
	.loc 1 253 2528 is_stmt 1
.LVL138:
	.loc 1 253 2573
	.loc 1 253 2590 is_stmt 0
	sw	a7,0(a3)
	.loc 1 253 2602 is_stmt 1
	.loc 1 253 2619 is_stmt 0
	sw	s4,0(a4)
	.loc 1 253 2625 is_stmt 1
	.loc 1 253 2642 is_stmt 0
	sw	s11,0(s0)
	.loc 1 253 2670 is_stmt 1
	.loc 1 253 2687 is_stmt 0
	sw	zero,0(a5)
	.loc 1 253 2699 is_stmt 1
	.loc 1 253 2716 is_stmt 0
	sw	t0,0(a1)
	.loc 1 253 2763 is_stmt 1
	.loc 1 253 2780 is_stmt 0
	sw	a6,0(a0)
	.loc 1 253 2830 is_stmt 1
	.loc 1 253 2847 is_stmt 0
	sw	s3,0(t1)
	.loc 1 253 2852 is_stmt 1
	.loc 1 253 2869 is_stmt 0
	sw	zero,0(a2)
	.loc 1 253 2872 is_stmt 1
	.loc 1 253 2951 is_stmt 0
	li	t3,8
	.loc 1 253 2888
	sw	s4,0(s9)
	.loc 1 253 2935 is_stmt 1
	.loc 1 253 2951 is_stmt 0
	sw	t3,0(s10)
	.loc 1 253 2977 is_stmt 1
	.loc 1 253 2994 is_stmt 0
	sw	s3,0(s8)
	.loc 1 253 2999 is_stmt 1
	.loc 1 253 3016 is_stmt 0
	sw	zero,0(s7)
	.loc 1 253 3019 is_stmt 1
	.loc 1 253 3035 is_stmt 0
	sw	t0,0(s2)
	.loc 1 253 3073 is_stmt 1
	.loc 1 253 3089 is_stmt 0
	sw	s5,0(ra)
	.loc 1 253 3100 is_stmt 1
	.loc 1 253 3117 is_stmt 0
	lw	t3,16(sp)
	.loc 1 253 3158
	li	t2,524288
	addi	t2,t2,1048
	.loc 1 253 3117
	sw	s3,0(t3)
	.loc 1 253 3122 is_stmt 1
	.loc 1 253 3139 is_stmt 0
	lw	t5,12(sp)
.LBE196:
.LBB197:
	.loc 1 253 0
	li	t3,127
.LBE197:
.LBB198:
	.loc 1 253 3139
	sw	zero,-1248(t5)
	.loc 1 253 3142 is_stmt 1
	.loc 1 253 3158 is_stmt 0
	sw	t2,0(s1)
	.loc 1 253 3282 is_stmt 1
	.loc 1 253 3299 is_stmt 0
	lw	t2,20(sp)
	sw	t6,0(t2)
	.loc 1 253 3438 is_stmt 1
	.loc 1 253 3455 is_stmt 0
	lw	t6,68(sp)
	sw	t6,0(s6)
.LBE198:
.LBB199:
	.loc 1 253 3488 is_stmt 1
.LVL139:
	.loc 1 253 3697
	.loc 1 253 3713 is_stmt 0
	li	t6,128
	sw	t6,0(ra)
	.loc 1 253 3806 is_stmt 1
	.loc 1 253 3822 is_stmt 0
	sw	t0,0(s2)
	.loc 1 253 3828 is_stmt 1
	.loc 1 253 3845 is_stmt 0
	lw	t6,16(sp)
	sw	t4,0(t6)
	.loc 1 253 3963 is_stmt 1
	.loc 1 253 3980 is_stmt 0
	sw	zero,-1248(t5)
	.loc 1 253 4073 is_stmt 1
	.loc 1 253 4090 is_stmt 0
	li	t4,16
	sw	t4,0(a0)
	.loc 1 253 0 is_stmt 1
	sw	t0,0(a1)
	.loc 1 253 0
	sw	t3,0(t1)
	.loc 1 253 0
	sw	zero,0(a2)
	.loc 1 253 0
	li	t4,4
	sw	t4,0(a3)
	.loc 1 253 0
	sw	s4,0(a4)
	.loc 1 253 0
	li	t4,15
	sw	t4,0(s0)
	.loc 1 253 0
	sw	zero,0(a5)
	.loc 1 253 0
	sw	s5,0(s10)
	.loc 1 253 0
	sw	s4,0(s9)
	.loc 1 253 0
	sw	s4,0(s8)
	.loc 1 253 0
	sw	zero,0(s7)
	.loc 1 253 0
.LVL140:
	.loc 1 253 0
	sw	zero,0(s1)
	.loc 1 253 0
	.loc 1 253 0
	lw	t3,52(sp)
	sw	t3,0(s6)
.LBE199:
	.loc 1 253 0
	.loc 1 253 0
	lw	t3,28(sp)
	lw	t4,40(sp)
	sw	t4,0(t3)
.LBB200:
	.loc 1 259 3
.LVL141:
	.loc 1 259 42
	.loc 1 259 58 is_stmt 0
	sw	a7,0(ra)
	.loc 1 259 70 is_stmt 1
	.loc 1 259 86 is_stmt 0
	li	t3,2
	sw	t3,0(s2)
	.loc 1 259 92 is_stmt 1
	.loc 1 259 109 is_stmt 0
	sw	s11,0(t6)
	.loc 1 259 137 is_stmt 1
	.loc 1 259 154 is_stmt 0
	sw	t5,12(sp)
	sw	zero,-1248(t5)
	.loc 1 259 166 is_stmt 1
	.loc 1 259 183 is_stmt 0
	sw	t0,0(a1)
	.loc 1 259 232 is_stmt 1
	.loc 1 259 249 is_stmt 0
	sw	a6,0(a0)
	.loc 1 259 299 is_stmt 1
	.loc 1 259 316 is_stmt 0
	sw	s3,0(t1)
	.loc 1 259 321 is_stmt 1
	.loc 1 259 338 is_stmt 0
	sw	zero,0(a2)
	.loc 1 259 341 is_stmt 1
	.loc 1 259 358 is_stmt 0
	sw	s5,0(a4)
	.loc 1 259 423 is_stmt 1
	.loc 1 259 440 is_stmt 0
	li	t4,8
	sw	t4,0(a3)
	.loc 1 259 466 is_stmt 1
	.loc 1 259 483 is_stmt 0
	sw	s3,0(s0)
	.loc 1 259 488 is_stmt 1
	.loc 1 259 505 is_stmt 0
	sw	zero,0(a5)
	.loc 1 259 508 is_stmt 1
	.loc 1 259 524 is_stmt 0
	sw	t0,0(s9)
	.loc 1 259 564 is_stmt 1
	.loc 1 259 580 is_stmt 0
	sw	s5,0(s10)
	.loc 1 259 591 is_stmt 1
	.loc 1 259 608 is_stmt 0
	sw	s3,0(s8)
	.loc 1 259 613 is_stmt 1
	.loc 1 259 649 is_stmt 0
	li	t4,524288
	.loc 1 259 630
	sw	zero,0(s7)
	.loc 1 259 633 is_stmt 1
	.loc 1 259 649 is_stmt 0
	addi	t4,t4,56
	sw	t4,0(s1)
	.loc 1 259 786 is_stmt 1
	.loc 1 259 803 is_stmt 0
	li	t5,384
	sw	t2,20(sp)
	.loc 1 259 981
	li	t4,1032192
	.loc 1 259 803
	sw	t5,0(t2)
	.loc 1 259 964 is_stmt 1
	.loc 1 259 981 is_stmt 0
	addi	t4,t4,127
	sw	t4,56(sp)
	sw	t4,0(s6)
.LBE200:
.LBB201:
	.loc 1 259 1014 is_stmt 1
.LVL142:
	.loc 1 259 1059
	.loc 1 259 1075 is_stmt 0
	sw	a7,0(ra)
	.loc 1 259 1087 is_stmt 1
	.loc 1 259 1103 is_stmt 0
	sw	t3,0(s2)
	.loc 1 259 1109 is_stmt 1
	.loc 1 259 1126 is_stmt 0
	li	t4,12288
	addi	t4,t4,-1
	sw	t6,16(sp)
	sw	t4,0(t6)
	.loc 1 259 1154 is_stmt 1
	.loc 1 259 1171 is_stmt 0
	lw	t2,12(sp)
	.loc 1 259 1634
	li	t6,528384
	addi	t6,t6,24
	.loc 1 259 1171
	sw	a7,-1248(t2)
	.loc 1 259 1183 is_stmt 1
	.loc 1 259 1200 is_stmt 0
	sw	t0,0(a1)
	.loc 1 259 1249 is_stmt 1
	.loc 1 259 1266 is_stmt 0
	sw	a6,0(a0)
	.loc 1 259 1316 is_stmt 1
	.loc 1 259 1333 is_stmt 0
	sw	s3,0(t1)
	.loc 1 259 1338 is_stmt 1
	.loc 1 259 1355 is_stmt 0
	sw	zero,0(a2)
	.loc 1 259 1358 is_stmt 1
	.loc 1 259 1375 is_stmt 0
	sw	s5,0(a4)
	.loc 1 259 1408 is_stmt 1
	.loc 1 259 1425 is_stmt 0
	li	t2,8
	sw	t2,0(a3)
	.loc 1 259 1451 is_stmt 1
	.loc 1 259 1468 is_stmt 0
	sw	s3,0(s0)
	.loc 1 259 1473 is_stmt 1
	.loc 1 259 1490 is_stmt 0
	sw	zero,0(a5)
	.loc 1 259 1493 is_stmt 1
	.loc 1 259 1509 is_stmt 0
	sw	t0,0(s9)
	.loc 1 259 1549 is_stmt 1
	.loc 1 259 1565 is_stmt 0
	sw	s5,0(s10)
	.loc 1 259 1576 is_stmt 1
	.loc 1 259 1593 is_stmt 0
	sw	s3,0(s8)
	.loc 1 259 1598 is_stmt 1
	.loc 1 259 1615 is_stmt 0
	sw	zero,0(s7)
	.loc 1 259 1618 is_stmt 1
	.loc 1 259 1772 is_stmt 0
	li	t2,1032192
	.loc 1 259 1634
	sw	t6,0(s1)
	.loc 1 259 1755 is_stmt 1
	.loc 1 259 1772 is_stmt 0
	addi	t6,t2,125
	sw	t6,68(sp)
	sw	t6,0(s6)
.LBE201:
	.loc 1 259 1804 is_stmt 1
	.loc 1 259 1805
	.loc 1 259 1821 is_stmt 0
	lw	t6,28(sp)
	li	t2,393216
	addi	t2,t2,9
	sw	t2,0(t6)
.LBB202:
	.loc 1 263 3 is_stmt 1
.LVL143:
	.loc 1 263 48
	.loc 1 263 64 is_stmt 0
	sw	a7,0(ra)
	.loc 1 263 76 is_stmt 1
	.loc 1 263 92 is_stmt 0
	sw	t3,0(s2)
	.loc 1 263 98 is_stmt 1
	.loc 1 263 115 is_stmt 0
	lw	t6,16(sp)
	sw	t4,0(t6)
	.loc 1 263 143 is_stmt 1
	.loc 1 263 160 is_stmt 0
	lw	t6,12(sp)
	sw	a7,-1248(t6)
	.loc 1 263 172 is_stmt 1
	.loc 1 263 189 is_stmt 0
	sw	t0,0(a1)
	.loc 1 263 238 is_stmt 1
	.loc 1 263 255 is_stmt 0
	sw	a6,0(a0)
	.loc 1 263 305 is_stmt 1
	.loc 1 263 322 is_stmt 0
	sw	s3,0(t1)
	.loc 1 263 327 is_stmt 1
	.loc 1 263 344 is_stmt 0
	sw	zero,0(a2)
	.loc 1 263 347 is_stmt 1
	.loc 1 263 364 is_stmt 0
	sw	s5,0(a4)
	.loc 1 263 393 is_stmt 1
	.loc 1 263 410 is_stmt 0
	li	t6,8
	sw	t6,0(a3)
	.loc 1 263 436 is_stmt 1
	.loc 1 263 453 is_stmt 0
	sw	s3,0(s0)
	.loc 1 263 458 is_stmt 1
	.loc 1 263 475 is_stmt 0
	sw	zero,0(a5)
	.loc 1 263 478 is_stmt 1
	.loc 1 263 494 is_stmt 0
	sw	t0,0(s9)
	.loc 1 263 534 is_stmt 1
	.loc 1 263 550 is_stmt 0
	sw	s5,0(s10)
	.loc 1 263 561 is_stmt 1
	.loc 1 263 619 is_stmt 0
	li	t6,528384
	.loc 1 263 578
	sw	s3,0(s8)
	.loc 1 263 583 is_stmt 1
	.loc 1 263 600 is_stmt 0
	sw	zero,0(s7)
	.loc 1 263 603 is_stmt 1
	.loc 1 263 619 is_stmt 0
	addi	t6,t6,8
	sw	t6,0(s1)
	.loc 1 263 738 is_stmt 1
	.loc 1 263 755 is_stmt 0
	lw	t6,20(sp)
	sw	t5,0(t6)
	.loc 1 263 880 is_stmt 1
	.loc 1 263 897 is_stmt 0
	lw	t6,56(sp)
	sw	t6,0(s6)
.LBE202:
.LBB203:
	.loc 1 263 930 is_stmt 1
.LVL144:
	.loc 1 263 969
	.loc 1 263 985 is_stmt 0
	sw	a7,0(ra)
	.loc 1 263 997 is_stmt 1
	.loc 1 263 1013 is_stmt 0
	sw	t3,0(s2)
	.loc 1 263 1019 is_stmt 1
	.loc 1 263 985 is_stmt 0
	mv	t6,ra
	.loc 1 263 1036
	lw	ra,16(sp)
	sw	s11,0(ra)
	.loc 1 263 1064 is_stmt 1
	.loc 1 263 1081 is_stmt 0
	lw	ra,12(sp)
	sw	zero,-1248(ra)
	.loc 1 263 1093 is_stmt 1
	.loc 1 263 1110 is_stmt 0
	sw	t0,0(a1)
	.loc 1 263 1159 is_stmt 1
	.loc 1 263 1176 is_stmt 0
	sw	a6,0(a0)
	.loc 1 263 1226 is_stmt 1
	.loc 1 263 1243 is_stmt 0
	sw	s3,0(t1)
	.loc 1 263 1248 is_stmt 1
	.loc 1 263 1265 is_stmt 0
	sw	zero,0(a2)
	.loc 1 263 1268 is_stmt 1
	.loc 1 263 1285 is_stmt 0
	sw	s5,0(a4)
	.loc 1 263 1344 is_stmt 1
	.loc 1 263 1361 is_stmt 0
	li	ra,8
	sw	ra,0(a3)
	.loc 1 263 1387 is_stmt 1
	.loc 1 263 1404 is_stmt 0
	sw	s3,0(s0)
	.loc 1 263 1409 is_stmt 1
	.loc 1 263 1426 is_stmt 0
	sw	zero,0(a5)
	.loc 1 263 1429 is_stmt 1
	.loc 1 263 1445 is_stmt 0
	sw	t0,0(s9)
	.loc 1 263 1485 is_stmt 1
	.loc 1 263 1501 is_stmt 0
	sw	s5,0(s10)
	.loc 1 263 1512 is_stmt 1
	.loc 1 263 1529 is_stmt 0
	sw	s3,0(s8)
	.loc 1 263 1534 is_stmt 1
	.loc 1 263 1570 is_stmt 0
	li	ra,524288
	.loc 1 263 1551
	sw	zero,0(s7)
	.loc 1 263 1554 is_stmt 1
	.loc 1 263 1570 is_stmt 0
	addi	ra,ra,40
	sw	ra,100(sp)
	sw	ra,0(s1)
	.loc 1 263 1703 is_stmt 1
	.loc 1 263 1720 is_stmt 0
	lw	ra,68(sp)
	sw	ra,0(s6)
.LBE203:
	.loc 1 263 1752 is_stmt 1
	.loc 1 263 1753
	.loc 1 263 1769 is_stmt 0
	lw	ra,28(sp)
	sw	t2,0(ra)
.LBB204:
	.loc 1 267 3 is_stmt 1
.LVL145:
	.loc 1 267 42
	.loc 1 267 58 is_stmt 0
	sw	a7,0(t6)
	.loc 1 267 70 is_stmt 1
	.loc 1 267 86 is_stmt 0
	sw	t3,0(s2)
	.loc 1 267 92 is_stmt 1
	.loc 1 267 58 is_stmt 0
	mv	ra,t6
	.loc 1 267 109
	lw	t6,16(sp)
	sw	s11,0(t6)
	.loc 1 267 137 is_stmt 1
	.loc 1 267 154 is_stmt 0
	lw	t6,12(sp)
	sw	zero,-1248(t6)
	.loc 1 267 166 is_stmt 1
	.loc 1 267 183 is_stmt 0
	sw	t0,0(a1)
	.loc 1 267 232 is_stmt 1
	.loc 1 267 249 is_stmt 0
	sw	a6,0(a0)
	.loc 1 267 299 is_stmt 1
	.loc 1 267 316 is_stmt 0
	sw	s3,0(t1)
	.loc 1 267 321 is_stmt 1
	.loc 1 267 338 is_stmt 0
	sw	zero,0(a2)
	.loc 1 267 341 is_stmt 1
	.loc 1 267 358 is_stmt 0
	sw	s5,0(a4)
	.loc 1 267 423 is_stmt 1
	.loc 1 267 440 is_stmt 0
	li	t6,8
	sw	t6,0(a3)
	.loc 1 267 466 is_stmt 1
	.loc 1 267 483 is_stmt 0
	sw	s3,0(s0)
	.loc 1 267 488 is_stmt 1
	.loc 1 267 505 is_stmt 0
	sw	zero,0(a5)
	.loc 1 267 508 is_stmt 1
	.loc 1 267 524 is_stmt 0
	sw	t0,0(s9)
	.loc 1 267 564 is_stmt 1
	.loc 1 267 580 is_stmt 0
	sw	s5,0(s10)
	.loc 1 267 591 is_stmt 1
	.loc 1 267 608 is_stmt 0
	sw	s3,0(s8)
	.loc 1 267 613 is_stmt 1
	.loc 1 267 649 is_stmt 0
	li	t6,524288
	.loc 1 267 630
	sw	zero,0(s7)
	.loc 1 267 633 is_stmt 1
	.loc 1 267 649 is_stmt 0
	addi	t6,t6,568
	sw	t6,0(s1)
	.loc 1 267 788 is_stmt 1
	.loc 1 267 805 is_stmt 0
	lw	t6,20(sp)
	sw	t5,0(t6)
	.loc 1 267 966 is_stmt 1
	.loc 1 267 983 is_stmt 0
	lw	t6,56(sp)
	sw	t6,0(s6)
.LBE204:
.LBB205:
	.loc 1 267 1016 is_stmt 1
.LVL146:
	.loc 1 267 1061
	.loc 1 267 1077 is_stmt 0
	sw	a7,0(ra)
	.loc 1 267 1089 is_stmt 1
	.loc 1 267 1105 is_stmt 0
	sw	t3,0(s2)
	.loc 1 267 1111 is_stmt 1
	.loc 1 267 1128 is_stmt 0
	lw	t6,16(sp)
	sw	t4,0(t6)
	.loc 1 267 1156 is_stmt 1
	.loc 1 267 1173 is_stmt 0
	lw	t6,12(sp)
	sw	a7,-1248(t6)
	.loc 1 267 1185 is_stmt 1
	.loc 1 267 1202 is_stmt 0
	sw	t0,0(a1)
	.loc 1 267 1251 is_stmt 1
	.loc 1 267 1268 is_stmt 0
	sw	a6,0(a0)
	.loc 1 267 1318 is_stmt 1
	.loc 1 267 1335 is_stmt 0
	sw	s3,0(t1)
	.loc 1 267 1340 is_stmt 1
	.loc 1 267 1357 is_stmt 0
	sw	zero,0(a2)
	.loc 1 267 1360 is_stmt 1
	.loc 1 267 1377 is_stmt 0
	sw	s5,0(a4)
	.loc 1 267 1410 is_stmt 1
	.loc 1 267 1427 is_stmt 0
	li	t6,8
	sw	t6,0(a3)
	.loc 1 267 1453 is_stmt 1
	.loc 1 267 1470 is_stmt 0
	sw	s3,0(s0)
	.loc 1 267 1475 is_stmt 1
	.loc 1 267 1492 is_stmt 0
	sw	zero,0(a5)
	.loc 1 267 1495 is_stmt 1
	.loc 1 267 1511 is_stmt 0
	sw	t0,0(s9)
	.loc 1 267 1551 is_stmt 1
	.loc 1 267 1567 is_stmt 0
	sw	s5,0(s10)
	.loc 1 267 1578 is_stmt 1
	.loc 1 267 1595 is_stmt 0
	sw	s3,0(s8)
	.loc 1 267 1600 is_stmt 1
	.loc 1 267 1636 is_stmt 0
	li	t6,528384
	.loc 1 267 1617
	sw	zero,0(s7)
	.loc 1 267 1620 is_stmt 1
	.loc 1 267 1636 is_stmt 0
	addi	t6,t6,536
	sw	t6,0(s1)
	.loc 1 267 1759 is_stmt 1
	.loc 1 267 1776 is_stmt 0
	lw	t6,68(sp)
	sw	t6,0(s6)
.LBE205:
	.loc 1 267 1808 is_stmt 1
	.loc 1 267 1809
	.loc 1 267 1825 is_stmt 0
	lw	t6,28(sp)
	sw	t2,0(t6)
.LBB206:
	.loc 1 271 3 is_stmt 1
.LVL147:
	.loc 1 271 48
	.loc 1 271 64 is_stmt 0
	sw	a7,0(ra)
	.loc 1 271 76 is_stmt 1
	.loc 1 271 92 is_stmt 0
	sw	t3,0(s2)
	.loc 1 271 98 is_stmt 1
	.loc 1 271 115 is_stmt 0
	lw	t6,16(sp)
	sw	t4,0(t6)
	.loc 1 271 143 is_stmt 1
	.loc 1 271 160 is_stmt 0
	lw	t6,12(sp)
	sw	a7,-1248(t6)
	.loc 1 271 172 is_stmt 1
	.loc 1 271 189 is_stmt 0
	sw	t0,0(a1)
	.loc 1 271 238 is_stmt 1
	.loc 1 271 255 is_stmt 0
	sw	a6,0(a0)
	.loc 1 271 305 is_stmt 1
	.loc 1 271 322 is_stmt 0
	sw	s3,0(t1)
	.loc 1 271 327 is_stmt 1
	.loc 1 271 344 is_stmt 0
	sw	zero,0(a2)
	.loc 1 271 347 is_stmt 1
	.loc 1 271 364 is_stmt 0
	sw	s5,0(a4)
	.loc 1 271 393 is_stmt 1
	.loc 1 271 410 is_stmt 0
	li	t6,8
	sw	t6,0(a3)
	.loc 1 271 436 is_stmt 1
	.loc 1 271 453 is_stmt 0
	sw	s3,0(s0)
	.loc 1 271 458 is_stmt 1
	.loc 1 271 475 is_stmt 0
	sw	zero,0(a5)
	.loc 1 271 478 is_stmt 1
	.loc 1 271 494 is_stmt 0
	sw	t0,0(s9)
	.loc 1 271 534 is_stmt 1
	.loc 1 271 550 is_stmt 0
	sw	s5,0(s10)
	.loc 1 271 561 is_stmt 1
	.loc 1 271 578 is_stmt 0
	sw	s3,0(s8)
	.loc 1 271 583 is_stmt 1
	.loc 1 271 619 is_stmt 0
	li	t6,528384
	.loc 1 271 600
	sw	zero,0(s7)
	.loc 1 271 603 is_stmt 1
	.loc 1 271 619 is_stmt 0
	addi	t6,t6,520
	sw	t6,0(s1)
	.loc 1 271 740 is_stmt 1
	.loc 1 271 757 is_stmt 0
	lw	t6,20(sp)
	sw	t5,0(t6)
	.loc 1 271 882 is_stmt 1
	.loc 1 271 899 is_stmt 0
	lw	t6,56(sp)
	sw	t6,0(s6)
.LBE206:
.LBB207:
	.loc 1 271 932 is_stmt 1
.LVL148:
	.loc 1 271 971
	.loc 1 271 987 is_stmt 0
	sw	a7,0(ra)
	.loc 1 271 999 is_stmt 1
	.loc 1 271 1015 is_stmt 0
	sw	t3,0(s2)
	.loc 1 271 1021 is_stmt 1
	.loc 1 271 987 is_stmt 0
	mv	t6,ra
	.loc 1 271 1038
	lw	ra,16(sp)
	sw	s11,0(ra)
	.loc 1 271 1066 is_stmt 1
	.loc 1 271 1083 is_stmt 0
	lw	ra,12(sp)
	sw	zero,-1248(ra)
	.loc 1 271 1095 is_stmt 1
	.loc 1 271 1112 is_stmt 0
	sw	t0,0(a1)
	.loc 1 271 1161 is_stmt 1
	.loc 1 271 1178 is_stmt 0
	sw	a6,0(a0)
	.loc 1 271 1228 is_stmt 1
	.loc 1 271 1245 is_stmt 0
	sw	s3,0(t1)
	.loc 1 271 1250 is_stmt 1
	.loc 1 271 1267 is_stmt 0
	sw	zero,0(a2)
	.loc 1 271 1270 is_stmt 1
	.loc 1 271 1287 is_stmt 0
	sw	s5,0(a4)
	.loc 1 271 1346 is_stmt 1
	.loc 1 271 1363 is_stmt 0
	li	ra,8
	sw	ra,0(a3)
	.loc 1 271 1389 is_stmt 1
	.loc 1 271 1406 is_stmt 0
	sw	s3,0(s0)
	.loc 1 271 1411 is_stmt 1
	.loc 1 271 1428 is_stmt 0
	sw	zero,0(a5)
	.loc 1 271 1431 is_stmt 1
	.loc 1 271 1447 is_stmt 0
	sw	t0,0(s9)
	.loc 1 271 1487 is_stmt 1
	.loc 1 271 1503 is_stmt 0
	sw	s5,0(s10)
	.loc 1 271 1514 is_stmt 1
	.loc 1 271 1531 is_stmt 0
	sw	s3,0(s8)
	.loc 1 271 1536 is_stmt 1
	.loc 1 271 1572 is_stmt 0
	li	ra,524288
	.loc 1 271 1553
	sw	zero,0(s7)
	.loc 1 271 1556 is_stmt 1
	.loc 1 271 1572 is_stmt 0
	addi	ra,ra,552
	sw	ra,104(sp)
	sw	ra,0(s1)
	.loc 1 271 1707 is_stmt 1
	.loc 1 271 1724 is_stmt 0
	lw	ra,68(sp)
	sw	ra,0(s6)
.LBE207:
	.loc 1 271 1756 is_stmt 1
	.loc 1 271 1757
	.loc 1 271 1773 is_stmt 0
	lw	ra,28(sp)
	sw	t2,0(ra)
.LBB208:
	.loc 1 275 3 is_stmt 1
.LVL149:
	.loc 1 275 42
	.loc 1 275 58 is_stmt 0
	sw	a7,0(t6)
	.loc 1 275 70 is_stmt 1
	.loc 1 275 86 is_stmt 0
	sw	t3,0(s2)
	.loc 1 275 92 is_stmt 1
	.loc 1 275 58 is_stmt 0
	mv	ra,t6
	.loc 1 275 109
	lw	t6,16(sp)
	sw	s11,0(t6)
	.loc 1 275 137 is_stmt 1
	.loc 1 275 154 is_stmt 0
	lw	t6,12(sp)
	sw	zero,-1248(t6)
	.loc 1 275 166 is_stmt 1
	.loc 1 275 183 is_stmt 0
	sw	t0,0(a1)
	.loc 1 275 232 is_stmt 1
	.loc 1 275 249 is_stmt 0
	sw	a6,0(a0)
	.loc 1 275 299 is_stmt 1
	.loc 1 275 316 is_stmt 0
	sw	s3,0(t1)
	.loc 1 275 321 is_stmt 1
	.loc 1 275 338 is_stmt 0
	sw	zero,0(a2)
	.loc 1 275 341 is_stmt 1
	.loc 1 275 358 is_stmt 0
	sw	s5,0(a4)
	.loc 1 275 423 is_stmt 1
	.loc 1 275 440 is_stmt 0
	li	t6,8
	sw	t6,0(a3)
	.loc 1 275 466 is_stmt 1
	.loc 1 275 483 is_stmt 0
	sw	s3,0(s0)
	.loc 1 275 488 is_stmt 1
	.loc 1 275 505 is_stmt 0
	sw	zero,0(a5)
	.loc 1 275 508 is_stmt 1
	.loc 1 275 524 is_stmt 0
	sw	t0,0(s9)
	.loc 1 275 564 is_stmt 1
	.loc 1 275 580 is_stmt 0
	sw	s5,0(s10)
	.loc 1 275 591 is_stmt 1
	.loc 1 275 608 is_stmt 0
	sw	s3,0(s8)
	.loc 1 275 613 is_stmt 1
	.loc 1 275 649 is_stmt 0
	li	t6,524288
	.loc 1 275 630
	sw	zero,0(s7)
	.loc 1 275 633 is_stmt 1
	.loc 1 275 649 is_stmt 0
	addi	t6,t6,1080
	sw	t6,0(s1)
	.loc 1 275 789 is_stmt 1
	.loc 1 275 806 is_stmt 0
	lw	t6,20(sp)
	sw	t5,0(t6)
	.loc 1 275 967 is_stmt 1
	.loc 1 275 984 is_stmt 0
	lw	t6,56(sp)
	sw	t6,0(s6)
.LBE208:
.LBB209:
	.loc 1 275 1017 is_stmt 1
.LVL150:
	.loc 1 275 1062
	.loc 1 275 1078 is_stmt 0
	sw	a7,0(ra)
	.loc 1 275 1090 is_stmt 1
	.loc 1 275 1106 is_stmt 0
	sw	t3,0(s2)
	.loc 1 275 1112 is_stmt 1
	.loc 1 275 1129 is_stmt 0
	lw	t6,16(sp)
	sw	t4,0(t6)
	.loc 1 275 1157 is_stmt 1
	.loc 1 275 1174 is_stmt 0
	lw	t6,12(sp)
	sw	a7,-1248(t6)
	.loc 1 275 1186 is_stmt 1
	.loc 1 275 1203 is_stmt 0
	sw	t0,0(a1)
	.loc 1 275 1252 is_stmt 1
	.loc 1 275 1269 is_stmt 0
	sw	a6,0(a0)
	.loc 1 275 1319 is_stmt 1
	.loc 1 275 1336 is_stmt 0
	sw	s3,0(t1)
	.loc 1 275 1341 is_stmt 1
	.loc 1 275 1358 is_stmt 0
	sw	zero,0(a2)
	.loc 1 275 1361 is_stmt 1
	.loc 1 275 1378 is_stmt 0
	sw	s5,0(a4)
	.loc 1 275 1411 is_stmt 1
	.loc 1 275 1428 is_stmt 0
	li	t6,8
	sw	t6,0(a3)
	.loc 1 275 1454 is_stmt 1
	.loc 1 275 1471 is_stmt 0
	sw	s3,0(s0)
	.loc 1 275 1476 is_stmt 1
	.loc 1 275 1493 is_stmt 0
	sw	zero,0(a5)
	.loc 1 275 1496 is_stmt 1
	.loc 1 275 1512 is_stmt 0
	sw	t0,0(s9)
	.loc 1 275 1552 is_stmt 1
	.loc 1 275 1568 is_stmt 0
	sw	s5,0(s10)
	.loc 1 275 1579 is_stmt 1
	.loc 1 275 1637 is_stmt 0
	li	t6,528384
	.loc 1 275 1596
	sw	s3,0(s8)
	.loc 1 275 1601 is_stmt 1
	.loc 1 275 1637 is_stmt 0
	addi	t6,t6,1048
	.loc 1 275 1618
	sw	zero,0(s7)
	.loc 1 275 1621 is_stmt 1
	.loc 1 275 1637 is_stmt 0
	sw	t6,0(s1)
	.loc 1 275 1761 is_stmt 1
	.loc 1 275 1778 is_stmt 0
	lw	t6,68(sp)
	sw	t6,0(s6)
.LBE209:
	.loc 1 275 1810 is_stmt 1
	.loc 1 275 1811
	.loc 1 275 1827 is_stmt 0
	lw	t6,28(sp)
	sw	t2,0(t6)
.LBB210:
	.loc 1 279 3 is_stmt 1
.LVL151:
	.loc 1 279 48
	.loc 1 279 64 is_stmt 0
	sw	a7,0(ra)
	.loc 1 279 76 is_stmt 1
	.loc 1 279 92 is_stmt 0
	sw	t3,0(s2)
	.loc 1 279 98 is_stmt 1
	.loc 1 279 64 is_stmt 0
	mv	t6,ra
	.loc 1 279 115
	lw	ra,16(sp)
	sw	t4,0(ra)
	.loc 1 279 143 is_stmt 1
	.loc 1 279 160 is_stmt 0
	lw	t4,12(sp)
	sw	a7,-1248(t4)
	.loc 1 279 172 is_stmt 1
	.loc 1 279 189 is_stmt 0
	sw	t0,0(a1)
	.loc 1 279 238 is_stmt 1
	.loc 1 279 255 is_stmt 0
	sw	a6,0(a0)
	.loc 1 279 305 is_stmt 1
	.loc 1 279 322 is_stmt 0
	sw	s3,0(t1)
	.loc 1 279 327 is_stmt 1
	.loc 1 279 344 is_stmt 0
	sw	zero,0(a2)
	.loc 1 279 347 is_stmt 1
	.loc 1 279 364 is_stmt 0
	sw	s5,0(a4)
	.loc 1 279 393 is_stmt 1
	.loc 1 279 410 is_stmt 0
	li	t4,8
	sw	t4,0(a3)
	.loc 1 279 436 is_stmt 1
	.loc 1 279 453 is_stmt 0
	sw	s3,0(s0)
	.loc 1 279 458 is_stmt 1
	.loc 1 279 475 is_stmt 0
	sw	zero,0(a5)
	.loc 1 279 478 is_stmt 1
	.loc 1 279 494 is_stmt 0
	sw	t0,0(s9)
	.loc 1 279 534 is_stmt 1
	.loc 1 279 550 is_stmt 0
	sw	s5,0(s10)
	.loc 1 279 561 is_stmt 1
	.loc 1 279 578 is_stmt 0
	sw	s3,0(s8)
	.loc 1 279 583 is_stmt 1
	.loc 1 279 619 is_stmt 0
	li	t4,528384
	.loc 1 279 600
	sw	zero,0(s7)
	.loc 1 279 603 is_stmt 1
	.loc 1 279 619 is_stmt 0
	addi	t4,t4,1032
	sw	t4,0(s1)
	.loc 1 279 741 is_stmt 1
	.loc 1 279 758 is_stmt 0
	lw	t4,20(sp)
	sw	t5,0(t4)
	.loc 1 279 883 is_stmt 1
	.loc 1 279 900 is_stmt 0
	lw	t5,56(sp)
.LBE210:
.LBB211:
	.loc 1 284 484
	li	t4,524288
	addi	t4,t4,8
.LBE211:
.LBB212:
	.loc 1 279 900
	sw	t5,0(s6)
.LBE212:
.LBB213:
	.loc 1 279 933 is_stmt 1
.LVL152:
	.loc 1 279 972
	.loc 1 279 988 is_stmt 0
	sw	t6,44(sp)
	sw	a7,0(t6)
	.loc 1 279 1000 is_stmt 1
	.loc 1 279 1016 is_stmt 0
	sw	t3,0(s2)
	.loc 1 279 1022 is_stmt 1
	.loc 1 279 1039 is_stmt 0
	sw	ra,16(sp)
	sw	s11,0(ra)
	.loc 1 279 1067 is_stmt 1
	.loc 1 279 1084 is_stmt 0
	lw	t5,12(sp)
	.loc 1 279 1573
	li	t3,524288
	addi	t3,t3,1064
	.loc 1 279 1084
	sw	zero,-1248(t5)
	.loc 1 279 1096 is_stmt 1
	.loc 1 279 1113 is_stmt 0
	sw	t0,0(a1)
	.loc 1 279 1162 is_stmt 1
	.loc 1 279 1179 is_stmt 0
	sw	a6,0(a0)
	.loc 1 279 1229 is_stmt 1
	.loc 1 279 1246 is_stmt 0
	sw	s3,0(t1)
	.loc 1 279 1251 is_stmt 1
	.loc 1 279 1268 is_stmt 0
	sw	zero,0(a2)
	.loc 1 279 1271 is_stmt 1
	.loc 1 279 1288 is_stmt 0
	sw	s5,0(a4)
	.loc 1 279 1347 is_stmt 1
	.loc 1 279 1364 is_stmt 0
	li	t5,8
	sw	t5,0(a3)
	.loc 1 279 1390 is_stmt 1
	.loc 1 279 1407 is_stmt 0
	sw	s3,0(s0)
	.loc 1 279 1412 is_stmt 1
	.loc 1 279 1429 is_stmt 0
	sw	zero,0(a5)
	.loc 1 279 1432 is_stmt 1
	.loc 1 279 1448 is_stmt 0
	sw	t0,0(s9)
	.loc 1 279 1488 is_stmt 1
	.loc 1 279 1504 is_stmt 0
	sw	s5,0(s10)
	.loc 1 279 1515 is_stmt 1
	.loc 1 279 1532 is_stmt 0
	sw	s3,0(s8)
	.loc 1 279 1537 is_stmt 1
	.loc 1 279 1554 is_stmt 0
	sw	zero,0(s7)
	.loc 1 279 1557 is_stmt 1
	.loc 1 279 1573 is_stmt 0
	sw	t3,0(s1)
	sw	t3,140(sp)
	.loc 1 279 1709 is_stmt 1
	.loc 1 279 1726 is_stmt 0
	lw	t3,68(sp)
.LBE213:
	.loc 1 281 18
	li	t6,88
.LBB214:
	.loc 1 279 1726
	sw	t3,0(s6)
.LBE214:
	.loc 1 279 1758 is_stmt 1
	.loc 1 279 1759
	.loc 1 279 1775 is_stmt 0
	lw	t3,28(sp)
	sw	t2,0(t3)
	.loc 1 281 1 is_stmt 1
	.loc 1 281 2
	.loc 1 281 18 is_stmt 0
	sw	t6,0(t3)
	.loc 1 283 10 is_stmt 1
.LBB215:
	.loc 1 284 3
.LVL153:
	.loc 1 284 38
	.loc 1 284 55 is_stmt 0
	sw	a7,0(a0)
	.loc 1 284 67 is_stmt 1
	.loc 1 284 84 is_stmt 0
	sw	zero,0(a1)
	.loc 1 284 90 is_stmt 1
	.loc 1 284 107 is_stmt 0
	sw	s11,0(t1)
	.loc 1 284 135 is_stmt 1
	.loc 1 284 152 is_stmt 0
	sw	zero,0(a2)
	.loc 1 284 164 is_stmt 1
	.loc 1 284 181 is_stmt 0
	sw	s5,0(a4)
	.loc 1 284 210 is_stmt 1
	.loc 1 284 227 is_stmt 0
	sw	a6,0(a3)
	.loc 1 284 277 is_stmt 1
	.loc 1 284 294 is_stmt 0
	sw	s3,0(s0)
	.loc 1 284 299 is_stmt 1
	.loc 1 284 316 is_stmt 0
	sw	zero,0(a5)
	.loc 1 284 319 is_stmt 1
	.loc 1 284 335 is_stmt 0
	sw	t0,0(s9)
	.loc 1 284 384 is_stmt 1
	.loc 1 284 400 is_stmt 0
	sw	t5,0(s10)
	.loc 1 284 426 is_stmt 1
	.loc 1 284 443 is_stmt 0
	sw	s3,0(s8)
	.loc 1 284 448 is_stmt 1
	.loc 1 284 465 is_stmt 0
	sw	zero,0(s7)
	.loc 1 284 468 is_stmt 1
	.loc 1 284 484 is_stmt 0
	sw	t4,0(s1)
	.loc 1 284 603 is_stmt 1
	.loc 1 284 620 is_stmt 0
	lw	ra,20(sp)
	.loc 1 284 400
	mv	t2,t5
	.loc 1 284 727
	li	t6,524288
	.loc 1 284 620
	li	t5,16
	sw	t5,0(ra)
	.loc 1 284 710 is_stmt 1
	.loc 1 284 727 is_stmt 0
	addi	t6,t6,127
	sw	t6,0(s6)
.LBE215:
	.loc 1 284 817 is_stmt 1
	.loc 1 284 818
	.loc 1 284 835 is_stmt 0
	li	t4,-2147479552
	sw	zero,-480(t4)
	.loc 1 284 840 is_stmt 1
	.loc 1 284 857 is_stmt 0
	lw	t5,52(sp)
	sw	t5,0(s6)
	.loc 1 284 889 is_stmt 1
	.loc 1 284 890
	.loc 1 284 906 is_stmt 0
	li	t5,393216
	addi	t5,t5,1
	sw	t5,28(sp)
	sw	t5,0(t3)
.LBB216:
	.loc 1 285 3 is_stmt 1
.LVL154:
	.loc 1 285 38
	.loc 1 285 55 is_stmt 0
	sw	a7,0(a0)
	.loc 1 285 67 is_stmt 1
	.loc 1 285 84 is_stmt 0
	sw	zero,0(a1)
	.loc 1 285 90 is_stmt 1
	.loc 1 285 107 is_stmt 0
	sw	s11,0(t1)
	.loc 1 285 135 is_stmt 1
	.loc 1 285 152 is_stmt 0
	sw	zero,0(a2)
	.loc 1 285 164 is_stmt 1
	.loc 1 285 181 is_stmt 0
	sw	s5,0(a4)
	.loc 1 285 210 is_stmt 1
	.loc 1 285 227 is_stmt 0
	sw	a6,0(a3)
	.loc 1 285 277 is_stmt 1
	.loc 1 285 294 is_stmt 0
	sw	s3,0(s0)
	.loc 1 285 299 is_stmt 1
	.loc 1 285 316 is_stmt 0
	sw	zero,0(a5)
	.loc 1 285 319 is_stmt 1
	.loc 1 285 335 is_stmt 0
	sw	t0,0(s9)
	.loc 1 285 384 is_stmt 1
	.loc 1 285 400 is_stmt 0
	sw	t2,0(s10)
	.loc 1 285 426 is_stmt 1
	.loc 1 285 443 is_stmt 0
	sw	s3,0(s8)
	.loc 1 285 448 is_stmt 1
	.loc 1 285 484 is_stmt 0
	li	t2,524288
	.loc 1 285 465
	sw	zero,0(s7)
	.loc 1 285 468 is_stmt 1
	.loc 1 285 484 is_stmt 0
	addi	t2,t2,520
	sw	t2,0(s1)
	.loc 1 285 605 is_stmt 1
	.loc 1 285 622 is_stmt 0
	li	t5,16
	sw	t5,0(ra)
	.loc 1 285 712 is_stmt 1
	.loc 1 285 729 is_stmt 0
	sw	t6,0(s6)
.LBE216:
	.loc 1 285 819 is_stmt 1
	.loc 1 285 820
	.loc 1 285 837 is_stmt 0
	sw	zero,-480(t4)
	.loc 1 285 842 is_stmt 1
	.loc 1 285 859 is_stmt 0
	lw	t5,52(sp)
	sw	t5,0(s6)
	.loc 1 285 891 is_stmt 1
	.loc 1 285 892
	.loc 1 285 908 is_stmt 0
	lw	t2,28(sp)
	sw	t2,0(t3)
.LBB217:
	.loc 1 286 3 is_stmt 1
.LVL155:
	.loc 1 286 38
	.loc 1 286 55 is_stmt 0
	sw	a7,0(a0)
	sw	a0,136(sp)
	.loc 1 286 67 is_stmt 1
	.loc 1 286 84 is_stmt 0
	sw	zero,0(a1)
	.loc 1 286 90 is_stmt 1
	.loc 1 286 107 is_stmt 0
	sw	s11,0(t1)
	sw	t1,128(sp)
	.loc 1 286 135 is_stmt 1
	.loc 1 286 152 is_stmt 0
	sw	zero,0(a2)
	sw	a2,124(sp)
	.loc 1 286 164 is_stmt 1
	.loc 1 286 181 is_stmt 0
	sw	s5,0(a4)
	sw	a4,120(sp)
	.loc 1 286 210 is_stmt 1
	.loc 1 286 227 is_stmt 0
	sw	a6,0(a3)
	sw	a3,116(sp)
	.loc 1 286 277 is_stmt 1
	.loc 1 286 294 is_stmt 0
	sw	s3,0(s0)
	.loc 1 286 299 is_stmt 1
	.loc 1 286 316 is_stmt 0
	sw	zero,0(a5)
	sw	a5,112(sp)
	.loc 1 286 319 is_stmt 1
	.loc 1 286 384
	.loc 1 286 335 is_stmt 0
	sw	t0,0(s9)
	.loc 1 286 400
	li	t2,8
	sw	t2,0(s10)
	.loc 1 286 426 is_stmt 1
	.loc 1 286 443 is_stmt 0
	sw	s3,0(s8)
	.loc 1 286 448 is_stmt 1
	.loc 1 286 484 is_stmt 0
	li	t2,524288
	.loc 1 286 465
	sw	zero,0(s7)
	.loc 1 286 468 is_stmt 1
	.loc 1 286 484 is_stmt 0
	addi	t2,t2,1032
	sw	t2,0(s1)
	.loc 1 286 606 is_stmt 1
	.loc 1 286 623 is_stmt 0
	sw	ra,20(sp)
	li	a4,16
	sw	a4,0(ra)
	.loc 1 286 713 is_stmt 1
	.loc 1 286 730 is_stmt 0
	sw	t6,0(s6)
.LBE217:
	.loc 1 286 820 is_stmt 1
	.loc 1 286 821
	.loc 1 286 838 is_stmt 0
	sw	zero,-480(t4)
	.loc 1 286 843 is_stmt 1
	.loc 1 286 860 is_stmt 0
	sw	t5,52(sp)
	sw	t5,0(s6)
	.loc 1 286 892 is_stmt 1
	.loc 1 286 893
	.loc 1 286 909 is_stmt 0
	lw	t5,28(sp)
	.loc 1 288 18
	li	t6,1015828480
	addi	t6,t6,-1532
	.loc 1 286 909
	sw	t5,0(t3)
	.loc 1 288 1 is_stmt 1
	.loc 1 288 2
	.loc 1 288 18 is_stmt 0
	sw	t3,28(sp)
	sw	t6,0(t3)
	.loc 1 290 10 is_stmt 1
	li	t5,-2147483648
	sw	zero,36(t5)
	.loc 1 290 10
.LBB218:
	.loc 1 247 495 is_stmt 0
	lw	t4,12(sp)
.LBE218:
	.loc 1 290 10
	addi	t5,t5,36
.LBB219:
	.loc 1 247 685
	sw	a1,108(sp)
	.loc 1 247 495
	addi	a3,t4,-1248
	sw	a3,12(sp)
.LBE219:
	.loc 1 290 10
	sw	t5,132(sp)
	call	_taskYield
.LVL156:
	.loc 1 290 24 is_stmt 1 discriminator 1
.LBB220:
	.loc 1 293 3
	.loc 1 293 50
	.loc 1 293 66 is_stmt 0
	lw	t0,44(sp)
	li	a7,4096
	.loc 1 293 251
	li	a6,64
	.loc 1 293 66
	sw	a7,0(t0)
	.loc 1 293 78 is_stmt 1
	.loc 1 293 94 is_stmt 0
	sw	s4,0(s2)
	.loc 1 293 100 is_stmt 1
	.loc 1 293 117 is_stmt 0
	lw	t6,16(sp)
	.loc 1 293 445
	li	t2,8
	.loc 1 293 529
	li	t5,7
	.loc 1 293 117
	sw	s11,0(t6)
	.loc 1 293 145 is_stmt 1
	.loc 1 293 162 is_stmt 0
	lw	ra,12(sp)
	sw	zero,0(ra)
	.loc 1 293 174 is_stmt 1
	.loc 1 293 191 is_stmt 0
	lw	a1,108(sp)
	sw	s4,0(a1)
	.loc 1 293 234 is_stmt 1
	.loc 1 293 251 is_stmt 0
	lw	a0,136(sp)
	sw	a6,0(a0)
	.loc 1 293 298 is_stmt 1
	.loc 1 293 315 is_stmt 0
	lw	t1,128(sp)
	sw	s3,0(t1)
	.loc 1 293 320 is_stmt 1
	.loc 1 293 337 is_stmt 0
	lw	a2,124(sp)
	sw	zero,0(a2)
	.loc 1 293 340 is_stmt 1
	.loc 1 293 357 is_stmt 0
	lw	a4,120(sp)
	sw	s4,0(a4)
	.loc 1 293 428 is_stmt 1
	.loc 1 293 445 is_stmt 0
	lw	a3,116(sp)
	sw	t2,0(a3)
	.loc 1 293 471 is_stmt 1
	.loc 1 293 488 is_stmt 0
	sw	s3,0(s0)
	.loc 1 293 493 is_stmt 1
	.loc 1 293 510 is_stmt 0
	lw	a5,112(sp)
	.loc 1 293 804
	li	t2,512
	.loc 1 293 510
	sw	zero,0(a5)
	.loc 1 293 513 is_stmt 1
	.loc 1 293 529 is_stmt 0
	sw	t5,0(s9)
	.loc 1 293 569 is_stmt 1
	.loc 1 293 585 is_stmt 0
	sw	s5,0(s10)
	.loc 1 293 596 is_stmt 1
	.loc 1 293 613 is_stmt 0
	sw	s3,0(s8)
	.loc 1 293 618 is_stmt 1
	.loc 1 293 635 is_stmt 0
	sw	zero,0(s7)
	.loc 1 293 638 is_stmt 1
	.loc 1 293 654 is_stmt 0
	lw	t3,140(sp)
	sw	t3,0(s1)
	.loc 1 293 787 is_stmt 1
	.loc 1 293 965
	.loc 1 293 804 is_stmt 0
	lw	t4,20(sp)
	sw	t2,0(t4)
	.loc 1 293 982
	lw	t4,56(sp)
.LBE220:
.LBB221:
	.loc 1 293 1457
	li	t2,8
.LBE221:
.LBB222:
	.loc 1 293 982
	sw	t4,0(s6)
.LBE222:
.LBB223:
	.loc 1 293 1015 is_stmt 1
.LVL157:
	.loc 1 293 1062
	.loc 1 293 1078 is_stmt 0
	sw	t0,44(sp)
	.loc 1 293 1090 is_stmt 1
	.loc 1 293 1078 is_stmt 0
	sw	a7,0(t0)
	.loc 1 293 1106
	sw	s4,0(s2)
	.loc 1 293 1112 is_stmt 1
	.loc 1 293 1129 is_stmt 0
	sw	t6,16(sp)
	sw	s11,0(t6)
	.loc 1 293 1157 is_stmt 1
	.loc 1 293 1174 is_stmt 0
	sw	ra,12(sp)
	sw	zero,0(ra)
	.loc 1 293 1186 is_stmt 1
	.loc 1 293 1203 is_stmt 0
	sw	s4,0(a1)
	sw	a1,128(sp)
	.loc 1 293 1246 is_stmt 1
	.loc 1 293 1263 is_stmt 0
	sw	a6,0(a0)
	sw	a0,124(sp)
	.loc 1 293 1310 is_stmt 1
	.loc 1 293 1327 is_stmt 0
	sw	s3,0(t1)
	sw	t1,120(sp)
	.loc 1 293 1332 is_stmt 1
	.loc 1 293 1349 is_stmt 0
	sw	zero,0(a2)
	sw	a2,116(sp)
	.loc 1 293 1352 is_stmt 1
	.loc 1 293 1369 is_stmt 0
	sw	s4,0(a4)
	sw	a4,112(sp)
	.loc 1 293 1440 is_stmt 1
	.loc 1 293 1457 is_stmt 0
	sw	t2,0(a3)
	sw	a3,108(sp)
	.loc 1 293 1483 is_stmt 1
	.loc 1 293 1500 is_stmt 0
	sw	s3,0(s0)
	.loc 1 293 1505 is_stmt 1
	.loc 1 293 1522 is_stmt 0
	sw	zero,0(a5)
	sw	a5,56(sp)
	.loc 1 293 1525 is_stmt 1
	.loc 1 293 1541 is_stmt 0
	sw	t5,0(s9)
	.loc 1 293 1581 is_stmt 1
	.loc 1 293 1597 is_stmt 0
	sw	s5,0(s10)
	.loc 1 293 1608 is_stmt 1
	.loc 1 293 1625 is_stmt 0
	sw	s3,0(s8)
	.loc 1 293 1630 is_stmt 1
	.loc 1 293 1647 is_stmt 0
	sw	zero,0(s7)
	.loc 1 293 1650 is_stmt 1
	.loc 1 293 1666 is_stmt 0
	sw	t3,0(s1)
	.loc 1 293 1799 is_stmt 1
	.loc 1 293 1816 is_stmt 0
	lw	a2,68(sp)
.LBE223:
	.loc 1 293 1865
	li	t6,65536
	addi	t6,t6,1
.LBB224:
	.loc 1 293 1816
	sw	a2,0(s6)
.LBE224:
	.loc 1 293 1848 is_stmt 1
	.loc 1 293 1849
	.loc 1 293 1865 is_stmt 0
	lw	t5,28(sp)
	.loc 1 295 18
	li	t3,1015877632
	addi	t3,t3,-508
	.loc 1 293 1865
	sw	t6,0(t5)
	.loc 1 295 1 is_stmt 1
	.loc 1 295 2
	.loc 1 295 18 is_stmt 0
	sw	t5,28(sp)
	sw	t3,0(t5)
	.loc 1 297 10 is_stmt 1
	lw	t5,132(sp)
	sw	zero,0(t5)
	.loc 1 297 10
	call	_taskYield
.LVL158:
	.loc 1 297 24 discriminator 1
	.loc 1 299 1
	.loc 1 299 2
	.loc 1 299 18 is_stmt 0
	lw	t5,28(sp)
	li	a2,88
.LBB225:
	.loc 1 303 246
	li	a6,64
.LBE225:
	.loc 1 299 18
	sw	a2,0(t5)
.LBB226:
	.loc 1 303 3 is_stmt 1
.LVL159:
	.loc 1 303 230
	.loc 1 303 246 is_stmt 0
	lw	t0,44(sp)
	.loc 1 303 373
	li	a3,7
	.loc 1 303 677
	li	a4,16
	.loc 1 303 246
	sw	a6,0(t0)
	.loc 1 303 357 is_stmt 1
	.loc 1 303 373 is_stmt 0
	sw	a3,0(s2)
	.loc 1 303 379 is_stmt 1
	.loc 1 303 396 is_stmt 0
	lw	t6,16(sp)
	.loc 1 303 804
	li	t4,63
	.loc 1 303 1040
	li	a7,4
	.loc 1 303 396
	sw	s3,0(t6)
	.loc 1 303 532 is_stmt 1
	.loc 1 303 549 is_stmt 0
	lw	t3,12(sp)
	.loc 1 303 1149
	li	a5,15
	.loc 1 303 1833
	li	t2,512
	.loc 1 303 549
	sw	zero,0(t3)
	.loc 1 303 660 is_stmt 1
	.loc 1 303 677 is_stmt 0
	lw	a0,124(sp)
	sw	a4,0(a0)
	.loc 1 303 764 is_stmt 1
	.loc 1 303 781 is_stmt 0
	lw	a1,128(sp)
	sw	s4,0(a1)
	.loc 1 303 787 is_stmt 1
	.loc 1 303 804 is_stmt 0
	lw	t1,120(sp)
	sw	t4,0(t1)
	.loc 1 303 919 is_stmt 1
	.loc 1 303 936 is_stmt 0
	lw	a2,116(sp)
	sw	zero,0(a2)
	.loc 1 303 1023 is_stmt 1
	.loc 1 303 1040 is_stmt 0
	lw	a3,108(sp)
	sw	a7,0(a3)
	.loc 1 303 1109 is_stmt 1
	.loc 1 303 1126 is_stmt 0
	lw	a4,112(sp)
	sw	s4,0(a4)
	.loc 1 303 1132 is_stmt 1
	.loc 1 303 1149 is_stmt 0
	sw	a5,0(s0)
	.loc 1 303 1240 is_stmt 1
	.loc 1 303 1257 is_stmt 0
	lw	a5,56(sp)
	sw	zero,0(a5)
	.loc 1 303 1326 is_stmt 1
	.loc 1 303 1342 is_stmt 0
	sw	s5,0(s10)
	.loc 1 303 1353 is_stmt 1
	.loc 1 303 1369 is_stmt 0
	sw	s4,0(s9)
	.loc 1 303 1375 is_stmt 1
	.loc 1 303 1392 is_stmt 0
	sw	s4,0(s8)
	.loc 1 303 1461 is_stmt 1
	.loc 1 303 1478 is_stmt 0
	sw	zero,0(s7)
	.loc 1 303 1487 is_stmt 1
.LVL160:
	.loc 1 303 1770
	.loc 1 303 1786 is_stmt 0
	sw	zero,0(s1)
	.loc 1 303 1815 is_stmt 1
	.loc 1 303 1816
	.loc 1 303 1833 is_stmt 0
	lw	t4,20(sp)
	sw	t2,0(t4)
	.loc 1 303 1872 is_stmt 1
	.loc 1 303 1889 is_stmt 0
	lw	a7,92(sp)
.LBE226:
.LBB227:
	.loc 1 303 2360
	li	t2,8
.LBE227:
.LBB228:
	.loc 1 303 1889
	sw	a7,0(s6)
.LBE228:
.LBB229:
	.loc 1 303 1922 is_stmt 1
.LVL161:
	.loc 1 303 1967
	.loc 1 303 1984 is_stmt 0
	li	a7,4096
	sw	a7,0(a3)
	.loc 1 303 1996 is_stmt 1
	.loc 1 303 2013 is_stmt 0
	sw	s4,0(a4)
	.loc 1 303 2019 is_stmt 1
	.loc 1 303 2036 is_stmt 0
	sw	s11,0(s0)
	.loc 1 303 2064 is_stmt 1
	.loc 1 303 2081 is_stmt 0
	sw	zero,0(a5)
	.loc 1 303 2093 is_stmt 1
	.loc 1 303 2110 is_stmt 0
	sw	s4,0(a1)
	.loc 1 303 2151 is_stmt 1
	.loc 1 303 2168 is_stmt 0
	sw	a6,0(a0)
	.loc 1 303 2215 is_stmt 1
	.loc 1 303 2232 is_stmt 0
	sw	s3,0(t1)
	.loc 1 303 2237 is_stmt 1
	.loc 1 303 2254 is_stmt 0
	sw	zero,0(a2)
	.loc 1 303 2257 is_stmt 1
	.loc 1 303 2273 is_stmt 0
	sw	s4,0(s9)
	.loc 1 303 2344 is_stmt 1
	.loc 1 303 2360 is_stmt 0
	sw	t2,0(s10)
	.loc 1 303 2386 is_stmt 1
	.loc 1 303 2403 is_stmt 0
	sw	s3,0(s8)
	.loc 1 303 2408 is_stmt 1
	.loc 1 303 2425 is_stmt 0
	sw	zero,0(s7)
	.loc 1 303 2428 is_stmt 1
	.loc 1 303 2444 is_stmt 0
	li	t2,7
	sw	t2,0(s2)
	.loc 1 303 2482 is_stmt 1
	.loc 1 303 2498 is_stmt 0
	sw	s5,0(t0)
	.loc 1 303 2509 is_stmt 1
	.loc 1 303 2526 is_stmt 0
	sw	t6,16(sp)
	sw	s3,0(t6)
	.loc 1 303 2531 is_stmt 1
	.loc 1 303 2548 is_stmt 0
	sw	t3,12(sp)
	sw	zero,0(t3)
	.loc 1 303 2551 is_stmt 1
	.loc 1 303 2567 is_stmt 0
	lw	t2,100(sp)
	.loc 1 303 2714
	li	t3,1032192
	addi	t3,t3,1149
	.loc 1 303 2567
	sw	t2,0(s1)
	.loc 1 303 2697 is_stmt 1
	.loc 1 303 2714 is_stmt 0
	sw	t3,0(s6)
.LBE229:
	.loc 1 303 2746 is_stmt 1
	.loc 1 303 2747
	.loc 1 303 2763 is_stmt 0
	lw	t2,40(sp)
	sw	t5,28(sp)
	sw	t2,0(t5)
.LBB230:
	.loc 1 303 2853 is_stmt 1
.LVL162:
	.loc 1 303 2980
	.loc 1 303 2997 is_stmt 0
	lw	t5,32(sp)
	.loc 1 303 3144
	li	t2,15
	.loc 1 303 2997
	sw	t5,0(a3)
	.loc 1 303 3010 is_stmt 1
	.loc 1 303 3027 is_stmt 0
	li	t5,31
	sw	t5,0(a4)
	.loc 1 303 3033 is_stmt 1
	.loc 1 303 3050 is_stmt 0
	lw	t5,60(sp)
	sw	t5,0(s0)
	.loc 1 303 3071 is_stmt 1
	.loc 1 303 3088 is_stmt 0
	lw	t5,24(sp)
	sw	t5,0(a5)
	.loc 1 303 3101 is_stmt 1
	.loc 1 303 3117 is_stmt 0
	sw	s5,0(s10)
	.loc 1 303 3128 is_stmt 1
	.loc 1 303 3144 is_stmt 0
	sw	t2,0(s9)
	.loc 1 303 3150 is_stmt 1
	.loc 1 303 3167 is_stmt 0
	lw	t2,48(sp)
	sw	t2,0(s8)
	.loc 1 303 3180 is_stmt 1
	.loc 1 303 3197 is_stmt 0
	lw	t5,72(sp)
	sw	t5,0(s7)
	.loc 1 303 3206 is_stmt 1
.LVL163:
	.loc 1 303 3237
	.loc 1 303 3273 is_stmt 0
	lw	t5,36(sp)
	lw	t6,148(sp)
	sw	t2,48(sp)
	lw	t5,20(t5)
	sw	t5,20(sp)
	lw	t5,24(sp)
	add	t5,t6,t5
	sub	t5,t5,t2
	sw	t5,56(sp)
	lw	t5,20(sp)
	.loc 1 303 3258
	lw	t6,56(sp)
	.loc 1 303 3308
	li	t2,512
	.loc 1 303 3273
	srli	t5,t5,1
	.loc 1 303 3258
	add	t5,t5,t6
	.loc 1 303 3253
	sw	t5,0(s1)
	.loc 1 303 3290 is_stmt 1
	.loc 1 303 3291
	.loc 1 303 3308 is_stmt 0
	sw	t4,20(sp)
	.loc 1 303 3350
	li	t5,1036288
	.loc 1 303 3308
	sw	t2,0(t4)
	.loc 1 303 3333 is_stmt 1
	.loc 1 303 3350 is_stmt 0
	addi	t5,t5,127
	sw	t5,44(sp)
	sw	t5,0(s6)
.LBE230:
.LBB231:
	.loc 1 303 3383 is_stmt 1
.LVL164:
	.loc 1 303 3610
	.loc 1 303 3626 is_stmt 0
	sw	a6,0(t0)
	.loc 1 303 3737 is_stmt 1
	.loc 1 303 3753 is_stmt 0
	li	t4,7
	sw	t4,0(s2)
	.loc 1 303 3759 is_stmt 1
	.loc 1 303 3776 is_stmt 0
	lw	t6,16(sp)
	sw	s3,0(t6)
	.loc 1 303 3912 is_stmt 1
	.loc 1 303 3929 is_stmt 0
	lw	t4,12(sp)
	sw	zero,0(t4)
	.loc 1 303 4040 is_stmt 1
	.loc 1 303 4057 is_stmt 0
	li	t4,16
	sw	t4,0(a0)
	.loc 1 303 0 is_stmt 1
	sw	s4,0(a1)
	.loc 1 303 0
	li	t4,63
	sw	t4,0(t1)
	.loc 1 303 0
	sw	zero,0(a2)
	.loc 1 303 0
	mv	t2,t4
	li	t4,4
	sw	t4,0(a3)
	.loc 1 303 0
	sw	s4,0(a4)
	.loc 1 303 0
	li	t4,15
	sw	t4,0(s0)
	.loc 1 303 0
	sw	zero,0(a5)
	.loc 1 303 0
	sw	s5,0(s10)
	.loc 1 303 0
	sw	s4,0(s9)
	.loc 1 303 0
	sw	s4,0(s8)
	.loc 1 303 0
	sw	zero,0(s7)
	.loc 1 303 0
.LVL165:
	.loc 1 303 0
	sw	zero,0(s1)
	.loc 1 303 0
	.loc 1 303 0
	lw	t5,52(sp)
	sw	t5,0(s6)
.LBE231:
	.loc 1 303 0
	.loc 1 303 0
	lw	t4,28(sp)
	lw	t5,40(sp)
	sw	t5,0(t4)
.LBB232:
	.loc 1 306 3
.LVL166:
	.loc 1 306 230
	.loc 1 306 246 is_stmt 0
	sw	a6,0(t0)
	.loc 1 306 357 is_stmt 1
	.loc 1 306 373 is_stmt 0
	li	t4,7
	sw	t4,0(s2)
	.loc 1 306 379 is_stmt 1
	.loc 1 306 396 is_stmt 0
	sw	s3,0(t6)
	.loc 1 306 532 is_stmt 1
	.loc 1 306 549 is_stmt 0
	lw	t4,12(sp)
	sw	zero,0(t4)
	.loc 1 306 660 is_stmt 1
	.loc 1 306 677 is_stmt 0
	li	t4,16
	sw	t4,0(a0)
	.loc 1 306 764 is_stmt 1
	.loc 1 306 781 is_stmt 0
	sw	s4,0(a1)
	.loc 1 306 787 is_stmt 1
	.loc 1 306 804 is_stmt 0
	sw	t2,0(t1)
	.loc 1 306 919 is_stmt 1
	.loc 1 306 936 is_stmt 0
	sw	zero,0(a2)
	.loc 1 306 1023 is_stmt 1
	.loc 1 306 1040 is_stmt 0
	li	t4,4
	sw	t4,0(a3)
	.loc 1 306 1109 is_stmt 1
	.loc 1 306 1126 is_stmt 0
	sw	s4,0(a4)
	.loc 1 306 1132 is_stmt 1
	.loc 1 306 1149 is_stmt 0
	li	t4,15
	sw	t4,0(s0)
	.loc 1 306 1240 is_stmt 1
	.loc 1 306 1257 is_stmt 0
	sw	zero,0(a5)
	.loc 1 306 1326 is_stmt 1
	.loc 1 306 1342 is_stmt 0
	sw	s5,0(s10)
	.loc 1 306 1353 is_stmt 1
	.loc 1 306 1369 is_stmt 0
	sw	s4,0(s9)
	.loc 1 306 1375 is_stmt 1
	.loc 1 306 1392 is_stmt 0
	sw	s4,0(s8)
	.loc 1 306 1461 is_stmt 1
	.loc 1 306 1478 is_stmt 0
	sw	zero,0(s7)
	.loc 1 306 1487 is_stmt 1
.LVL167:
	.loc 1 306 1770
	.loc 1 306 1786 is_stmt 0
	sw	zero,0(s1)
	.loc 1 306 1815 is_stmt 1
	.loc 1 306 1816
	.loc 1 306 1833 is_stmt 0
	lw	t4,20(sp)
	li	t2,512
	sw	t2,0(t4)
	.loc 1 306 1872 is_stmt 1
	.loc 1 306 1889 is_stmt 0
	lw	t5,92(sp)
.LBE232:
.LBB233:
	.loc 1 306 2360
	li	t4,8
.LBE233:
.LBB234:
	.loc 1 306 1889
	sw	t5,0(s6)
.LBE234:
.LBB235:
	.loc 1 306 1922 is_stmt 1
.LVL168:
	.loc 1 306 1967
	.loc 1 306 1984 is_stmt 0
	sw	a7,0(a3)
	.loc 1 306 1996 is_stmt 1
	.loc 1 306 2013 is_stmt 0
	sw	s4,0(a4)
	.loc 1 306 2019 is_stmt 1
	.loc 1 306 2036 is_stmt 0
	sw	s11,0(s0)
	.loc 1 306 2064 is_stmt 1
	.loc 1 306 2081 is_stmt 0
	sw	zero,0(a5)
	.loc 1 306 2093 is_stmt 1
	.loc 1 306 2110 is_stmt 0
	sw	s4,0(a1)
	.loc 1 306 2151 is_stmt 1
	.loc 1 306 2168 is_stmt 0
	sw	a6,0(a0)
	.loc 1 306 2215 is_stmt 1
	.loc 1 306 2232 is_stmt 0
	sw	s3,0(t1)
	.loc 1 306 2237 is_stmt 1
	.loc 1 306 2254 is_stmt 0
	sw	zero,0(a2)
	.loc 1 306 2257 is_stmt 1
	.loc 1 306 2273 is_stmt 0
	sw	s4,0(s9)
	.loc 1 306 2344 is_stmt 1
	.loc 1 306 2360 is_stmt 0
	sw	t4,0(s10)
	.loc 1 306 2386 is_stmt 1
	.loc 1 306 2403 is_stmt 0
	sw	s3,0(s8)
	.loc 1 306 2408 is_stmt 1
	.loc 1 306 2425 is_stmt 0
	sw	zero,0(s7)
	.loc 1 306 2428 is_stmt 1
	.loc 1 306 2444 is_stmt 0
	li	t4,7
	sw	t4,0(s2)
	.loc 1 306 2482 is_stmt 1
	.loc 1 306 2498 is_stmt 0
	sw	s5,0(t0)
	.loc 1 306 2509 is_stmt 1
	.loc 1 306 2526 is_stmt 0
	sw	s3,0(t6)
	.loc 1 306 2531 is_stmt 1
	.loc 1 306 2548 is_stmt 0
	lw	t4,12(sp)
	sw	zero,0(t4)
	.loc 1 306 2551 is_stmt 1
	.loc 1 306 2567 is_stmt 0
	lw	t5,104(sp)
	sw	t5,0(s1)
	.loc 1 306 2699 is_stmt 1
	.loc 1 306 2716 is_stmt 0
	sw	t3,0(s6)
.LBE235:
	.loc 1 306 2748 is_stmt 1
	.loc 1 306 2749
	.loc 1 306 2765 is_stmt 0
	lw	t4,28(sp)
	lw	t5,40(sp)
	sw	t5,0(t4)
.LBB236:
	.loc 1 306 2855 is_stmt 1
.LVL169:
	.loc 1 306 2982
	.loc 1 306 2999 is_stmt 0
	lw	t3,32(sp)
	sw	t3,0(a3)
	.loc 1 306 3012 is_stmt 1
	.loc 1 306 3029 is_stmt 0
	li	t3,31
	sw	t3,0(a4)
	.loc 1 306 3035 is_stmt 1
	.loc 1 306 3052 is_stmt 0
	lw	t3,60(sp)
	sw	t3,0(s0)
	.loc 1 306 3073 is_stmt 1
	.loc 1 306 3090 is_stmt 0
	lw	t5,24(sp)
	.loc 1 306 3146
	li	t3,15
	mv	t4,t3
	.loc 1 306 3090
	sw	t5,0(a5)
	.loc 1 306 3103 is_stmt 1
	.loc 1 306 3119 is_stmt 0
	sw	s5,0(s10)
	.loc 1 306 3130 is_stmt 1
	.loc 1 306 3146 is_stmt 0
	sw	t3,0(s9)
	.loc 1 306 3152 is_stmt 1
	.loc 1 306 3169 is_stmt 0
	lw	t3,48(sp)
	sw	t3,0(s8)
	.loc 1 306 3182 is_stmt 1
	.loc 1 306 3199 is_stmt 0
	lw	t3,72(sp)
	sw	t3,0(s7)
	.loc 1 306 3208 is_stmt 1
.LVL170:
	.loc 1 306 3239
	.loc 1 306 3275 is_stmt 0
	lw	t5,36(sp)
	lw	t3,24(t5)
	.loc 1 306 3260
	lw	t5,56(sp)
	.loc 1 306 3275
	srli	t3,t3,1
	.loc 1 306 3260
	add	t3,t3,t5
	.loc 1 306 3255
	sw	t3,0(s1)
	.loc 1 306 3292 is_stmt 1
	.loc 1 306 3293
	.loc 1 306 3310 is_stmt 0
	lw	t3,20(sp)
	sw	t2,0(t3)
	.loc 1 306 3335 is_stmt 1
	.loc 1 306 3352 is_stmt 0
	lw	t5,44(sp)
.LBE236:
.LBB237:
	.loc 1 306 0
	li	t3,63
	mv	t2,t3
.LBE237:
.LBB238:
	.loc 1 306 3352
	sw	t5,0(s6)
.LBE238:
.LBB239:
	.loc 1 306 3385 is_stmt 1
.LVL171:
	.loc 1 306 3612
	.loc 1 306 3628 is_stmt 0
	sw	a6,0(t0)
	.loc 1 306 3739 is_stmt 1
	.loc 1 306 3628 is_stmt 0
	mv	t5,t0
	.loc 1 306 3755
	li	t0,7
	sw	t0,0(s2)
	.loc 1 306 3761 is_stmt 1
	.loc 1 306 3778 is_stmt 0
	sw	s3,0(t6)
	.loc 1 306 3914 is_stmt 1
	.loc 1 306 3931 is_stmt 0
	lw	t0,12(sp)
	sw	zero,0(t0)
	.loc 1 306 4042 is_stmt 1
	.loc 1 306 4059 is_stmt 0
	li	t0,16
	sw	t0,0(a0)
	.loc 1 306 0 is_stmt 1
	sw	s4,0(a1)
	.loc 1 306 0
	sw	t3,0(t1)
	.loc 1 306 0
	sw	zero,0(a2)
	.loc 1 306 0
	li	t3,4
	sw	t3,0(a3)
	.loc 1 306 0
	sw	s4,0(a4)
	.loc 1 306 0
	sw	t4,0(s0)
	.loc 1 306 0
	sw	zero,0(a5)
	.loc 1 306 0
	sw	s5,0(s10)
	.loc 1 306 0
	sw	s4,0(s9)
	.loc 1 306 0
	sw	s4,0(s8)
	.loc 1 306 0
	sw	zero,0(s7)
	.loc 1 306 0
.LVL172:
	.loc 1 306 0
	sw	zero,0(s1)
	.loc 1 306 0
	.loc 1 306 0
	lw	t3,52(sp)
	sw	t3,0(s6)
.LBE239:
	.loc 1 306 0
	.loc 1 306 0
	lw	t3,40(sp)
	lw	t4,28(sp)
	sw	t3,0(t4)
	.loc 1 308 10
	.loc 1 308 12 is_stmt 0
	lw	t0,36(sp)
	lw	t3,28(t0)
	li	t0,7
	beq	t3,zero,.L10
.LBB240:
	.loc 1 311 3 is_stmt 1
.LVL173:
	.loc 1 311 230
	.loc 1 311 246 is_stmt 0
	sw	a6,0(t5)
	.loc 1 311 357 is_stmt 1
	.loc 1 311 246 is_stmt 0
	mv	t3,t5
	.loc 1 311 373
	li	t5,7
	sw	t5,0(s2)
	.loc 1 311 379 is_stmt 1
	.loc 1 311 396 is_stmt 0
	sw	s3,0(t6)
	.loc 1 311 532 is_stmt 1
	.loc 1 311 549 is_stmt 0
	lw	t5,12(sp)
	sw	zero,0(t5)
	.loc 1 311 660 is_stmt 1
	.loc 1 311 677 is_stmt 0
	li	t5,16
	sw	t5,0(a0)
	.loc 1 311 764 is_stmt 1
	.loc 1 311 781 is_stmt 0
	sw	s4,0(a1)
	.loc 1 311 787 is_stmt 1
	.loc 1 311 804 is_stmt 0
	sw	t2,0(t1)
	.loc 1 311 919 is_stmt 1
	.loc 1 311 936 is_stmt 0
	sw	zero,0(a2)
	.loc 1 311 1023 is_stmt 1
	.loc 1 311 1040 is_stmt 0
	li	t5,4
	sw	t5,0(a3)
	.loc 1 311 1109 is_stmt 1
	.loc 1 311 1126 is_stmt 0
	sw	s4,0(a4)
	.loc 1 311 1132 is_stmt 1
	.loc 1 311 1149 is_stmt 0
	li	t5,15
	sw	t5,0(s0)
	.loc 1 311 1240 is_stmt 1
	.loc 1 311 1257 is_stmt 0
	sw	zero,0(a5)
	.loc 1 311 1326 is_stmt 1
	.loc 1 311 1342 is_stmt 0
	sw	s5,0(s10)
	.loc 1 311 1353 is_stmt 1
	.loc 1 311 1369 is_stmt 0
	sw	s4,0(s9)
	.loc 1 311 1375 is_stmt 1
	.loc 1 311 1392 is_stmt 0
	sw	s4,0(s8)
	.loc 1 311 1461 is_stmt 1
	.loc 1 311 1478 is_stmt 0
	sw	zero,0(s7)
	.loc 1 311 1487 is_stmt 1
.LVL174:
	.loc 1 311 1770
	.loc 1 311 1786 is_stmt 0
	sw	zero,0(s1)
	.loc 1 311 1815 is_stmt 1
	.loc 1 311 1816
	.loc 1 311 1833 is_stmt 0
	lw	t4,20(sp)
	li	t2,512
	.loc 1 311 1889
	li	t5,1036288
	.loc 1 311 1833
	sw	t2,0(t4)
	.loc 1 311 1872 is_stmt 1
	.loc 1 311 1889 is_stmt 0
	addi	t5,t5,-1889
	sw	t5,0(s6)
.LBE240:
.LBB241:
	.loc 1 311 1922 is_stmt 1
.LVL175:
	.loc 1 311 1967
	.loc 1 311 1984 is_stmt 0
	sw	a7,0(a3)
	.loc 1 311 1996 is_stmt 1
	.loc 1 311 2013 is_stmt 0
	sw	s4,0(a4)
	.loc 1 311 2019 is_stmt 1
	.loc 1 311 2036 is_stmt 0
	sw	s11,0(s0)
	.loc 1 311 2064 is_stmt 1
	.loc 1 311 2081 is_stmt 0
	sw	zero,0(a5)
	.loc 1 311 2093 is_stmt 1
	.loc 1 311 2110 is_stmt 0
	sw	s4,0(a1)
	.loc 1 311 2151 is_stmt 1
	.loc 1 311 2168 is_stmt 0
	sw	a6,0(a0)
	.loc 1 311 2215 is_stmt 1
	.loc 1 311 2232 is_stmt 0
	sw	s3,0(t1)
	.loc 1 311 2237 is_stmt 1
	.loc 1 311 2254 is_stmt 0
	sw	zero,0(a2)
	.loc 1 311 2257 is_stmt 1
	.loc 1 311 2273 is_stmt 0
	sw	s4,0(s9)
	.loc 1 311 2344 is_stmt 1
	.loc 1 311 2360 is_stmt 0
	li	t4,8
	sw	t4,0(s10)
	.loc 1 311 2386 is_stmt 1
	.loc 1 311 2403 is_stmt 0
	sw	s3,0(s8)
	.loc 1 311 2408 is_stmt 1
	.loc 1 311 2444 is_stmt 0
	li	t4,7
	.loc 1 311 2425
	sw	zero,0(s7)
	.loc 1 311 2428 is_stmt 1
	.loc 1 311 2444 is_stmt 0
	sw	t4,0(s2)
	.loc 1 311 2482 is_stmt 1
	.loc 1 311 2498 is_stmt 0
	sw	t3,44(sp)
	sw	s5,0(t3)
	.loc 1 311 2509 is_stmt 1
	.loc 1 311 2526 is_stmt 0
	sw	t6,16(sp)
	sw	s3,0(t6)
	.loc 1 311 2531 is_stmt 1
	.loc 1 311 2548 is_stmt 0
	lw	t3,12(sp)
	.loc 1 311 2714
	li	t4,1032192
	.loc 1 311 2548
	sw	zero,0(t3)
	.loc 1 311 2551 is_stmt 1
	.loc 1 311 2714 is_stmt 0
	mv	t3,t4
	.loc 1 311 2567
	lw	t4,100(sp)
	sw	t4,0(s1)
	.loc 1 311 2697 is_stmt 1
	.loc 1 311 2714 is_stmt 0
	addi	t4,t3,1181
	sw	t4,52(sp)
	sw	t4,0(s6)
.LBE241:
	.loc 1 311 2746 is_stmt 1
	.loc 1 311 2747
	.loc 1 311 2763 is_stmt 0
	lw	t4,28(sp)
	li	t3,196608
	addi	t3,t3,17
	sw	t3,0(t4)
.LBB242:
	.loc 1 311 2851 is_stmt 1
.LVL176:
	.loc 1 311 3009
	.loc 1 311 3026 is_stmt 0
	lw	t4,84(sp)
	.loc 1 311 3306
	li	t3,15
	.loc 1 311 3026
	sw	t4,0(a0)
	.loc 1 311 3043 is_stmt 1
	.loc 1 311 3060 is_stmt 0
	sw	zero,0(a1)
	.loc 1 311 3066 is_stmt 1
	.loc 1 311 3083 is_stmt 0
	lw	t4,176(sp)
	sw	t4,0(t1)
	.loc 1 311 3108 is_stmt 1
	.loc 1 311 3125 is_stmt 0
	sw	zero,0(a2)
	.loc 1 311 3142 is_stmt 1
	.loc 1 311 3159 is_stmt 0
	lw	t4,32(sp)
	sw	t4,0(a3)
	.loc 1 311 3172 is_stmt 1
	.loc 1 311 3189 is_stmt 0
	li	t4,31
	sw	t4,0(a4)
	.loc 1 311 3195 is_stmt 1
	.loc 1 311 3212 is_stmt 0
	lw	t4,60(sp)
	sw	t4,0(s0)
	.loc 1 311 3233 is_stmt 1
	.loc 1 311 3250 is_stmt 0
	lw	t4,24(sp)
	sw	t4,0(a5)
	.loc 1 311 3263 is_stmt 1
	.loc 1 311 3279 is_stmt 0
	sw	s5,0(s10)
	.loc 1 311 3290 is_stmt 1
	.loc 1 311 3306 is_stmt 0
	sw	t3,0(s9)
	.loc 1 311 3312 is_stmt 1
	.loc 1 311 3306 is_stmt 0
	mv	t4,t3
	.loc 1 311 3329
	lw	t3,48(sp)
	sw	t3,0(s8)
	.loc 1 311 3342 is_stmt 1
	.loc 1 311 3359 is_stmt 0
	lw	t3,72(sp)
	sw	t3,0(s7)
	.loc 1 311 3368 is_stmt 1
.LVL177:
	.loc 1 311 3415
	.loc 1 311 3436 is_stmt 0
	lw	t3,36(sp)
	lw	t2,56(sp)
	lw	t3,28(t3)
	mv	t6,t3
	add	t2,t2,t6
	.loc 1 311 3431
	sw	t2,0(s1)
	.loc 1 311 3469 is_stmt 1
	.loc 1 311 3470
	.loc 1 311 3487 is_stmt 0
	lw	t2,20(sp)
	li	t6,512
	.loc 1 311 3536
	li	t3,1036288
	.loc 1 311 3487
	sw	t6,0(t2)
	.loc 1 311 3519 is_stmt 1
	.loc 1 311 3536 is_stmt 0
	addi	t3,t3,159
	sw	t3,0(s6)
.LBE242:
.LBB243:
	.loc 1 311 3569 is_stmt 1
.LVL178:
	.loc 1 311 3796
	.loc 1 311 3812 is_stmt 0
	lw	t2,44(sp)
	sw	a6,0(t2)
	.loc 1 311 3923 is_stmt 1
	.loc 1 311 3939 is_stmt 0
	li	t2,7
	sw	t2,0(s2)
	.loc 1 311 3945 is_stmt 1
	.loc 1 311 3962 is_stmt 0
	lw	t6,16(sp)
	.loc 1 311 0
	li	t2,16
	.loc 1 311 3962
	sw	s3,0(t6)
	.loc 1 311 0 is_stmt 1
	lw	t6,12(sp)
	sw	zero,0(t6)
	.loc 1 311 0
	sw	t2,0(a0)
	.loc 1 311 0
	sw	s4,0(a1)
	.loc 1 311 0
	li	t2,63
	sw	t2,0(t1)
	.loc 1 311 0
	sw	zero,0(a2)
	.loc 1 311 0
	li	t2,4
	sw	t2,0(a3)
	.loc 1 311 0
	sw	s4,0(a4)
	.loc 1 311 0
	sw	t4,0(s0)
	.loc 1 311 0
	sw	zero,0(a5)
	.loc 1 311 0
	sw	s5,0(s10)
	.loc 1 311 0
	sw	s4,0(s9)
	.loc 1 311 0
	sw	s4,0(s8)
	.loc 1 311 0
	sw	zero,0(s7)
	.loc 1 311 0
.LVL179:
	.loc 1 311 0
	li	t2,1036288
	sw	zero,0(s1)
	.loc 1 311 0
	.loc 1 311 0
	addi	t2,t2,-1891
	sw	t2,56(sp)
	sw	t2,0(s6)
.LBE243:
	.loc 1 311 0
	.loc 1 311 0
	lw	t4,28(sp)
	lw	t6,40(sp)
	sw	t6,0(t4)
.LBB244:
	.loc 1 315 3
.LVL180:
	.loc 1 315 230
	.loc 1 315 246 is_stmt 0
	lw	t6,44(sp)
	.loc 1 315 373
	li	t4,7
	.loc 1 315 246
	sw	a6,0(t6)
	.loc 1 315 357 is_stmt 1
	.loc 1 315 373 is_stmt 0
	sw	t4,0(s2)
	.loc 1 315 379 is_stmt 1
	.loc 1 315 396 is_stmt 0
	lw	t6,16(sp)
	.loc 1 315 804
	li	t4,63
	.loc 1 315 396
	sw	s3,0(t6)
	.loc 1 315 532 is_stmt 1
	.loc 1 315 549 is_stmt 0
	lw	t2,12(sp)
	.loc 1 315 677
	li	t6,16
	.loc 1 315 549
	sw	zero,0(t2)
	.loc 1 315 660 is_stmt 1
	.loc 1 315 677 is_stmt 0
	sw	t6,0(a0)
	.loc 1 315 764 is_stmt 1
	.loc 1 315 781 is_stmt 0
	sw	s4,0(a1)
	.loc 1 315 787 is_stmt 1
	.loc 1 315 804 is_stmt 0
	sw	t4,0(t1)
	.loc 1 315 919 is_stmt 1
	.loc 1 315 936 is_stmt 0
	sw	zero,0(a2)
	.loc 1 315 1023 is_stmt 1
	.loc 1 315 1040 is_stmt 0
	li	t4,4
	sw	t4,0(a3)
	.loc 1 315 1109 is_stmt 1
	.loc 1 315 1126 is_stmt 0
	sw	s4,0(a4)
	.loc 1 315 1132 is_stmt 1
	.loc 1 315 1149 is_stmt 0
	li	t6,15
	sw	t6,0(s0)
	.loc 1 315 1240 is_stmt 1
	.loc 1 315 1257 is_stmt 0
	sw	zero,0(a5)
	.loc 1 315 1326 is_stmt 1
	.loc 1 315 1342 is_stmt 0
	sw	s5,0(s10)
	.loc 1 315 1353 is_stmt 1
	.loc 1 315 1369 is_stmt 0
	sw	s4,0(s9)
	.loc 1 315 1375 is_stmt 1
	.loc 1 315 1392 is_stmt 0
	sw	s4,0(s8)
	.loc 1 315 1461 is_stmt 1
	.loc 1 315 1478 is_stmt 0
	sw	zero,0(s7)
	.loc 1 315 1487 is_stmt 1
.LVL181:
	.loc 1 315 1770
	.loc 1 315 1786 is_stmt 0
	sw	zero,0(s1)
	.loc 1 315 1815 is_stmt 1
	.loc 1 315 1816
	.loc 1 315 1833 is_stmt 0
	lw	t4,20(sp)
	li	t6,512
	sw	t6,0(t4)
	.loc 1 315 1872 is_stmt 1
	.loc 1 315 1889 is_stmt 0
	sw	t5,0(s6)
.LBE244:
.LBB245:
	.loc 1 315 1922 is_stmt 1
.LVL182:
	.loc 1 315 1967
	.loc 1 315 1984 is_stmt 0
	sw	a7,0(a3)
	.loc 1 315 1996 is_stmt 1
	.loc 1 315 2013 is_stmt 0
	sw	s4,0(a4)
	.loc 1 315 2019 is_stmt 1
	.loc 1 315 2036 is_stmt 0
	sw	s11,0(s0)
	.loc 1 315 2064 is_stmt 1
	.loc 1 315 2081 is_stmt 0
	sw	zero,0(a5)
	.loc 1 315 2093 is_stmt 1
	.loc 1 315 2110 is_stmt 0
	sw	s4,0(a1)
	.loc 1 315 2151 is_stmt 1
	.loc 1 315 2168 is_stmt 0
	sw	a6,0(a0)
	.loc 1 315 2215 is_stmt 1
	.loc 1 315 2232 is_stmt 0
	sw	s3,0(t1)
	.loc 1 315 2237 is_stmt 1
	.loc 1 315 2254 is_stmt 0
	sw	zero,0(a2)
	.loc 1 315 2257 is_stmt 1
	.loc 1 315 2273 is_stmt 0
	sw	s4,0(s9)
	.loc 1 315 2344 is_stmt 1
	.loc 1 315 2360 is_stmt 0
	li	a7,8
	sw	a7,0(s10)
	.loc 1 315 2386 is_stmt 1
	.loc 1 315 2403 is_stmt 0
	sw	s3,0(s8)
	.loc 1 315 2408 is_stmt 1
	.loc 1 315 2425 is_stmt 0
	sw	zero,0(s7)
	.loc 1 315 2428 is_stmt 1
	.loc 1 315 2444 is_stmt 0
	li	a7,7
	sw	a7,0(s2)
	.loc 1 315 2482 is_stmt 1
	.loc 1 315 2498 is_stmt 0
	lw	t6,44(sp)
.LBE245:
	.loc 1 315 2763
	li	a7,327680
	addi	a7,a7,17
.LBB246:
	.loc 1 315 2498
	sw	s5,0(t6)
	.loc 1 315 2509 is_stmt 1
	.loc 1 315 2526 is_stmt 0
	lw	t6,16(sp)
	sw	s3,0(t6)
	.loc 1 315 2531 is_stmt 1
	.loc 1 315 2548 is_stmt 0
	sw	t2,12(sp)
	sw	zero,0(t2)
	.loc 1 315 2551 is_stmt 1
	.loc 1 315 2567 is_stmt 0
	lw	t2,100(sp)
	sw	t2,0(s1)
	.loc 1 315 2697 is_stmt 1
	.loc 1 315 2714 is_stmt 0
	lw	t2,52(sp)
	sw	t2,0(s6)
.LBE246:
	.loc 1 315 2746 is_stmt 1
	.loc 1 315 2747
	.loc 1 315 2763 is_stmt 0
	lw	t4,28(sp)
	sw	a7,0(t4)
.LBB247:
	.loc 1 315 2851 is_stmt 1
.LVL183:
	.loc 1 315 3015
	.loc 1 315 3032 is_stmt 0
	lw	t2,84(sp)
	sw	t2,0(a0)
	.loc 1 315 3049 is_stmt 1
	.loc 1 315 3066 is_stmt 0
	sw	zero,0(a1)
	.loc 1 315 3072 is_stmt 1
	.loc 1 315 3089 is_stmt 0
	lw	a7,180(sp)
	sw	a7,0(t1)
	.loc 1 315 3114 is_stmt 1
	.loc 1 315 3131 is_stmt 0
	sw	t2,84(sp)
	sw	t2,0(a2)
	.loc 1 315 3148 is_stmt 1
	.loc 1 315 3165 is_stmt 0
	lw	t2,32(sp)
	.loc 1 315 3312
	li	a7,15
	.loc 1 315 3165
	sw	t2,0(a3)
	.loc 1 315 3178 is_stmt 1
	.loc 1 315 3195 is_stmt 0
	li	t2,31
	sw	t2,0(a4)
	.loc 1 315 3201 is_stmt 1
	.loc 1 315 3218 is_stmt 0
	lw	t2,60(sp)
	sw	t2,0(s0)
	.loc 1 315 3239 is_stmt 1
	.loc 1 315 3256 is_stmt 0
	lw	t2,24(sp)
	sw	t2,0(a5)
	.loc 1 315 3269 is_stmt 1
	.loc 1 315 3285 is_stmt 0
	sw	s5,0(s10)
	.loc 1 315 3296 is_stmt 1
	.loc 1 315 3312 is_stmt 0
	sw	a7,0(s9)
	.loc 1 315 3318 is_stmt 1
	.loc 1 315 3335 is_stmt 0
	lw	t2,48(sp)
	sw	t2,0(s8)
	.loc 1 315 3348 is_stmt 1
	.loc 1 315 3365 is_stmt 0
	lw	t4,72(sp)
	sw	t4,0(s7)
	.loc 1 315 3374 is_stmt 1
.LVL184:
	.loc 1 315 3421
	.loc 1 315 3442 is_stmt 0
	lw	t4,36(sp)
	lw	a7,144(sp)
	sw	t2,48(sp)
	lw	t4,28(t4)
	sw	t4,16(sp)
	lw	t4,84(sp)
	sub	a7,a7,t4
	addi	a7,a7,-1
	sub	a7,a7,t2
	lw	t2,16(sp)
	.loc 1 315 3493
	li	t4,512
	.loc 1 315 3442
	add	a7,a7,t2
	.loc 1 315 3437
	sw	a7,0(s1)
	.loc 1 315 3475 is_stmt 1
	.loc 1 315 3476
	.loc 1 315 3493 is_stmt 0
	lw	a7,20(sp)
	sw	t4,0(a7)
	.loc 1 315 3525 is_stmt 1
	.loc 1 315 3542 is_stmt 0
	sw	t3,0(s6)
.LBE247:
.LBB248:
	.loc 1 315 3575 is_stmt 1
.LVL185:
	.loc 1 315 3802
	.loc 1 315 3818 is_stmt 0
	lw	t4,44(sp)
	.loc 1 315 3945
	li	a7,7
	.loc 1 315 3818
	sw	a6,0(t4)
	.loc 1 315 3929 is_stmt 1
	.loc 1 315 3945 is_stmt 0
	sw	a7,0(s2)
	.loc 1 315 3951 is_stmt 1
	.loc 1 315 3968 is_stmt 0
	sw	s3,0(t6)
	.loc 1 315 0 is_stmt 1
	lw	a7,12(sp)
	sw	zero,0(a7)
	.loc 1 315 0
	li	a7,16
	sw	a7,0(a0)
	.loc 1 315 0
	sw	s4,0(a1)
	.loc 1 315 0
	li	a7,63
	sw	a7,0(t1)
	.loc 1 315 0
	sw	zero,0(a2)
	.loc 1 315 0
	li	a7,4
	sw	a7,0(a3)
	.loc 1 315 0
	sw	s4,0(a4)
	.loc 1 315 0
	li	a7,15
	sw	a7,0(s0)
	.loc 1 315 0
	sw	zero,0(a5)
	.loc 1 315 0
	sw	s5,0(s10)
	.loc 1 315 0
	sw	s4,0(s9)
	.loc 1 315 0
	sw	s4,0(s8)
	.loc 1 315 0
	sw	zero,0(s7)
	.loc 1 315 0
.LVL186:
	.loc 1 315 0
	sw	zero,0(s1)
	.loc 1 315 0
	.loc 1 315 0
	lw	t2,56(sp)
	sw	t2,0(s6)
.LBE248:
	.loc 1 315 0
	.loc 1 315 0
	lw	a7,28(sp)
	lw	t2,40(sp)
	sw	t2,0(a7)
.LBB249:
	.loc 1 319 3
.LVL187:
	.loc 1 319 230
	.loc 1 319 246 is_stmt 0
	sw	a6,0(t4)
	.loc 1 319 357 is_stmt 1
	.loc 1 319 373 is_stmt 0
	li	a6,7
	sw	a6,0(s2)
	.loc 1 319 379 is_stmt 1
	.loc 1 319 396 is_stmt 0
	sw	t6,16(sp)
	sw	s3,0(t6)
	.loc 1 319 532 is_stmt 1
	.loc 1 319 549 is_stmt 0
	lw	t2,12(sp)
	.loc 1 319 677
	li	s3,16
	.loc 1 319 804
	li	a6,63
	.loc 1 319 549
	sw	zero,0(t2)
	.loc 1 319 660 is_stmt 1
	.loc 1 319 677 is_stmt 0
	sw	s3,0(a0)
	.loc 1 319 764 is_stmt 1
	.loc 1 319 781 is_stmt 0
	sw	s4,0(a1)
	.loc 1 319 787 is_stmt 1
	.loc 1 319 804 is_stmt 0
	sw	a6,0(t1)
	.loc 1 319 919 is_stmt 1
	.loc 1 319 936 is_stmt 0
	sw	zero,0(a2)
	.loc 1 319 1023 is_stmt 1
	.loc 1 319 1040 is_stmt 0
	li	s3,4
	sw	s3,0(a3)
	.loc 1 319 1109 is_stmt 1
	.loc 1 319 1126 is_stmt 0
	sw	s4,0(a4)
	.loc 1 319 1132 is_stmt 1
	.loc 1 319 1149 is_stmt 0
	li	a6,15
	sw	a6,0(s0)
	.loc 1 319 1240 is_stmt 1
	.loc 1 319 1257 is_stmt 0
	sw	zero,0(a5)
	.loc 1 319 1326 is_stmt 1
	.loc 1 319 1342 is_stmt 0
	sw	s5,0(s10)
	.loc 1 319 1353 is_stmt 1
.LBE249:
.LBB250:
	.loc 1 315 1369 is_stmt 0
	li	a6,3
.LBE250:
.LBB251:
	.loc 1 319 1369
	sw	a6,0(s9)
	.loc 1 319 1375 is_stmt 1
	.loc 1 319 1392 is_stmt 0
	sw	a6,0(s8)
	.loc 1 319 1461 is_stmt 1
	.loc 1 319 1478 is_stmt 0
	sw	zero,0(s7)
	.loc 1 319 1487 is_stmt 1
.LVL188:
	.loc 1 319 1770
	.loc 1 319 1786 is_stmt 0
	sw	zero,0(s1)
	.loc 1 319 1815 is_stmt 1
	.loc 1 319 1816
	.loc 1 319 1833 is_stmt 0
	lw	s3,20(sp)
.LBE251:
.LBB252:
	.loc 1 315 1833
	li	t6,512
.LBE252:
.LBB253:
	.loc 1 319 1984
	li	a7,4096
.LBE253:
.LBB254:
	.loc 1 319 1833
	sw	t6,0(s3)
	.loc 1 319 1872 is_stmt 1
	.loc 1 319 1889 is_stmt 0
	sw	t5,0(s6)
.LBE254:
.LBB255:
	.loc 1 319 1922 is_stmt 1
.LVL189:
	.loc 1 319 1967
	.loc 1 319 1984 is_stmt 0
	sw	a7,0(a3)
	.loc 1 319 1996 is_stmt 1
	.loc 1 319 2013 is_stmt 0
	sw	a6,0(a4)
	.loc 1 319 2019 is_stmt 1
	.loc 1 319 2036 is_stmt 0
	sw	s11,0(s0)
	.loc 1 319 2064 is_stmt 1
	.loc 1 319 2081 is_stmt 0
	sw	zero,0(a5)
	.loc 1 319 2093 is_stmt 1
.LBE255:
.LBB256:
	.loc 1 315 2232 is_stmt 0
	li	s3,511
	.loc 1 315 2168
	li	t5,64
.LBE256:
.LBB257:
	.loc 1 319 2110
	sw	a6,0(a1)
	.loc 1 319 2151 is_stmt 1
	.loc 1 319 2168 is_stmt 0
	sw	t5,0(a0)
	.loc 1 319 2215 is_stmt 1
	.loc 1 319 2232 is_stmt 0
	sw	s3,0(t1)
	.loc 1 319 2237 is_stmt 1
	.loc 1 319 2254 is_stmt 0
	sw	zero,0(a2)
	.loc 1 319 2257 is_stmt 1
	.loc 1 319 2273 is_stmt 0
	sw	a6,0(s9)
	.loc 1 319 2344 is_stmt 1
.LBE257:
.LBB258:
	.loc 1 315 2360 is_stmt 0
	li	a7,8
.LBE258:
.LBB259:
	.loc 1 319 2360
	sw	a7,0(s10)
	.loc 1 319 2386 is_stmt 1
	.loc 1 319 2403 is_stmt 0
	sw	s3,0(s8)
	.loc 1 319 2408 is_stmt 1
	.loc 1 319 2425 is_stmt 0
	sw	zero,0(s7)
	.loc 1 319 2428 is_stmt 1
	.loc 1 319 2444 is_stmt 0
	li	s5,7
	sw	s5,0(s2)
	.loc 1 319 2482 is_stmt 1
	.loc 1 319 2498 is_stmt 0
	sw	t4,44(sp)
.LBE259:
.LBB260:
	.loc 1 315 1342
	li	s5,1
.LBE260:
.LBB261:
	.loc 1 319 2498
	sw	s5,0(t4)
	.loc 1 319 2509 is_stmt 1
	.loc 1 319 2526 is_stmt 0
	lw	s4,16(sp)
	.loc 1 319 2567
	li	a7,524288
	addi	a7,a7,552
	.loc 1 319 2526
	sw	s3,0(s4)
	.loc 1 319 2531 is_stmt 1
	.loc 1 319 2548 is_stmt 0
	sw	t2,12(sp)
	sw	zero,0(t2)
	.loc 1 319 2551 is_stmt 1
	.loc 1 319 2567 is_stmt 0
	sw	a7,0(s1)
	.loc 1 319 2699 is_stmt 1
	.loc 1 319 2716 is_stmt 0
	lw	s4,52(sp)
.LBE261:
	.loc 1 319 2765
	li	a7,458752
	addi	a7,a7,17
.LBB262:
	.loc 1 319 2716
	sw	s4,0(s6)
.LBE262:
	.loc 1 319 2748 is_stmt 1
	.loc 1 319 2749
	.loc 1 319 2765 is_stmt 0
	lw	s4,28(sp)
	sw	a7,0(s4)
.LBB263:
	.loc 1 319 2853 is_stmt 1
.LVL190:
	.loc 1 319 3017
	.loc 1 319 3034 is_stmt 0
	lw	s4,84(sp)
	sw	s4,0(a0)
	.loc 1 319 3051 is_stmt 1
	.loc 1 319 3068 is_stmt 0
	sw	zero,0(a1)
	.loc 1 319 3074 is_stmt 1
	.loc 1 319 3113 is_stmt 0
	addi	a7,s4,-1
	.loc 1 319 3091
	sw	a7,0(t1)
	.loc 1 319 3116 is_stmt 1
	.loc 1 319 3133 is_stmt 0
	lw	s4,172(sp)
	sw	s4,0(a2)
	.loc 1 319 3150 is_stmt 1
	.loc 1 319 3167 is_stmt 0
	lw	a7,32(sp)
	sw	a7,0(a3)
	.loc 1 319 3180 is_stmt 1
.LBE263:
.LBB264:
	.loc 1 315 3195 is_stmt 0
	li	a7,31
.LBE264:
.LBB265:
	.loc 1 319 3197
	sw	a7,0(a4)
	.loc 1 319 3203 is_stmt 1
	.loc 1 319 3220 is_stmt 0
	lw	s4,60(sp)
	sw	s4,0(s0)
	.loc 1 319 3241 is_stmt 1
	.loc 1 319 3258 is_stmt 0
	lw	t4,24(sp)
	sw	t4,0(a5)
	.loc 1 319 3271 is_stmt 1
	.loc 1 319 3287 is_stmt 0
	sw	s5,0(s10)
	.loc 1 319 3298 is_stmt 1
.LBE265:
.LBB266:
	.loc 1 315 3312 is_stmt 0
	li	t4,15
.LBE266:
.LBB267:
	.loc 1 319 3314
	sw	t4,0(s9)
	.loc 1 319 3320 is_stmt 1
	.loc 1 319 3337 is_stmt 0
	lw	t2,48(sp)
	sw	t2,0(s8)
	.loc 1 319 3350 is_stmt 1
	.loc 1 319 3367 is_stmt 0
	lw	a7,72(sp)
	sw	a7,0(s7)
	.loc 1 319 3376 is_stmt 1
.LVL191:
	.loc 1 319 3423
	.loc 1 319 3444 is_stmt 0
	lw	a7,36(sp)
	lw	s4,28(a7)
	lw	a7,144(sp)
	addi	a7,a7,-1
	sub	a7,a7,t2
	add	a7,a7,s4
	.loc 1 319 3439
	sw	a7,0(s1)
	.loc 1 319 3477 is_stmt 1
	.loc 1 319 3478
	.loc 1 319 3495 is_stmt 0
	lw	s4,20(sp)
	sw	t6,0(s4)
	.loc 1 319 3527 is_stmt 1
	.loc 1 319 3544 is_stmt 0
	sw	t3,0(s6)
.LBE267:
.LBB268:
	.loc 1 319 3577 is_stmt 1
.LVL192:
	.loc 1 319 3804
	.loc 1 319 3820 is_stmt 0
	lw	a7,44(sp)
	sw	t5,0(a7)
	.loc 1 319 3931 is_stmt 1
	.loc 1 319 3947 is_stmt 0
	li	t5,7
	sw	t5,0(s2)
	.loc 1 319 3953 is_stmt 1
	.loc 1 319 3970 is_stmt 0
	lw	t6,16(sp)
.LBE268:
.LBB269:
	.loc 1 315 0
	li	a7,16
.LBE269:
.LBB270:
	.loc 1 319 3970
	sw	s3,0(t6)
	.loc 1 319 0 is_stmt 1
	lw	t3,12(sp)
	sw	zero,0(t3)
	.loc 1 319 0
	sw	a7,0(a0)
	.loc 1 319 0
	sw	a6,0(a1)
	.loc 1 319 0
.LBE270:
.LBB271:
	.loc 1 315 0 is_stmt 0
	li	a1,63
.LBE271:
.LBB272:
	.loc 1 319 0
	sw	a1,0(t1)
	.loc 1 319 0 is_stmt 1
	sw	zero,0(a2)
	.loc 1 319 0
.LBE272:
.LBB273:
	.loc 1 315 0 is_stmt 0
	li	a2,4
.LBE273:
.LBB274:
	.loc 1 319 0
	sw	a2,0(a3)
	.loc 1 319 0 is_stmt 1
	sw	a6,0(a4)
	.loc 1 319 0
	sw	t4,0(s0)
	.loc 1 319 0
	sw	zero,0(a5)
	.loc 1 319 0
	sw	s5,0(s10)
	.loc 1 319 0
	sw	a6,0(s9)
	.loc 1 319 0
	sw	a6,0(s8)
	.loc 1 319 0
	sw	zero,0(s7)
	.loc 1 319 0
.LVL193:
	.loc 1 319 0
	sw	zero,0(s1)
	.loc 1 319 0
	.loc 1 319 0
	lw	t2,56(sp)
	sw	t2,0(s6)
.LBE274:
	.loc 1 319 0
	.loc 1 319 0
	lw	a7,28(sp)
	lw	t2,40(sp)
	sw	t2,0(a7)
.LVL194:
.L10:
	.loc 1 226 26 discriminator 2
	.loc 1 226 17 is_stmt 0 discriminator 1
	lw	a4,48(sp)
	.loc 1 226 26 discriminator 2
	lw	a5,96(sp)
	.loc 1 226 17 discriminator 1
	addi	a4,a4,-14
	sw	a4,48(sp)
	lw	a4,88(sp)
	.loc 1 226 26 discriminator 2
	addi	a5,a5,1
	sw	a5,96(sp)
.LVL195:
	.loc 1 226 17 is_stmt 1 discriminator 1
	addi	a4,a4,14
	sw	a4,88(sp)
	lw	a4,152(sp)
	bgt	a4,a5,.L28
	j	.L8
.LVL196:
.L2:
	.cfi_restore 9
	.cfi_restore 18
	.cfi_restore 19
	.cfi_restore 20
	.cfi_restore 21
	.cfi_restore 22
	.cfi_restore 23
	.cfi_restore 24
	.cfi_restore 25
	.cfi_restore 26
	.cfi_restore 27
	.loc 1 201 7
	.loc 1 201 9 is_stmt 0
	li	a5,32
	ble	s0,a5,.L1
	.loc 1 203 7 is_stmt 1
	.loc 1 203 11 is_stmt 0
	srai	a5,a4,6
	sw	a5,184(sp)
.LVL197:
	.loc 1 204 7 is_stmt 1
	j	.L3
.LVL198:
.L25:
	.loc 1 199 26 is_stmt 0 discriminator 1
	srai	a5,a4,6
	sw	a5,196(sp)
	j	.L3
	.cfi_endproc
.LFE1:
	.size	of_phase_1, .-of_phase_1
	.align	2
	.type	of_phase_0, @function
of_phase_0:
.LFB0:
	.loc 1 52 42 is_stmt 1
	.cfi_startproc
.LVL199:
	.loc 1 53 4
	.loc 1 52 42 is_stmt 0
	addi	sp,sp,-240
	.cfi_def_cfa_offset 240
	sw	s2,224(sp)
	sw	ra,236(sp)
	sw	s0,232(sp)
	sw	s1,228(sp)
	sw	s3,220(sp)
	sw	s4,216(sp)
	sw	s5,212(sp)
	.cfi_offset 18, -16
	.cfi_offset 1, -4
	.cfi_offset 8, -8
	.cfi_offset 9, -12
	.cfi_offset 19, -20
	.cfi_offset 20, -24
	.cfi_offset 21, -28
	.loc 1 71 14
	lw	s1,40(a0)
	.loc 1 64 9
	lw	s3,52(a0)
	.loc 1 65 9
	lw	s4,56(a0)
	.loc 1 71 20
	addi	a4,s1,31
	.loc 1 71 9
	srai	a5,a4,31
	andi	a5,a5,31
	add	a5,a5,a4
	.loc 1 70 14
	lw	s5,36(a0)
	.loc 1 52 42
	mv	t5,a0
.LVL200:
	.loc 1 54 4 is_stmt 1
	.loc 1 55 4
	.loc 1 56 4
	.loc 1 57 4
	.loc 1 58 4
	.loc 1 59 4
	.loc 1 60 4
	.loc 1 61 4
	.loc 1 62 4
	.loc 1 64 4
	.loc 1 65 4
	.loc 1 66 4
	.loc 1 67 4
	.loc 1 68 4
	.loc 1 69 4
	.loc 1 70 4
	.loc 1 71 4
	.loc 1 71 9 is_stmt 0
	srai	s2,a5,5
.LVL201:
	.loc 1 72 4 is_stmt 1
	.loc 1 73 4
	.loc 1 73 6 is_stmt 0
	bne	a1,zero,.L30
	.loc 1 75 26
	li	a5,63
	mv	s0,a1
	.loc 1 74 7 is_stmt 1
.LVL202:
	.loc 1 75 7
	.loc 1 75 26 is_stmt 0
	bgt	a4,a5,.L49
.LVL203:
.L31:
	.loc 1 84 18
	li	a3,1015808000
	sw	t5,8(sp)
.LVL204:
	.loc 1 84 1 is_stmt 1
	.loc 1 84 2
	.loc 1 84 18 is_stmt 0
	li	a4,-2147483648
.LVL205:
	addi	a3,a3,4
	sw	a3,20(a4)
	.loc 1 85 4 is_stmt 1
	li	a5,-2147483648
	sw	zero,36(a5)
	.loc 1 85 4
	call	_taskYield
.LVL206:
	.loc 1 85 18 discriminator 1
	.loc 1 87 4
	.loc 1 87 16 is_stmt 0
	lw	t5,8(sp)
	lw	a3,44(t5)
	.loc 1 87 12
	lw	a5,48(t5)
	.loc 1 92 12
	lw	a0,0(t5)
	.loc 1 90 19
	mul	a4,a3,s4
	.loc 1 94 12
	lw	a1,4(t5)
	.loc 1 97 14
	lw	t1,8(t5)
	.loc 1 98 14
	lw	a7,12(t5)
	.loc 1 99 14
	lw	a6,16(t5)
	.loc 1 87 12
	mul	a5,a3,a5
.LVL207:
	.loc 1 88 4 is_stmt 1
	.loc 1 89 4
	.loc 1 90 4
	sub	a2,a4,a3
	.loc 1 92 12 is_stmt 0
	add	a0,a2,a0
.LVL208:
	.loc 1 94 12
	add	a2,a2,a1
	.loc 1 92 12
	sw	a0,136(sp)
	.loc 1 94 12
	sw	a2,140(sp)
	.loc 1 90 12
	sub	a5,a5,a4
.LVL209:
	.loc 1 91 4 is_stmt 1
	.loc 1 92 4
	.loc 1 93 4
	.loc 1 94 4
	.loc 1 96 4
	.loc 1 96 12 is_stmt 0
	add	a5,a3,a5
.LVL210:
	sw	a5,80(sp)
.LVL211:
	.loc 1 97 4 is_stmt 1
	.loc 1 98 4
	.loc 1 99 4
	.loc 1 101 4
	.loc 1 101 17 discriminator 1
	bge	s0,s2,.L29
	.loc 1 70 20 is_stmt 0
	addi	a3,s5,14
	.loc 1 70 9
	li	a4,15
	div	a4,a3,a4
	.loc 1 72 25
	addi	s1,s1,3
.LVL212:
	.loc 1 72 5
	srai	a5,s1,31
.LVL213:
	andi	a5,a5,3
	add	a5,a5,s1
	srai	a5,a5,2
	.loc 1 70 9
	sw	a4,156(sp)
.LBB275:
	.loc 1 159 2674
	srli	a4,t1,1
	sw	a4,144(sp)
.LBE275:
.LBB276:
	.loc 1 162 2674
	srli	a4,a7,1
	sw	a4,148(sp)
.LBE276:
.LBB277:
	.loc 1 165 2674
	srli	a4,a6,1
	sw	a4,152(sp)
	ble	s5,zero,.L29
	slli	a4,s0,3
	sub	a5,a5,a4
	sw	s6,208(sp)
	sw	s7,204(sp)
	sw	s8,200(sp)
	sw	s9,196(sp)
	sw	s10,192(sp)
	sw	s11,188(sp)
	.cfi_offset 22, -32
	.cfi_offset 23, -36
	.cfi_offset 24, -40
	.cfi_offset 25, -44
	.cfi_offset 26, -48
	.cfi_offset 27, -52
	sw	a5,48(sp)
	sw	s3,32(sp)
	.loc 1 165 2674
	sw	zero,36(sp)
	mv	s1,a5
.LVL214:
.LBE277:
	.loc 1 102 17 is_stmt 1 discriminator 1
	bne	s0,zero,.L47
.LBB278:
	.loc 1 113 105 is_stmt 0
	li	a5,16384
	addi	a5,a5,-1
	.loc 1 113 601
	li	a4,524288
.LBE278:
.LBB279:
	.loc 1 107 871
	li	a3,1032192
.LBE279:
.LBB280:
	.loc 1 113 105
	sw	a5,24(sp)
	.loc 1 113 601
	addi	a5,a4,8
	sw	a5,68(sp)
.LBE280:
.LBB281:
	.loc 1 107 871
	addi	a5,a3,159
	sw	a5,40(sp)
	lw	a5,36(sp)
.LVL215:
.LBE281:
	.loc 1 103 10 is_stmt 1
	.loc 1 105 10
.LBB282:
	.loc 1 113 54 is_stmt 0
	li	t2,-2147483648
	.loc 1 113 82
	li	a6,-2147483648
.LVL216:
	.loc 1 113 435
	li	a7,-2147479552
.LVL217:
	.loc 1 113 601
	li	t3,-2147483648
	.loc 1 113 871
	li	t4,-2147479552
	.loc 1 113 54
	addi	t2,t2,800
	.loc 1 113 82
	addi	a6,a6,928
	.loc 1 113 435
	addi	a7,a7,-1760
	.loc 1 113 601
	addi	t3,t3,544
	.loc 1 113 871
	addi	t4,t4,-1632
	sw	s2,100(sp)
	sw	s3,104(sp)
	sw	s1,108(sp)
	sw	s0,112(sp)
	mv	s5,t5
.LVL218:
	mv	s3,t2
.LVL219:
	mv	s4,a6
.LVL220:
	mv	s1,a7
	mv	s2,t3
.LVL221:
	mv	s0,t4
.LVL222:
.LBE282:
	.loc 1 105 12
	beq	a5,zero,.L39
.LVL223:
.L51:
.LBB283:
	.loc 1 107 3 is_stmt 1
	.loc 1 107 38
	.loc 1 107 54 is_stmt 0
	li	t6,4096
	sw	t6,0(s3)
	.loc 1 107 66 is_stmt 1
	.loc 1 107 82 is_stmt 0
	sw	zero,0(s4)
	.loc 1 107 88 is_stmt 1
	.loc 1 107 105 is_stmt 0
	lw	a5,24(sp)
.LVL224:
	li	t3,-2147483648
	.loc 1 107 150
	li	t1,-2147479552
	.loc 1 107 105
	sw	a5,1440(t3)
	.loc 1 107 133 is_stmt 1
	.loc 1 107 150 is_stmt 0
	sw	zero,-1248(t1)
	.loc 1 107 162 is_stmt 1
	.loc 1 107 179 is_stmt 0
	li	t5,-2147483648
	li	s8,5
	sw	s8,1824(t5)
	.loc 1 107 224 is_stmt 1
	.loc 1 107 241 is_stmt 0
	li	t4,48
	li	a7,-2147483648
	sw	t4,1696(a7)
	.loc 1 107 287 is_stmt 1
	.loc 1 107 304 is_stmt 0
	li	a5,287
	li	a6,-2147483648
	sw	a5,1952(a6)
	.loc 1 107 309 is_stmt 1
	.loc 1 107 326 is_stmt 0
	li	a0,-2147479552
	sw	zero,-1120(a0)
	.loc 1 107 329 is_stmt 1
	.loc 1 107 346 is_stmt 0
	li	a1,-2147479552
	sw	zero,-1888(a1)
	.loc 1 107 375 is_stmt 1
	.loc 1 107 392 is_stmt 0
	li	t2,-2147479552
	li	s7,8
	sw	s7,-2016(t2)
	.loc 1 107 418 is_stmt 1
	.loc 1 107 435 is_stmt 0
	sw	a5,0(s1)
	.loc 1 107 440 is_stmt 1
	.loc 1 107 457 is_stmt 0
	li	a2,-2147479552
	sw	zero,-992(a2)
	.loc 1 107 460 is_stmt 1
	.loc 1 107 476 is_stmt 0
	li	t0,-2147483648
	li	s6,7
	sw	s6,672(t0)
	.loc 1 107 516 is_stmt 1
	.loc 1 107 532 is_stmt 0
	li	s11,-2147483648
	li	s9,1
	sw	s9,1056(s11)
	.loc 1 107 543 is_stmt 1
	.loc 1 107 560 is_stmt 0
	li	a3,-2147483648
	sw	a5,1568(a3)
	.loc 1 107 565 is_stmt 1
	.loc 1 107 582 is_stmt 0
	li	a4,-2147479552
	sw	zero,-864(a4)
	.loc 1 107 585 is_stmt 1
	.loc 1 107 601 is_stmt 0
	lw	ra,68(sp)
	.loc 1 107 733
	li	s10,-2147479552
	.loc 1 107 601
	sw	ra,0(s2)
	.loc 1 107 716 is_stmt 1
	.loc 1 107 733 is_stmt 0
	sw	s10,8(sp)
	sw	t4,-736(s10)
	.loc 1 107 854 is_stmt 1
	.loc 1 107 871 is_stmt 0
	lw	s9,40(sp)
.LBE283:
.LBB284:
	.loc 1 107 1020
	li	s10,4096
	addi	ra,s10,-1
.LBE284:
.LBB285:
	.loc 1 107 871
	sw	s9,0(s0)
.LBE285:
.LBB286:
	.loc 1 107 904 is_stmt 1
.LVL225:
	.loc 1 107 953
	.loc 1 107 969 is_stmt 0
	sw	t6,0(s3)
	.loc 1 107 981 is_stmt 1
	.loc 1 107 997 is_stmt 0
	sw	zero,0(s4)
	.loc 1 107 1003 is_stmt 1
	.loc 1 107 1020 is_stmt 0
	sw	ra,1440(t3)
	.loc 1 107 1048 is_stmt 1
	.loc 1 107 1065 is_stmt 0
	li	s10,12288
	sw	s10,-1248(t1)
	.loc 1 107 1077 is_stmt 1
	.loc 1 107 1094 is_stmt 0
	sw	s8,1824(t5)
	.loc 1 107 1139 is_stmt 1
	.loc 1 107 1156 is_stmt 0
	sw	t4,1696(a7)
	.loc 1 107 1202 is_stmt 1
	.loc 1 107 1219 is_stmt 0
	sw	a5,1952(a6)
	.loc 1 107 1224 is_stmt 1
	.loc 1 107 1241 is_stmt 0
	sw	zero,-1120(a0)
	.loc 1 107 1244 is_stmt 1
	.loc 1 107 1261 is_stmt 0
	sw	zero,-1888(a1)
	.loc 1 107 1320 is_stmt 1
	.loc 1 107 1337 is_stmt 0
	sw	s7,-2016(t2)
	.loc 1 107 1363 is_stmt 1
	.loc 1 107 1380 is_stmt 0
	sw	a5,0(s1)
	.loc 1 107 1385 is_stmt 1
	.loc 1 107 1402 is_stmt 0
	sw	zero,-992(a2)
	.loc 1 107 1405 is_stmt 1
	.loc 1 107 1421 is_stmt 0
	sw	s6,672(t0)
	.loc 1 107 1461 is_stmt 1
	.loc 1 107 1477 is_stmt 0
	li	s9,1
	sw	s9,1056(s11)
	.loc 1 107 1488 is_stmt 1
	.loc 1 107 1505 is_stmt 0
	sw	a5,1568(a3)
	.loc 1 107 1510 is_stmt 1
	.loc 1 107 1546 is_stmt 0
	li	s9,536576
	.loc 1 107 1527
	sw	zero,-864(a4)
	.loc 1 107 1530 is_stmt 1
	.loc 1 107 1546 is_stmt 0
	addi	s9,s9,32
	.loc 1 107 1692
	li	ra,1032192
	.loc 1 107 1546
	sw	s9,0(s2)
	.loc 1 107 1675 is_stmt 1
	.loc 1 107 1692 is_stmt 0
	addi	s9,ra,157
	mv	ra,s9
.LBE286:
	.loc 1 107 1741
	li	s9,393216
.LBB287:
	.loc 1 107 1692
	sw	ra,0(s0)
.LBE287:
	.loc 1 107 1724 is_stmt 1
	.loc 1 107 1725
	.loc 1 107 1741 is_stmt 0
	li	s10,-2147483648
	addi	s9,s9,1
	sw	s9,20(s10)
.LBB288:
	.loc 1 110 3 is_stmt 1
.LVL226:
	.loc 1 110 38
	.loc 1 110 54 is_stmt 0
	sw	t6,0(s3)
	.loc 1 110 66 is_stmt 1
	.loc 1 110 82 is_stmt 0
	sw	zero,0(s4)
	.loc 1 110 88 is_stmt 1
	.loc 1 110 105 is_stmt 0
	lw	s9,24(sp)
	sw	s9,1440(t3)
	.loc 1 110 133 is_stmt 1
	.loc 1 110 150 is_stmt 0
	sw	zero,-1248(t1)
	.loc 1 110 162 is_stmt 1
	.loc 1 110 179 is_stmt 0
	sw	s8,1824(t5)
	.loc 1 110 224 is_stmt 1
	.loc 1 110 241 is_stmt 0
	sw	t4,1696(a7)
	.loc 1 110 287 is_stmt 1
	.loc 1 110 304 is_stmt 0
	sw	a5,1952(a6)
	.loc 1 110 309 is_stmt 1
	.loc 1 110 326 is_stmt 0
	sw	zero,-1120(a0)
	.loc 1 110 329 is_stmt 1
	.loc 1 110 346 is_stmt 0
	sw	zero,-1888(a1)
	.loc 1 110 375 is_stmt 1
	.loc 1 110 392 is_stmt 0
	sw	s7,-2016(t2)
	.loc 1 110 418 is_stmt 1
	.loc 1 110 435 is_stmt 0
	sw	a5,0(s1)
	.loc 1 110 440 is_stmt 1
	.loc 1 110 457 is_stmt 0
	sw	zero,-992(a2)
	.loc 1 110 460 is_stmt 1
	.loc 1 110 476 is_stmt 0
	sw	s6,672(t0)
	.loc 1 110 516 is_stmt 1
	.loc 1 110 532 is_stmt 0
	li	s9,1
	sw	s9,1056(s11)
	.loc 1 110 543 is_stmt 1
	.loc 1 110 560 is_stmt 0
	sw	a5,1568(a3)
	.loc 1 110 565 is_stmt 1
	.loc 1 110 601 is_stmt 0
	li	s9,524288
	.loc 1 110 582
	sw	zero,-864(a4)
	.loc 1 110 585 is_stmt 1
	.loc 1 110 601 is_stmt 0
	addi	s9,s9,296
	sw	s9,0(s2)
	.loc 1 110 718 is_stmt 1
	.loc 1 110 735 is_stmt 0
	lw	s9,8(sp)
	sw	t4,-736(s9)
	.loc 1 110 856 is_stmt 1
	.loc 1 110 873 is_stmt 0
	lw	s9,40(sp)
	sw	s9,0(s0)
.LBE288:
.LBB289:
	.loc 1 110 906 is_stmt 1
.LVL227:
	.loc 1 110 955
	.loc 1 110 971 is_stmt 0
	sw	t6,0(s3)
	.loc 1 110 983 is_stmt 1
	.loc 1 110 1022 is_stmt 0
	addi	t6,t6,-1
	.loc 1 110 999
	sw	zero,0(s4)
	.loc 1 110 1005 is_stmt 1
	.loc 1 110 1022 is_stmt 0
	sw	t6,1440(t3)
	.loc 1 110 1050 is_stmt 1
	.loc 1 110 1067 is_stmt 0
	li	t3,12288
	sw	t3,-1248(t1)
	.loc 1 110 1079 is_stmt 1
	.loc 1 110 1096 is_stmt 0
	sw	s8,1824(t5)
	.loc 1 110 1141 is_stmt 1
	.loc 1 110 1158 is_stmt 0
	sw	t4,1696(a7)
	.loc 1 110 1204 is_stmt 1
	.loc 1 110 1221 is_stmt 0
	sw	a5,1952(a6)
	.loc 1 110 1226 is_stmt 1
	.loc 1 110 1243 is_stmt 0
	sw	zero,-1120(a0)
	.loc 1 110 1246 is_stmt 1
	.loc 1 110 1263 is_stmt 0
	sw	zero,-1888(a1)
	.loc 1 110 1322 is_stmt 1
	.loc 1 110 1339 is_stmt 0
	sw	s7,-2016(t2)
	.loc 1 110 1365 is_stmt 1
	.loc 1 110 1382 is_stmt 0
	sw	a5,0(s1)
	.loc 1 110 1387 is_stmt 1
	.loc 1 110 1404 is_stmt 0
	sw	zero,-992(a2)
	.loc 1 110 1407 is_stmt 1
	.loc 1 110 1423 is_stmt 0
	sw	s6,672(t0)
	.loc 1 110 1463 is_stmt 1
	.loc 1 110 1479 is_stmt 0
	li	a2,1
	sw	a2,1056(s11)
	.loc 1 110 1490 is_stmt 1
	.loc 1 110 1507 is_stmt 0
	sw	a5,1568(a3)
	.loc 1 110 1512 is_stmt 1
	.loc 1 110 1548 is_stmt 0
	li	a5,536576
	.loc 1 110 1529
	sw	zero,-864(a4)
	.loc 1 110 1532 is_stmt 1
	.loc 1 110 1548 is_stmt 0
	addi	a5,a5,320
	sw	a5,0(s2)
	.loc 1 110 1679 is_stmt 1
.LBE289:
	.loc 1 110 1745 is_stmt 0
	li	a5,393216
.LBB290:
	.loc 1 110 1696
	sw	ra,0(s0)
.LBE290:
	.loc 1 110 1728 is_stmt 1
	.loc 1 110 1729
	.loc 1 110 1745 is_stmt 0
	addi	a5,a5,9
	sw	a5,20(s10)
.LVL228:
.L40:
	.loc 1 117 1 is_stmt 1
	.loc 1 117 2
	.loc 1 117 18 is_stmt 0
	li	a5,-2147483648
	addi	t3,a5,20
	sw	t3,20(sp)
	li	a5,88
	sw	a5,0(t3)
.LBB291:
	.loc 1 122 3 is_stmt 1
.LVL229:
	.loc 1 122 204
	.loc 1 122 220 is_stmt 0
	li	a5,96
	sw	a5,0(s3)
	.loc 1 122 305 is_stmt 1
	.loc 1 122 321 is_stmt 0
	li	a3,7
	.loc 1 122 344
	li	a5,-2147483648
	.loc 1 122 321
	sw	a3,0(s4)
	.loc 1 122 327 is_stmt 1
	.loc 1 122 344 is_stmt 0
	addi	a7,a5,1440
	sw	a7,8(sp)
	li	a2,767
	sw	a2,1440(a5)
	.loc 1 122 454 is_stmt 1
	.loc 1 122 471 is_stmt 0
	li	a1,-2147479552
	sw	a1,12(sp)
	sw	zero,-1248(a1)
	.loc 1 122 556 is_stmt 1
	.loc 1 122 573 is_stmt 0
	addi	a5,a5,1696
	.loc 1 122 649
	li	a0,-2147483648
	.loc 1 122 573
	li	a4,16
	sw	a4,0(a5)
	.loc 1 122 632 is_stmt 1
	.loc 1 122 649 is_stmt 0
	addi	a0,a0,1824
	.loc 1 122 672
	li	t1,-2147483648
	.loc 1 122 649
	li	a6,5
	sw	a6,0(a0)
	.loc 1 122 655 is_stmt 1
	.loc 1 122 672 is_stmt 0
	addi	t1,t1,1952
	li	a6,95
	.loc 1 122 854
	li	s9,-2147479552
	.loc 1 122 778
	li	s10,-2147479552
	.loc 1 122 672
	sw	a6,0(t1)
	.loc 1 122 761 is_stmt 1
	.loc 1 122 854 is_stmt 0
	addi	s9,s9,-2016
	.loc 1 122 778
	sw	zero,-1120(s10)
	.loc 1 122 837 is_stmt 1
	.loc 1 122 912 is_stmt 0
	li	a2,-2147479552
	.loc 1 122 854
	li	a6,4
	.loc 1 122 912
	li	s6,3
	.loc 1 122 854
	sw	a6,0(s9)
	.loc 1 122 895 is_stmt 1
	.loc 1 122 912 is_stmt 0
	sw	s6,-1888(a2)
	.loc 1 122 918 is_stmt 1
	.loc 1 122 935 is_stmt 0
	li	a6,15
	.loc 1 122 1015
	li	s8,-2147479552
	.loc 1 122 1072
	li	t5,-2147483648
	.loc 1 122 935
	sw	a6,0(s1)
	.loc 1 122 998 is_stmt 1
	.loc 1 122 1072 is_stmt 0
	li	s11,1
	addi	t5,t5,1056
	.loc 1 122 1015
	sw	zero,-992(s8)
	.loc 1 122 1056 is_stmt 1
	.loc 1 122 1099 is_stmt 0
	li	s7,-2147483648
	.loc 1 122 1122
	li	t0,-2147483648
	.loc 1 122 1072
	sw	s11,0(t5)
	.loc 1 122 1083 is_stmt 1
	.loc 1 122 1122 is_stmt 0
	addi	t0,t0,1568
	.loc 1 122 1180
	li	t2,-2147479552
	.loc 1 122 1099
	sw	s6,672(s7)
	.loc 1 122 1105 is_stmt 1
	.loc 1 122 1180 is_stmt 0
	addi	t2,t2,-864
	.loc 1 122 1122
	sw	s6,0(t0)
	.loc 1 122 1163 is_stmt 1
	.loc 1 122 1180 is_stmt 0
	sw	zero,0(t2)
	.loc 1 122 1189 is_stmt 1
.LVL230:
	.loc 1 122 1390
	.loc 1 122 1453 is_stmt 0
	li	t4,-2147479552
	.loc 1 122 1406
	sw	zero,0(s2)
	.loc 1 122 1435 is_stmt 1
	.loc 1 122 1436
	.loc 1 122 1453 is_stmt 0
	addi	t4,t4,-736
	sw	t4,16(sp)
	li	ra,768
	.loc 1 122 1509
	li	t6,1036288
	.loc 1 122 1453
	sw	ra,0(t4)
	.loc 1 122 1492 is_stmt 1
	.loc 1 122 1509 is_stmt 0
	addi	t6,t6,-1889
	sw	t6,0(s0)
.LBE291:
.LBB292:
	.loc 1 122 1542 is_stmt 1
.LVL231:
	.loc 1 122 1782 is_stmt 0
	lw	a6,44(s5)
	.loc 1 122 2003
	li	a1,67108864
	addi	ra,a1,-1
	.loc 1 122 1782
	slli	a1,a6,2
	.loc 1 122 1751
	sw	a1,0(a5)
	.loc 1 122 1804
	sw	a3,0(a0)
	.loc 1 122 1837
	lw	a1,44(s5)
	lw	t4,48(sp)
	.loc 1 122 2260
	li	a6,-2147479552
	.loc 1 122 2003
	mv	a7,ra
	.loc 1 122 1837
	mul	t3,t4,a1
	.loc 1 122 2289
	lw	ra,32(sp)
	.loc 1 122 2260
	mv	a4,a6
	.loc 1 122 2289
	lw	a6,80(sp)
	.loc 1 122 2260
	addi	a1,a4,-96
	.loc 1 122 2318
	mv	a4,ra
	.loc 1 122 2289
	sub	a6,a6,ra
	sw	a6,56(sp)
	.loc 1 122 2260
	sw	a1,60(sp)
	.loc 1 122 2318
	lw	a6,136(sp)
	.loc 1 122 1837
	slli	t3,t3,2
	.loc 1 122 1868
	addi	t3,t3,-1
	.loc 1 122 2318
	add	ra,a6,ra
	.loc 1 122 2365
	li	a6,1036288
	.loc 1 122 2318
	sw	ra,28(sp)
	.loc 1 122 2365
	addi	ra,a6,157
	sw	ra,64(sp)
	.loc 1 122 1827
	sw	t3,0(t1)
	.loc 1 122 1888
	sw	zero,-1120(s10)
	.loc 1 122 1958
	lw	t3,44(s5)
.LBE292:
	.loc 1 122 2414
	li	a6,393216
	addi	ra,a6,17
.LBB293:
	.loc 1 122 1941
	sw	t3,0(s9)
	.loc 1 122 1980
	li	a6,5
	sw	a6,-1888(a2)
	.loc 1 122 2003
	sw	a7,0(s1)
	.loc 1 122 2032
	sw	zero,-992(s8)
	.loc 1 122 2070
	sw	s11,0(t5)
	.loc 1 122 2097
	li	t3,15
	sw	t3,672(s7)
	.loc 1 122 2134
	lw	t3,44(s5)
.LBE293:
	.loc 1 122 2414
	mv	a1,ra
.LBB294:
	.loc 1 122 3122
	li	t4,524288
.LBE294:
.LBB295:
	.loc 1 122 2134
	addi	t3,t3,-1
	.loc 1 122 2136
	sub	t3,t3,a4
	.loc 1 122 2120
	sw	t3,0(t0)
	.loc 1 122 2159
	sw	a4,32(sp)
	sw	a4,0(t2)
	.loc 1 122 2260
	lw	a4,60(sp)
	lw	t3,56(sp)
.LBE295:
.LBB296:
	.loc 1 122 3122
	addi	t4,t4,16
.LBE296:
.LBB297:
	.loc 1 122 2003
	mv	ra,a7
	.loc 1 122 2260
	sw	t3,0(a4)
	.loc 1 122 2313
	lw	t3,28(sp)
.LBE297:
.LBB298:
	.loc 1 122 3404
	li	a7,1032192
.LBE298:
.LBB299:
	.loc 1 122 912
	addi	a2,a2,-1888
.LBE299:
.LBB300:
	.loc 1 122 2313
	sw	t3,0(s2)
	.loc 1 122 2365
	lw	t3,64(sp)
	sw	t3,0(s0)
.LBE300:
	.loc 1 122 2414
	lw	t3,20(sp)
	sw	a1,28(sp)
	sw	a1,0(t3)
.LBB301:
	.loc 1 122 2566
	li	a1,4096
	sw	a1,0(s9)
	.loc 1 122 2595
	sw	s6,0(a2)
	.loc 1 122 2618
	lw	a4,24(sp)
	.loc 1 122 3081
	li	a1,287
	.loc 1 122 2618
	sw	a4,0(s1)
	.loc 1 122 2663
	sw	zero,-992(s8)
	.loc 1 122 2692
	sw	a6,0(a0)
	.loc 1 122 2752
	li	a4,48
	sw	a4,0(a5)
	.loc 1 122 2815
	li	a4,287
	sw	a4,0(t1)
	.loc 1 122 2837
	sw	zero,-1120(s10)
	.loc 1 122 2856
	sw	s6,672(s7)
	.loc 1 122 2915
	li	a4,8
	sw	a4,0(t5)
	.loc 1 122 2958
	li	a4,287
	sw	a4,0(t0)
	.loc 1 122 2980
	sw	zero,0(t2)
	.loc 1 122 2999
	sw	a3,0(s4)
	.loc 1 122 3053
	sw	s11,0(s3)
	.loc 1 122 3081
	lw	a4,8(sp)
	sw	a1,0(a4)
	.loc 1 122 3103
	lw	a1,12(sp)
	.loc 1 122 3256
	li	a4,768
	.loc 1 122 3103
	sw	zero,-1248(a1)
	.loc 1 122 3122
	sw	t4,0(s2)
	.loc 1 122 3256
	lw	t4,16(sp)
	sw	a4,0(t4)
	.loc 1 122 3404
	addi	a4,a7,1183
	sw	a4,72(sp)
	sw	a4,0(s0)
.LBE301:
.LBB302:
	.loc 1 122 3654
	li	a4,96
	sw	a4,0(s3)
	.loc 1 122 3755
	sw	a3,0(s4)
	.loc 1 122 3778
	lw	a7,8(sp)
	li	a4,767
	sw	a4,0(a7)
	.loc 1 122 3905
	sw	zero,-1248(a1)
	.loc 1 122 4007
	li	a4,16
	sw	a4,0(a5)
	.loc 1 122 4083
	sw	a6,0(a0)
	.loc 1 122 0
	li	a4,95
	sw	a4,0(t1)
	sw	zero,-1120(s10)
	li	a4,4
	sw	a4,0(s9)
	sw	s6,0(a2)
	li	a4,15
	sw	a4,0(s1)
	sw	zero,-992(s8)
	sw	s11,0(t5)
	sw	s6,672(s7)
	sw	s6,0(t0)
	li	a7,1036288
	sw	zero,0(t2)
	sw	zero,0(s2)
	addi	a4,a7,-1891
	sw	a4,76(sp)
	sw	a4,0(s0)
.LBE302:
	lw	a4,28(sp)
	sw	t3,20(sp)
	sw	a4,0(t3)
.LBB303:
	.loc 1 125 220
	li	t3,96
	sw	t3,0(s3)
	.loc 1 125 321
	sw	a3,0(s4)
	.loc 1 125 344
	lw	a7,8(sp)
	li	t3,767
	.loc 1 125 935
	li	a4,15
	.loc 1 125 344
	sw	t3,0(a7)
	.loc 1 125 471
	sw	zero,-1248(a1)
	.loc 1 125 573
	li	t3,16
	sw	t3,0(a5)
	.loc 1 125 649
	sw	a6,0(a0)
	.loc 1 125 672
	li	t3,95
	sw	t3,0(t1)
	.loc 1 125 778
	sw	zero,-1120(s10)
	.loc 1 125 854
	li	t3,4
	sw	t3,0(s9)
	.loc 1 125 912
	sw	s6,0(a2)
	.loc 1 125 935
	sw	a4,0(s1)
	.loc 1 125 1015
	sw	zero,-992(s8)
	.loc 1 125 1072
	sw	s11,0(t5)
	.loc 1 125 1099
	sw	s6,672(s7)
	.loc 1 125 1122
	sw	s6,0(t0)
	.loc 1 125 1180
	sw	zero,0(t2)
	.loc 1 125 1406
	sw	zero,0(s2)
	.loc 1 125 1453
	sw	t4,16(sp)
	li	t3,768
	sw	t3,0(t4)
	.loc 1 125 1509
	sw	t6,0(s0)
.LBE303:
.LBB304:
	.loc 1 125 2318
	lw	t6,32(sp)
	.loc 1 125 1782
	lw	t3,44(s5)
	.loc 1 125 2318
	lw	a7,140(sp)
	.loc 1 125 1782
	slli	t3,t3,2
	.loc 1 125 2318
	add	a7,a7,t6
.LBE304:
.LBB305:
	.loc 1 125 3122
	li	t6,524288
.LBE305:
.LBB306:
	.loc 1 125 1751
	sw	t3,0(a5)
.LBE306:
.LBB307:
	.loc 1 125 3122
	addi	t6,t6,304
.LBE307:
.LBB308:
	.loc 1 125 1804
	sw	a3,0(a0)
	.loc 1 125 1837
	lw	t4,44(s5)
.LBE308:
.LBB309:
	.loc 1 125 3122
	sw	t6,84(sp)
.LBE309:
.LBB310:
	.loc 1 125 1837
	lw	t6,48(sp)
.LBE310:
.LBB311:
	.loc 1 131 86
	li	t3,2
.LBE311:
.LBB312:
	.loc 1 125 1837
	mul	t4,t6,t4
.LBE312:
.LBB313:
	.loc 1 131 633
	li	t6,524288
	addi	t6,t6,48
	sw	t6,88(sp)
.LBE313:
.LBB314:
	.loc 1 131 1090
	li	t6,12288
	addi	t6,t6,-1
	sw	t6,52(sp)
	.loc 1 131 1590
	li	t6,528384
	addi	t6,t6,16
	sw	t6,92(sp)
	.loc 1 131 1724
	li	t6,1032192
	addi	t6,t6,157
.LBE314:
.LBB315:
	.loc 1 125 1837
	slli	t4,t4,2
.LBE315:
.LBB316:
	.loc 1 131 1724
	sw	t6,44(sp)
.LBE316:
.LBB317:
	.loc 1 125 1868
	addi	t4,t4,-1
	.loc 1 125 1827
	sw	t4,0(t1)
	.loc 1 125 1888
	sw	zero,-1120(s10)
	.loc 1 125 1958
	lw	t4,44(s5)
.LBE317:
	.loc 1 131 1773
	li	t6,393216
	addi	t6,t6,9
.LBB318:
	.loc 1 125 1941
	sw	t4,0(s9)
	.loc 1 125 1980
	sw	a6,0(a2)
	.loc 1 125 2003
	sw	ra,0(s1)
	.loc 1 125 2032
	sw	zero,-992(s8)
	.loc 1 125 2070
	sw	s11,0(t5)
	.loc 1 125 2097
	sw	a4,672(s7)
	.loc 1 125 2134
	lw	t4,44(s5)
	.loc 1 125 2136
	lw	a4,32(sp)
.LBE318:
.LBB319:
	.loc 1 136 611
	li	ra,528384
	addi	ra,ra,8
.LBE319:
.LBB320:
	.loc 1 125 2134
	addi	t4,t4,-1
.LBE320:
.LBB321:
	.loc 1 136 611
	sw	ra,96(sp)
.LBE321:
.LBB322:
	.loc 1 125 2136
	sub	t4,t4,a4
	.loc 1 125 2120
	sw	t4,0(t0)
	.loc 1 125 2159
	sw	a4,32(sp)
	sw	a4,0(t2)
	.loc 1 125 2260
	lw	t4,60(sp)
	lw	ra,56(sp)
	sw	ra,0(t4)
	.loc 1 125 2313
	sw	a7,0(s2)
	.loc 1 125 2365
	lw	ra,64(sp)
	sw	ra,0(s0)
.LBE322:
	.loc 1 125 2414
	lw	t4,20(sp)
	lw	a4,28(sp)
.LBB323:
	.loc 1 125 2566
	li	ra,4096
.LBE323:
	.loc 1 125 2414
	sw	a4,0(t4)
.LBB324:
	.loc 1 125 2566
	sw	ra,0(s9)
	.loc 1 125 2595
	sw	s6,0(a2)
	.loc 1 125 2618
	lw	a4,24(sp)
	sw	a4,0(s1)
	.loc 1 125 2663
	sw	zero,-992(s8)
	.loc 1 125 2692
	sw	a6,0(a0)
	.loc 1 125 2752
	li	a4,48
	sw	a4,0(a5)
	.loc 1 125 2815
	li	a4,287
	sw	a4,0(t1)
	.loc 1 125 2837
	sw	zero,-1120(s10)
	.loc 1 125 2856
	sw	s6,672(s7)
	.loc 1 125 2915
	li	a4,8
	sw	a4,0(t5)
	.loc 1 125 2958
	li	a4,287
	sw	a4,0(t0)
	.loc 1 125 2980
	sw	zero,0(t2)
	.loc 1 125 2999
	sw	a3,0(s4)
	.loc 1 125 3053
	sw	s11,0(s3)
	.loc 1 125 3081
	lw	a7,8(sp)
	sw	a4,0(a7)
	.loc 1 125 3103
	sw	a1,12(sp)
	sw	zero,-1248(a1)
	.loc 1 125 3122
	lw	a7,84(sp)
	.loc 1 125 3258
	li	a4,768
	.loc 1 125 3122
	sw	a7,0(s2)
	.loc 1 125 3258
	lw	a1,16(sp)
	sw	a4,0(a1)
	.loc 1 125 3406
	lw	ra,72(sp)
.LBE324:
.LBB325:
	.loc 1 125 3656
	li	a1,96
	.loc 1 125 4009
	li	a4,16
.LBE325:
.LBB326:
	.loc 1 125 3406
	sw	ra,0(s0)
.LBE326:
.LBB327:
	.loc 1 125 3656
	sw	a1,0(s3)
	.loc 1 125 3757
	sw	a3,0(s4)
	.loc 1 125 3780
	lw	a7,8(sp)
	li	a1,767
	sw	a1,0(a7)
	.loc 1 125 3907
	lw	a1,12(sp)
	sw	zero,-1248(a1)
	.loc 1 125 4009
	sw	a4,0(a5)
	.loc 1 125 4085
	sw	a6,0(a0)
	.loc 1 125 0
	li	a4,95
	sw	a4,0(t1)
	li	a4,4
	sw	zero,-1120(s10)
	sw	a4,0(s9)
	sw	s6,0(a2)
	li	a4,15
	sw	a4,0(s1)
	sw	zero,-992(s8)
	sw	s11,0(t5)
	sw	s6,672(s7)
	sw	s6,0(t0)
	sw	zero,0(t2)
	sw	zero,0(s2)
	lw	ra,76(sp)
	sw	ra,0(s0)
.LBE327:
	lw	a4,28(sp)
.LBB328:
	.loc 1 131 58
	li	ra,4096
.LBE328:
	.loc 1 125 0
	sw	a4,0(t4)
.LBB329:
	.loc 1 131 58
	sw	ra,0(s3)
	.loc 1 131 86
	sw	t3,0(s4)
	.loc 1 131 109
	lw	a4,24(sp)
	sw	a7,8(sp)
	.loc 1 131 779
	li	ra,144
	.loc 1 131 109
	sw	a4,0(a7)
	.loc 1 131 154
	sw	a1,12(sp)
	sw	zero,-1248(a1)
	.loc 1 131 183
	sw	a6,0(a0)
	.loc 1 131 245
	li	a1,48
	sw	a1,0(a5)
	.loc 1 131 308
	li	a4,287
	sw	a4,0(t1)
	.loc 1 131 330
	sw	zero,-1120(s10)
	.loc 1 131 424
	li	a4,8
	.loc 1 131 350
	sw	zero,0(a2)
	.loc 1 131 424
	sw	a4,0(s9)
	.loc 1 131 467
	li	a1,287
	sw	a1,0(s1)
	.loc 1 131 489
	sw	zero,-992(s8)
	.loc 1 131 508
	sw	a3,672(s7)
	.loc 1 131 564
	sw	s11,0(t5)
	.loc 1 131 592
	sw	a1,0(t0)
	.loc 1 131 614
	sw	zero,0(t2)
	.loc 1 131 633
	lw	a7,88(sp)
	sw	a7,0(s2)
	.loc 1 131 779
	lw	a1,16(sp)
	sw	ra,0(a1)
	.loc 1 131 945
	lw	ra,40(sp)
	sw	ra,0(s0)
.LBE329:
.LBB330:
	.loc 1 131 1039
	li	ra,4096
	sw	ra,0(s3)
	.loc 1 131 1067
	sw	t3,0(s4)
	.loc 1 131 1090
	lw	a1,52(sp)
	lw	a7,8(sp)
	sw	a1,0(a7)
	.loc 1 131 1135
	lw	a1,12(sp)
	sw	ra,-1248(a1)
	.loc 1 131 1164
	sw	a6,0(a0)
	.loc 1 131 1226
	li	a6,48
	sw	a6,0(a5)
	.loc 1 131 1289
	li	a6,287
	sw	a6,0(t1)
	.loc 1 131 1311
	sw	zero,-1120(s10)
	.loc 1 131 1331
	sw	zero,0(a2)
	.loc 1 131 1381
	sw	a4,0(s9)
	.loc 1 131 1424
	sw	a6,0(s1)
	.loc 1 131 1446
	sw	zero,-992(s8)
	.loc 1 131 1465
	sw	a3,672(s7)
	.loc 1 131 1521
	sw	s11,0(t5)
	.loc 1 131 1549
	sw	a6,0(t0)
	.loc 1 131 1571
	sw	zero,0(t2)
	.loc 1 131 1590
	lw	a7,92(sp)
	sw	a7,0(s2)
	.loc 1 131 1724
	lw	ra,44(sp)
	sw	ra,0(s0)
.LBE330:
	.loc 1 131 1773
	sw	t4,20(sp)
	sw	t6,0(t4)
.LBB331:
	.loc 1 136 64
	li	ra,4096
	sw	ra,0(s3)
	.loc 1 136 92
	sw	t3,0(s4)
	.loc 1 136 115
	lw	t4,52(sp)
	lw	a7,8(sp)
	.loc 1 136 160
	mv	a6,ra
	.loc 1 136 115
	sw	t4,0(a7)
	.loc 1 136 160
	sw	ra,-1248(a1)
	mv	t4,a1
	.loc 1 136 189
	li	a1,5
	sw	a1,0(a0)
	.loc 1 136 251
	li	a1,48
	sw	a1,0(a5)
	.loc 1 136 314
	li	a1,287
	sw	a1,0(t1)
	.loc 1 136 336
	sw	zero,-1120(s10)
	.loc 1 136 356
	sw	zero,0(a2)
	.loc 1 136 402
	sw	a4,0(s9)
	.loc 1 136 445
	sw	a1,0(s1)
	.loc 1 136 467
	sw	zero,-992(s8)
	.loc 1 136 486
	sw	a3,672(s7)
	.loc 1 136 542
	sw	s11,0(t5)
	.loc 1 136 570
	sw	a1,0(t0)
	.loc 1 136 592
	sw	zero,0(t2)
	.loc 1 136 611
	lw	a7,96(sp)
	.loc 1 136 743
	li	ra,144
	.loc 1 136 611
	sw	a7,0(s2)
	.loc 1 136 743
	lw	a1,16(sp)
	sw	ra,0(a1)
	.loc 1 136 881
	lw	a1,40(sp)
	sw	a1,0(s0)
.LBE331:
.LBB332:
	.loc 1 136 969
	sw	a6,0(s3)
	.loc 1 136 997
	sw	t3,0(s4)
	.loc 1 136 1020
	lw	a7,24(sp)
	lw	ra,8(sp)
	.loc 1 136 1065
	mv	a1,t4
	.loc 1 136 1020
	sw	a7,0(ra)
	.loc 1 136 1065
	sw	zero,-1248(t4)
	.loc 1 136 1094
	li	t4,5
	sw	t4,0(a0)
	.loc 1 136 1156
	li	t4,48
	sw	t4,0(a5)
	.loc 1 136 1219
	li	t4,287
	sw	t4,0(t1)
	.loc 1 136 1241
	sw	zero,-1120(s10)
	.loc 1 136 1261
	sw	zero,0(a2)
	.loc 1 136 1329
	sw	a4,0(s9)
	.loc 1 136 1372
	sw	t4,0(s1)
	.loc 1 136 1394
	sw	zero,-992(s8)
	.loc 1 136 1413
	sw	a3,672(s7)
	.loc 1 136 1469
	sw	s11,0(t5)
	.loc 1 136 1497
	sw	t4,0(t0)
	.loc 1 136 1538
	li	t4,524288
	.loc 1 136 1519
	sw	zero,0(t2)
	.loc 1 136 1538
	addi	t4,t4,40
	sw	t4,0(s2)
	.loc 1 136 1680
	lw	ra,44(sp)
	sw	ra,0(s0)
.LBE332:
	.loc 1 136 1729
	lw	t4,20(sp)
.LBB333:
	.loc 1 140 781
	li	ra,144
.LBE333:
	.loc 1 136 1729
	sw	t6,0(t4)
.LBB334:
	.loc 1 140 58
	sw	a6,0(s3)
	.loc 1 140 86
	sw	t3,0(s4)
	.loc 1 140 109
	sw	a7,24(sp)
	mv	t4,a7
	lw	a7,8(sp)
	.loc 1 140 183
	li	a6,5
	.loc 1 140 109
	sw	t4,0(a7)
	.loc 1 140 154
	sw	a1,12(sp)
	sw	zero,-1248(a1)
	.loc 1 140 183
	sw	a6,0(a0)
	.loc 1 140 245
	li	t4,48
	sw	t4,0(a5)
	.loc 1 140 308
	li	a1,287
	sw	a1,0(t1)
	.loc 1 140 330
	sw	zero,-1120(s10)
	.loc 1 140 350
	sw	zero,0(a2)
	.loc 1 140 424
	sw	a4,0(s9)
	.loc 1 140 467
	sw	a1,0(s1)
	.loc 1 140 489
	sw	zero,-992(s8)
	.loc 1 140 508
	sw	a3,672(s7)
	.loc 1 140 564
	sw	s11,0(t5)
	.loc 1 140 592
	sw	a1,0(t0)
	.loc 1 140 633
	li	t4,524288
	.loc 1 140 614
	sw	zero,0(t2)
	.loc 1 140 633
	addi	t4,t4,336
	sw	t4,0(s2)
	.loc 1 140 781
	lw	a1,16(sp)
	sw	ra,0(a1)
	.loc 1 140 947
	lw	ra,40(sp)
	sw	ra,0(s0)
.LBE334:
.LBB335:
	.loc 1 140 1041
	li	ra,4096
	sw	ra,0(s3)
	.loc 1 140 1069
	sw	t3,0(s4)
	.loc 1 140 1092
	lw	a7,52(sp)
	lw	t4,8(sp)
	sw	a7,0(t4)
	.loc 1 140 1137
	lw	a1,12(sp)
	.loc 1 140 1228
	li	t4,48
	.loc 1 140 1137
	sw	ra,-1248(a1)
	.loc 1 140 1166
	sw	a6,0(a0)
	.loc 1 140 1228
	sw	t4,0(a5)
	.loc 1 140 1291
	li	t4,287
	sw	t4,0(t1)
	.loc 1 140 1313
	sw	zero,-1120(s10)
	.loc 1 140 1333
	sw	zero,0(a2)
	.loc 1 140 1383
	sw	a4,0(s9)
	.loc 1 140 1426
	sw	t4,0(s1)
	.loc 1 140 1448
	sw	zero,-992(s8)
	.loc 1 140 1467
	sw	a3,672(s7)
	.loc 1 140 1523
	sw	s11,0(t5)
	.loc 1 140 1551
	li	ra,287
	sw	ra,0(t0)
	.loc 1 140 1592
	li	t4,528384
	.loc 1 140 1573
	sw	zero,0(t2)
	.loc 1 140 1592
	addi	t4,t4,304
	sw	t4,0(s2)
	.loc 1 140 1728
	lw	ra,44(sp)
	sw	ra,0(s0)
.LBE335:
	.loc 1 140 1777
	lw	t4,20(sp)
.LBB336:
	.loc 1 144 64
	li	ra,4096
.LBE336:
	.loc 1 140 1777
	sw	t6,0(t4)
.LBB337:
	.loc 1 144 64
	sw	ra,0(s3)
	.loc 1 144 92
	sw	t3,0(s4)
	.loc 1 144 115
	mv	t4,a7
	lw	a7,8(sp)
	sw	t4,0(a7)
	.loc 1 144 160
	sw	a1,12(sp)
	sw	ra,-1248(a1)
	.loc 1 144 189
	sw	a6,0(a0)
	.loc 1 144 160
	mv	a7,ra
	.loc 1 144 251
	li	ra,48
	sw	ra,0(a5)
	.loc 1 144 314
	li	a1,287
	sw	a1,0(t1)
	.loc 1 144 336
	sw	zero,-1120(s10)
	.loc 1 144 356
	sw	zero,0(a2)
	.loc 1 144 402
	sw	a4,0(s9)
	.loc 1 144 445
	sw	a1,0(s1)
	.loc 1 144 467
	sw	zero,-992(s8)
	.loc 1 144 486
	sw	a3,672(s7)
	.loc 1 144 542
	sw	s11,0(t5)
	.loc 1 144 570
	sw	a1,0(t0)
	.loc 1 144 611
	li	t4,528384
	.loc 1 144 592
	sw	zero,0(t2)
	.loc 1 144 611
	addi	t4,t4,296
	sw	t4,0(s2)
	.loc 1 144 745
	lw	t4,16(sp)
	li	ra,144
.LBE337:
.LBB338:
	.loc 1 144 971
	mv	a6,a7
.LBE338:
.LBB339:
	.loc 1 144 745
	sw	ra,0(t4)
	.loc 1 144 883
	lw	ra,40(sp)
	sw	ra,0(s0)
.LBE339:
.LBB340:
	.loc 1 144 971
	sw	a7,0(s3)
	.loc 1 144 999
	sw	t3,0(s4)
	.loc 1 144 1022
	lw	a7,24(sp)
	lw	a1,8(sp)
	.loc 1 144 1096
	li	t3,5
	.loc 1 144 1158
	li	ra,48
	.loc 1 144 1022
	sw	a7,0(a1)
	.loc 1 144 1067
	lw	a1,12(sp)
	sw	zero,-1248(a1)
	.loc 1 144 1096
	sw	t3,0(a0)
	.loc 1 144 1158
	sw	ra,0(a5)
	.loc 1 144 1221
	li	a1,287
	sw	a1,0(t1)
	.loc 1 144 1243
	sw	zero,-1120(s10)
	.loc 1 144 1263
	sw	zero,0(a2)
	.loc 1 144 1331
	mv	a1,a4
	sw	a4,0(s9)
	.loc 1 144 1374
	li	a4,287
	sw	a4,0(s1)
	.loc 1 144 1396
	sw	zero,-992(s8)
	.loc 1 144 1415
	sw	a3,672(s7)
	.loc 1 144 1471
	sw	s11,0(t5)
	.loc 1 144 1499
	sw	a4,0(t0)
	.loc 1 144 1540
	li	t3,524288
	.loc 1 144 1521
	sw	zero,0(t2)
	.loc 1 144 1540
	addi	t3,t3,328
	sw	t3,0(s2)
	.loc 1 144 1684
	lw	ra,44(sp)
.LBE340:
	.loc 1 146 18
	li	a3,88
	.loc 1 149 818
	li	t3,-2147479552
.LBB341:
	.loc 1 144 1684
	sw	ra,0(s0)
.LBE341:
	.loc 1 144 1733
	lw	a4,20(sp)
.LBB342:
	.loc 1 149 608
	li	ra,6
.LBE342:
	.loc 1 144 1733
	sw	t6,0(a4)
	.loc 1 146 18
	sw	a3,0(a4)
.LBB343:
	.loc 1 149 55
	sw	a6,0(a5)
	.loc 1 149 84
	sw	zero,0(a0)
	.loc 1 149 107
	sw	a7,0(t1)
	.loc 1 149 152
	sw	zero,-1120(s10)
	.loc 1 149 181
	sw	zero,0(a2)
	.loc 1 149 227
	li	t6,48
	sw	t6,0(s9)
	.loc 1 149 290
	li	a3,287
	sw	a3,0(s1)
	.loc 1 149 312
	sw	zero,-992(s8)
	.loc 1 149 331
	li	a3,5
	sw	a3,672(s7)
	.loc 1 149 392
	sw	a1,0(t5)
	.loc 1 149 435
	li	a3,287
	sw	a3,0(t0)
	.loc 1 149 457
	sw	zero,0(t2)
	.loc 1 149 476
	lw	a1,68(sp)
	.loc 1 149 711
	li	t6,524288
	addi	t6,t6,95
	.loc 1 149 476
	sw	a1,0(s2)
	.loc 1 149 608
	sw	ra,0(t4)
.LBE343:
	.loc 1 149 840
	li	a1,1036288
.LBB344:
	.loc 1 149 711
	sw	t6,0(s0)
	.loc 1 149 608
	mv	a3,t4
.LBE344:
	.loc 1 149 840
	addi	t4,a1,-1955
	.loc 1 149 818
	sw	zero,-480(t3)
	.loc 1 149 840
	mv	a1,t4
	.loc 1 149 888
	li	t4,393216
	.loc 1 149 840
	sw	a1,0(s0)
	.loc 1 149 888
	addi	t4,t4,1
	sw	t4,0(a4)
.LBB345:
	.loc 1 150 55
	sw	a6,0(a5)
	sw	a5,84(sp)
	.loc 1 150 84
	sw	zero,0(a0)
	sw	a0,76(sp)
	.loc 1 150 107
	sw	a7,24(sp)
	sw	a7,0(t1)
	sw	t1,72(sp)
	.loc 1 150 152
	sw	zero,-1120(s10)
	.loc 1 150 181
	sw	zero,0(a2)
	sw	a2,64(sp)
	.loc 1 150 227
	li	a2,48
	sw	a2,0(s9)
	.loc 1 150 290
	li	a5,287
	sw	a5,0(s1)
	.loc 1 150 312
	sw	zero,-992(s8)
	.loc 1 150 331
	li	a5,5
	sw	a5,672(s7)
	.loc 1 150 392
	li	a5,8
	sw	a5,0(t5)
	sw	t5,60(sp)
	.loc 1 150 435
	li	a5,287
	sw	a5,0(t0)
	sw	t0,56(sp)
	.loc 1 150 457
	sw	zero,0(t2)
	.loc 1 150 476
	li	a6,524288
	.loc 1 150 457
	sw	t2,52(sp)
	.loc 1 150 476
	addi	a6,a6,296
	sw	a6,0(s2)
	.loc 1 150 610
	sw	a3,16(sp)
	sw	ra,0(a3)
	.loc 1 150 713
	sw	t6,0(s0)
.LBE345:
	.loc 1 150 820
	sw	zero,-480(t3)
	.loc 1 150 842
	sw	a1,0(s0)
	.loc 1 150 890
	sw	t4,0(a4)
	.loc 1 153 18
	li	a6,1015812096
	sw	a4,20(sp)
	addi	a6,a6,516
	sw	a6,0(a4)
	.loc 1 155 10
	li	a7,-2147483648
	lw	t3,36(sp)
	sw	zero,36(a7)
.LBB346:
	.loc 1 122 471
	lw	a5,12(sp)
	lw	t4,32(sp)
	slli	a6,t3,4
	addi	t1,a5,-1248
	sub	a6,a6,t3
	sw	t1,12(sp)
	sw	t3,36(sp)
	sw	a6,44(sp)
.LVL232:
	addi	t4,t4,15
.LVL233:
	sw	t4,88(sp)
.LVL234:
.LBE346:
.LBB347:
	.loc 1 122 1734 is_stmt 1
	.loc 1 122 1787
	.loc 1 122 1810
	.loc 1 122 1871
	.loc 1 122 1924
	.loc 1 122 1963
	.loc 1 122 1986
	.loc 1 122 2015
	.loc 1 122 2054
	.loc 1 122 2081
	.loc 1 122 2103
	.loc 1 122 2142
	.loc 1 122 2168
	.loc 1 122 2243
	.loc 1 122 2296
	.loc 1 122 2297
	.loc 1 122 2347
	.loc 1 122 2348
.LBE347:
	.loc 1 122 2397
	.loc 1 122 2398
.LBB348:
	.loc 1 122 2504
	.loc 1 122 2549
	.loc 1 122 2578
	.loc 1 122 2601
	.loc 1 122 2646
	.loc 1 122 2675
	.loc 1 122 2735
	.loc 1 122 2798
	.loc 1 122 2820
	.loc 1 122 2840
	.loc 1 122 2899
	.loc 1 122 2941
	.loc 1 122 2963
	.loc 1 122 2983
	.loc 1 122 3037
	.loc 1 122 3064
	.loc 1 122 3086
	.loc 1 122 3106
	.loc 1 122 3239
	.loc 1 122 3387
.LBE348:
.LBB349:
	.loc 1 122 3437
	.loc 1 122 3638
	.loc 1 122 3739
	.loc 1 122 3761
	.loc 1 122 3888
	.loc 1 122 3990
	.loc 1 122 4066
	.loc 1 122 4089
	.loc 1 122 0
	.loc 1 122 0
	.loc 1 122 0
	.loc 1 122 0
	.loc 1 122 0
	.loc 1 122 0
	.loc 1 122 0
	.loc 1 122 0
	.loc 1 122 0
	.loc 1 122 0
	.loc 1 122 0
	.loc 1 122 0
	.loc 1 122 0
.LBE349:
	.loc 1 122 0
	.loc 1 122 0
.LBB350:
	.loc 1 125 3
	.loc 1 125 204
	.loc 1 125 305
	.loc 1 125 327
	.loc 1 125 454
	.loc 1 125 556
	.loc 1 125 632
	.loc 1 125 655
	.loc 1 125 761
	.loc 1 125 837
	.loc 1 125 895
	.loc 1 125 918
	.loc 1 125 998
	.loc 1 125 1056
	.loc 1 125 1083
	.loc 1 125 1105
	.loc 1 125 1163
	.loc 1 125 1189
	.loc 1 125 1390
	.loc 1 125 1435
	.loc 1 125 1436
	.loc 1 125 1492
.LBE350:
.LBB351:
	.loc 1 125 1542
	.loc 1 125 1734
	.loc 1 125 1787
	.loc 1 125 1810
	.loc 1 125 1871
	.loc 1 125 1924
	.loc 1 125 1963
	.loc 1 125 1986
	.loc 1 125 2015
	.loc 1 125 2054
	.loc 1 125 2081
	.loc 1 125 2103
	.loc 1 125 2142
	.loc 1 125 2168
	.loc 1 125 2243
	.loc 1 125 2296
	.loc 1 125 2297
	.loc 1 125 2347
	.loc 1 125 2348
.LBE351:
	.loc 1 125 2397
	.loc 1 125 2398
.LBB352:
	.loc 1 125 2504
	.loc 1 125 2549
	.loc 1 125 2578
	.loc 1 125 2601
	.loc 1 125 2646
	.loc 1 125 2675
	.loc 1 125 2735
	.loc 1 125 2798
	.loc 1 125 2820
	.loc 1 125 2840
	.loc 1 125 2899
	.loc 1 125 2941
	.loc 1 125 2963
	.loc 1 125 2983
	.loc 1 125 3037
	.loc 1 125 3064
	.loc 1 125 3086
	.loc 1 125 3106
	.loc 1 125 3241
	.loc 1 125 3389
.LBE352:
.LBB353:
	.loc 1 125 3439
	.loc 1 125 3640
	.loc 1 125 3741
	.loc 1 125 3763
	.loc 1 125 3890
	.loc 1 125 3992
	.loc 1 125 4068
	.loc 1 125 4091
	.loc 1 125 0
	.loc 1 125 0
	.loc 1 125 0
	.loc 1 125 0
	.loc 1 125 0
	.loc 1 125 0
	.loc 1 125 0
	.loc 1 125 0
	.loc 1 125 0
	.loc 1 125 0
	.loc 1 125 0
	.loc 1 125 0
	.loc 1 125 0
.LBE353:
	.loc 1 125 0
	.loc 1 125 0
.LBB354:
	.loc 1 131 3
	.loc 1 131 42
	.loc 1 131 70
	.loc 1 131 92
	.loc 1 131 137
	.loc 1 131 166
	.loc 1 131 228
	.loc 1 131 291
	.loc 1 131 313
	.loc 1 131 333
	.loc 1 131 407
	.loc 1 131 450
	.loc 1 131 472
	.loc 1 131 492
	.loc 1 131 548
	.loc 1 131 575
	.loc 1 131 597
	.loc 1 131 617
	.loc 1 131 762
	.loc 1 131 928
.LBE354:
.LBB355:
	.loc 1 131 978
	.loc 1 131 1023
	.loc 1 131 1051
	.loc 1 131 1073
	.loc 1 131 1118
	.loc 1 131 1147
	.loc 1 131 1209
	.loc 1 131 1272
	.loc 1 131 1294
	.loc 1 131 1314
	.loc 1 131 1364
	.loc 1 131 1407
	.loc 1 131 1429
	.loc 1 131 1449
	.loc 1 131 1505
	.loc 1 131 1532
	.loc 1 131 1554
	.loc 1 131 1574
	.loc 1 131 1707
.LBE355:
	.loc 1 131 1756
	.loc 1 131 1757
.LBB356:
	.loc 1 136 3
	.loc 1 136 48
	.loc 1 136 76
	.loc 1 136 98
	.loc 1 136 143
	.loc 1 136 172
	.loc 1 136 234
	.loc 1 136 297
	.loc 1 136 319
	.loc 1 136 339
	.loc 1 136 385
	.loc 1 136 428
	.loc 1 136 450
	.loc 1 136 470
	.loc 1 136 526
	.loc 1 136 553
	.loc 1 136 575
	.loc 1 136 595
	.loc 1 136 726
	.loc 1 136 864
.LBE356:
.LBB357:
	.loc 1 136 914
	.loc 1 136 953
	.loc 1 136 981
	.loc 1 136 1003
	.loc 1 136 1048
	.loc 1 136 1077
	.loc 1 136 1139
	.loc 1 136 1202
	.loc 1 136 1224
	.loc 1 136 1244
	.loc 1 136 1312
	.loc 1 136 1355
	.loc 1 136 1377
	.loc 1 136 1397
	.loc 1 136 1453
	.loc 1 136 1480
	.loc 1 136 1502
	.loc 1 136 1522
	.loc 1 136 1663
.LBE357:
	.loc 1 136 1712
	.loc 1 136 1713
.LBB358:
	.loc 1 140 3
	.loc 1 140 42
	.loc 1 140 70
	.loc 1 140 92
	.loc 1 140 137
	.loc 1 140 166
	.loc 1 140 228
	.loc 1 140 291
	.loc 1 140 313
	.loc 1 140 333
	.loc 1 140 407
	.loc 1 140 450
	.loc 1 140 472
	.loc 1 140 492
	.loc 1 140 548
	.loc 1 140 575
	.loc 1 140 597
	.loc 1 140 617
	.loc 1 140 764
	.loc 1 140 930
.LBE358:
.LBB359:
	.loc 1 140 980
	.loc 1 140 1025
	.loc 1 140 1053
	.loc 1 140 1075
	.loc 1 140 1120
	.loc 1 140 1149
	.loc 1 140 1211
	.loc 1 140 1274
	.loc 1 140 1296
	.loc 1 140 1316
	.loc 1 140 1366
	.loc 1 140 1409
	.loc 1 140 1431
	.loc 1 140 1451
	.loc 1 140 1507
	.loc 1 140 1534
	.loc 1 140 1556
	.loc 1 140 1576
	.loc 1 140 1711
.LBE359:
	.loc 1 140 1760
	.loc 1 140 1761
.LBB360:
	.loc 1 144 3
	.loc 1 144 48
	.loc 1 144 76
	.loc 1 144 98
	.loc 1 144 143
	.loc 1 144 172
	.loc 1 144 234
	.loc 1 144 297
	.loc 1 144 319
	.loc 1 144 339
	.loc 1 144 385
	.loc 1 144 428
	.loc 1 144 450
	.loc 1 144 470
	.loc 1 144 526
	.loc 1 144 553
	.loc 1 144 575
	.loc 1 144 595
	.loc 1 144 728
	.loc 1 144 866
.LBE360:
.LBB361:
	.loc 1 144 916
	.loc 1 144 955
	.loc 1 144 983
	.loc 1 144 1005
	.loc 1 144 1050
	.loc 1 144 1079
	.loc 1 144 1141
	.loc 1 144 1204
	.loc 1 144 1226
	.loc 1 144 1246
	.loc 1 144 1314
	.loc 1 144 1357
	.loc 1 144 1379
	.loc 1 144 1399
	.loc 1 144 1455
	.loc 1 144 1482
	.loc 1 144 1504
	.loc 1 144 1524
	.loc 1 144 1667
.LBE361:
	.loc 1 144 1716
	.loc 1 144 1717
	.loc 1 146 1
	.loc 1 146 2
	.loc 1 147 10
.LBB362:
	.loc 1 149 3
	.loc 1 149 38
	.loc 1 149 67
	.loc 1 149 90
	.loc 1 149 135
	.loc 1 149 164
	.loc 1 149 210
	.loc 1 149 273
	.loc 1 149 295
	.loc 1 149 315
	.loc 1 149 376
	.loc 1 149 418
	.loc 1 149 440
	.loc 1 149 460
	.loc 1 149 591
	.loc 1 149 694
.LBE362:
	.loc 1 149 800
	.loc 1 149 801
	.loc 1 149 823
	.loc 1 149 871
	.loc 1 149 872
.LBB363:
	.loc 1 150 3
	.loc 1 150 38
	.loc 1 150 67
	.loc 1 150 90
	.loc 1 150 135
	.loc 1 150 164
	.loc 1 150 210
	.loc 1 150 273
	.loc 1 150 295
	.loc 1 150 315
	.loc 1 150 376
	.loc 1 150 418
	.loc 1 150 440
	.loc 1 150 460
	.loc 1 150 593
	.loc 1 150 696
.LBE363:
	.loc 1 150 802
	.loc 1 150 803
	.loc 1 150 825
	.loc 1 150 873
	.loc 1 150 874
	.loc 1 153 1
	.loc 1 153 2
	.loc 1 155 10
	.loc 1 155 10
	call	_taskYield
.LVL235:
	.loc 1 155 24 discriminator 1
.LBB364:
	.loc 1 159 3
	.loc 1 159 186
	.loc 1 159 202 is_stmt 0
	li	t4,64
	sw	t4,0(s3)
.LVL236:
	.loc 1 159 269 is_stmt 1
	.loc 1 159 285 is_stmt 0
	li	a3,7
	sw	a3,0(s4)
	.loc 1 159 291 is_stmt 1
	.loc 1 159 308 is_stmt 0
	lw	a1,8(sp)
	li	t3,511
	.loc 1 159 501
	li	a2,16
	.loc 1 159 308
	sw	t3,0(a1)
	.loc 1 159 400 is_stmt 1
	.loc 1 159 417 is_stmt 0
	lw	a4,12(sp)
	.loc 1 159 588
	li	t5,63
	.loc 1 159 740
	li	a7,4
	.loc 1 159 417
	sw	zero,0(a4)
	.loc 1 159 484 is_stmt 1
	.loc 1 159 501 is_stmt 0
	lw	a5,84(sp)
	.loc 1 159 809
	li	a6,15
.LBE364:
.LBB365:
	.loc 1 159 1938
	li	t6,524288
.LBE365:
.LBB366:
	.loc 1 159 501
	sw	a2,0(a5)
	.loc 1 159 548 is_stmt 1
	.loc 1 159 565 is_stmt 0
	lw	a0,76(sp)
.LBE366:
.LBB367:
	.loc 1 159 1938
	addi	t6,t6,584
.LBE367:
.LBB368:
	.loc 1 159 565
	sw	s6,0(a0)
	.loc 1 159 571 is_stmt 1
	.loc 1 159 588 is_stmt 0
	lw	t1,72(sp)
	sw	t5,0(t1)
	.loc 1 159 659 is_stmt 1
	.loc 1 159 676 is_stmt 0
	sw	zero,-1120(s10)
	.loc 1 159 723 is_stmt 1
	.loc 1 159 740 is_stmt 0
	sw	a7,0(s9)
	.loc 1 159 769 is_stmt 1
	.loc 1 159 786 is_stmt 0
	lw	a2,64(sp)
	.loc 1 159 1305
	li	a7,1036288
	.loc 1 159 786
	sw	s6,0(a2)
	.loc 1 159 792 is_stmt 1
	.loc 1 159 809 is_stmt 0
	sw	a6,0(s1)
	.loc 1 159 860 is_stmt 1
	.loc 1 159 877 is_stmt 0
	sw	zero,-992(s8)
	.loc 1 159 906 is_stmt 1
	.loc 1 159 922 is_stmt 0
	lw	t5,60(sp)
	.loc 1 159 1305
	mv	a6,a7
	.loc 1 159 1249
	li	a7,512
	.loc 1 159 922
	sw	s11,0(t5)
	.loc 1 159 933 is_stmt 1
	.loc 1 159 949 is_stmt 0
	sw	s6,672(s7)
	.loc 1 159 955 is_stmt 1
	.loc 1 159 972 is_stmt 0
	lw	t0,56(sp)
	sw	s6,0(t0)
	.loc 1 159 1001 is_stmt 1
	.loc 1 159 1018 is_stmt 0
	lw	t2,52(sp)
	sw	zero,0(t2)
	.loc 1 159 1027 is_stmt 1
.LVL237:
	.loc 1 159 1186
	.loc 1 159 1202 is_stmt 0
	sw	zero,0(s2)
	.loc 1 159 1231 is_stmt 1
	.loc 1 159 1232
	.loc 1 159 1249 is_stmt 0
	lw	a1,16(sp)
	sw	a7,0(a1)
	.loc 1 159 1288 is_stmt 1
	.loc 1 159 1305 is_stmt 0
	addi	a7,a6,-1921
	sw	a7,52(sp)
	sw	a7,0(s0)
.LBE368:
.LBB369:
	.loc 1 159 1338 is_stmt 1
.LVL238:
	.loc 1 159 1383
	.loc 1 159 1400 is_stmt 0
	li	a6,4096
	sw	a6,0(s9)
	.loc 1 159 1412 is_stmt 1
	.loc 1 159 1429 is_stmt 0
	sw	s6,0(a2)
	.loc 1 159 1435 is_stmt 1
	.loc 1 159 1452 is_stmt 0
	lw	a7,24(sp)
	.loc 1 159 1580
	li	a6,32
	.loc 1 159 1452
	sw	a7,0(s1)
	.loc 1 159 1480 is_stmt 1
	.loc 1 159 1497 is_stmt 0
	sw	zero,-992(s8)
	.loc 1 159 1509 is_stmt 1
	.loc 1 159 1526 is_stmt 0
	sw	s6,0(a0)
	.loc 1 159 1563 is_stmt 1
	.loc 1 159 1580 is_stmt 0
	sw	a6,0(a5)
	.loc 1 159 1620 is_stmt 1
	.loc 1 159 1637 is_stmt 0
	li	a7,127
	sw	a7,0(t1)
	.loc 1 159 1642 is_stmt 1
	.loc 1 159 1659 is_stmt 0
	sw	zero,-1120(s10)
	.loc 1 159 1662 is_stmt 1
	.loc 1 159 1678 is_stmt 0
	sw	s6,672(s7)
	.loc 1 159 1715 is_stmt 1
	.loc 1 159 1731 is_stmt 0
	li	a6,8
	sw	a6,0(t5)
	.loc 1 159 1757 is_stmt 1
	.loc 1 159 1774 is_stmt 0
	sw	a7,0(t0)
	.loc 1 159 1779 is_stmt 1
	.loc 1 159 1796 is_stmt 0
	sw	zero,0(t2)
	.loc 1 159 1799 is_stmt 1
	.loc 1 159 1815 is_stmt 0
	sw	a3,0(s4)
	.loc 1 159 1853 is_stmt 1
	.loc 1 159 1869 is_stmt 0
	sw	s11,0(s3)
	.loc 1 159 1880 is_stmt 1
	.loc 1 159 1897 is_stmt 0
	lw	a1,8(sp)
	.loc 1 159 2066
	li	a6,1032192
	.loc 1 159 1897
	sw	a7,0(a1)
	.loc 1 159 1902 is_stmt 1
	.loc 1 159 1919 is_stmt 0
	sw	a4,12(sp)
	sw	zero,0(a4)
	.loc 1 159 1922 is_stmt 1
	.loc 1 159 1938 is_stmt 0
	sw	t6,0(s2)
	.loc 1 159 2049 is_stmt 1
	.loc 1 159 2066 is_stmt 0
	addi	t6,a6,1149
	sw	t6,56(sp)
	sw	t6,0(s0)
.LBE369:
	.loc 1 159 2098 is_stmt 1
	.loc 1 159 2099
	.loc 1 159 2115 is_stmt 0
	lw	t6,20(sp)
	lw	a6,28(sp)
.LBB370:
	.loc 1 159 2751
	li	a1,1036288
.LBE370:
	.loc 1 159 2115
	sw	a6,0(t6)
.LBB371:
	.loc 1 159 2205 is_stmt 1
.LVL239:
	.loc 1 159 2328
	.loc 1 159 2660 is_stmt 0
	lw	a6,44(sp)
	lw	a4,144(sp)
	.loc 1 159 2362
	lw	t6,60(s5)
	.loc 1 159 2660
	add	a4,a4,a6
	sw	a4,60(sp)
	.loc 1 159 2345
	sw	t6,0(s9)
.LVL240:
	.loc 1 159 2367 is_stmt 1
	.loc 1 159 2384 is_stmt 0
	li	a4,31
	sw	a4,0(a2)
	.loc 1 159 2390 is_stmt 1
	.loc 1 159 2426 is_stmt 0
	lw	t6,60(s5)
	.loc 1 159 2751
	addi	a4,a1,127
	.loc 1 159 2426
	lw	a1,64(s5)
	.loc 1 159 2751
	sw	a4,32(sp)
.LBE371:
.LBB372:
	.loc 1 162 1938
	li	a4,524288
.LBE372:
.LBB373:
	.loc 1 159 2426
	mul	t6,a1,t6
.LBE373:
.LBB374:
	.loc 1 159 4030
	li	a1,1036288
	addi	a1,a1,-1923
.LBE374:
.LBB375:
	.loc 1 162 1938
	addi	a4,a4,712
.LBE375:
.LBB376:
	.loc 1 159 4030
	sw	a1,44(sp)
.LBE376:
.LBB377:
	.loc 1 162 1938
	sw	a4,76(sp)
.LBE377:
.LBB378:
	.loc 1 162 2660
	lw	a4,148(sp)
.LBE378:
.LBB379:
	.loc 1 165 1938
	li	a1,524288
	addi	a1,a1,840
.LBE379:
.LBB380:
	.loc 1 162 2660
	add	a4,a4,a6
	sw	a4,64(sp)
.LBE380:
.LBB381:
	.loc 1 165 2660
	lw	a4,152(sp)
.LBE381:
.LBB382:
	.loc 1 165 1938
	sw	a1,84(sp)
.LBE382:
	.loc 1 102 17 discriminator 1
	lw	a1,36(sp)
.LBB383:
	.loc 1 165 2660
	add	a4,a4,a6
	sw	a4,72(sp)
.LBE383:
	.loc 1 102 17 discriminator 1
	addi	a4,a1,1
	sw	a4,36(sp)
.LBB384:
	.loc 1 159 2443
	addi	t6,t6,-1
	.loc 1 159 2407
	sw	t6,0(s1)
	.loc 1 159 2446 is_stmt 1
	.loc 1 159 2463 is_stmt 0
	sw	zero,-992(s8)
	.loc 1 159 2485 is_stmt 1
	.loc 1 159 2501 is_stmt 0
	sw	s11,0(t5)
	.loc 1 159 2512 is_stmt 1
	.loc 1 159 2528 is_stmt 0
	li	a4,15
	sw	a4,672(s7)
	.loc 1 159 2534 is_stmt 1
	.loc 1 159 2565 is_stmt 0
	lw	t6,60(s5)
	addi	t6,t6,-1
	.loc 1 159 2567
	sub	t6,t6,a6
	.loc 1 159 2551
	sw	t6,0(t0)
	.loc 1 159 2573 is_stmt 1
	.loc 1 159 2590 is_stmt 0
	sw	a6,0(t2)
	.loc 1 159 2599 is_stmt 1
.LVL241:
	.loc 1 159 2639
	.loc 1 159 2655 is_stmt 0
	lw	t6,60(sp)
	sw	t6,0(s2)
	.loc 1 159 2691 is_stmt 1
	.loc 1 159 2692
	.loc 1 159 2709 is_stmt 0
	lw	a1,16(sp)
	li	t6,512
	sw	t6,0(a1)
	.loc 1 159 2734 is_stmt 1
	.loc 1 159 2751 is_stmt 0
	lw	a1,32(sp)
	sw	a1,0(s0)
.LBE384:
.LBB385:
	.loc 1 159 2784 is_stmt 1
.LVL242:
	.loc 1 159 2967
	.loc 1 159 2983 is_stmt 0
	sw	t4,0(s3)
	.loc 1 159 3050 is_stmt 1
	.loc 1 159 3066 is_stmt 0
	sw	a3,0(s4)
	.loc 1 159 3072 is_stmt 1
	.loc 1 159 3089 is_stmt 0
	lw	a1,8(sp)
	sw	t3,0(a1)
	.loc 1 159 3181 is_stmt 1
	.loc 1 159 3198 is_stmt 0
	lw	t6,12(sp)
	.loc 1 159 3369
	li	a1,63
	.loc 1 159 3198
	sw	zero,0(t6)
	.loc 1 159 3265 is_stmt 1
	.loc 1 159 3282 is_stmt 0
	li	t6,16
	sw	t6,0(a5)
	.loc 1 159 3329 is_stmt 1
	.loc 1 159 3346 is_stmt 0
	sw	s6,0(a0)
	.loc 1 159 3352 is_stmt 1
	.loc 1 159 3369 is_stmt 0
	sw	a1,0(t1)
	.loc 1 159 3440 is_stmt 1
	.loc 1 159 3457 is_stmt 0
	sw	zero,-1120(s10)
	.loc 1 159 3504 is_stmt 1
	.loc 1 159 3521 is_stmt 0
	li	a1,4
	sw	a1,0(s9)
	.loc 1 159 3550 is_stmt 1
	.loc 1 159 3567 is_stmt 0
	sw	s6,0(a2)
	.loc 1 159 3573 is_stmt 1
	.loc 1 159 3590 is_stmt 0
	sw	a4,0(s1)
	.loc 1 159 3641 is_stmt 1
	.loc 1 159 3658 is_stmt 0
	sw	zero,-992(s8)
	.loc 1 159 3687 is_stmt 1
	.loc 1 159 3703 is_stmt 0
	sw	s11,0(t5)
	.loc 1 159 3714 is_stmt 1
	.loc 1 159 3730 is_stmt 0
	sw	s6,672(s7)
	.loc 1 159 3736 is_stmt 1
	.loc 1 159 3753 is_stmt 0
	sw	s6,0(t0)
	.loc 1 159 3782 is_stmt 1
	.loc 1 159 3799 is_stmt 0
	sw	zero,0(t2)
	.loc 1 159 3808 is_stmt 1
.LVL243:
	.loc 1 159 3967
	.loc 1 159 3983 is_stmt 0
	sw	zero,0(s2)
	.loc 1 159 4012 is_stmt 1
	.loc 1 159 4013
	.loc 1 159 4030 is_stmt 0
	lw	t6,44(sp)
	.loc 1 159 3590
	mv	a1,a4
	.loc 1 159 4030
	sw	t6,0(s0)
.LBE385:
	.loc 1 159 4062 is_stmt 1
	.loc 1 159 4063
	.loc 1 159 4079 is_stmt 0
	lw	t6,20(sp)
	lw	a4,28(sp)
	sw	a4,0(t6)
.LBB386:
	.loc 1 162 3 is_stmt 1
.LVL244:
	.loc 1 162 186
	.loc 1 162 202 is_stmt 0
	sw	t4,0(s3)
	.loc 1 162 269 is_stmt 1
	.loc 1 162 285 is_stmt 0
	sw	a3,0(s4)
	.loc 1 162 291 is_stmt 1
	.loc 1 162 308 is_stmt 0
	lw	a4,8(sp)
	sw	t3,0(a4)
	.loc 1 162 400 is_stmt 1
	.loc 1 162 417 is_stmt 0
	lw	a4,12(sp)
	sw	zero,0(a4)
	.loc 1 162 484 is_stmt 1
	.loc 1 162 501 is_stmt 0
	li	a4,16
	sw	a4,0(a5)
	.loc 1 162 548 is_stmt 1
	.loc 1 162 565 is_stmt 0
	sw	s6,0(a0)
	.loc 1 162 571 is_stmt 1
	.loc 1 162 588 is_stmt 0
	li	a4,63
	sw	a4,0(t1)
	.loc 1 162 659 is_stmt 1
	.loc 1 162 676 is_stmt 0
	sw	zero,-1120(s10)
	.loc 1 162 723 is_stmt 1
	.loc 1 162 740 is_stmt 0
	li	a4,4
	sw	a4,0(s9)
	.loc 1 162 769 is_stmt 1
	.loc 1 162 786 is_stmt 0
	sw	s6,0(a2)
	.loc 1 162 792 is_stmt 1
	.loc 1 162 809 is_stmt 0
	sw	a1,0(s1)
	.loc 1 162 860 is_stmt 1
	.loc 1 162 877 is_stmt 0
	sw	zero,-992(s8)
	.loc 1 162 906 is_stmt 1
	.loc 1 162 922 is_stmt 0
	sw	s11,0(t5)
	.loc 1 162 933 is_stmt 1
	.loc 1 162 949 is_stmt 0
	sw	s6,672(s7)
	.loc 1 162 955 is_stmt 1
	.loc 1 162 972 is_stmt 0
	sw	s6,0(t0)
	.loc 1 162 1001 is_stmt 1
	.loc 1 162 1018 is_stmt 0
	sw	zero,0(t2)
	.loc 1 162 1027 is_stmt 1
.LVL245:
	.loc 1 162 1186
	.loc 1 162 1202 is_stmt 0
	sw	zero,0(s2)
	.loc 1 162 1231 is_stmt 1
	.loc 1 162 1232
	.loc 1 162 1249 is_stmt 0
	lw	a1,16(sp)
	li	a4,512
	sw	a4,0(a1)
	.loc 1 162 1288 is_stmt 1
	.loc 1 162 1305 is_stmt 0
	lw	a1,52(sp)
.LBE386:
.LBB387:
	.loc 1 162 1400
	li	a4,4096
.LBE387:
.LBB388:
	.loc 1 162 1305
	sw	a1,0(s0)
.LBE388:
.LBB389:
	.loc 1 162 1338 is_stmt 1
.LVL246:
	.loc 1 162 1383
	.loc 1 162 1400 is_stmt 0
	sw	a4,0(s9)
	.loc 1 162 1412 is_stmt 1
	.loc 1 162 1429 is_stmt 0
	sw	s6,0(a2)
	.loc 1 162 1435 is_stmt 1
	.loc 1 162 1452 is_stmt 0
	lw	a4,24(sp)
	.loc 1 162 1580
	li	a1,32
	.loc 1 162 1452
	sw	a4,0(s1)
	.loc 1 162 1480 is_stmt 1
	.loc 1 162 1497 is_stmt 0
	sw	zero,-992(s8)
	.loc 1 162 1509 is_stmt 1
	.loc 1 162 1526 is_stmt 0
	sw	s6,0(a0)
	.loc 1 162 1563 is_stmt 1
	.loc 1 162 1580 is_stmt 0
	sw	a1,0(a5)
	.loc 1 162 1620 is_stmt 1
	.loc 1 162 1637 is_stmt 0
	sw	a7,0(t1)
	.loc 1 162 1642 is_stmt 1
	.loc 1 162 1659 is_stmt 0
	sw	zero,-1120(s10)
	.loc 1 162 1662 is_stmt 1
	.loc 1 162 1678 is_stmt 0
	sw	s6,672(s7)
	.loc 1 162 1715 is_stmt 1
	.loc 1 162 1731 is_stmt 0
	li	a4,8
	sw	a4,0(t5)
	.loc 1 162 1757 is_stmt 1
	.loc 1 162 1774 is_stmt 0
	sw	a7,0(t0)
	.loc 1 162 1779 is_stmt 1
	.loc 1 162 1796 is_stmt 0
	sw	zero,0(t2)
	.loc 1 162 1799 is_stmt 1
	.loc 1 162 1815 is_stmt 0
	sw	a3,0(s4)
	.loc 1 162 1853 is_stmt 1
	.loc 1 162 1869 is_stmt 0
	sw	s11,0(s3)
	.loc 1 162 1880 is_stmt 1
	.loc 1 162 1897 is_stmt 0
	lw	a1,8(sp)
.LBE389:
.LBB390:
	.loc 1 162 2528
	li	a4,15
.LBE390:
.LBB391:
	.loc 1 162 1897
	sw	a7,0(a1)
	.loc 1 162 1902 is_stmt 1
	.loc 1 162 1919 is_stmt 0
	lw	a1,12(sp)
	sw	zero,0(a1)
	.loc 1 162 1922 is_stmt 1
	.loc 1 162 1938 is_stmt 0
	lw	a1,76(sp)
	sw	a1,0(s2)
	.loc 1 162 2049 is_stmt 1
	.loc 1 162 2066 is_stmt 0
	lw	a1,56(sp)
	sw	a1,0(s0)
.LBE391:
	.loc 1 162 2098 is_stmt 1
	.loc 1 162 2099
	.loc 1 162 2115 is_stmt 0
	lw	a1,28(sp)
	sw	t6,20(sp)
	sw	a1,0(t6)
.LBB392:
	.loc 1 162 2205 is_stmt 1
.LVL247:
	.loc 1 162 2328
	.loc 1 162 2362 is_stmt 0
	lw	t6,60(s5)
	.loc 1 162 2345
	sw	t6,0(s9)
	.loc 1 162 2367 is_stmt 1
	.loc 1 162 2384 is_stmt 0
	li	t6,31
	sw	t6,0(a2)
	.loc 1 162 2390 is_stmt 1
	.loc 1 162 2426 is_stmt 0
	lw	t6,64(s5)
	lw	a1,60(s5)
	mul	t6,t6,a1
	.loc 1 162 2443
	addi	t6,t6,-1
	.loc 1 162 2407
	sw	t6,0(s1)
	.loc 1 162 2446 is_stmt 1
	.loc 1 162 2463 is_stmt 0
	sw	zero,-992(s8)
	.loc 1 162 2485 is_stmt 1
	.loc 1 162 2501 is_stmt 0
	sw	s11,0(t5)
	.loc 1 162 2512 is_stmt 1
	.loc 1 162 2528 is_stmt 0
	sw	a4,672(s7)
	.loc 1 162 2534 is_stmt 1
	.loc 1 162 2565 is_stmt 0
	lw	t6,60(s5)
	addi	t6,t6,-1
	.loc 1 162 2567
	sub	t6,t6,a6
	.loc 1 162 2551
	sw	t6,0(t0)
	.loc 1 162 2573 is_stmt 1
	.loc 1 162 2590 is_stmt 0
	sw	a6,0(t2)
	.loc 1 162 2599 is_stmt 1
.LVL248:
	.loc 1 162 2639
	.loc 1 162 2655 is_stmt 0
	lw	t6,64(sp)
	sw	t6,0(s2)
	.loc 1 162 2691 is_stmt 1
	.loc 1 162 2692
	.loc 1 162 2709 is_stmt 0
	lw	a1,16(sp)
	li	t6,512
	sw	t6,0(a1)
	.loc 1 162 2734 is_stmt 1
	.loc 1 162 2751 is_stmt 0
	lw	t6,32(sp)
	sw	t6,0(s0)
.LBE392:
.LBB393:
	.loc 1 162 2784 is_stmt 1
.LVL249:
	.loc 1 162 2967
	.loc 1 162 2983 is_stmt 0
	sw	t4,0(s3)
	.loc 1 162 3050 is_stmt 1
	.loc 1 162 3066 is_stmt 0
	sw	a3,0(s4)
	.loc 1 162 3072 is_stmt 1
	.loc 1 162 3089 is_stmt 0
	lw	a1,8(sp)
	sw	t3,0(a1)
	.loc 1 162 3181 is_stmt 1
	.loc 1 162 3198 is_stmt 0
	lw	t6,12(sp)
	.loc 1 162 3521
	li	a1,4
	.loc 1 162 3198
	sw	zero,0(t6)
	.loc 1 162 3265 is_stmt 1
	.loc 1 162 3282 is_stmt 0
	li	t6,16
	sw	t6,0(a5)
	.loc 1 162 3329 is_stmt 1
	.loc 1 162 3346 is_stmt 0
	sw	s6,0(a0)
	.loc 1 162 3352 is_stmt 1
	.loc 1 162 3369 is_stmt 0
	li	t6,63
	sw	t6,0(t1)
	.loc 1 162 3440 is_stmt 1
	.loc 1 162 3457 is_stmt 0
	sw	zero,-1120(s10)
	.loc 1 162 3504 is_stmt 1
	.loc 1 162 3521 is_stmt 0
	sw	a1,0(s9)
	.loc 1 162 3550 is_stmt 1
	.loc 1 162 3567 is_stmt 0
	sw	s6,0(a2)
	.loc 1 162 3573 is_stmt 1
	.loc 1 162 3590 is_stmt 0
	sw	a4,0(s1)
	.loc 1 162 3641 is_stmt 1
	.loc 1 162 3658 is_stmt 0
	sw	zero,-992(s8)
	.loc 1 162 3687 is_stmt 1
	.loc 1 162 3703 is_stmt 0
	sw	s11,0(t5)
	.loc 1 162 3714 is_stmt 1
	.loc 1 162 3730 is_stmt 0
	sw	s6,672(s7)
	.loc 1 162 3736 is_stmt 1
	.loc 1 162 3753 is_stmt 0
	sw	s6,0(t0)
	.loc 1 162 3782 is_stmt 1
	.loc 1 162 3799 is_stmt 0
	sw	zero,0(t2)
	.loc 1 162 3808 is_stmt 1
.LVL250:
	.loc 1 162 3967
	.loc 1 162 3983 is_stmt 0
	sw	zero,0(s2)
	.loc 1 162 4012 is_stmt 1
	.loc 1 162 4013
	.loc 1 162 4030 is_stmt 0
	lw	t6,44(sp)
	.loc 1 162 3590
	mv	a1,a4
	.loc 1 162 4030
	sw	t6,0(s0)
.LBE393:
	.loc 1 162 4062 is_stmt 1
	.loc 1 162 4063
	.loc 1 162 4079 is_stmt 0
	lw	t6,20(sp)
	lw	a4,28(sp)
	sw	a4,0(t6)
.LBB394:
	.loc 1 165 3 is_stmt 1
.LVL251:
	.loc 1 165 186
	.loc 1 165 202 is_stmt 0
	sw	t4,0(s3)
	.loc 1 165 269 is_stmt 1
	.loc 1 165 285 is_stmt 0
	sw	a3,0(s4)
	.loc 1 165 291 is_stmt 1
	.loc 1 165 308 is_stmt 0
	lw	a4,8(sp)
	sw	t3,0(a4)
	.loc 1 165 400 is_stmt 1
	.loc 1 165 417 is_stmt 0
	lw	a4,12(sp)
	sw	zero,0(a4)
	.loc 1 165 484 is_stmt 1
	.loc 1 165 501 is_stmt 0
	li	a4,16
	sw	a4,0(a5)
	.loc 1 165 548 is_stmt 1
	.loc 1 165 565 is_stmt 0
	sw	s6,0(a0)
	.loc 1 165 571 is_stmt 1
	.loc 1 165 588 is_stmt 0
	li	a4,63
	sw	a4,0(t1)
	.loc 1 165 659 is_stmt 1
	.loc 1 165 676 is_stmt 0
	sw	zero,-1120(s10)
	.loc 1 165 723 is_stmt 1
	.loc 1 165 740 is_stmt 0
	li	a4,4
	sw	a4,0(s9)
	.loc 1 165 769 is_stmt 1
	.loc 1 165 786 is_stmt 0
	sw	s6,0(a2)
	.loc 1 165 792 is_stmt 1
	.loc 1 165 809 is_stmt 0
	sw	a1,0(s1)
	.loc 1 165 860 is_stmt 1
	.loc 1 165 877 is_stmt 0
	sw	zero,-992(s8)
	.loc 1 165 906 is_stmt 1
	.loc 1 165 922 is_stmt 0
	sw	s11,0(t5)
	.loc 1 165 933 is_stmt 1
	.loc 1 165 949 is_stmt 0
	sw	s6,672(s7)
	.loc 1 165 955 is_stmt 1
	.loc 1 165 972 is_stmt 0
	sw	s6,0(t0)
	.loc 1 165 1001 is_stmt 1
	.loc 1 165 1018 is_stmt 0
	sw	zero,0(t2)
	.loc 1 165 1027 is_stmt 1
.LVL252:
	.loc 1 165 1186
	.loc 1 165 1202 is_stmt 0
	sw	zero,0(s2)
	.loc 1 165 1231 is_stmt 1
	.loc 1 165 1232
	.loc 1 165 1249 is_stmt 0
	lw	a1,16(sp)
	li	a4,512
	sw	a4,0(a1)
	.loc 1 165 1288 is_stmt 1
	.loc 1 165 1305 is_stmt 0
	lw	a1,52(sp)
	sw	a1,0(s0)
.LBE394:
.LBB395:
	.loc 1 165 1338 is_stmt 1
.LVL253:
	.loc 1 165 1383
	.loc 1 165 1400 is_stmt 0
	li	a1,4096
	sw	a1,0(s9)
	.loc 1 165 1412 is_stmt 1
	.loc 1 165 1429 is_stmt 0
	sw	s6,0(a2)
	.loc 1 165 1435 is_stmt 1
	.loc 1 165 1452 is_stmt 0
	lw	a4,24(sp)
	.loc 1 165 1580
	li	a1,32
	.loc 1 165 1452
	sw	a4,0(s1)
	.loc 1 165 1480 is_stmt 1
	.loc 1 165 1497 is_stmt 0
	sw	zero,-992(s8)
	.loc 1 165 1509 is_stmt 1
	.loc 1 165 1526 is_stmt 0
	sw	s6,0(a0)
	.loc 1 165 1563 is_stmt 1
	.loc 1 165 1580 is_stmt 0
	sw	a1,0(a5)
	.loc 1 165 1620 is_stmt 1
	.loc 1 165 1637 is_stmt 0
	sw	a7,0(t1)
	.loc 1 165 1642 is_stmt 1
	.loc 1 165 1659 is_stmt 0
	sw	zero,-1120(s10)
	.loc 1 165 1662 is_stmt 1
	.loc 1 165 1678 is_stmt 0
	sw	s6,672(s7)
	.loc 1 165 1715 is_stmt 1
	.loc 1 165 1731 is_stmt 0
	li	a4,8
	sw	a4,0(t5)
	.loc 1 165 1757 is_stmt 1
	.loc 1 165 1774 is_stmt 0
	sw	a7,0(t0)
	.loc 1 165 1779 is_stmt 1
	.loc 1 165 1796 is_stmt 0
	sw	zero,0(t2)
	.loc 1 165 1799 is_stmt 1
	.loc 1 165 1815 is_stmt 0
	sw	a3,0(s4)
	.loc 1 165 1853 is_stmt 1
	.loc 1 165 1869 is_stmt 0
	sw	s11,0(s3)
	.loc 1 165 1880 is_stmt 1
	.loc 1 165 1897 is_stmt 0
	lw	a4,8(sp)
	sw	a7,0(a4)
	.loc 1 165 1902 is_stmt 1
	.loc 1 165 1919 is_stmt 0
	lw	a4,12(sp)
	sw	zero,0(a4)
	.loc 1 165 1922 is_stmt 1
	.loc 1 165 1938 is_stmt 0
	lw	a7,84(sp)
	sw	a7,0(s2)
	.loc 1 165 2049 is_stmt 1
	.loc 1 165 2066 is_stmt 0
	lw	a7,56(sp)
	sw	a7,0(s0)
.LBE395:
	.loc 1 165 2098 is_stmt 1
	.loc 1 165 2099
	.loc 1 165 2115 is_stmt 0
	lw	a7,28(sp)
	sw	a7,0(t6)
.LBB396:
	.loc 1 165 2205 is_stmt 1
.LVL254:
	.loc 1 165 2328
	.loc 1 165 2362 is_stmt 0
	lw	a1,60(s5)
	.loc 1 165 2345
	sw	a1,0(s9)
	.loc 1 165 2367 is_stmt 1
	.loc 1 165 2384 is_stmt 0
	li	a1,31
	sw	a1,0(a2)
	.loc 1 165 2390 is_stmt 1
	.loc 1 165 2426 is_stmt 0
	lw	a7,60(s5)
	lw	a1,64(s5)
	mul	a1,a1,a7
	.loc 1 165 2528
	li	a7,15
	.loc 1 165 2443
	addi	a1,a1,-1
	.loc 1 165 2407
	sw	a1,0(s1)
	.loc 1 165 2446 is_stmt 1
	.loc 1 165 2463 is_stmt 0
	sw	zero,-992(s8)
	.loc 1 165 2485 is_stmt 1
	.loc 1 165 2501 is_stmt 0
	sw	s11,0(t5)
	.loc 1 165 2512 is_stmt 1
	.loc 1 165 2528 is_stmt 0
	sw	a7,672(s7)
	.loc 1 165 2534 is_stmt 1
	.loc 1 165 2565 is_stmt 0
	lw	a1,60(s5)
	addi	a1,a1,-1
	.loc 1 165 2567
	sub	a1,a1,a6
	.loc 1 165 2551
	sw	a1,0(t0)
	.loc 1 165 2573 is_stmt 1
	.loc 1 165 2590 is_stmt 0
	sw	a6,0(t2)
	.loc 1 165 2599 is_stmt 1
.LVL255:
	.loc 1 165 2639
	.loc 1 165 2655 is_stmt 0
	lw	a6,72(sp)
.LVL256:
	sw	a6,0(s2)
.LVL257:
	.loc 1 165 2691 is_stmt 1
	.loc 1 165 2692
	.loc 1 165 2709 is_stmt 0
	lw	a1,16(sp)
	li	a6,512
	sw	a6,0(a1)
	.loc 1 165 2734 is_stmt 1
	.loc 1 165 2751 is_stmt 0
	lw	a1,32(sp)
	sw	a1,0(s0)
.LBE396:
.LBB397:
	.loc 1 165 2784 is_stmt 1
.LVL258:
	.loc 1 165 2967
	.loc 1 165 2983 is_stmt 0
	sw	t4,0(s3)
	.loc 1 165 3050 is_stmt 1
	.loc 1 165 3066 is_stmt 0
	sw	a3,0(s4)
	.loc 1 165 3072 is_stmt 1
	.loc 1 165 3089 is_stmt 0
	lw	a3,8(sp)
	sw	t3,0(a3)
	.loc 1 165 3181 is_stmt 1
	.loc 1 165 3198 is_stmt 0
	sw	zero,0(a4)
	.loc 1 165 3265 is_stmt 1
	.loc 1 165 3282 is_stmt 0
	li	a4,16
	sw	a4,0(a5)
	.loc 1 165 3329 is_stmt 1
	.loc 1 165 3346 is_stmt 0
	sw	s6,0(a0)
	.loc 1 165 3352 is_stmt 1
	.loc 1 165 3369 is_stmt 0
	li	a5,63
	sw	a5,0(t1)
	.loc 1 165 3440 is_stmt 1
	.loc 1 165 3457 is_stmt 0
	sw	zero,-1120(s10)
	.loc 1 165 3504 is_stmt 1
	.loc 1 165 3521 is_stmt 0
	li	a4,4
	sw	a4,0(s9)
	.loc 1 165 3550 is_stmt 1
	.loc 1 165 3567 is_stmt 0
	sw	s6,0(a2)
	.loc 1 165 3573 is_stmt 1
	.loc 1 165 3590 is_stmt 0
	sw	a7,0(s1)
	.loc 1 165 3641 is_stmt 1
	.loc 1 165 3658 is_stmt 0
	sw	zero,-992(s8)
	.loc 1 165 3687 is_stmt 1
	.loc 1 165 3703 is_stmt 0
	sw	s11,0(t5)
	.loc 1 165 3714 is_stmt 1
	.loc 1 165 3730 is_stmt 0
	sw	s6,672(s7)
	.loc 1 165 3736 is_stmt 1
	.loc 1 165 3753 is_stmt 0
	sw	s6,0(t0)
	.loc 1 165 3782 is_stmt 1
	.loc 1 165 3799 is_stmt 0
	sw	zero,0(t2)
	.loc 1 165 3808 is_stmt 1
.LVL259:
	.loc 1 165 3967
	.loc 1 165 3983 is_stmt 0
	sw	zero,0(s2)
	.loc 1 165 4012 is_stmt 1
	.loc 1 165 4013
	.loc 1 165 4030 is_stmt 0
	lw	a1,44(sp)
	sw	a1,0(s0)
.LBE397:
	.loc 1 165 4062 is_stmt 1
	.loc 1 165 4063
	.loc 1 165 4079 is_stmt 0
	lw	a7,28(sp)
	sw	a7,0(t6)
	.loc 1 102 26 is_stmt 1 discriminator 2
	.loc 1 102 17 discriminator 1
	lw	a5,156(sp)
	lw	a4,36(sp)
	ble	a5,a4,.L50
	lw	a5,88(sp)
	sw	a5,32(sp)
	mv	a5,a4
.LVL260:
	.loc 1 103 10
	.loc 1 105 10
	.loc 1 105 12 is_stmt 0
	bne	a5,zero,.L51
.LVL261:
.L39:
.LBB398:
	.loc 1 113 3 is_stmt 1
	.loc 1 113 38
	.loc 1 113 54 is_stmt 0
	li	a5,4096
	sw	a5,0(s3)
.LVL262:
	.loc 1 113 66 is_stmt 1
	.loc 1 113 82 is_stmt 0
	sw	zero,0(s4)
	.loc 1 113 88 is_stmt 1
	.loc 1 113 105 is_stmt 0
	lw	a4,24(sp)
	li	t6,-2147483648
	.loc 1 113 150
	li	t5,-2147479552
	.loc 1 113 105
	sw	a4,1440(t6)
	.loc 1 113 133 is_stmt 1
	.loc 1 113 150 is_stmt 0
	sw	zero,-1248(t5)
	.loc 1 113 162 is_stmt 1
	.loc 1 113 179 is_stmt 0
	li	s9,-2147483648
	li	a3,5
	sw	a3,1824(s9)
	.loc 1 113 224 is_stmt 1
	.loc 1 113 241 is_stmt 0
	li	ra,48
	li	s10,-2147483648
	sw	ra,1696(s10)
	.loc 1 113 287 is_stmt 1
	.loc 1 113 54 is_stmt 0
	mv	s11,a5
	.loc 1 113 304
	li	t4,-2147483648
	li	a5,287
	sw	a5,1952(t4)
	.loc 1 113 309 is_stmt 1
	.loc 1 113 326 is_stmt 0
	li	t3,-2147479552
	sw	zero,-1120(t3)
	.loc 1 113 329 is_stmt 1
	.loc 1 113 346 is_stmt 0
	li	t1,-2147479552
	sw	zero,-1888(t1)
	.loc 1 113 375 is_stmt 1
	.loc 1 113 392 is_stmt 0
	li	s8,-2147479552
	li	a2,8
	sw	a2,-2016(s8)
	.loc 1 113 418 is_stmt 1
	.loc 1 113 435 is_stmt 0
	sw	a5,0(s1)
	.loc 1 113 440 is_stmt 1
	.loc 1 113 457 is_stmt 0
	li	a7,-2147479552
	sw	zero,-992(a7)
	.loc 1 113 460 is_stmt 1
	.loc 1 113 476 is_stmt 0
	li	s7,-2147483648
	li	a4,7
	sw	a4,672(s7)
	.loc 1 113 516 is_stmt 1
	.loc 1 113 532 is_stmt 0
	li	s6,-2147483648
	li	a1,1
	sw	a1,1056(s6)
	.loc 1 113 543 is_stmt 1
	.loc 1 113 560 is_stmt 0
	li	a6,-2147483648
	sw	a5,1568(a6)
	.loc 1 113 565 is_stmt 1
	.loc 1 113 582 is_stmt 0
	li	a0,-2147479552
	sw	zero,-864(a0)
	.loc 1 113 585 is_stmt 1
	.loc 1 113 601 is_stmt 0
	lw	t0,68(sp)
	.loc 1 113 733
	li	a1,-2147479552
	.loc 1 113 871
	li	t2,1032192
	.loc 1 113 601
	sw	t0,0(s2)
	.loc 1 113 716 is_stmt 1
	.loc 1 113 733 is_stmt 0
	sw	ra,-736(a1)
	.loc 1 113 854 is_stmt 1
	.loc 1 113 871 is_stmt 0
	addi	t2,t2,95
	sw	t2,0(s0)
.LBE398:
	.loc 1 113 903 is_stmt 1
	.loc 1 113 904
	.loc 1 113 921 is_stmt 0
	li	a2,-2147479552
	.loc 1 113 943
	li	t0,1036288
	.loc 1 113 921
	sw	zero,-480(a2)
	.loc 1 113 926 is_stmt 1
	.loc 1 113 943 is_stmt 0
	addi	t0,t0,-1955
	.loc 1 113 991
	li	a3,393216
	.loc 1 113 943
	sw	t0,0(s0)
	.loc 1 113 974 is_stmt 1
	.loc 1 113 975
	.loc 1 113 991 is_stmt 0
	li	a4,-2147483648
	addi	a3,a3,1
	sw	a3,20(a4)
.LBB399:
	.loc 1 114 3 is_stmt 1
.LVL263:
	.loc 1 114 38
	.loc 1 114 54 is_stmt 0
	sw	s11,0(s3)
	.loc 1 114 66 is_stmt 1
	.loc 1 114 82 is_stmt 0
	sw	zero,0(s4)
	.loc 1 114 88 is_stmt 1
	.loc 1 114 105 is_stmt 0
	lw	s11,24(sp)
	sw	s11,1440(t6)
	.loc 1 114 133 is_stmt 1
	.loc 1 114 150 is_stmt 0
	sw	zero,-1248(t5)
	.loc 1 114 162 is_stmt 1
	.loc 1 114 179 is_stmt 0
	li	t5,5
	sw	t5,1824(s9)
	.loc 1 114 224 is_stmt 1
	.loc 1 114 241 is_stmt 0
	sw	ra,1696(s10)
	.loc 1 114 287 is_stmt 1
	.loc 1 114 304 is_stmt 0
	sw	a5,1952(t4)
	.loc 1 114 309 is_stmt 1
	.loc 1 114 326 is_stmt 0
	sw	zero,-1120(t3)
	.loc 1 114 329 is_stmt 1
	.loc 1 114 346 is_stmt 0
	sw	zero,-1888(t1)
	.loc 1 114 375 is_stmt 1
	.loc 1 114 392 is_stmt 0
	li	t1,8
	sw	t1,-2016(s8)
	.loc 1 114 418 is_stmt 1
	.loc 1 114 435 is_stmt 0
	sw	a5,0(s1)
	.loc 1 114 440 is_stmt 1
	.loc 1 114 457 is_stmt 0
	sw	zero,-992(a7)
	.loc 1 114 460 is_stmt 1
	.loc 1 114 476 is_stmt 0
	li	a7,7
	sw	a7,672(s7)
	.loc 1 114 516 is_stmt 1
	.loc 1 114 532 is_stmt 0
	li	a7,1
	sw	a7,1056(s6)
	.loc 1 114 543 is_stmt 1
	.loc 1 114 560 is_stmt 0
	sw	a5,1568(a6)
	.loc 1 114 565 is_stmt 1
	.loc 1 114 601 is_stmt 0
	li	a5,524288
	.loc 1 114 582
	sw	zero,-864(a0)
	.loc 1 114 585 is_stmt 1
	.loc 1 114 601 is_stmt 0
	addi	a5,a5,296
	sw	a5,0(s2)
	.loc 1 114 718 is_stmt 1
	.loc 1 114 735 is_stmt 0
	sw	ra,-736(a1)
	.loc 1 114 856 is_stmt 1
	.loc 1 114 873 is_stmt 0
	sw	t2,0(s0)
.LBE399:
	.loc 1 114 905 is_stmt 1
	.loc 1 114 906
	.loc 1 114 923 is_stmt 0
	sw	zero,-480(a2)
	.loc 1 114 928 is_stmt 1
	.loc 1 114 945 is_stmt 0
	sw	t0,0(s0)
	.loc 1 114 976 is_stmt 1
	.loc 1 114 977
	.loc 1 114 993 is_stmt 0
	sw	a3,20(a4)
	j	.L40
.LVL264:
.L53:
	mv	t5,s2
	lw	s3,164(sp)
	lw	s1,168(sp)
	lw	s2,160(sp)
	lw	s0,172(sp)
.LVL265:
.L38:
	.loc 1 101 23 is_stmt 1 discriminator 2
	addi	s0,s0,1
.LVL266:
	.loc 1 101 17 discriminator 1
.LBB400:
	.loc 1 122 1546 is_stmt 0
	slli	a5,s0,3
.LBE400:
	.loc 1 101 17 discriminator 1
	addi	s1,s1,-8
.LBB401:
	.loc 1 122 1546
	sw	a5,52(sp)
.LBE401:
.LBB402:
	.loc 1 159 2209
	slli	a5,s0,5
.LBE402:
.LBB403:
	.loc 1 122 1832
	sw	s1,48(sp)
.LBE403:
.LBB404:
	.loc 1 159 2209
	sw	a5,56(sp)
.LBE404:
	.loc 1 101 17 discriminator 1
	bne	s2,s0,.L43
	lw	s6,208(sp)
	.cfi_restore 22
	lw	s7,204(sp)
	.cfi_restore 23
	lw	s8,200(sp)
	.cfi_restore 24
	lw	s9,196(sp)
	.cfi_restore 25
	lw	s10,192(sp)
	.cfi_restore 26
	lw	s11,188(sp)
	.cfi_restore 27
.LVL267:
.L29:
	.loc 1 168 1
	lw	ra,236(sp)
	.cfi_remember_state
	.cfi_restore 1
	lw	s0,232(sp)
	.cfi_restore 8
	lw	s1,228(sp)
	.cfi_restore 9
	lw	s2,224(sp)
	.cfi_restore 18
	lw	s3,220(sp)
	.cfi_restore 19
	lw	s4,216(sp)
	.cfi_restore 20
	lw	s5,212(sp)
	.cfi_restore 21
	addi	sp,sp,240
	.cfi_def_cfa_offset 0
	jr	ra
.LVL268:
.L30:
	.cfi_restore_state
	.loc 1 77 7 is_stmt 1
	.loc 1 77 9 is_stmt 0
	li	a5,32
	ble	s1,a5,.L29
	.loc 1 79 7 is_stmt 1
	.loc 1 79 11 is_stmt 0
	srai	s0,a4,6
.LVL269:
	.loc 1 80 7 is_stmt 1
	j	.L31
.LVL270:
.L49:
	.loc 1 75 26 is_stmt 0 discriminator 1
	srai	s2,a4,6
.LVL271:
	j	.L31
.LVL272:
.L47:
	.cfi_offset 22, -32
	.cfi_offset 23, -36
	.cfi_offset 24, -40
	.cfi_offset 25, -44
	.cfi_offset 26, -48
	.cfi_offset 27, -52
.LBB405:
	.loc 1 159 2209
	slli	a5,s0,5
.LBE405:
.LBB406:
	.loc 1 122 1546
	sw	a4,52(sp)
.LBE406:
.LBB407:
	.loc 1 159 2209
	sw	a5,56(sp)
.LVL273:
.L43:
.LBE407:
.LBB408:
	.loc 1 107 105
	li	a5,16384
	addi	a5,a5,-1
	.loc 1 107 871
	li	a4,1032192
.LBE408:
	.loc 1 107 1741
	li	a3,-2147483648
.LBB409:
	.loc 1 107 105
	sw	a5,12(sp)
	.loc 1 107 871
	addi	a5,a4,159
.LBE409:
	.loc 1 110 1745
	li	a2,393216
.LBB410:
	.loc 1 107 871
	sw	a5,32(sp)
.LBE410:
	.loc 1 107 1741
	addi	a5,a3,20
	.loc 1 52 42
	sw	zero,24(sp)
	.loc 1 107 1741
	sw	a5,16(sp)
	.loc 1 110 1745
	addi	a5,a2,9
	sw	a5,40(sp)
	lw	a5,24(sp)
.LVL274:
	.loc 1 103 10 is_stmt 1
	.loc 1 105 10
.LBB411:
	.loc 1 107 54 is_stmt 0
	li	t1,-2147483648
	.loc 1 107 435
	li	t4,-2147479552
	.loc 1 107 871
	li	t6,-2147479552
	sw	s3,44(sp)
	.loc 1 107 54
	addi	t1,t1,800
	.loc 1 107 435
	addi	t4,t4,-1760
	.loc 1 107 871
	addi	t6,t6,-1632
	sw	s2,160(sp)
	sw	s3,164(sp)
	sw	s1,168(sp)
	sw	s0,172(sp)
	mv	s2,t5
	mv	s3,t1
	mv	s1,t4
	mv	s0,t6
.LVL275:
.LBE411:
	.loc 1 105 12
	beq	a5,zero,.L52
.LVL276:
.L35:
.LBB412:
	.loc 1 107 3 is_stmt 1
	.loc 1 107 38
	.loc 1 107 54 is_stmt 0
	li	t2,4096
	sw	t2,0(s3)
	.loc 1 107 66 is_stmt 1
	.loc 1 107 82 is_stmt 0
	li	t4,-2147483648
	sw	zero,928(t4)
	.loc 1 107 88 is_stmt 1
	.loc 1 107 105 is_stmt 0
	lw	a5,12(sp)
.LVL277:
	li	t3,-2147483648
	.loc 1 107 150
	li	t1,-2147479552
	.loc 1 107 105
	sw	a5,1440(t3)
	.loc 1 107 133 is_stmt 1
	.loc 1 107 150 is_stmt 0
	sw	zero,-1248(t1)
	.loc 1 107 162 is_stmt 1
	.loc 1 107 179 is_stmt 0
	li	ra,-2147483648
	li	s8,5
	sw	s8,1824(ra)
	.loc 1 107 224 is_stmt 1
	.loc 1 107 241 is_stmt 0
	li	t0,48
	li	a7,-2147483648
	sw	t0,1696(a7)
	.loc 1 107 287 is_stmt 1
	.loc 1 107 304 is_stmt 0
	li	a5,287
	li	a6,-2147483648
	sw	a5,1952(a6)
	.loc 1 107 309 is_stmt 1
	.loc 1 107 326 is_stmt 0
	li	a0,-2147479552
	sw	zero,-1120(a0)
	.loc 1 107 329 is_stmt 1
	.loc 1 107 346 is_stmt 0
	li	a1,-2147479552
	sw	zero,-1888(a1)
	.loc 1 107 375 is_stmt 1
	.loc 1 107 392 is_stmt 0
	li	s11,-2147479552
	li	s7,8
	sw	s7,-2016(s11)
	.loc 1 107 418 is_stmt 1
	.loc 1 107 435 is_stmt 0
	sw	a5,0(s1)
	.loc 1 107 440 is_stmt 1
	.loc 1 107 457 is_stmt 0
	li	a2,-2147479552
	sw	zero,-992(a2)
	.loc 1 107 460 is_stmt 1
	.loc 1 107 476 is_stmt 0
	li	s10,-2147483648
	li	s6,7
	sw	s6,672(s10)
	.loc 1 107 516 is_stmt 1
	.loc 1 107 532 is_stmt 0
	li	t6,-2147483648
	li	s5,1
	sw	s5,1056(t6)
	.loc 1 107 543 is_stmt 1
	.loc 1 107 560 is_stmt 0
	li	a3,-2147483648
	sw	a5,1568(a3)
	.loc 1 107 565 is_stmt 1
	.loc 1 107 582 is_stmt 0
	li	a4,-2147479552
	sw	zero,-864(a4)
	.loc 1 107 585 is_stmt 1
	.loc 1 107 582 is_stmt 0
	mv	t5,a4
	.loc 1 107 601
	li	a4,-2147483648
	addi	a4,a4,544
	li	s4,524288
	sw	a4,8(sp)
	addi	s4,s4,8
	sw	s4,0(a4)
	.loc 1 107 716 is_stmt 1
	.loc 1 107 733 is_stmt 0
	li	s9,-2147479552
	sw	s9,28(sp)
	sw	t0,-736(s9)
	.loc 1 107 854 is_stmt 1
	.loc 1 107 871 is_stmt 0
	lw	s4,32(sp)
.LBE412:
.LBB413:
	.loc 1 107 1546
	li	s9,536576
	addi	s9,s9,32
.LBE413:
.LBB414:
	.loc 1 107 871
	sw	s4,0(s0)
.LBE414:
.LBB415:
	.loc 1 107 904 is_stmt 1
.LVL278:
	.loc 1 107 953
	.loc 1 107 969 is_stmt 0
	sw	t2,0(s3)
	.loc 1 107 981 is_stmt 1
	.loc 1 107 1020 is_stmt 0
	li	s4,4096
	.loc 1 107 997
	sw	zero,928(t4)
	.loc 1 107 1003 is_stmt 1
	.loc 1 107 1020 is_stmt 0
	addi	a4,s4,-1
	sw	a4,1440(t3)
	.loc 1 107 1048 is_stmt 1
	.loc 1 107 1065 is_stmt 0
	li	s4,12288
	sw	s4,-1248(t1)
	.loc 1 107 1077 is_stmt 1
	.loc 1 107 1094 is_stmt 0
	sw	s8,1824(ra)
	.loc 1 107 1139 is_stmt 1
	.loc 1 107 1156 is_stmt 0
	sw	t0,1696(a7)
	.loc 1 107 1202 is_stmt 1
	.loc 1 107 1219 is_stmt 0
	sw	a5,1952(a6)
	.loc 1 107 1224 is_stmt 1
	.loc 1 107 1241 is_stmt 0
	sw	zero,-1120(a0)
	.loc 1 107 1244 is_stmt 1
	.loc 1 107 1261 is_stmt 0
	sw	zero,-1888(a1)
	.loc 1 107 1320 is_stmt 1
	.loc 1 107 1337 is_stmt 0
	sw	s7,-2016(s11)
	.loc 1 107 1363 is_stmt 1
	.loc 1 107 1380 is_stmt 0
	sw	a5,0(s1)
	.loc 1 107 1385 is_stmt 1
	.loc 1 107 1402 is_stmt 0
	sw	zero,-992(a2)
	.loc 1 107 1405 is_stmt 1
	.loc 1 107 1421 is_stmt 0
	sw	s6,672(s10)
	.loc 1 107 1461 is_stmt 1
	.loc 1 107 1477 is_stmt 0
	sw	s5,1056(t6)
	.loc 1 107 1488 is_stmt 1
	.loc 1 107 1505 is_stmt 0
	sw	a5,1568(a3)
	.loc 1 107 1510 is_stmt 1
	.loc 1 107 1527 is_stmt 0
	sw	zero,-864(t5)
	.loc 1 107 1530 is_stmt 1
	.loc 1 107 1546 is_stmt 0
	lw	a4,8(sp)
	.loc 1 107 1692
	li	s4,1032192
	addi	s4,s4,157
	.loc 1 107 1546
	sw	s9,0(a4)
	.loc 1 107 1675 is_stmt 1
	.loc 1 107 1692 is_stmt 0
	sw	s4,0(s0)
.LBE415:
	.loc 1 107 1724 is_stmt 1
	.loc 1 107 1725
	.loc 1 107 1741 is_stmt 0
	lw	a4,16(sp)
	li	s9,393216
	addi	s9,s9,1
	sw	a4,20(sp)
	sw	s9,0(a4)
.LBB416:
	.loc 1 110 3 is_stmt 1
.LVL279:
	.loc 1 110 38
	.loc 1 110 54 is_stmt 0
	sw	t2,0(s3)
	.loc 1 110 66 is_stmt 1
	.loc 1 110 82 is_stmt 0
	sw	zero,928(t4)
	.loc 1 110 88 is_stmt 1
	.loc 1 110 105 is_stmt 0
	lw	s9,12(sp)
	sw	s9,1440(t3)
	.loc 1 110 133 is_stmt 1
	.loc 1 110 150 is_stmt 0
	sw	zero,-1248(t1)
	.loc 1 110 162 is_stmt 1
	.loc 1 110 179 is_stmt 0
	sw	s8,1824(ra)
	.loc 1 110 224 is_stmt 1
	.loc 1 110 241 is_stmt 0
	sw	t0,1696(a7)
	.loc 1 110 287 is_stmt 1
	.loc 1 110 304 is_stmt 0
	sw	a5,1952(a6)
	.loc 1 110 309 is_stmt 1
	.loc 1 110 326 is_stmt 0
	sw	zero,-1120(a0)
	.loc 1 110 329 is_stmt 1
	.loc 1 110 346 is_stmt 0
	sw	zero,-1888(a1)
	.loc 1 110 375 is_stmt 1
	.loc 1 110 392 is_stmt 0
	sw	s7,-2016(s11)
	.loc 1 110 418 is_stmt 1
	.loc 1 110 435 is_stmt 0
	sw	a5,0(s1)
	.loc 1 110 440 is_stmt 1
	.loc 1 110 457 is_stmt 0
	sw	zero,-992(a2)
	.loc 1 110 460 is_stmt 1
	.loc 1 110 476 is_stmt 0
	sw	s6,672(s10)
	.loc 1 110 516 is_stmt 1
	.loc 1 110 532 is_stmt 0
	sw	s5,1056(t6)
	.loc 1 110 543 is_stmt 1
	.loc 1 110 560 is_stmt 0
	sw	a5,1568(a3)
	.loc 1 110 565 is_stmt 1
	.loc 1 110 582 is_stmt 0
	sw	zero,-864(t5)
	.loc 1 110 585 is_stmt 1
	.loc 1 110 601 is_stmt 0
	lw	a4,8(sp)
	li	s9,524288
	addi	s9,s9,296
	sw	s9,0(a4)
	.loc 1 110 718 is_stmt 1
	.loc 1 110 735 is_stmt 0
	lw	s9,28(sp)
	sw	t0,-736(s9)
	.loc 1 110 856 is_stmt 1
	.loc 1 110 873 is_stmt 0
	lw	s9,32(sp)
	sw	s9,0(s0)
.LBE416:
.LBB417:
	.loc 1 110 906 is_stmt 1
.LVL280:
	.loc 1 110 955
	.loc 1 110 971 is_stmt 0
	sw	t2,0(s3)
	.loc 1 110 983 is_stmt 1
	.loc 1 110 999 is_stmt 0
	sw	zero,928(t4)
	.loc 1 110 1005 is_stmt 1
	.loc 1 110 1022 is_stmt 0
	li	t4,4096
	addi	t4,t4,-1
	sw	t4,1440(t3)
	.loc 1 110 1050 is_stmt 1
	.loc 1 110 1067 is_stmt 0
	li	t3,12288
	sw	t3,-1248(t1)
	.loc 1 110 1079 is_stmt 1
	.loc 1 110 1096 is_stmt 0
	sw	s8,1824(ra)
	.loc 1 110 1141 is_stmt 1
	.loc 1 110 1158 is_stmt 0
	sw	t0,1696(a7)
	.loc 1 110 1204 is_stmt 1
	.loc 1 110 1221 is_stmt 0
	sw	a5,1952(a6)
	.loc 1 110 1226 is_stmt 1
	.loc 1 110 1243 is_stmt 0
	sw	zero,-1120(a0)
	.loc 1 110 1246 is_stmt 1
	.loc 1 110 1263 is_stmt 0
	sw	zero,-1888(a1)
	.loc 1 110 1322 is_stmt 1
	.loc 1 110 1339 is_stmt 0
	sw	s7,-2016(s11)
	.loc 1 110 1365 is_stmt 1
	.loc 1 110 1382 is_stmt 0
	sw	a5,0(s1)
	.loc 1 110 1387 is_stmt 1
	.loc 1 110 1404 is_stmt 0
	sw	zero,-992(a2)
	.loc 1 110 1407 is_stmt 1
	.loc 1 110 1423 is_stmt 0
	sw	s6,672(s10)
	.loc 1 110 1463 is_stmt 1
	.loc 1 110 1479 is_stmt 0
	sw	s5,1056(t6)
	.loc 1 110 1490 is_stmt 1
	.loc 1 110 1507 is_stmt 0
	sw	a5,1568(a3)
	.loc 1 110 1512 is_stmt 1
	.loc 1 110 1529 is_stmt 0
	sw	zero,-864(t5)
	.loc 1 110 1532 is_stmt 1
	.loc 1 110 1548 is_stmt 0
	lw	a3,8(sp)
	li	a5,536576
	addi	a5,a5,320
	sw	a5,0(a3)
	.loc 1 110 1679 is_stmt 1
	.loc 1 110 1696 is_stmt 0
	sw	s4,0(s0)
.LBE417:
	.loc 1 110 1728 is_stmt 1
	.loc 1 110 1729
	.loc 1 110 1745 is_stmt 0
	lw	a4,20(sp)
	lw	a5,40(sp)
	sw	a5,0(a4)
.LVL281:
.L36:
	.loc 1 117 1 is_stmt 1
	.loc 1 117 2
	.loc 1 117 18 is_stmt 0
	lw	t5,16(sp)
	li	a5,88
.LBB418:
	.loc 1 122 220
	li	t1,96
.LBE418:
	.loc 1 117 18
	sw	a5,0(t5)
.LBB419:
	.loc 1 122 3 is_stmt 1
.LVL282:
	.loc 1 122 204
	.loc 1 122 220 is_stmt 0
	sw	t1,0(s3)
	.loc 1 122 305 is_stmt 1
	.loc 1 122 321 is_stmt 0
	li	a1,7
	li	t6,-2147483648
	sw	a1,928(t6)
	.loc 1 122 327 is_stmt 1
	.loc 1 122 344 is_stmt 0
	li	a2,-2147483648
	li	a5,767
	sw	a5,1440(a2)
	.loc 1 122 454 is_stmt 1
	.loc 1 122 573 is_stmt 0
	li	a6,-2147483648
	.loc 1 122 471
	li	t2,-2147479552
	sw	zero,-1248(t2)
	.loc 1 122 556 is_stmt 1
	.loc 1 122 573 is_stmt 0
	addi	a6,a6,1696
	.loc 1 122 649
	li	t0,-2147483648
	.loc 1 122 573
	li	ra,16
	sw	ra,0(a6)
	.loc 1 122 632 is_stmt 1
	.loc 1 122 649 is_stmt 0
	addi	t0,t0,1824
	.loc 1 122 672
	li	a7,-2147483648
	.loc 1 122 649
	li	t1,5
	sw	t1,0(t0)
	.loc 1 122 655 is_stmt 1
	.loc 1 122 672 is_stmt 0
	addi	a7,a7,1952
	li	a4,95
	sw	a4,0(a7)
	.loc 1 122 761 is_stmt 1
	.loc 1 122 778 is_stmt 0
	li	a3,-2147479552
	.loc 1 122 854
	li	a5,-2147479552
	.loc 1 122 912
	li	s11,-2147479552
	.loc 1 122 778
	sw	zero,-1120(a3)
	.loc 1 122 837 is_stmt 1
	.loc 1 122 854 is_stmt 0
	addi	a5,a5,-2016
	li	a4,4
	.loc 1 122 912
	li	s4,3
	addi	s11,s11,-1888
	.loc 1 122 854
	sw	a4,0(a5)
	.loc 1 122 895 is_stmt 1
	.loc 1 122 912 is_stmt 0
	sw	s4,0(s11)
	.loc 1 122 918 is_stmt 1
	.loc 1 122 935 is_stmt 0
	li	a4,15
	.loc 1 122 1015
	li	s10,-2147479552
	.loc 1 122 1072
	li	s9,-2147483648
	.loc 1 122 935
	sw	a4,0(s1)
	.loc 1 122 998 is_stmt 1
	.loc 1 122 1015 is_stmt 0
	sw	zero,-992(s10)
	.loc 1 122 1056 is_stmt 1
	.loc 1 122 1072 is_stmt 0
	addi	s9,s9,1056
	li	a4,1
	.loc 1 122 1099
	li	s8,-2147483648
	.loc 1 122 1072
	sw	a4,0(s9)
	.loc 1 122 1083 is_stmt 1
	.loc 1 122 1099 is_stmt 0
	sw	s4,672(s8)
	.loc 1 122 1105 is_stmt 1
	.loc 1 122 1122 is_stmt 0
	li	s7,-2147483648
	sw	s4,1568(s7)
	.loc 1 122 1163 is_stmt 1
	.loc 1 122 1180 is_stmt 0
	li	s6,-2147479552
	.loc 1 122 1406
	li	s5,-2147483648
	.loc 1 122 1180
	sw	zero,-864(s6)
	.loc 1 122 1189 is_stmt 1
.LVL283:
	.loc 1 122 1390
	.loc 1 122 1453 is_stmt 0
	li	t4,-2147479552
	.loc 1 122 1406
	sw	zero,544(s5)
	.loc 1 122 1435 is_stmt 1
	.loc 1 122 1436
	.loc 1 122 1453 is_stmt 0
	addi	a0,t4,-736
	.loc 1 122 1509
	li	t4,1036288
	.loc 1 122 1453
	sw	a0,8(sp)
	.loc 1 122 1509
	mv	t5,t4
	.loc 1 122 1453
	li	t4,768
	sw	t4,0(a0)
	.loc 1 122 1492 is_stmt 1
	.loc 1 122 1509 is_stmt 0
	addi	t4,t5,-1889
	sw	t4,28(sp)
	sw	t4,0(s0)
.LBE419:
.LBB420:
	.loc 1 122 1542 is_stmt 1
.LVL284:
	.loc 1 122 1782 is_stmt 0
	lw	t1,44(s2)
	.loc 1 122 2003
	li	a0,67108864
	addi	t4,a0,-1
	sw	t4,60(sp)
	.loc 1 122 1782
	slli	a0,t1,2
	.loc 1 122 1751
	sw	a0,0(a6)
.LVL285:
	.loc 1 122 1804
	sw	a1,0(t0)
	.loc 1 122 1837
	lw	t4,48(sp)
	lw	t5,44(s2)
	.loc 1 122 2260
	li	t1,-2147479552
	addi	t1,t1,-96
	.loc 1 122 1837
	mul	t5,t4,t5
	.loc 1 122 2260
	sw	t1,64(sp)
	.loc 1 122 2365
	li	t1,1036288
	addi	t1,t1,157
.LBE420:
	.loc 1 122 2414
	li	t4,393216
.LBB421:
	.loc 1 122 2365
	sw	t1,68(sp)
.LBE421:
	.loc 1 122 2414
	addi	t1,t4,17
	mv	a0,t1
.LBB422:
	.loc 1 122 3122
	li	t1,524288
	addi	t1,t1,16
.LBE422:
.LBB423:
	.loc 1 122 1837
	slli	t5,t5,2
	.loc 1 122 1868
	addi	t5,t5,-1
	.loc 1 122 1827
	sw	t5,0(a7)
	.loc 1 122 1892
	lw	t5,44(s2)
.LBE423:
.LBB424:
	.loc 1 122 3122
	sw	t1,84(sp)
	.loc 1 122 3404
	li	t1,1032192
	mv	t3,t1
.LBE424:
.LBB425:
	.loc 1 122 1892
	lw	t1,52(sp)
.LBE425:
.LBB426:
	.loc 1 122 2752
	li	t4,48
.LBE426:
.LBB427:
	.loc 1 122 1015
	addi	s10,s10,-992
.LBE427:
.LBB428:
	.loc 1 122 1892
	mul	t5,t1,t5
.LBE428:
.LBB429:
	.loc 1 122 3404
	addi	t1,t3,1183
	sw	t1,72(sp)
.LBE429:
.LBB430:
	.loc 1 122 0
	li	t1,1036288
	addi	t1,t1,-1891
	sw	t1,76(sp)
.LBE430:
.LBB431:
	.loc 1 125 3122
	li	t1,524288
	addi	t1,t1,304
	sw	t1,88(sp)
.LBE431:
.LBB432:
	.loc 1 131 633
	li	t1,524288
	addi	t1,t1,48
	sw	t1,92(sp)
.LBE432:
.LBB433:
	.loc 1 122 1892
	slli	t5,t5,2
	.loc 1 122 1888
	sw	t5,-1120(a3)
	.loc 1 122 1958
	lw	t5,44(s2)
.LBE433:
.LBB434:
	.loc 1 131 1090
	li	t1,12288
	addi	t1,t1,-1
	sw	t1,96(sp)
.LBE434:
.LBB435:
	.loc 1 122 1941
	sw	t5,0(a5)
	.loc 1 122 1980
	li	t1,5
	sw	t1,0(s11)
	.loc 1 122 2003
	lw	t5,60(sp)
.LBE435:
.LBB436:
	.loc 1 131 1590
	li	t1,528384
	addi	t1,t1,16
.LBE436:
.LBB437:
	.loc 1 122 2003
	sw	t5,0(s1)
	.loc 1 122 2032
	sw	zero,0(s10)
	.loc 1 122 2070
	sw	a4,0(s9)
	.loc 1 122 2097
	li	t5,15
	sw	t5,672(s8)
	.loc 1 122 2134
	lw	t5,44(s2)
	.loc 1 122 2136
	lw	t3,44(sp)
.LBE437:
.LBB438:
	.loc 1 131 1590
	sw	t1,100(sp)
.LBE438:
.LBB439:
	.loc 1 122 2134
	addi	t5,t5,-1
	.loc 1 122 2136
	sub	t5,t5,t3
	.loc 1 122 2120
	sw	t5,1568(s7)
.LBE439:
.LBB440:
	.loc 1 131 1724
	li	t1,1032192
.LBE440:
.LBB441:
	.loc 1 122 2159
	sw	t3,-864(s6)
.LBE441:
.LBB442:
	.loc 1 131 1724
	addi	t1,t1,157
.LBE442:
.LBB443:
	.loc 1 122 2180
	lw	t5,44(s2)
.LBE443:
.LBB444:
	.loc 1 131 1724
	sw	t1,36(sp)
.LBE444:
.LBB445:
	.loc 1 122 2180
	lw	t1,52(sp)
	.loc 1 122 2172
	sw	t3,44(sp)
.LBE445:
.LBB446:
	.loc 1 122 1099
	addi	s8,s8,672
.LBE446:
.LBB447:
	.loc 1 122 2180
	mul	t5,t1,t5
.LBE447:
.LBB448:
	.loc 1 136 611
	li	t1,528384
	addi	t1,t1,8
	sw	t1,104(sp)
.LBE448:
.LBB449:
	.loc 1 136 1538
	li	t1,524288
	addi	t1,t1,40
	sw	t1,108(sp)
.LBE449:
.LBB450:
	.loc 1 140 633
	li	t1,524288
	addi	t1,t1,336
	sw	t1,112(sp)
.LBE450:
.LBB451:
	.loc 1 140 1592
	li	t1,528384
	addi	t1,t1,304
	sw	t1,116(sp)
.LBE451:
.LBB452:
	.loc 1 122 2289
	lw	t1,80(sp)
	.loc 1 122 2180
	slli	t5,t5,2
	.loc 1 122 2172
	add	t5,t5,t3
	.loc 1 122 2289
	sub	t1,t1,t5
	mv	t3,t1
	.loc 1 122 2260
	lw	t1,64(sp)
.LBE452:
.LBB453:
	.loc 1 122 1122
	addi	s7,s7,1568
	.loc 1 122 1180
	addi	s6,s6,-864
.LBE453:
.LBB454:
	.loc 1 122 2260
	sw	t3,0(t1)
	.loc 1 122 2318
	lw	t3,136(sp)
.LBE454:
.LBB455:
	.loc 1 122 2815
	li	t1,287
.LBE455:
.LBB456:
	.loc 1 122 321
	addi	t6,t6,928
.LBE456:
.LBB457:
	.loc 1 122 2318
	add	t5,t5,t3
	.loc 1 122 2313
	sw	t5,544(s5)
	.loc 1 122 2365
	lw	t5,68(sp)
.LBE457:
.LBB458:
	.loc 1 122 2566
	li	t3,4096
.LBE458:
.LBB459:
	.loc 1 122 344
	addi	a2,a2,1440
.LBE459:
.LBB460:
	.loc 1 122 2365
	sw	t5,0(s0)
.LBE460:
	.loc 1 122 2414
	lw	t5,16(sp)
	sw	a0,20(sp)
.LBB461:
	.loc 1 122 471
	addi	t2,t2,-1248
.LBE461:
	.loc 1 122 2414
	sw	a0,0(t5)
.LBB462:
	.loc 1 122 2566
	sw	t3,0(a5)
	.loc 1 122 2595
	sw	s4,0(s11)
	.loc 1 122 2618
	lw	a0,12(sp)
.LBE462:
.LBB463:
	.loc 1 122 778
	addi	a3,a3,-1120
	.loc 1 122 1406
	addi	s5,s5,544
.LBE463:
.LBB464:
	.loc 1 122 2618
	sw	a0,0(s1)
	.loc 1 122 2663
	sw	zero,0(s10)
	.loc 1 122 2692
	li	a0,5
	sw	a0,0(t0)
	.loc 1 122 2752
	sw	t4,0(a6)
	.loc 1 122 2815
	sw	t1,0(a7)
	.loc 1 122 2837
	sw	zero,0(a3)
	.loc 1 122 2856
	sw	s4,0(s8)
	.loc 1 122 2915
	li	a0,8
	sw	a0,0(s9)
	.loc 1 122 2958
	sw	t1,0(s7)
	.loc 1 122 2980
	sw	zero,0(s6)
	.loc 1 122 2999
	sw	a1,0(t6)
	.loc 1 122 3053
	sw	a4,0(s3)
	.loc 1 122 3081
	sw	t1,0(a2)
	.loc 1 122 3103
	sw	zero,0(t2)
	.loc 1 122 3122
	lw	a0,84(sp)
	.loc 1 122 3256
	li	t1,768
	.loc 1 122 3122
	sw	a0,0(s5)
	.loc 1 122 3256
	lw	t3,8(sp)
.LBE464:
.LBB465:
	.loc 1 122 3778
	li	a0,767
.LBE465:
.LBB466:
	.loc 1 122 3256
	sw	t1,0(t3)
	.loc 1 122 3404
	lw	t1,72(sp)
	sw	t1,0(s0)
.LBE466:
.LBB467:
	.loc 1 122 3654
	li	t1,96
	sw	t1,0(s3)
	.loc 1 122 3755
	sw	a1,0(t6)
	.loc 1 122 3778
	sw	a0,0(a2)
	.loc 1 122 3905
	sw	zero,0(t2)
	.loc 1 122 4007
	sw	ra,0(a6)
	.loc 1 122 4083
	li	a0,5
	sw	a0,0(t0)
	.loc 1 122 0
	li	a0,95
	sw	a0,0(a7)
	sw	zero,0(a3)
	li	a0,4
	sw	a0,0(a5)
	sw	s4,0(s11)
	li	a0,15
	sw	a0,0(s1)
	sw	zero,0(s10)
	sw	a4,0(s9)
	sw	s4,0(s8)
	sw	s4,0(s7)
	sw	zero,0(s6)
	sw	zero,0(s5)
	lw	a0,76(sp)
	sw	a0,0(s0)
.LBE467:
	lw	a0,20(sp)
	sw	t5,16(sp)
	sw	a0,0(t5)
.LBB468:
	.loc 1 125 220
	sw	t1,0(s3)
	.loc 1 125 321
	sw	a1,0(t6)
	.loc 1 125 344
	li	t5,767
	sw	t5,0(a2)
	.loc 1 125 471
	sw	zero,0(t2)
	.loc 1 125 573
	sw	ra,0(a6)
	.loc 1 125 649
	li	a0,5
	sw	a0,0(t0)
	.loc 1 125 672
	li	t5,95
	sw	t5,0(a7)
	.loc 1 125 778
	sw	zero,0(a3)
	.loc 1 125 854
	li	t5,4
	sw	t5,0(a5)
	.loc 1 125 912
	sw	s4,0(s11)
	.loc 1 125 935
	li	a0,15
	sw	a0,0(s1)
	.loc 1 125 1015
	sw	zero,0(s10)
	.loc 1 125 1072
	sw	a4,0(s9)
	.loc 1 125 1099
	sw	s4,0(s8)
.LVL286:
	.loc 1 125 1122
	sw	s4,0(s7)
.LVL287:
	.loc 1 125 1180
	sw	zero,0(s6)
	.loc 1 125 1406
	sw	zero,0(s5)
	.loc 1 125 1453
	sw	t3,8(sp)
	li	t5,768
	sw	t5,0(t3)
	.loc 1 125 1509
	lw	t5,28(sp)
.LBE468:
.LBB469:
	.loc 1 144 611
	li	a0,528384
	addi	t3,a0,296
.LBE469:
.LBB470:
	.loc 1 125 1509
	sw	t5,0(s0)
.LBE470:
.LBB471:
	.loc 1 125 1782
	lw	t5,44(s2)
.LBE471:
.LBB472:
	.loc 1 144 611
	sw	t3,128(sp)
.LBE472:
.LBB473:
	.loc 1 144 1540
	li	a0,524288
.LBE473:
.LBB474:
	.loc 1 125 1782
	slli	t5,t5,2
	.loc 1 125 1751
	sw	t5,0(a6)
	.loc 1 125 1804
	sw	a1,0(t0)
.LBE474:
.LBB475:
	.loc 1 144 1540
	addi	a0,a0,328
	sw	a0,84(sp)
.LBE475:
	.loc 1 153 18
	li	a0,1015812096
.LBB476:
	.loc 1 125 1837
	lw	t5,44(s2)
.LBE476:
