	.file	"llm.m.c"
	.option nopic
	.attribute arch, "rv32i2p1_m2p0"
	.attribute unaligned_access, 0
	.attribute stack_align, 16
	.text
.Ltext0:
	.cfi_sections	.debug_frame
	.file 0 "/home/mahmoudsamy/grad/ZC702/SW" "apps/llm/kernels/llm.m.c"
	.align	2
	.type	matmul_q4, @function
matmul_q4:
.LFB12:
	.file 1 "apps/llm/kernels/llm.m.c"
	.loc 1 197 41
	.cfi_startproc
.LVL0:
	.loc 1 198 4
	.loc 1 197 41 is_stmt 0
	addi	sp,sp,-256
	.cfi_def_cfa_offset 256
	sw	s3,236(sp)
	sw	s7,220(sp)
	sw	s10,208(sp)
	sw	ra,252(sp)
	sw	s2,240(sp)
	.loc 1 214 12
	lw	a3,4(a0)
	.cfi_offset 19, -20
	.cfi_offset 23, -36
	.cfi_offset 26, -48
	.cfi_offset 1, -4
	.cfi_offset 18, -16
	.loc 1 197 41
	mv	s10,a0
.LVL1:
	.loc 1 199 4 is_stmt 1
	.loc 1 200 4
	.loc 1 201 4
	.loc 1 202 4
	.loc 1 203 4
	.loc 1 204 4
	.loc 1 205 4
	.loc 1 206 4
	.loc 1 207 4
	.loc 1 209 4
	.loc 1 197 41 is_stmt 0
	mv	s7,a1
	.loc 1 214 7
	srli	a5,a3,31
	add	a5,a5,a3
	srai	a5,a5,1
	.loc 1 215 20
	addi	a5,a5,127
	.loc 1 215 7
	srai	a4,a5,31
	andi	a4,a4,127
	add	a5,a4,a5
	.loc 1 214 12
	sw	a3,168(sp)
	.loc 1 215 7
	andi	s3,a5,-128
	.loc 1 216 6
	ble	s3,a3,.L2
	mv	s3,a3
.L2:
	.loc 1 212 16
	lw	a2,8(s10)
	.loc 1 213 6
	lw	a3,0(s10)
	.loc 1 212 11
	srai	a5,a2,31
	.loc 1 213 6
	div	a3,a3,a2
	.loc 1 212 11
	andi	a4,a5,7
	add	a4,a4,a2
	srai	a4,a4,3
	.loc 1 212 16
	sw	a2,132(sp)
	.loc 1 212 11
	sw	a4,12(sp)
	.loc 1 213 6
	sw	a3,68(sp)
	.loc 1 209 9
	bne	s7,zero,.L58
	.loc 1 218 23 discriminator 2
	li	s2,0
	.loc 1 219 22 discriminator 2
	sw	s3,168(sp)
	.loc 1 209 9 discriminator 1
	sw	zero,32(sp)
.L3:
.LVL2:
	.loc 1 221 4 is_stmt 1
	.loc 1 221 19 discriminator 1
	lw	a4,168(sp)
	ble	a4,s2,.L1
.LBB38:
	.loc 1 244 264 is_stmt 0
	lw	a7,132(sp)
.LBE38:
.LBB39:
	.loc 1 232 381
	lw	a1,32(sp)
.LVL3:
.LBE39:
.LBB40:
	.loc 1 269 209
	li	a3,4096
.LBE40:
.LBB41:
	.loc 1 244 264
	andi	a5,a5,15
.LBE41:
.LBB42:
	.loc 1 269 209
	addi	a3,a3,-1024
.LBE42:
.LBB43:
	.loc 1 244 264
	add	a5,a5,a7
.LBE43:
.LBB44:
	.loc 1 272 382
	li	a4,4096
.LBE44:
.LBB45:
	.loc 1 269 209
	add	a7,a1,a3
.LBE45:
.LBB46:
	.loc 1 243 118
	lw	a6,12(sp)
.LBE46:
.LBB47:
	.loc 1 244 264
	srai	a5,a5,4
.LBE47:
.LBB48:
	.loc 1 272 382
	addi	a4,a4,-2048
	add	a4,a1,a4
.LBE48:
.LBB49:
	.loc 1 232 381
	li	a2,4096
.LBE49:
.LBB50:
	.loc 1 244 264
	sw	a5,136(sp)
.LBE50:
.LBB51:
	.loc 1 269 216
	srli	a5,a7,1
.LBE51:
.LBB52:
	.loc 1 232 381
	addi	a2,a2,-1016
.LBE52:
.LBB53:
	.loc 1 269 216
	sw	a5,140(sp)
.LBE53:
.LBB54:
	.loc 1 272 389
	srli	a5,a4,1
.LBE54:
.LBB55:
	.loc 1 232 381
	add	a2,a1,a2
.LBE55:
.LBB56:
	.loc 1 272 382
	mv	a3,a1
	.loc 1 272 389
	sw	a5,144(sp)
.LBE56:
.LBB57:
	.loc 1 232 465
	li	a1,1036288
	slli	a5,a6,5
	sw	a5,152(sp)
	addi	a5,a1,-1951
	sw	a5,172(sp)
.LBE57:
.LBB58:
	.loc 1 242 111
	li	a5,16384
	addi	a5,a5,-1
.LBE58:
.LBB59:
	.loc 1 243 118
	slli	a0,a6,3
.LVL4:
.LBE59:
.LBB60:
	.loc 1 242 111
	sw	a5,60(sp)
.LBE60:
.LBB61:
	.loc 1 245 261
	li	a5,65536
	sw	s5,228(sp)
	sw	s6,224(sp)
	sw	s9,212(sp)
	.cfi_offset 21, -28
	.cfi_offset 22, -32
	.cfi_offset 25, -44
.LBE61:
.LBB62:
	.loc 1 232 388
	srli	s6,a2,1
	.loc 1 232 381
	sw	a2,84(sp)
	.loc 1 232 465
	li	s9,-2147479552
.LBE62:
.LBB63:
	.loc 1 243 334
	addi	a2,a0,-1
.LBE63:
.LBB64:
	.loc 1 300 540 discriminator 4
	srli	s5,a3,1
.LBE64:
.LBB65:
	.loc 1 245 261
	addi	a5,a5,-1
	sw	s3,188(sp)
	sw	s7,184(sp)
	sw	s0,248(sp)
	sw	s1,244(sp)
	sw	s4,232(sp)
	sw	s8,216(sp)
	sw	s11,204(sp)
	.cfi_offset 8, -8
	.cfi_offset 9, -12
	.cfi_offset 20, -24
	.cfi_offset 24, -40
	.cfi_offset 27, -52
.LBE65:
.LBB66:
	.loc 1 243 118
	sw	a0,148(sp)
.LBE66:
.LBB67:
	.loc 1 269 209
	sw	a7,108(sp)
.LBE67:
.LBB68:
	.loc 1 272 382
	sw	a4,88(sp)
.LBE68:
.LBB69:
	.loc 1 243 334
	sw	a2,16(sp)
.LBE69:
.LBB70:
	.loc 1 232 465
	addi	s9,s9,-1632
.LBE70:
.LBB71:
	.loc 1 245 261
	sw	a5,80(sp)
	sw	s6,176(sp)
	sw	s5,180(sp)
	mv	s3,s10
	mv	s7,s2
.LVL5:
.L56:
.LBE71:
	.loc 1 223 7 is_stmt 1
	.loc 1 224 7
	.loc 1 226 7
	.loc 1 223 11 is_stmt 0
	lw	a5,168(sp)
	.loc 1 224 9
	li	a4,128
	.loc 1 223 11
	sub	a5,a5,s7
	.loc 1 224 9
	ble	a5,a4,.L5
	li	a5,128
.L5:
	.loc 1 226 38
	addi	a5,a5,15
	.loc 1 226 11
	andi	a3,a5,-16
	sw	a3,64(sp)
.LVL6:
	.loc 1 227 7 is_stmt 1
.LBB72:
	.loc 1 232 89 is_stmt 0
	li	t0,-2147479552
.LBE72:
	.loc 1 226 41
	srai	a5,a5,4
.LBB73:
	.loc 1 232 89
	sw	a3,-2016(t0)
	.loc 1 232 121
	li	t6,-2147479552
	.loc 1 232 162
	slli	a4,a5,6
	.loc 1 232 121
	sw	zero,-1888(t6)
	.loc 1 232 172
	addi	a4,a4,-1
	sw	a4,104(sp)
	.loc 1 232 144
	li	t3,-2147479552
	sw	a4,-1760(t3)
	.loc 1 232 192
	li	t1,-2147479552
	sw	zero,-992(t1)
	.loc 1 232 223
	li	a7,-2147483648
	li	t5,1
	sw	t5,1056(a7)
.LBE73:
	.loc 1 226 11
	mv	s5,a3
.LBB74:
	.loc 1 232 53
	addi	a3,a3,-1
.LVL7:
	sw	a3,96(sp)
	.loc 1 232 250
	li	a6,-2147483648
	sw	a3,672(a6)
	.loc 1 232 273
	li	a0,-2147483648
	sw	a3,1568(a0)
	.loc 1 232 305
	li	a1,-2147479552
	sw	zero,-864(a1)
	.loc 1 232 363
	lw	a3,176(sp)
	li	s2,-2147483648
	.loc 1 232 423
	li	a2,-2147479552
	.loc 1 232 363
	sw	a3,544(s2)
	.loc 1 232 423
	sw	s5,-736(a2)
	.loc 1 232 465
	lw	a3,172(sp)
.LBE74:
	.loc 1 229 37
	add	a4,s5,s7
.LBB75:
	.loc 1 232 363
	addi	s2,s2,544
	.loc 1 232 465
	sw	a3,0(s9)
.LBE75:
.LBB76:
	.loc 1 234 110
	lw	t4,4(s3)
	.loc 1 234 53
	addi	a3,a4,-1
	.loc 1 234 67
	sub	s0,a3,s7
	.loc 1 234 97
	sw	t4,-2016(t0)
	.loc 1 234 132
	sw	zero,-1888(t6)
	.loc 1 234 164
	lw	t4,0(s3)
	lw	t2,8(s3)
	.loc 1 234 178
	lw	s4,4(s3)
.LBE76:
	.loc 1 227 11
	srai	t6,s5,3
.LBB77:
	.loc 1 234 164
	div	a3,t4,t2
.LBE77:
	.loc 1 227 11
	sw	t6,100(sp)
.LVL8:
	.loc 1 228 7 is_stmt 1
	slli	t6,s7,3
.LVL9:
	sw	t6,112(sp)
.LVL10:
	.loc 1 229 7
.LBB78:
	.loc 1 234 455 is_stmt 0
	addi	s1,s0,1
	.loc 1 234 485
	li	t4,1036288
	addi	t4,t4,99
.LBE78:
	.loc 1 229 8
	slli	a4,a4,3
.LVL11:
	.loc 1 230 7 is_stmt 1
.LBB79:
	.loc 1 232 2
	.loc 1 232 72
	.loc 1 232 104
	.loc 1 232 127
	.loc 1 232 175
	.loc 1 232 207
	.loc 1 232 234
	.loc 1 232 256
	.loc 1 232 288
	.loc 1 232 314
	.loc 1 232 347
	.loc 1 232 405
	.loc 1 232 406
	.loc 1 232 448
.LBE79:
.LBB80:
	.loc 1 234 2
	.loc 1 234 80
	.loc 1 234 115
	.loc 1 234 138
	.loc 1 234 178 is_stmt 0
	mul	a3,a3,s4
	.loc 1 234 191
	addi	a3,a3,-1
	.loc 1 234 155
	sw	a3,-1760(t3)
.LVL12:
	.loc 1 234 194 is_stmt 1
	.loc 1 234 211 is_stmt 0
	sw	zero,-992(t1)
	.loc 1 234 229 is_stmt 1
	.loc 1 234 245 is_stmt 0
	sw	t5,1056(a7)
	.loc 1 234 256 is_stmt 1
	.loc 1 234 272 is_stmt 0
	sw	s0,672(a6)
	.loc 1 234 278 is_stmt 1
	.loc 1 234 305 is_stmt 0
	lw	a3,4(s3)
	addi	a3,a3,-1
	.loc 1 234 307
	sub	a3,a3,s7
	.loc 1 234 295
	sw	a3,1568(a0)
	.loc 1 234 313 is_stmt 1
	.loc 1 234 330 is_stmt 0
	sw	s7,-864(a1)
	.loc 1 234 339 is_stmt 1
.LVL13:
	.loc 1 234 375
	.loc 1 234 408 is_stmt 0
	lw	a3,24(s3)
	srli	a3,a3,1
	.loc 1 234 396
	add	a3,a3,s7
	.loc 1 234 391
	sw	a3,0(s2)
	.loc 1 234 425 is_stmt 1
	.loc 1 234 426
	.loc 1 234 443 is_stmt 0
	sw	s1,-736(a2)
	.loc 1 234 468 is_stmt 1
	.loc 1 234 485 is_stmt 0
	sw	t4,0(s9)
.LBE80:
	.loc 1 236 7 is_stmt 1
.LVL14:
	.loc 1 236 17 discriminator 1
	lw	a3,68(sp)
	ble	a3,zero,.L46
.LBB81:
	.loc 1 244 107 is_stmt 0
	slli	a3,s7,3
	.loc 1 244 97
	addi	a4,a4,-1
.LVL15:
	.loc 1 244 107
	sub	a4,a4,a3
.LVL16:
.LBE81:
	.loc 1 279 26
	slli	a5,a5,5
	sw	a5,92(sp)
.LBB82:
	.loc 1 244 1108
	addi	a5,a4,1
	sw	a5,120(sp)
.LBE82:
.LBB83:
	.loc 1 245 58
	lw	a5,100(sp)
.LBE83:
.LBB84:
	.loc 1 242 59
	li	a3,-2147483648
	.loc 1 242 111
	li	a2,-2147483648
.LBE84:
.LBB85:
	.loc 1 245 58
	addi	a5,a5,-1
	sw	a5,76(sp)
.LBE85:
.LBB86:
	.loc 1 242 59
	addi	a5,a3,1696
	.loc 1 242 400
	li	a1,524288
	.loc 1 242 59
	sw	a5,36(sp)
	.loc 1 242 111
	addi	a5,a2,1952
	.loc 1 242 557
	li	a0,1032192
	.loc 1 242 111
	sw	a5,40(sp)
	.loc 1 242 400
	addi	a5,a1,8
	sw	a5,124(sp)
	.loc 1 242 557
	addi	a5,a0,101
.LBE86:
.LBB87:
	.loc 1 244 107
	sw	a4,116(sp)
.LBE87:
.LBB88:
	.loc 1 245 238
	sw	zero,48(sp)
	li	s8,0
.LBE88:
.LBB89:
	.loc 1 242 557
	sw	a5,128(sp)
	sw	s1,156(sp)
	sw	s0,160(sp)
	sw	s7,164(sp)
.LVL17:
.L54:
.LBE89:
	.loc 1 238 10 is_stmt 1
	.loc 1 238 15 is_stmt 0
	lw	a5,68(sp)
	sub	a4,a5,s8
	sw	a4,56(sp)
.LVL18:
	.loc 1 239 10 is_stmt 1
	.loc 1 239 12 is_stmt 0
	li	a5,4
	sw	a4,24(sp)
	ble	a4,a5,.L9
	sw	a5,24(sp)
.L9:
.LVL19:
.LBB90:
	.loc 1 242 2 is_stmt 1
	.loc 1 242 59 is_stmt 0
	lw	a5,36(sp)
	li	a3,4096
	.loc 1 242 88
	li	t6,-2147483648
	.loc 1 242 59
	sw	a3,0(a5)
.LVL20:
	.loc 1 242 22
	lw	a4,24(sp)
	.loc 1 242 148
	li	t5,-2147479552
	.loc 1 242 177
	li	t4,1
	.loc 1 242 22
	addi	a3,a4,-1
.LVL21:
	.loc 1 242 42 is_stmt 1
	.loc 1 242 71
	.loc 1 242 88 is_stmt 0
	sw	a3,28(sp)
	sw	a3,1824(t6)
	.loc 1 242 94 is_stmt 1
	.loc 1 242 111 is_stmt 0
	lw	a2,40(sp)
	lw	a1,60(sp)
	.loc 1 242 177
	li	t1,-2147479552
	.loc 1 242 223
	li	a7,-2147479552
	.loc 1 242 111
	sw	a1,0(a2)
	.loc 1 242 131 is_stmt 1
	.loc 1 242 148 is_stmt 0
	sw	zero,-1120(t5)
	.loc 1 242 160 is_stmt 1
	.loc 1 242 177 is_stmt 0
	sw	t4,-1888(t1)
	.loc 1 242 206 is_stmt 1
	.loc 1 242 223 is_stmt 0
	li	s5,8
	sw	s5,-2016(a7)
	.loc 1 242 232 is_stmt 1
	.loc 1 242 249 is_stmt 0
	li	a6,-2147479552
	li	a5,15
	sw	a5,-1760(a6)
	.loc 1 242 253 is_stmt 1
	.loc 1 242 289 is_stmt 0
	li	s0,-2147483648
	.loc 1 242 270
	li	a0,-2147479552
	sw	zero,-992(a0)
	.loc 1 242 273 is_stmt 1
	.loc 1 242 289 is_stmt 0
	addi	s0,s0,672
	li	t0,7
	sw	t0,0(s0)
	.loc 1 242 318 is_stmt 1
	.loc 1 242 334 is_stmt 0
	li	s1,-2147483648
	sw	t4,1056(s1)
	.loc 1 242 343 is_stmt 1
	.loc 1 242 360 is_stmt 0
	li	a1,-2147483648
	sw	a5,1568(a1)
	.loc 1 242 364 is_stmt 1
	.loc 1 242 381 is_stmt 0
	li	a2,-2147479552
	sw	zero,-864(a2)
	.loc 1 242 384 is_stmt 1
	.loc 1 242 400 is_stmt 0
	lw	t3,124(sp)
	.loc 1 242 470
	li	a3,-2147479552
.LVL22:
	.loc 1 242 478
	slli	a5,a4,4
	.loc 1 242 400
	sw	t3,0(s2)
	.loc 1 242 453 is_stmt 1
	.loc 1 242 470 is_stmt 0
	sw	a5,-736(a3)
	.loc 1 242 540 is_stmt 1
	.loc 1 242 557 is_stmt 0
	lw	t3,128(sp)
.LBE90:
.LBB91:
	.loc 1 243 28
	sw	a4,24(sp)
	add	a5,a4,s8
.LBE91:
.LBB92:
	.loc 1 242 557
	sw	t3,0(s9)
.LBE92:
.LBB93:
	.loc 1 243 2 is_stmt 1
.LVL23:
	.loc 1 243 98 is_stmt 0
	lw	t3,148(sp)
	.loc 1 243 22
	addi	a5,a5,-1
.LVL24:
	.loc 1 243 81 is_stmt 1
	.loc 1 243 123
.LBE93:
.LBB94:
	.loc 1 245 181 is_stmt 0
	li	s4,-2147479552
.LBE94:
.LBB95:
	.loc 1 243 98
	sw	t3,-2016(a7)
.LVL25:
	.loc 1 243 37
	sub	t3,a5,s8
.LVL26:
	.loc 1 243 140
	sw	t3,-1888(t1)
	.loc 1 243 146 is_stmt 1
	.loc 1 243 172 is_stmt 0
	lw	t2,8(s3)
	lw	a5,0(s3)
	.loc 1 243 186
	lw	s7,12(sp)
.LBE95:
.LBB96:
	.loc 1 245 181
	addi	s4,s4,-1248
.LBE96:
.LBB97:
	.loc 1 243 172
	div	a5,a5,t2
	.loc 1 243 484
	sw	t3,44(sp)
.LBE97:
.LBB98:
	.loc 1 245 181
	sw	s4,52(sp)
.LBE98:
.LBB99:
	.loc 1 242 334
	addi	s1,s1,1056
.LBE99:
.LBB100:
	.loc 1 243 484
	addi	t3,t3,1
.LVL27:
	.loc 1 243 521
	li	a4,1036288
.LVL28:
	addi	a4,a4,103
.LBE100:
.LBB101:
	.loc 1 244 1138
	li	ra,1036288
	addi	ra,ra,73
.LBE101:
.LBB102:
	.loc 1 245 93
	li	t2,-2147483648
	.loc 1 245 121
	li	s10,-2147483648
	.loc 1 245 144
	li	s11,-2147483648
	.loc 1 245 402
	li	s4,63
	.loc 1 245 705
	li	s6,1032192
	addi	s6,s6,75
.LBE102:
.LBB103:
	.loc 1 243 181
	sub	a5,a5,s8
	.loc 1 243 186
	mul	a5,a5,s7
	slli	a5,a5,3
	.loc 1 243 206
	addi	a5,a5,-1
	.loc 1 243 163
	sw	a5,-1760(a6)
.LVL29:
	.loc 1 243 209 is_stmt 1
	.loc 1 243 226 is_stmt 0
	lw	a5,48(sp)
	sw	a5,-992(a0)
	.loc 1 243 251 is_stmt 1
	.loc 1 243 267 is_stmt 0
	sw	t4,0(s1)
	.loc 1 243 278 is_stmt 1
	.loc 1 243 294 is_stmt 0
	sw	zero,0(s0)
	.loc 1 243 300 is_stmt 1
	.loc 1 243 317 is_stmt 0
	lw	s7,16(sp)
	sw	s7,1568(a1)
	.loc 1 243 342 is_stmt 1
	.loc 1 243 359 is_stmt 0
	sw	zero,-864(a2)
	.loc 1 243 368 is_stmt 1
.LVL30:
	.loc 1 243 411
.LBE103:
.LBB104:
	.loc 1 244 1111 is_stmt 0
	lw	s7,120(sp)
.LBE104:
.LBB105:
	.loc 1 243 444
	lw	a5,12(s3)
.LBE105:
.LBB106:
	.loc 1 244 1111
	mul	s7,t3,s7
.LBE106:
.LBB107:
	.loc 1 243 444
	srli	a5,a5,1
.LBE107:
.LBB108:
	.loc 1 244 1111
	sw	s7,20(sp)
.LBE108:
.LBB109:
	.loc 1 243 432
	lw	s7,48(sp)
	add	a5,a5,s7
	.loc 1 243 427
	sw	a5,0(s2)
.LVL31:
	.loc 1 243 461 is_stmt 1
	.loc 1 243 462
	.loc 1 243 479 is_stmt 0
	sw	t3,-736(a3)
	.loc 1 243 504 is_stmt 1
	.loc 1 243 521 is_stmt 0
	sw	a4,0(s9)
.LBE109:
.LBB110:
	.loc 1 244 2 is_stmt 1
.LVL32:
	.loc 1 244 120
	.loc 1 244 170 is_stmt 0
	lw	a4,4(s3)
.LBE110:
.LBB111:
	.loc 1 245 616
	lw	a5,24(sp)
	lw	t3,100(sp)
.LVL33:
.LBE111:
.LBB112:
	.loc 1 244 140
	lw	s7,8(s3)
.LVL34:
.LBE112:
.LBB113:
	.loc 1 245 616
	mul	t3,a5,t3
.LBE113:
.LBB114:
	.loc 1 244 170
	srai	a5,a4,31
	andi	a5,a5,7
	add	a5,a5,a4
	.loc 1 244 140
	lw	a4,0(s3)
	.loc 1 244 170
	srai	a5,a5,3
	.loc 1 244 140
	div	a4,a4,s7
.LBE114:
.LBB115:
	.loc 1 245 623
	slli	t3,t3,6
.LBE115:
.LBB116:
	.loc 1 244 159
	mul	a4,a4,a5
	.loc 1 244 137
	lw	a5,36(sp)
	.loc 1 244 210
	slli	a4,a4,6
	.loc 1 244 137
	sw	a4,0(a5)
.LVL35:
	.loc 1 244 215 is_stmt 1
	.loc 1 244 232 is_stmt 0
	sw	zero,1824(t6)
	.loc 1 244 238 is_stmt 1
	.loc 1 244 275 is_stmt 0
	lw	a4,8(s3)
	lw	a5,0(s3)
	.loc 1 244 305
	lw	s7,4(s3)
	.loc 1 244 275
	div	a5,a5,a4
	.loc 1 244 305
	lw	a4,4(s3)
	srai	a4,a4,31
	andi	a4,a4,7
	add	a4,a4,s7
	srai	a4,a4,3
	.loc 1 244 294
	mul	a5,a5,a4
	.loc 1 244 272
	lw	a4,136(sp)
	mul	a5,a5,a4
	.loc 1 244 255
	lw	a4,40(sp)
	.loc 1 244 272
	slli	a5,a5,6
	.loc 1 244 345
	addi	a5,a5,-1
	.loc 1 244 255
	sw	a5,0(a4)
	.loc 1 244 348 is_stmt 1
	.loc 1 244 365 is_stmt 0
	sw	zero,-1120(t5)
	.loc 1 244 443 is_stmt 1
	.loc 1 244 474 is_stmt 0
	lw	a4,4(s3)
	srai	a5,a4,31
	andi	a5,a5,7
	add	a5,a5,a4
	srai	a5,a5,3
	.loc 1 244 514
	slli	a5,a5,6
	.loc 1 244 460
	sw	a5,-2016(a7)
	.loc 1 244 519 is_stmt 1
	.loc 1 244 536 is_stmt 0
	lw	a5,44(sp)
	sw	a5,-1888(t1)
	.loc 1 244 542 is_stmt 1
	.loc 1 244 569 is_stmt 0
	lw	a4,8(s3)
	lw	a5,0(s3)
	.loc 1 244 598
	lw	s7,4(s3)
	.loc 1 244 569
	div	a5,a5,a4
	.loc 1 244 598
	srai	a4,s7,31
	andi	a4,a4,7
	add	a4,a4,s7
	srai	a4,a4,3
	.loc 1 244 579
	sub	a5,a5,s8
	.loc 1 244 584
	mul	a5,a5,a4
	slli	a5,a5,6
	.loc 1 244 638
	addi	a5,a5,-1
	.loc 1 244 559
	sw	a5,-1760(a6)
	.loc 1 244 641 is_stmt 1
	.loc 1 244 676 is_stmt 0
	lw	a4,4(s3)
	srai	a5,a4,31
	andi	a5,a5,7
	add	a5,a5,a4
	srai	a5,a5,3
	.loc 1 244 662
	mul	a5,a5,s8
	slli	a5,a5,6
	.loc 1 244 658
	sw	a5,-992(a0)
	.loc 1 244 717 is_stmt 1
	.loc 1 244 733 is_stmt 0
	sw	t4,0(s1)
	.loc 1 244 744 is_stmt 1
	.loc 1 244 760 is_stmt 0
	lw	a5,116(sp)
	sw	a5,0(s0)
	.loc 1 244 766 is_stmt 1
	.loc 1 244 795 is_stmt 0
	lw	a4,4(s3)
	.loc 1 244 836
	lw	s7,112(sp)
	.loc 1 244 795
	srai	a5,a4,31
	andi	a5,a5,7
	add	a5,a5,a4
	srai	a5,a5,3
	.loc 1 244 820
	slli	a5,a5,6
	.loc 1 244 834
	addi	a5,a5,-1
	.loc 1 244 836
	sub	a5,a5,s7
	.loc 1 244 783
	sw	a5,1568(a1)
	.loc 1 244 842 is_stmt 1
	.loc 1 244 859 is_stmt 0
	sw	s7,-864(a2)
	.loc 1 244 868 is_stmt 1
.LVL36:
	.loc 1 244 1022
	.loc 1 244 913 is_stmt 0
	lw	a4,4(s3)
	srai	a5,a4,31
	andi	a5,a5,7
	add	a5,a5,a4
	srai	a5,a5,3
	.loc 1 244 957
	mul	a5,a5,s8
	.loc 1 244 953
	slli	a5,a5,6
	.loc 1 244 872
	add	a5,a5,s7
	.loc 1 244 1043
	lw	s7,20(s3)
.LVL37:
	add	a5,a5,s7
	.loc 1 244 1038
	sw	a5,0(s2)
.LVL38:
	.loc 1 244 1071 is_stmt 1
	.loc 1 244 1072
	.loc 1 244 1089 is_stmt 0
	lw	s7,20(sp)
	sw	s7,-736(a3)
	.loc 1 244 1121 is_stmt 1
	.loc 1 244 1138 is_stmt 0
	sw	ra,0(s9)
.LBE116:
.LBB117:
	.loc 1 245 2 is_stmt 1
.LVL39:
	.loc 1 245 77
	.loc 1 245 93 is_stmt 0
	li	ra,4096
	sw	ra,800(t2)
.LVL40:
	.loc 1 245 105 is_stmt 1
	.loc 1 245 121 is_stmt 0
	lw	t2,28(sp)
	sw	t2,928(s10)
	.loc 1 245 127 is_stmt 1
	.loc 1 245 144 is_stmt 0
	lw	t2,60(sp)
	sw	t2,1440(s11)
	.loc 1 245 164 is_stmt 1
	.loc 1 245 181 is_stmt 0
	lw	a5,52(sp)
	sw	zero,0(a5)
	.loc 1 245 193 is_stmt 1
	.loc 1 245 210 is_stmt 0
	lw	a4,36(sp)
	li	a5,256
	sw	a5,0(a4)
	.loc 1 245 221 is_stmt 1
	.loc 1 245 238 is_stmt 0
	lw	a5,76(sp)
	sw	a5,1824(t6)
	.loc 1 245 244 is_stmt 1
	.loc 1 245 261 is_stmt 0
	lw	a4,40(sp)
	lw	a5,80(sp)
	sw	a5,0(a4)
	.loc 1 245 282 is_stmt 1
	.loc 1 245 299 is_stmt 0
	sw	zero,-1120(t5)
	.loc 1 245 310 is_stmt 1
	.loc 1 245 327 is_stmt 0
	sw	t0,-1888(t1)
	.loc 1 245 359 is_stmt 1
	.loc 1 245 376 is_stmt 0
	sw	s5,-2016(a7)
	.loc 1 245 385 is_stmt 1
	.loc 1 245 402 is_stmt 0
	sw	s4,-1760(a6)
	.loc 1 245 406 is_stmt 1
	.loc 1 245 423 is_stmt 0
	sw	zero,-992(a0)
	.loc 1 245 426 is_stmt 1
	.loc 1 245 442 is_stmt 0
	sw	t0,0(s0)
	.loc 1 245 471 is_stmt 1
	.loc 1 245 487 is_stmt 0
	sw	t4,0(s1)
	.loc 1 245 496 is_stmt 1
	.loc 1 245 513 is_stmt 0
	sw	s4,1568(a1)
	.loc 1 245 517 is_stmt 1
	.loc 1 245 534 is_stmt 0
	sw	zero,-864(a2)
	.loc 1 245 537 is_stmt 1
	.loc 1 245 553 is_stmt 0
	sw	zero,0(s2)
	.loc 1 245 591 is_stmt 1
	.loc 1 245 608 is_stmt 0
	sw	t3,-736(a3)
	.loc 1 245 688 is_stmt 1
	.loc 1 245 705 is_stmt 0
	sw	s6,0(s9)
.LBE117:
	.loc 1 247 10 is_stmt 1
.LVL41:
	.loc 1 247 22 discriminator 1
	lw	a5,132(sp)
	ble	a5,t0,.L51
	lw	a4,28(sp)
	.loc 1 260 19 is_stmt 0
	li	a5,1015029760
	addi	a5,a5,260
	slli	a4,a4,18
	add	a5,a4,a5
	sw	a5,72(sp)
	.loc 1 259 27
	lw	a5,12(sp)
	.loc 1 256 19
	li	a3,1015021568
	.loc 1 258 19
	li	s4,1015021568
	.loc 1 256 19
	addi	a3,a3,4
	.loc 1 258 19
	addi	s4,s4,260
	.loc 1 252 423
	li	s11,-2147483648
	li	s10,393216
	.loc 1 256 19
	add	a3,a4,a3
	.loc 1 259 27
	addi	a5,a5,-2
	.loc 1 256 19
	sw	a3,52(sp)
	.loc 1 258 19
	add	s4,a4,s4
	.loc 1 259 27
	sw	a5,20(sp)
	li	s6,0
	li	s5,0
	.loc 1 252 40
	li	s7,30
	.loc 1 252 423
	addi	s11,s11,20
	addi	s10,s10,1
.LVL42:
.L52:
	.loc 1 252 3 is_stmt 1
	.loc 1 258 1
	.loc 1 258 2
	.loc 1 262 13
	.loc 1 252 20 is_stmt 0
	li	t3,-2147483648
	sw	zero,308(t3)
	.loc 1 252 23 is_stmt 1
	.loc 1 252 40 is_stmt 0
	sw	s7,0(s9)
	.loc 1 252 68 is_stmt 1
	.loc 1 252 85 is_stmt 0
	li	t1,-2147483648
	sw	zero,436(t1)
.LBB118:
	.loc 1 252 89 is_stmt 1
.LVL43:
	.loc 1 252 201
	.loc 1 252 217 is_stmt 0
	li	a5,1
	sw	a5,0(s1)
	.loc 1 252 228 is_stmt 1
	.loc 1 252 244 is_stmt 0
	li	a5,15
	sw	a5,0(s0)
	.loc 1 252 250 is_stmt 1
	lw	a5,16(sp)
	.loc 1 252 267 is_stmt 0
	li	a6,-2147483648
	.loc 1 252 309
	li	a0,-2147479552
	sub	a5,a5,s6
	.loc 1 252 267
	sw	a5,1568(a6)
	.loc 1 252 292 is_stmt 1
	.loc 1 252 309 is_stmt 0
	sw	s6,-864(a0)
	.loc 1 252 318 is_stmt 1
.LVL44:
	.loc 1 252 337
	.loc 1 252 353 is_stmt 0
	sw	s6,0(s2)
	.loc 1 252 361 is_stmt 1
.LBE118:
	.loc 1 252 363
	.loc 1 252 380 is_stmt 0
	li	a7,28
	sw	a7,0(s9)
	.loc 1 252 406 is_stmt 1
	.loc 1 252 407
	.loc 1 252 423 is_stmt 0
	sw	s10,0(s11)
	.loc 1 253 3 is_stmt 1
	.loc 1 253 20 is_stmt 0
	li	a1,-2147483648
	sw	zero,692(a1)
	.loc 1 253 23 is_stmt 1
	.loc 1 253 40 is_stmt 0
	sw	s7,0(s9)
	.loc 1 253 68 is_stmt 1
	.loc 1 253 85 is_stmt 0
	li	a2,-2147483648
	sw	zero,564(a2)
.LBB119:
	.loc 1 253 89 is_stmt 1
.LVL45:
	.loc 1 253 219
	.loc 1 253 307
	.loc 1 253 234 is_stmt 0
	lw	a4,8(s3)
	lw	a5,0(s3)
	.loc 1 253 264
	lw	t4,4(s3)
	.loc 1 253 93
	srai	a3,s5,1
.LVL46:
	.loc 1 253 234
	div	a5,a5,a4
	.loc 1 253 264
	srai	a4,t4,31
	andi	a4,a4,7
	add	a4,a4,t4
	srai	a4,a4,3
.LBE119:
	.loc 1 262 13
	li	t4,-2147483648
	addi	t4,t4,36
.LBB120:
	.loc 1 253 253
	mul	a5,a5,a4
	.loc 1 253 231
	mul	a5,a5,a3
	.loc 1 253 223
	slli	a5,a5,6
	.loc 1 253 323
	sw	a5,0(s2)
.LVL47:
	.loc 1 253 331 is_stmt 1
.LBE120:
	.loc 1 253 333
	.loc 1 253 350 is_stmt 0
	sw	a7,0(s9)
	.loc 1 253 376 is_stmt 1
	.loc 1 253 377
	.loc 1 253 393 is_stmt 0
	sw	s10,0(s11)
	.loc 1 255 13 is_stmt 1
	.loc 1 255 15 is_stmt 0
	beq	s5,zero,.L75
	.loc 1 258 18
	sw	s4,0(s11)
	.loc 1 259 13 is_stmt 1
	.loc 1 259 15 is_stmt 0
	lw	a5,20(sp)
	beq	s5,a5,.L76
.L49:
	.loc 1 262 13
	sw	zero,0(t4)
.L72:
	.loc 1 262 13 is_stmt 1
	call	_taskYield
.LVL48:
	.loc 1 262 27 discriminator 1
	.loc 1 247 33 discriminator 2
	.loc 1 247 22 discriminator 1
	lw	a5,12(sp)
	addi	s5,s5,2
.LVL49:
	addi	s6,s6,16
.LVL50:
	blt	s5,a5,.L52
.LVL51:
.L51:
	.loc 1 266 3
.LBB121:
	.loc 1 266 316 is_stmt 0
	lw	a5,64(sp)
	lw	a4,24(sp)
.LBE121:
	.loc 1 266 20
	li	s6,-2147483648
	sw	zero,52(s6)
.LBB122:
	.loc 1 266 24 is_stmt 1
.LVL52:
	.loc 1 266 99
	.loc 1 266 116 is_stmt 0
	li	t1,-2147479552
	sw	a5,-2016(t1)
.LVL53:
	.loc 1 266 131 is_stmt 1
	.loc 1 266 148 is_stmt 0
	lw	s5,28(sp)
	.loc 1 266 316
	mul	s0,a4,a5
	.loc 1 266 148
	li	a7,-2147479552
	sw	s5,-1888(a7)
	.loc 1 266 154 is_stmt 1
	.loc 1 266 171 is_stmt 0
	lw	a3,104(sp)
	li	a6,-2147479552
	.loc 1 266 219
	li	a0,-2147479552
	.loc 1 266 171
	sw	a3,-1760(a6)
	.loc 1 266 202 is_stmt 1
	.loc 1 266 219 is_stmt 0
	sw	zero,-992(a0)
	.loc 1 266 234 is_stmt 1
.LVL54:
	.loc 1 266 259
	.loc 1 266 275 is_stmt 0
	sw	zero,0(s2)
	.loc 1 266 283 is_stmt 1
	.loc 1 266 284
	.loc 1 266 301 is_stmt 0
	li	t5,-2147479552
	sw	s0,-736(t5)
.LBE122:
	.loc 1 266 327 is_stmt 1
.LBB123:
	.loc 1 266 116 is_stmt 0
	mv	s6,a5
.LBE123:
	.loc 1 266 344
	li	a5,30
	sw	a5,0(s9)
	.loc 1 266 372 is_stmt 1
	.loc 1 266 389 is_stmt 0
	li	s5,-2147483648
	sw	zero,180(s5)
.LBB124:
	.loc 1 266 393 is_stmt 1
.LVL55:
	.loc 1 266 484
	.loc 1 266 514 is_stmt 0
	lw	a5,4(s3)
.LBE124:
	.loc 1 266 747
	li	t4,393216
	li	t3,-2147483648
.LBB125:
	.loc 1 266 501
	sw	a5,-2016(t1)
.LVL56:
	.loc 1 266 519 is_stmt 1
	.loc 1 266 536 is_stmt 0
	lw	a3,44(sp)
.LBE125:
	.loc 1 266 747
	addi	t4,t4,1
.LBB126:
	.loc 1 269 59
	li	a2,-2147483648
.LBE126:
.LBB127:
	.loc 1 266 536
	sw	a3,-1888(a7)
	.loc 1 266 542 is_stmt 1
	.loc 1 266 568 is_stmt 0
	lw	a4,8(s3)
	lw	a5,0(s3)
	.loc 1 266 582
	lw	s5,4(s3)
.LBE127:
.LBB128:
	.loc 1 269 59
	li	t6,1
.LBE128:
.LBB129:
	.loc 1 266 568
	div	a5,a5,a4
.LBE129:
.LBB130:
	.loc 1 269 86
	li	a1,-2147483648
	.loc 1 269 109
	li	a3,-2147483648
	li	s10,3
	.loc 1 269 147
	li	a4,-2147479552
	.loc 1 269 286
	li	s4,1036288
	addi	s4,s4,-1921
.LBE130:
.LBB131:
	.loc 1 269 572
	li	s1,1036288
	addi	s1,s1,125
.LBE131:
.LBB132:
	.loc 1 272 467
	li	ra,1036288
	addi	ra,ra,-1793
.LBE132:
.LBB133:
	.loc 1 272 621
	li	t2,-2147483648
	.loc 1 272 681
	li	t0,-2147479552
	.loc 1 272 993
	li	s7,1032192
	addi	s7,s7,253
.LBE133:
	.loc 1 274 10
	li	s11,-2147483648
.LBB134:
	.loc 1 266 577
	sub	a5,a5,s8
	.loc 1 266 582
	mul	a5,a5,s5
	.loc 1 266 595
	addi	a5,a5,-1
	.loc 1 266 559
	sw	a5,-1760(a6)
	.loc 1 266 598 is_stmt 1
	.loc 1 266 619 is_stmt 0
	lw	a5,4(s3)
	mul	a5,s8,a5
	.loc 1 266 615
	sw	a5,-992(a0)
	.loc 1 266 633 is_stmt 1
.LVL57:
	.loc 1 266 661
	.loc 1 266 637 is_stmt 0
	lw	a5,4(s3)
	mul	a5,s8,a5
	.loc 1 266 677
	sw	a5,0(s2)
.LVL58:
	.loc 1 266 685 is_stmt 1
.LBE134:
	.loc 1 266 687
	.loc 1 266 704 is_stmt 0
	li	a5,28
	sw	a5,0(s9)
	.loc 1 266 730 is_stmt 1
	.loc 1 266 731
	.loc 1 266 747 is_stmt 0
	sw	t4,20(t3)
.LBB135:
	.loc 1 269 3 is_stmt 1
.LVL59:
	.loc 1 269 43
	.loc 1 269 59 is_stmt 0
	sw	t6,1056(a2)
.LVL60:
	.loc 1 269 70 is_stmt 1
	.loc 1 269 86 is_stmt 0
	lw	s5,28(sp)
	sw	s5,672(a1)
	.loc 1 269 92 is_stmt 1
	.loc 1 269 109 is_stmt 0
	sw	s10,1568(a3)
	.loc 1 269 130 is_stmt 1
	.loc 1 269 147 is_stmt 0
	sw	zero,-864(a4)
	.loc 1 269 156 is_stmt 1
.LVL61:
	.loc 1 269 175
	.loc 1 269 191 is_stmt 0
	lw	a5,140(sp)
	sw	a5,0(s2)
	.loc 1 269 233 is_stmt 1
	.loc 1 269 234
	.loc 1 269 251 is_stmt 0
	lw	a5,24(sp)
	sw	a5,-736(t5)
	.loc 1 269 269 is_stmt 1
	.loc 1 269 286 is_stmt 0
	sw	s4,0(s9)
.LBE135:
.LBB136:
	.loc 1 269 319 is_stmt 1
.LVL62:
	.loc 1 269 367
	.loc 1 269 383 is_stmt 0
	sw	t6,1056(a2)
	.loc 1 269 394 is_stmt 1
	.loc 1 269 410 is_stmt 0
	lw	a5,44(sp)
	sw	a5,672(a1)
	.loc 1 269 416 is_stmt 1
	.loc 1 269 442 is_stmt 0
	lw	a5,0(s3)
	lw	s4,8(s3)
	div	a5,a5,s4
	.loc 1 269 451
	addi	a5,a5,-1
	.loc 1 269 453
	sub	a5,a5,s8
	.loc 1 269 433
	sw	a5,1568(a3)
	.loc 1 269 459 is_stmt 1
	.loc 1 269 476 is_stmt 0
	sw	s8,-864(a4)
	.loc 1 269 485 is_stmt 1
.LVL63:
	.loc 1 269 504
	.loc 1 269 537 is_stmt 0
	lw	a5,16(s3)
	srli	a5,a5,1
	.loc 1 269 525
	add	a5,a5,s8
	.loc 1 269 520
	sw	a5,0(s2)
	.loc 1 269 554 is_stmt 1
	.loc 1 269 555
	.loc 1 269 572 is_stmt 0
	sw	s1,0(s9)
.LBE136:
	.loc 1 269 604 is_stmt 1
	.loc 1 269 605
	.loc 1 269 621 is_stmt 0
	sw	t4,20(t3)
.LBB137:
	.loc 1 272 3 is_stmt 1
.LVL64:
	.loc 1 272 78
	.loc 1 272 95 is_stmt 0
	sw	s6,-2016(t1)
	.loc 1 272 110 is_stmt 1
	.loc 1 272 127 is_stmt 0
	sw	s5,-1888(a7)
	.loc 1 272 133 is_stmt 1
	.loc 1 272 150 is_stmt 0
	addi	a5,s0,-1
	sw	a5,-1760(a6)
	.loc 1 272 176 is_stmt 1
	.loc 1 272 193 is_stmt 0
	sw	zero,-992(a0)
	.loc 1 272 208 is_stmt 1
	.loc 1 272 224 is_stmt 0
	sw	t6,1056(a2)
	.loc 1 272 235 is_stmt 1
	.loc 1 272 251 is_stmt 0
	lw	a5,96(sp)
	sw	a5,672(a1)
	.loc 1 272 257 is_stmt 1
	.loc 1 272 274 is_stmt 0
	sw	a5,1568(a3)
	.loc 1 272 289 is_stmt 1
	.loc 1 272 306 is_stmt 0
	sw	zero,-864(a4)
	.loc 1 272 315 is_stmt 1
.LVL65:
	.loc 1 272 348
	.loc 1 272 364 is_stmt 0
	lw	a5,144(sp)
	sw	a5,0(s2)
	.loc 1 272 407 is_stmt 1
	.loc 1 272 408
	.loc 1 272 425 is_stmt 0
	sw	s0,-736(t5)
	.loc 1 272 450 is_stmt 1
	.loc 1 272 467 is_stmt 0
	sw	ra,0(s9)
.LBE137:
.LBB138:
	.loc 1 272 501 is_stmt 1
.LVL66:
	.loc 1 272 575
	.loc 1 272 592 is_stmt 0
	lw	a5,36(sp)
	li	t5,4096
	sw	t5,0(a5)
	.loc 1 272 604 is_stmt 1
	.loc 1 272 621 is_stmt 0
	sw	s10,1824(t2)
	.loc 1 272 627 is_stmt 1
	.loc 1 272 644 is_stmt 0
	lw	a5,40(sp)
	lw	t5,60(sp)
	sw	t5,0(a5)
	.loc 1 272 664 is_stmt 1
	.loc 1 272 681 is_stmt 0
	sw	zero,-1120(t0)
	.loc 1 272 693 is_stmt 1
	.loc 1 272 710 is_stmt 0
	li	a5,256
	sw	a5,-2016(t1)
	.loc 1 272 721 is_stmt 1
	.loc 1 272 738 is_stmt 0
	lw	a5,76(sp)
	sw	a5,-1888(a7)
	.loc 1 272 744 is_stmt 1
	.loc 1 272 761 is_stmt 0
	lw	a5,80(sp)
	sw	a5,-1760(a6)
	.loc 1 272 782 is_stmt 1
	.loc 1 272 799 is_stmt 0
	sw	zero,-992(a0)
	.loc 1 272 810 is_stmt 1
	.loc 1 272 826 is_stmt 0
	li	a5,7
	sw	a5,672(a1)
	.loc 1 272 864 is_stmt 1
	.loc 1 272 880 is_stmt 0
	sw	t6,1056(a2)
	.loc 1 272 889 is_stmt 1
	.loc 1 272 906 is_stmt 0
	sw	a5,1568(a3)
	.loc 1 272 909 is_stmt 1
	.loc 1 272 926 is_stmt 0
	sw	zero,-864(a4)
	.loc 1 272 929 is_stmt 1
	.loc 1 272 945 is_stmt 0
	li	a5,64
	sw	a5,0(s2)
	.loc 1 272 976 is_stmt 1
	.loc 1 272 993 is_stmt 0
	sw	s7,0(s9)
.LBE138:
	.loc 1 272 1026 is_stmt 1
	.loc 1 272 1027
	.loc 1 272 1043 is_stmt 0
	sw	t4,20(t3)
	.loc 1 274 10 is_stmt 1
	sw	zero,36(s11)
	.loc 1 274 10
	call	_taskYield
.LVL67:
	.loc 1 274 24 discriminator 1
	.loc 1 277 10
	.loc 1 278 16
	li	a5,31
	ble	s6,a5,.L11
.LVL68:
	.loc 1 281 16
	.loc 1 281 93 is_stmt 0
	beq	s5,zero,.L77
.LVL69:
	.loc 1 282 16 is_stmt 1
	.loc 1 282 77 is_stmt 0
	li	a5,-2147479552
	beq	s8,zero,.L59
	.loc 1 283 20 discriminator 1
	lw	a4,32(sp)
	.loc 1 282 77
	addi	a5,a5,-792
.L18:
.LVL70:
	.loc 1 294 1 is_stmt 1
	.loc 1 294 22 is_stmt 0
	lw	a3,64(sp)
	li	a1,-2147483648
	.loc 1 294 69
	li	a6,-2147479552
	.loc 1 294 22
	sw	a3,1000(a1)
.LVL71:
	.loc 1 294 39 is_stmt 1
	.loc 1 294 69 is_stmt 0
	lw	a1,32(sp)
	.loc 1 294 155
	li	a2,-2147483648
	.loc 1 294 193
	li	a3,-2147475456
	.loc 1 294 69
	sw	a1,-920(a6)
	.loc 1 294 89 is_stmt 1
	.loc 1 294 119 is_stmt 0
	sw	a4,0(a5)
	.loc 1 294 134 is_stmt 1
	.loc 1 294 155 is_stmt 0
	lw	a5,108(sp)
	.loc 1 294 268 discriminator 8
	li	a0,-2147483648
	li	a7,2
	.loc 1 294 155
	sw	a5,1384(a2)
	.loc 1 294 171 is_stmt 1
	.loc 1 294 193 is_stmt 0
	lw	a2,84(sp)
	.loc 1 294 231
	li	a5,-2147475456
	.loc 1 279 20
	li	a4,4096
	.loc 1 294 193
	sw	a2,1512(a3)
	.loc 1 294 209 is_stmt 1
	.loc 1 294 231 is_stmt 0
	lw	t1,88(sp)
	.loc 1 279 20
	addi	a4,a4,-1022
	.loc 1 294 69
	addi	a6,a6,-920
	.loc 1 294 231
	sw	t1,-408(a5)
	.loc 1 294 247 is_stmt 1
.LVL72:
	.loc 1 294 268 is_stmt 0 discriminator 8
	sw	a7,236(a0)
	.loc 1 294 302 is_stmt 1 discriminator 8
	.loc 1 279 32
.LVL73:
	.loc 1 279 26 is_stmt 0
	lw	a5,92(sp)
	.loc 1 278 16
	li	a0,1
	.loc 1 279 20
	add	a4,a1,a4
.LVL74:
	.loc 1 279 26
	add	a3,a2,a5
.LVL75:
	.loc 1 278 16
	lw	a2,56(sp)
	.loc 1 279 36
	add	a5,t1,a5
.LVL76:
	.loc 1 278 16 is_stmt 1
	addi	s0,s8,4
	ble	a2,a0,.L16
	.loc 1 281 16
	.loc 1 281 93 is_stmt 0
	lw	a2,28(sp)
	bne	a2,a0,.L78
	.loc 1 281 40 discriminator 1
	lw	a1,68(sp)
	li	a2,-2147483648
	addi	s0,s8,4
	addi	a2,a2,1128
	ble	a1,s0,.L25
	mv	a2,a6
.L25:
.LVL77:
	.loc 1 294 1 is_stmt 1
	.loc 1 294 22 is_stmt 0
	lw	a1,64(sp)
	li	a7,-2147483648
	.loc 1 294 119
	li	a6,-2147479552
	.loc 1 294 22
	sw	a1,1000(a7)
	.loc 1 294 39 is_stmt 1
	.loc 1 294 69 is_stmt 0
	lw	a7,32(sp)
	.loc 1 294 155
	li	a0,-2147483648
	.loc 1 294 193
	li	a1,-2147475456
	.loc 1 294 69
	sw	a7,0(a2)
	.loc 1 294 89 is_stmt 1
	.loc 1 294 119 is_stmt 0
	sw	a7,-792(a6)
	.loc 1 294 134 is_stmt 1
	.loc 1 294 155 is_stmt 0
	sw	a4,1384(a0)
	.loc 1 294 171 is_stmt 1
	.loc 1 294 193 is_stmt 0
	sw	a3,1512(a1)
	.loc 1 294 209 is_stmt 1
	.loc 1 294 231 is_stmt 0
	li	a2,-2147475456
	sw	a5,-408(a2)
	.loc 1 294 247 is_stmt 1
	.loc 1 294 268 is_stmt 0 discriminator 8
	li	a4,-2147483648
.LVL78:
	li	t3,1
	sw	t3,236(a4)
	.loc 1 294 302 is_stmt 1 discriminator 8
	.loc 1 294 315 discriminator 9
	.loc 1 294 331 is_stmt 0 discriminator 9
	li	t1,-2147483648
	li	t3,5
	sw	t3,20(t1)
	.loc 1 279 32 is_stmt 1
.LVL79:
	.loc 1 279 26 is_stmt 0
	lw	a2,92(sp)
	.loc 1 279 20
	li	a4,4096
	addi	a4,a4,-1020
	.loc 1 279 26
	add	a3,a3,a2
.LVL80:
	.loc 1 279 36
	add	a5,a5,a2
.LVL81:
	.loc 1 278 16
	lw	a2,56(sp)
	li	t1,2
	.loc 1 279 20
	add	a4,a7,a4
.LVL82:
	.loc 1 278 16 is_stmt 1
	ble	a2,t1,.L16
.LVL83:
.L26:
	.loc 1 283 16
	.loc 1 292 16
	.loc 1 294 1
	.loc 1 294 22 is_stmt 0
	lw	a2,64(sp)
	li	t1,-2147483648
	.loc 1 294 69
	li	a7,-2147479552
	.loc 1 294 22
	sw	a2,1000(t1)
	.loc 1 294 39 is_stmt 1
	.loc 1 294 69 is_stmt 0
	lw	a2,32(sp)
	.loc 1 294 119
	li	a6,-2147479552
	.loc 1 294 155
	li	a0,-2147483648
	.loc 1 294 69
	sw	a2,-920(a7)
	.loc 1 294 89 is_stmt 1
	.loc 1 294 119 is_stmt 0
	sw	a2,-792(a6)
	.loc 1 294 134 is_stmt 1
	.loc 1 294 155 is_stmt 0
	sw	a4,1384(a0)
	.loc 1 294 171 is_stmt 1
	.loc 1 294 193 is_stmt 0
	li	a1,-2147475456
	.loc 1 294 231
	li	a2,-2147475456
	.loc 1 294 193
	sw	a3,1512(a1)
	.loc 1 294 209 is_stmt 1
	.loc 1 294 231 is_stmt 0
	sw	a5,-408(a2)
	.loc 1 294 247 is_stmt 1
	.loc 1 294 268 is_stmt 0 discriminator 8
	li	a4,-2147483648
.LVL84:
	li	a2,2
	sw	a2,236(a4)
	.loc 1 294 302 is_stmt 1 discriminator 8
.LVL85:
.L28:
	.loc 1 279 32
	.loc 1 279 20 is_stmt 0
	lw	a1,32(sp)
	li	a4,4096
	addi	a4,a4,-1018
	add	a4,a1,a4
.LVL86:
	.loc 1 279 26
	lw	a1,92(sp)
	.loc 1 278 16
	li	a2,3
	.loc 1 279 26
	add	a3,a3,a1
.LVL87:
	.loc 1 279 36
	add	a5,a5,a1
.LVL88:
	.loc 1 278 16 is_stmt 1
	lw	a1,56(sp)
	ble	a1,a2,.L16
	.loc 1 281 16
	.loc 1 281 40 is_stmt 0 discriminator 1
	lw	a1,68(sp)
	li	a2,-2147479552
	addi	a2,a2,-920
	bgt	a1,s0,.L53
	li	a2,-2147483648
	addi	a2,a2,1128
.L53:
.LVL89:
	.loc 1 294 1 is_stmt 1
	.loc 1 294 22 is_stmt 0
	lw	a1,64(sp)
	li	a7,-2147483648
	.loc 1 294 119
	li	a6,-2147479552
	.loc 1 294 22
	sw	a1,1000(a7)
	.loc 1 294 39 is_stmt 1
	.loc 1 294 69 is_stmt 0
	lw	a1,32(sp)
	.loc 1 294 155
	li	a0,-2147483648
	.loc 1 294 69
	sw	a1,0(a2)
	.loc 1 294 89 is_stmt 1
	.loc 1 294 119 is_stmt 0
	sw	a1,-792(a6)
	.loc 1 294 134 is_stmt 1
	.loc 1 294 155 is_stmt 0
	sw	a4,1384(a0)
	.loc 1 294 171 is_stmt 1
	.loc 1 294 193 is_stmt 0
	li	a1,-2147475456
	sw	a3,1512(a1)
	.loc 1 294 209 is_stmt 1
	.loc 1 294 231 is_stmt 0
	li	a2,-2147475456
	sw	a5,-408(a2)
	.loc 1 294 247 is_stmt 1
	.loc 1 294 268 is_stmt 0 discriminator 8
	li	a3,-2147483648
.LVL90:
	li	a5,1
.LVL91:
	sw	a5,236(a3)
.LVL92:
	.loc 1 294 302 is_stmt 1 discriminator 8
	.loc 1 294 315 discriminator 9
	.loc 1 294 331 is_stmt 0 discriminator 9
	li	a4,-2147483648
.LVL93:
	li	a5,5
	sw	a5,20(a4)
	.loc 1 279 32 is_stmt 1
.LVL94:
	.loc 1 278 16
.L16:
	.loc 1 297 10
	li	a5,-2147483648
	sw	zero,36(a5)
	.loc 1 297 10
	call	_taskYield
.LVL95:
	.loc 1 297 24 discriminator 1
	.loc 1 236 22 discriminator 2
	.loc 1 236 17 discriminator 1
	lw	a5,48(sp)
	lw	a4,152(sp)
	mv	s8,s0
.LVL96:
	add	a5,a5,a4
	sw	a5,48(sp)
	lw	a5,68(sp)
	bgt	a5,s0,.L54
	lw	s1,156(sp)
	lw	s0,160(sp)
	lw	s7,164(sp)
	j	.L46
.LVL97:
.L76:
	.loc 1 260 1
	.loc 1 260 2
	.loc 1 260 18 is_stmt 0
	lw	a4,72(sp)
	.loc 1 262 13
	li	a5,-2147483648
	.loc 1 260 18
	sw	a4,0(s11)
	.loc 1 262 13 is_stmt 1
	sw	zero,36(a5)
	.loc 1 262 13
	j	.L72
.L75:
	.loc 1 256 1
	.loc 1 256 2
	.loc 1 256 18 is_stmt 0
	lw	a5,52(sp)
	sw	a5,0(s11)
	.loc 1 258 1 is_stmt 1
	.loc 1 258 2
	.loc 1 258 18 is_stmt 0
	sw	s4,0(s11)
	.loc 1 259 13 is_stmt 1
	.loc 1 259 15 is_stmt 0
	lw	a5,20(sp)
	bne	a5,zero,.L49
	.loc 1 260 1 is_stmt 1
	.loc 1 260 2
	.loc 1 260 18 is_stmt 0
	lw	a4,72(sp)
	.loc 1 262 13
	li	a5,-2147483648
	.loc 1 260 18
	sw	a4,0(s11)
	.loc 1 262 13 is_stmt 1
	sw	zero,36(a5)
	.loc 1 262 13
	call	_taskYield
.LVL98:
	.loc 1 262 27 discriminator 1
	.loc 1 247 33 discriminator 2
	.loc 1 247 22 discriminator 1
	j	.L51
.LVL99:
.L11:
	lw	a5,68(sp)
	addi	s0,s8,4
	bge	s0,a5,.L31
.LVL100:
	.loc 1 281 16
	.loc 1 282 16
	.loc 1 282 77 is_stmt 0
	li	a5,-2147479552
	beq	s8,zero,.L63
	.loc 1 283 20 discriminator 1
	lw	a4,32(sp)
	.loc 1 282 77
	addi	a5,a5,-792
.L32:
.LVL101:
	.loc 1 292 16 is_stmt 1
	.loc 1 292 22 is_stmt 0
	lw	a3,28(sp)
	beq	a3,zero,.L79
.LVL102:
	.loc 1 294 1 is_stmt 1
	.loc 1 294 22 is_stmt 0
	li	a7,-2147483648
	li	t1,16
	sw	t1,1000(a7)
.LVL103:
	.loc 1 294 69
	lw	t4,32(sp)
	li	a6,-2147479552
	.loc 1 294 155
	li	a0,-2147483648
	.loc 1 294 69
	sw	t4,-920(a6)
	.loc 1 294 119
	sw	a4,0(a5)
	.loc 1 294 155
	lw	a5,108(sp)
	.loc 1 294 193
	li	a1,-2147475456
	.loc 1 294 231
	li	a2,-2147475456
	.loc 1 294 155
	sw	a5,1384(a0)
	.loc 1 294 193
	lw	a5,84(sp)
	.loc 1 294 268 discriminator 8
	li	a3,-2147483648
	.loc 1 278 16
	li	t3,1
	.loc 1 294 193
	sw	a5,1512(a1)
	.loc 1 294 231
	lw	a5,88(sp)
	.loc 1 294 22
	addi	a7,a7,1000
	.loc 1 294 39 is_stmt 1
	.loc 1 294 89
	.loc 1 294 134
	.loc 1 294 171
	.loc 1 294 209
	.loc 1 294 268 is_stmt 0 discriminator 8
	addi	a3,a3,236
	.loc 1 294 231
	sw	a5,-408(a2)
	.loc 1 294 247 is_stmt 1
	.loc 1 294 268 is_stmt 0 discriminator 8
	sw	zero,0(a3)
	.loc 1 294 302 is_stmt 1 discriminator 8
	.loc 1 279 32
.LVL104:
	.loc 1 278 16
	lw	a5,56(sp)
	.loc 1 294 69 is_stmt 0
	addi	a6,a6,-920
	.loc 1 294 155
	addi	a0,a0,1384
	.loc 1 294 193
	addi	a1,a1,1512
	.loc 1 294 231
	addi	a2,a2,-408
	.loc 1 278 16
	ble	a5,t3,.L35
	.loc 1 279 20
	li	t5,4096
	.loc 1 279 26
	li	a4,4096
	.loc 1 279 36
	li	a5,4096
	.loc 1 279 20
	addi	t5,t5,-1022
	.loc 1 279 26
	addi	a4,a4,-984
	.loc 1 279 36
	addi	a5,a5,-2016
	.loc 1 279 20
	add	t5,t4,t5
	.loc 1 279 26
	add	a4,t4,a4
	.loc 1 279 36
	add	a5,t4,a5
	.loc 1 281 16 is_stmt 1
	.loc 1 282 16
.LVL105:
	.loc 1 283 16
	.loc 1 292 16
	.loc 1 292 22 is_stmt 0
	lw	t4,28(sp)
.LVL106:
	beq	t4,t3,.L80
.LVL107:
.L34:
	.loc 1 294 1 is_stmt 1
	.loc 1 294 22 is_stmt 0
	li	t3,-2147483648
	li	t4,16
	sw	t4,1000(t3)
	.loc 1 294 69
	lw	t6,32(sp)
	li	t1,-2147479552
	.loc 1 294 119
	li	a7,-2147479552
	.loc 1 294 69
	sw	t6,-920(t1)
	.loc 1 294 119
	sw	t6,-792(a7)
	.loc 1 294 155
	li	a6,-2147483648
	sw	t5,1384(a6)
	.loc 1 294 193
	li	a0,-2147475456
	sw	a4,1512(a0)
	.loc 1 294 231
	li	a1,-2147475456
	sw	a5,-408(a1)
	.loc 1 294 268 discriminator 8
	li	a2,-2147483648
	sw	zero,236(a2)
	.loc 1 278 16
	lw	a3,56(sp)
	li	t5,2
.LVL108:
	.loc 1 294 22
	addi	t3,t3,1000
	.loc 1 294 39 is_stmt 1
	.loc 1 294 89
	.loc 1 294 134
	.loc 1 294 171
	.loc 1 294 209
	.loc 1 294 247
	.loc 1 294 268 is_stmt 0 discriminator 8
	addi	a2,a2,236
	.loc 1 294 302 is_stmt 1 discriminator 8
	.loc 1 279 32
.LVL109:
	.loc 1 278 16
	.loc 1 294 69 is_stmt 0
	addi	t1,t1,-920
	.loc 1 294 119
	addi	a7,a7,-792
	.loc 1 294 155
	addi	a6,a6,1384
	.loc 1 294 193
	addi	a0,a0,1512
	.loc 1 294 231
	addi	a1,a1,-408
	.loc 1 278 16
	ble	a3,t5,.L35
	.loc 1 279 20
	li	a3,4096
	addi	a3,a3,-1020
	add	a3,t6,a3
	.loc 1 292 22
	lw	t6,28(sp)
.LVL110:
	.loc 1 279 26
	addi	a4,a4,32
.LVL111:
	.loc 1 279 36
	addi	a5,a5,32
.LVL112:
	.loc 1 281 16 is_stmt 1
	.loc 1 282 16
	.loc 1 283 16
	.loc 1 292 16
	.loc 1 292 22 is_stmt 0
	beq	t6,t5,.L81
.LVL113:
.L36:
	.loc 1 294 1 is_stmt 1
	.loc 1 294 22 is_stmt 0
	li	a2,-2147483648
	li	a1,16
	sw	a1,1000(a2)
	.loc 1 294 39 is_stmt 1
	.loc 1 294 69 is_stmt 0
	lw	a2,32(sp)
	li	a7,-2147479552
	.loc 1 294 119
	li	a6,-2147479552
	.loc 1 294 69
	sw	a2,-920(a7)
	.loc 1 294 89 is_stmt 1
	.loc 1 294 119 is_stmt 0
	sw	a2,-792(a6)
	.loc 1 294 134 is_stmt 1
	.loc 1 294 155 is_stmt 0
	li	a0,-2147483648
	sw	a3,1384(a0)
	.loc 1 294 171 is_stmt 1
	.loc 1 294 193 is_stmt 0
	li	a1,-2147475456
	sw	a4,1512(a1)
	.loc 1 294 209 is_stmt 1
	.loc 1 294 231 is_stmt 0
	li	a2,-2147475456
	.loc 1 294 268 discriminator 8
	li	a3,-2147483648
.LVL114:
	.loc 1 294 231
	sw	a5,-408(a2)
	.loc 1 294 247 is_stmt 1
	.loc 1 294 268 is_stmt 0 discriminator 8
	sw	zero,236(a3)
	.loc 1 294 302 is_stmt 1 discriminator 8
.LVL115:
.L37:
	.loc 1 279 32
	.loc 1 279 20 is_stmt 0
	lw	a7,32(sp)
	.loc 1 278 16
	lw	a1,56(sp)
	.loc 1 279 20
	li	a3,4096
	addi	a3,a3,-1018
	.loc 1 278 16
	li	a2,3
	.loc 1 279 20
	add	a3,a7,a3
.LVL116:
	.loc 1 279 26
	addi	a4,a4,32
.LVL117:
	.loc 1 279 36
	addi	a5,a5,32
.LVL118:
	.loc 1 278 16 is_stmt 1
	ble	a1,a2,.L35
	.loc 1 281 16
	.loc 1 282 16
.LVL119:
	.loc 1 283 16
	.loc 1 292 16
	.loc 1 294 1
	.loc 1 294 22 is_stmt 0
	li	a2,-2147483648
	li	a1,16
	sw	a1,1000(a2)
	.loc 1 294 39 is_stmt 1
	.loc 1 294 69 is_stmt 0
	li	a6,-2147479552
	sw	a7,-920(a6)
	.loc 1 294 89 is_stmt 1
	.loc 1 294 119 is_stmt 0
	li	a0,-2147479552
	sw	a7,-792(a0)
	.loc 1 294 134 is_stmt 1
	.loc 1 294 155 is_stmt 0
	li	a1,-2147483648
	sw	a3,1384(a1)
	.loc 1 294 171 is_stmt 1
	.loc 1 294 193 is_stmt 0
	li	a2,-2147475456
	sw	a4,1512(a2)
	.loc 1 294 209 is_stmt 1
	.loc 1 294 231 is_stmt 0
	li	a3,-2147475456
.LVL120:
	sw	a5,-408(a3)
	.loc 1 294 247 is_stmt 1
	.loc 1 294 268 is_stmt 0 discriminator 8
	li	a7,-2147483648
.LVL121:
	li	a5,1
.LVL122:
	sw	a5,236(a7)
.LVL123:
	.loc 1 294 302 is_stmt 1 discriminator 8
	.loc 1 294 315 discriminator 9
	.loc 1 294 331 is_stmt 0 discriminator 9
	li	a4,-2147483648
.LVL124:
	li	a5,5
	sw	a5,20(a4)
	.loc 1 279 32 is_stmt 1
.LVL125:
	.loc 1 278 16
.L35:
	.loc 1 297 10
	li	a5,-2147483648
	sw	zero,36(a5)
	.loc 1 297 10
	call	_taskYield
.LVL126:
	.loc 1 297 24 discriminator 1
	.loc 1 236 22 discriminator 2
	.loc 1 236 17 discriminator 1
	lw	a5,48(sp)
	lw	a4,152(sp)
	mv	s8,s0
.LVL127:
	add	a5,a5,a4
	sw	a5,48(sp)
	j	.L54
.LVL128:
.L59:
	.loc 1 283 20 is_stmt 0 discriminator 2
	li	a4,0
	.loc 1 282 77
	addi	a5,a5,-1816
	j	.L18
.LVL129:
.L31:
	.loc 1 281 93
	lw	a5,28(sp)
	lw	s1,156(sp)
	lw	s0,160(sp)
	lw	s7,164(sp)
.LVL130:
	.loc 1 281 16 is_stmt 1
	.loc 1 281 93 is_stmt 0
	beq	a5,zero,.L82
.LVL131:
	.loc 1 282 16 is_stmt 1
	.loc 1 282 77 is_stmt 0
	li	a5,-2147479552
	beq	s8,zero,.L65
	.loc 1 283 20 discriminator 1
	lw	a4,32(sp)
	.loc 1 282 77
	addi	a5,a5,-792
.L41:
.LVL132:
	.loc 1 294 1 is_stmt 1
	.loc 1 294 22 is_stmt 0
	li	a7,-2147483648
	li	t1,16
	sw	t1,1000(a7)
.LVL133:
	.loc 1 294 69
	lw	t5,32(sp)
	li	t4,-2147479552
	.loc 1 294 155
	li	a6,-2147483648
	.loc 1 294 69
	sw	t5,-920(t4)
	.loc 1 294 119
	sw	a4,0(a5)
	.loc 1 294 155
	lw	a5,108(sp)
	.loc 1 294 193
	li	a0,-2147475456
	.loc 1 294 231
	li	a1,-2147475456
	.loc 1 294 155
	sw	a5,1384(a6)
	.loc 1 294 193
	lw	a5,84(sp)
	.loc 1 294 268 discriminator 8
	li	a2,-2147483648
	.loc 1 279 20
	li	a3,4096
	.loc 1 294 193
	sw	a5,1512(a0)
	.loc 1 294 231
	lw	t3,88(sp)
	.loc 1 279 26
	li	a4,4096
	.loc 1 279 36
	li	a5,4096
	.loc 1 294 231
	sw	t3,-408(a1)
	.loc 1 294 268 discriminator 8
	sw	zero,236(a2)
	.loc 1 278 16
	lw	t4,56(sp)
	.loc 1 279 20
	addi	a3,a3,-1022
	.loc 1 279 26
	addi	a4,a4,-984
	.loc 1 279 36
	addi	a5,a5,-2016
	.loc 1 278 16
	li	t3,1
	.loc 1 294 22
	addi	a7,a7,1000
	.loc 1 294 39 is_stmt 1
	.loc 1 294 89
	.loc 1 294 134
	.loc 1 294 171
	.loc 1 294 209
	.loc 1 294 247
	.loc 1 294 268 is_stmt 0 discriminator 8
	addi	a2,a2,236
	.loc 1 294 302 is_stmt 1 discriminator 8
	.loc 1 279 32
.LVL134:
	.loc 1 294 155 is_stmt 0
	addi	a6,a6,1384
	.loc 1 294 193
	addi	a0,a0,1512
	.loc 1 294 231
	addi	a1,a1,-408
	.loc 1 279 20
	add	a3,t5,a3
.LVL135:
	.loc 1 279 26
	add	a4,t5,a4
.LVL136:
	.loc 1 279 36
	add	a5,t5,a5
.LVL137:
	.loc 1 278 16 is_stmt 1
	ble	t4,t3,.L42
	.loc 1 281 16
	.loc 1 281 93 is_stmt 0
	lw	t6,28(sp)
	bne	t6,t3,.L43
.LVL138:
	.loc 1 283 16 is_stmt 1
	.loc 1 292 16
	.loc 1 294 1
	.loc 1 294 22 is_stmt 0
	sw	t1,0(a7)
	.loc 1 294 39 is_stmt 1
	.loc 1 294 69 is_stmt 0
	li	t3,-2147483648
	sw	t5,1128(t3)
	.loc 1 294 89 is_stmt 1
	.loc 1 294 119 is_stmt 0
	li	a7,-2147479552
	sw	t5,-792(a7)
	.loc 1 294 134 is_stmt 1
	.loc 1 294 155 is_stmt 0
	sw	a3,0(a6)
	.loc 1 294 171 is_stmt 1
	.loc 1 294 193 is_stmt 0
	sw	a4,0(a0)
	.loc 1 294 209 is_stmt 1
	.loc 1 294 231 is_stmt 0
	sw	a5,0(a1)
	.loc 1 294 247 is_stmt 1
	.loc 1 294 268 is_stmt 0 discriminator 8
	sw	t6,0(a2)
	.loc 1 294 302 is_stmt 1 discriminator 8
	.loc 1 294 315 discriminator 9
	.loc 1 294 331 is_stmt 0 discriminator 9
	li	a1,-2147483648
	li	a2,5
	.loc 1 279 20
	li	a3,4096
.LVL139:
	.loc 1 279 26
	li	a4,4096
.LVL140:
	.loc 1 279 36
	li	a5,4096
.LVL141:
	.loc 1 279 20
	addi	a3,a3,-1020
.LVL142:
	.loc 1 279 26
	addi	a4,a4,-952
.LVL143:
	.loc 1 279 36
	addi	a5,a5,-1984
.LVL144:
	.loc 1 294 331 discriminator 9
	sw	a2,20(a1)
	.loc 1 279 32 is_stmt 1
.LVL145:
	.loc 1 278 16 is_stmt 0
	li	a2,2
	.loc 1 279 20
	add	a3,t5,a3
.LVL146:
	.loc 1 279 26
	add	a4,t5,a4
.LVL147:
	.loc 1 279 36
	add	a5,t5,a5
.LVL148:
	.loc 1 278 16 is_stmt 1
	ble	t4,a2,.L42
.LVL149:
.L44:
	.loc 1 282 16
	.loc 1 283 16
	.loc 1 292 16
	.loc 1 294 1
	.loc 1 294 22 is_stmt 0
	li	a2,-2147483648
	li	a1,16
	sw	a1,1000(a2)
	.loc 1 294 39 is_stmt 1
	.loc 1 294 69 is_stmt 0
	lw	a2,32(sp)
	li	a7,-2147479552
	.loc 1 294 119
	li	a6,-2147479552
	.loc 1 294 69
	sw	a2,-920(a7)
	.loc 1 294 89 is_stmt 1
	.loc 1 294 119 is_stmt 0
	sw	a2,-792(a6)
	.loc 1 294 134 is_stmt 1
	.loc 1 294 155 is_stmt 0
	li	a0,-2147483648
	sw	a3,1384(a0)
	.loc 1 294 171 is_stmt 1
	.loc 1 294 193 is_stmt 0
	li	a1,-2147475456
	sw	a4,1512(a1)
	.loc 1 294 209 is_stmt 1
	.loc 1 294 231 is_stmt 0
	li	a2,-2147475456
	.loc 1 294 268 discriminator 8
	li	a3,-2147483648
.LVL150:
	.loc 1 294 231
	sw	a5,-408(a2)
	.loc 1 294 247 is_stmt 1
	.loc 1 294 268 is_stmt 0 discriminator 8
	sw	zero,236(a3)
	.loc 1 294 302 is_stmt 1 discriminator 8
.LVL151:
.L45:
	.loc 1 279 32
	.loc 1 279 20 is_stmt 0
	lw	a7,32(sp)
	.loc 1 278 16
	lw	a1,56(sp)
	.loc 1 279 20
	li	a3,4096
	addi	a3,a3,-1018
	.loc 1 278 16
	li	a2,3
	.loc 1 279 20
	add	a3,a7,a3
.LVL152:
	.loc 1 279 26
	addi	a4,a4,32
.LVL153:
	.loc 1 279 36
	addi	a5,a5,32
.LVL154:
	.loc 1 278 16 is_stmt 1
	ble	a1,a2,.L42
	.loc 1 281 16
.LVL155:
	.loc 1 283 16
	.loc 1 292 16
	.loc 1 294 1
	.loc 1 294 22 is_stmt 0
	li	a2,-2147483648
	li	a1,16
	sw	a1,1000(a2)
	.loc 1 294 39 is_stmt 1
	.loc 1 294 69 is_stmt 0
	li	a6,-2147483648
	sw	a7,1128(a6)
	.loc 1 294 89 is_stmt 1
	.loc 1 294 119 is_stmt 0
	li	a0,-2147479552
	sw	a7,-792(a0)
	.loc 1 294 134 is_stmt 1
	.loc 1 294 155 is_stmt 0
	li	a1,-2147483648
	sw	a3,1384(a1)
	.loc 1 294 171 is_stmt 1
	.loc 1 294 193 is_stmt 0
	li	a2,-2147475456
	sw	a4,1512(a2)
	.loc 1 294 209 is_stmt 1
	.loc 1 294 231 is_stmt 0
	li	a3,-2147475456
.LVL156:
	sw	a5,-408(a3)
	.loc 1 294 247 is_stmt 1
	.loc 1 294 268 is_stmt 0 discriminator 8
	li	a7,-2147483648
.LVL157:
	li	a5,1
.LVL158:
	sw	a5,236(a7)
.LVL159:
	.loc 1 294 302 is_stmt 1 discriminator 8
	.loc 1 294 315 discriminator 9
	.loc 1 294 331 is_stmt 0 discriminator 9
	li	a4,-2147483648
.LVL160:
	li	a5,5
	sw	a5,20(a4)
	.loc 1 279 32 is_stmt 1
.LVL161:
	.loc 1 278 16
.L42:
	.loc 1 297 10
	li	a5,-2147483648
	sw	zero,36(a5)
	.loc 1 297 10
	call	_taskYield
.LVL162:
	.loc 1 297 24 discriminator 1
	.loc 1 236 22 discriminator 2
	.loc 1 236 17 discriminator 1
.L46:
.LBB139:
	.loc 1 300 3
	.loc 1 300 52
	.loc 1 300 68 is_stmt 0
	li	a4,-2147483648
	li	a3,1
	.loc 1 300 95
	li	a5,-2147483648
	.loc 1 300 68
	sw	a3,1056(a4)
	.loc 1 300 79 is_stmt 1
	.loc 1 300 95 is_stmt 0
	sw	s0,672(a5)
	.loc 1 300 101 is_stmt 1
	.loc 1 300 140 is_stmt 0
	lw	a5,184(sp)
	beq	a5,zero,.L83
	.loc 1 300 140 discriminator 1
	lw	a5,4(s3)
	addi	a5,a5,-1
.L55:
	.loc 1 300 142 discriminator 4
	sub	a5,a5,s7
	.loc 1 300 118 discriminator 4
	li	a3,-2147483648
	sw	a5,1568(a3)
	.loc 1 300 148 is_stmt 1 discriminator 4
	.loc 1 300 165 is_stmt 0 discriminator 4
	li	a4,-2147479552
	sw	s7,-864(a4)
	.loc 1 300 174 is_stmt 1 discriminator 4
.LVL163:
	.loc 1 300 193 discriminator 4
	.loc 1 300 229 is_stmt 0 discriminator 4
	lw	a5,28(s3)
	.loc 1 300 209 discriminator 4
	li	a2,-2147483648
	.loc 1 300 264 discriminator 4
	li	a1,-2147479552
	.loc 1 300 229 discriminator 4
	srli	a5,a5,1
	.loc 1 300 214 discriminator 4
	add	a5,a5,s7
	.loc 1 300 209 discriminator 4
	sw	a5,544(a2)
.LVL164:
	.loc 1 300 246 is_stmt 1 discriminator 4
	.loc 1 300 247 discriminator 4
	.loc 1 300 299 is_stmt 0 discriminator 4
	li	a5,1036288
	.loc 1 300 264 discriminator 4
	sw	s1,-736(a1)
	.loc 1 300 282 is_stmt 1 discriminator 4
	.loc 1 300 299 is_stmt 0 discriminator 4
	addi	a5,a5,127
	sw	a5,0(s9)
.LBE139:
.LBB140:
	.loc 1 300 332 is_stmt 1 discriminator 4
.LVL165:
	.loc 1 300 371 discriminator 4
	.loc 1 300 387 is_stmt 0 discriminator 4
	li	a0,-2147483648
	li	a6,1
	sw	a6,1056(a0)
	.loc 1 300 398 is_stmt 1 discriminator 4
	.loc 1 300 414 is_stmt 0 discriminator 4
	lw	a1,96(sp)
	li	a5,-2147483648
	.loc 1 300 437 discriminator 4
	li	a0,32768
	.loc 1 300 414 discriminator 4
	sw	a1,672(a5)
	.loc 1 300 420 is_stmt 1 discriminator 4
	.loc 1 300 437 is_stmt 0 discriminator 4
	addi	a0,a0,-1
	sw	a0,1568(a3)
	.loc 1 300 454 is_stmt 1 discriminator 4
	.loc 1 300 471 is_stmt 0 discriminator 4
	sw	zero,-864(a4)
	.loc 1 300 480 is_stmt 1 discriminator 4
.LVL166:
	.loc 1 300 499 discriminator 4
	.loc 1 300 515 is_stmt 0 discriminator 4
	lw	a5,180(sp)
	.loc 1 300 575 discriminator 4
	li	a6,1036288
	addi	a6,a6,-1923
	.loc 1 300 515 discriminator 4
	sw	a5,544(a2)
	.loc 1 300 557 is_stmt 1 discriminator 4
	.loc 1 300 558 discriminator 4
.LBE140:
	.loc 1 300 624 is_stmt 0 discriminator 4
	li	a0,393216
.LBB141:
	.loc 1 300 575 discriminator 4
	sw	a6,0(s9)
.LBE141:
	.loc 1 300 607 is_stmt 1 discriminator 4
	.loc 1 300 608 discriminator 4
	.loc 1 300 624 is_stmt 0 discriminator 4
	li	a2,-2147483648
	addi	a0,a0,1
	sw	a0,20(a2)
	.loc 1 221 28 is_stmt 1 discriminator 2
	.loc 1 221 19 is_stmt 0 discriminator 1
	lw	a5,168(sp)
	.loc 1 221 28 discriminator 2
	addi	s7,s7,128
.LVL167:
	.loc 1 221 19 is_stmt 1 discriminator 1
	bgt	a5,s7,.L56
	lw	s0,248(sp)
	.cfi_restore 8
	lw	s1,244(sp)
	.cfi_restore 9
	lw	s4,232(sp)
	.cfi_restore 20
	lw	s5,228(sp)
	.cfi_restore 21
	lw	s6,224(sp)
	.cfi_restore 22
	lw	s8,216(sp)
	.cfi_restore 24
	lw	s9,212(sp)
	.cfi_restore 25
	lw	s11,204(sp)
	.cfi_restore 27
.LVL168:
.L1:
	.loc 1 302 1 is_stmt 0
	lw	ra,252(sp)
	.cfi_restore 1
	lw	s2,240(sp)
	.cfi_restore 18
	lw	s3,236(sp)
	.cfi_restore 19
	lw	s7,220(sp)
	.cfi_restore 23
	lw	s10,208(sp)
	.cfi_restore 26
	addi	sp,sp,256
	.cfi_def_cfa_offset 0
	jr	ra
.LVL169:
.L79:
	.cfi_def_cfa_offset 256
	.cfi_offset 1, -4
	.cfi_offset 8, -8
	.cfi_offset 9, -12
	.cfi_offset 18, -16
	.cfi_offset 19, -20
	.cfi_offset 20, -24
	.cfi_offset 21, -28
	.cfi_offset 22, -32
	.cfi_offset 23, -36
	.cfi_offset 24, -40
	.cfi_offset 25, -44
	.cfi_offset 26, -48
	.cfi_offset 27, -52
	.loc 1 294 1 is_stmt 1
	.loc 1 294 22 is_stmt 0
	li	a3,-2147483648
	li	a2,16
	sw	a2,1000(a3)
.LVL170:
	.loc 1 294 39 is_stmt 1
	.loc 1 294 69 is_stmt 0
	lw	t3,32(sp)
	li	a0,-2147479552
	.loc 1 294 155
	li	a1,-2147483648
	.loc 1 294 69
	sw	t3,-920(a0)
	.loc 1 294 89 is_stmt 1
	.loc 1 294 119 is_stmt 0
	sw	a4,0(a5)
	.loc 1 294 134 is_stmt 1
	.loc 1 294 155 is_stmt 0
	lw	a5,108(sp)
	.loc 1 294 193
	li	a2,-2147475456
	.loc 1 294 231
	li	a3,-2147475456
	.loc 1 294 155
	sw	a5,1384(a1)
	.loc 1 294 171 is_stmt 1
	.loc 1 294 193 is_stmt 0
	lw	a5,84(sp)
	.loc 1 294 268 discriminator 8
	li	a7,1
	.loc 1 294 331 discriminator 9
	li	a6,-2147483648
	.loc 1 294 193
	sw	a5,1512(a2)
	.loc 1 294 209 is_stmt 1
	.loc 1 294 231 is_stmt 0
	lw	a4,88(sp)
	.loc 1 294 268 discriminator 8
	li	a5,-2147483648
	.loc 1 294 331 discriminator 9
	li	t1,5
	.loc 1 294 231
	sw	a4,-408(a3)
	.loc 1 294 247 is_stmt 1
	.loc 1 294 268 is_stmt 0 discriminator 8
	sw	a7,236(a5)
	.loc 1 294 302 is_stmt 1 discriminator 8
	.loc 1 294 315 discriminator 9
	.loc 1 294 331 is_stmt 0 discriminator 9
	sw	t1,20(a6)
	.loc 1 279 32 is_stmt 1
.LVL171:
	.loc 1 278 16 is_stmt 0
	lw	a3,56(sp)
	.loc 1 279 20
	li	t5,4096
	.loc 1 279 26
	li	a4,4096
	.loc 1 279 36
	li	a5,4096
	.loc 1 279 20
	addi	t5,t5,-1022
	.loc 1 279 26
	addi	a4,a4,-984
	.loc 1 279 36
	addi	a5,a5,-2016
	.loc 1 279 20
	add	t5,t3,t5
.LVL172:
	.loc 1 279 26
	add	a4,t3,a4
.LVL173:
	.loc 1 279 36
	add	a5,t3,a5
.LVL174:
	.loc 1 278 16 is_stmt 1
	bgt	a3,a7,.L34
	j	.L35
.LVL175:
.L63:
	.loc 1 283 20 is_stmt 0 discriminator 2
	li	a4,0
	.loc 1 282 77
	addi	a5,a5,-1816
	j	.L32
.LVL176:
.L80:
	.loc 1 294 1 is_stmt 1
	.loc 1 294 22 is_stmt 0
	sw	t1,0(a7)
	.loc 1 294 39 is_stmt 1
	.loc 1 294 69 is_stmt 0
	lw	t1,32(sp)
	.loc 1 294 119
	li	a7,-2147479552
	.loc 1 294 69
	sw	t1,0(a6)
	.loc 1 294 89 is_stmt 1
	.loc 1 294 119 is_stmt 0
	sw	t1,-792(a7)
	.loc 1 294 134 is_stmt 1
	.loc 1 294 155 is_stmt 0
	sw	t5,0(a0)
	.loc 1 294 171 is_stmt 1
	.loc 1 294 193 is_stmt 0
	sw	a4,0(a1)
	.loc 1 294 209 is_stmt 1
	.loc 1 294 231 is_stmt 0
	sw	a5,0(a2)
	.loc 1 294 247 is_stmt 1
	.loc 1 294 268 is_stmt 0 discriminator 8
	lw	a5,28(sp)
.LVL177:
	.loc 1 294 331 discriminator 9
	li	a2,-2147483648
.LVL178:
	li	a1,5
	.loc 1 294 268 discriminator 8
	sw	a5,0(a3)
.LVL179:
	.loc 1 294 302 is_stmt 1 discriminator 8
	.loc 1 294 315 discriminator 9
	.loc 1 294 331 is_stmt 0 discriminator 9
	sw	a1,20(a2)
	.loc 1 279 32 is_stmt 1
.LVL180:
	.loc 1 278 16 is_stmt 0
	lw	a1,56(sp)
	.loc 1 279 20
	li	a3,4096
	.loc 1 279 26
	li	a4,4096
.LVL181:
	.loc 1 279 36
	li	a5,4096
	.loc 1 279 20
	addi	a3,a3,-1020
	.loc 1 279 26
	addi	a4,a4,-952
	.loc 1 279 36
	addi	a5,a5,-1984
	.loc 1 278 16
	li	a2,2
	.loc 1 279 20
	add	a3,t1,a3
.LVL182:
	.loc 1 279 26
	add	a4,t1,a4
.LVL183:
	.loc 1 279 36
	add	a5,t1,a5
.LVL184:
	.loc 1 278 16 is_stmt 1
	bgt	a1,a2,.L36
	j	.L35
.LVL185:
.L77:
	.loc 1 281 40 is_stmt 0 discriminator 1
	lw	a5,68(sp)
	addi	s0,s8,4
	ble	a5,s0,.L84
.LVL186:
	.loc 1 282 16 is_stmt 1
	.loc 1 282 77 is_stmt 0
	beq	s8,zero,.L60
	li	a5,-2147479552
	addi	a5,a5,-920
.LVL187:
.L19:
	.loc 1 283 16 is_stmt 1
	.loc 1 283 20 is_stmt 0 discriminator 1
	lw	a1,32(sp)
	li	a4,-2147479552
	addi	a4,a4,-792
.LVL188:
.L17:
	.loc 1 292 16 is_stmt 1
	.loc 1 294 1
	.loc 1 294 22 is_stmt 0
	lw	a3,64(sp)
	li	a2,-2147483648
	sw	a3,1000(a2)
.LVL189:
	.loc 1 294 39 is_stmt 1
	.loc 1 294 69 is_stmt 0
	lw	a3,32(sp)
	sw	a3,0(a5)
	.loc 1 294 89 is_stmt 1
	.loc 1 294 119 is_stmt 0
	sw	a1,0(a4)
	.loc 1 294 134 is_stmt 1
	.loc 1 294 155 is_stmt 0
	li	a3,-2147483648
.L73:
	.loc 1 294 134 is_stmt 1
	.loc 1 294 155 is_stmt 0
	lw	a2,108(sp)
	.loc 1 294 193
	li	a4,-2147475456
	.loc 1 294 231
	li	a5,-2147475456
	.loc 1 294 155
	sw	a2,1384(a3)
	.loc 1 294 171 is_stmt 1
	.loc 1 294 193 is_stmt 0
	lw	a3,84(sp)
	.loc 1 294 268 discriminator 8
	li	a2,1
	.loc 1 294 193
	sw	a3,1512(a4)
	.loc 1 294 209 is_stmt 1
	.loc 1 294 231 is_stmt 0
	lw	a4,88(sp)
	.loc 1 294 331 discriminator 9
	li	a3,5
	.loc 1 294 231
	sw	a4,-408(a5)
	.loc 1 294 247 is_stmt 1
	.loc 1 294 268 is_stmt 0 discriminator 8
	li	a4,-2147483648
	sw	a2,236(a4)
	.loc 1 294 302 is_stmt 1 discriminator 8
	.loc 1 294 315 discriminator 9
	.loc 1 294 331 is_stmt 0 discriminator 9
	li	a5,-2147483648
	sw	a3,20(a5)
	.loc 1 279 32 is_stmt 1
.LVL190:
	.loc 1 279 20 is_stmt 0
	lw	a5,32(sp)
	li	a4,4096
	addi	a4,a4,-1022
	.loc 1 279 36
	lw	a1,88(sp)
	.loc 1 279 26
	lw	a3,84(sp)
	.loc 1 279 20
	add	a4,a5,a4
.LVL191:
	.loc 1 279 26
	lw	a5,92(sp)
	add	a3,a3,a5
.LVL192:
	.loc 1 279 36
	add	a5,a1,a5
.LVL193:
	.loc 1 278 16 is_stmt 1
	lw	a1,56(sp)
	ble	a1,a2,.L16
.LVL194:
.L22:
	.loc 1 283 16
	.loc 1 292 16
	.loc 1 294 1
	.loc 1 294 22 is_stmt 0
	lw	a2,64(sp)
	li	a6,-2147483648
	.loc 1 294 69
	li	t1,-2147479552
	.loc 1 294 22
	sw	a2,1000(a6)
	.loc 1 294 39 is_stmt 1
	.loc 1 294 69 is_stmt 0
	lw	a2,32(sp)
	.loc 1 294 119
	li	a0,-2147479552
	.loc 1 294 155
	li	a1,-2147483648
	.loc 1 294 69
	sw	a2,-920(t1)
	.loc 1 294 89 is_stmt 1
	.loc 1 294 119 is_stmt 0
	sw	a2,-792(a0)
	.loc 1 294 134 is_stmt 1
	.loc 1 294 155 is_stmt 0
	sw	a4,1384(a1)
	.loc 1 294 171 is_stmt 1
	.loc 1 294 193 is_stmt 0
	li	a2,-2147475456
	sw	a3,1512(a2)
	.loc 1 294 209 is_stmt 1
	.loc 1 294 231 is_stmt 0
	li	a4,-2147475456
	sw	a5,-408(a4)
	.loc 1 294 247 is_stmt 1
	.loc 1 294 268 is_stmt 0 discriminator 8
	li	a7,-2147483648
	li	t3,2
	sw	t3,236(a7)
	.loc 1 294 302 is_stmt 1 discriminator 8
	.loc 1 279 32
.LVL195:
	.loc 1 278 16
	lw	a4,56(sp)
	.loc 1 294 69 is_stmt 0
	addi	t1,t1,-920
	.loc 1 278 16
	ble	a4,t3,.L16
	.loc 1 279 20
	lw	a2,32(sp)
	li	a4,4096
	addi	a4,a4,-1020
	add	a4,a2,a4
	.loc 1 279 26
	lw	a2,92(sp)
	add	a3,a3,a2
.LVL196:
	.loc 1 279 36
	add	a5,a5,a2
.LVL197:
	.loc 1 281 16 is_stmt 1
	.loc 1 281 93 is_stmt 0
	lw	a2,28(sp)
	bne	a2,t3,.L26
	.loc 1 281 40 discriminator 1
	lw	a1,68(sp)
	li	a2,-2147483648
	addi	a2,a2,1128
	ble	a1,s0,.L29
	mv	a2,t1
.L29:
.LVL198:
	.loc 1 294 1 is_stmt 1
	.loc 1 294 22 is_stmt 0
	lw	a1,64(sp)
	li	a7,-2147483648
	.loc 1 294 119
	li	a6,-2147479552
	.loc 1 294 22
	sw	a1,1000(a7)
.LVL199:
	.loc 1 294 39 is_stmt 1
	.loc 1 294 69 is_stmt 0
	lw	a1,32(sp)
	.loc 1 294 155
	li	a0,-2147483648
	.loc 1 294 268 discriminator 8
	li	t1,-2147483648
	.loc 1 294 69
	sw	a1,0(a2)
	.loc 1 294 89 is_stmt 1
	.loc 1 294 119 is_stmt 0
	sw	a1,-792(a6)
	.loc 1 294 134 is_stmt 1
	.loc 1 294 155 is_stmt 0
	sw	a4,1384(a0)
	.loc 1 294 171 is_stmt 1
	.loc 1 294 193 is_stmt 0
	li	a1,-2147475456
	sw	a3,1512(a1)
	.loc 1 294 209 is_stmt 1
	.loc 1 294 231 is_stmt 0
	li	a2,-2147475456
	sw	a5,-408(a2)
	.loc 1 294 247 is_stmt 1
	.loc 1 294 268 is_stmt 0 discriminator 8
	li	t3,1
	.loc 1 294 331 discriminator 9
	li	a4,-2147483648
.LVL200:
	.loc 1 294 268 discriminator 8
	sw	t3,236(t1)
	.loc 1 294 302 is_stmt 1 discriminator 8
	.loc 1 294 315 discriminator 9
	.loc 1 294 331 is_stmt 0 discriminator 9
	li	a2,5
	sw	a2,20(a4)
	j	.L28
.LVL201:
.L81:
	.loc 1 294 1 is_stmt 1
	.loc 1 294 22 is_stmt 0
	sw	t4,0(t3)
	.loc 1 294 39 is_stmt 1
	.loc 1 294 69 is_stmt 0
	lw	t3,32(sp)
	sw	t3,0(t1)
	.loc 1 294 89 is_stmt 1
	.loc 1 294 119 is_stmt 0
	sw	t3,0(a7)
	.loc 1 294 134 is_stmt 1
	.loc 1 294 155 is_stmt 0
	sw	a3,0(a6)
	.loc 1 294 171 is_stmt 1
	.loc 1 294 193 is_stmt 0
	sw	a4,0(a0)
	.loc 1 294 209 is_stmt 1
	.loc 1 294 231 is_stmt 0
	sw	a5,0(a1)
	.loc 1 294 247 is_stmt 1
	.loc 1 294 268 is_stmt 0 discriminator 8
	li	a1,1
	sw	a1,0(a2)
	.loc 1 294 302 is_stmt 1 discriminator 8
	.loc 1 294 315 discriminator 9
	.loc 1 294 331 is_stmt 0 discriminator 9
	li	a3,-2147483648
.LVL202:
	li	a2,5
	sw	a2,20(a3)
	j	.L37
.LVL203:
.L78:
	addi	s0,s8,4
	j	.L22
.LVL204:
.L82:
	.loc 1 282 16 is_stmt 1
	.loc 1 282 77 is_stmt 0
	li	a3,-2147479552
	beq	s8,zero,.L64
	.loc 1 283 20 discriminator 1
	lw	a2,32(sp)
	.loc 1 282 77
	addi	a3,a3,-792
.L40:
.LVL205:
	.loc 1 294 1 is_stmt 1
	.loc 1 294 22 is_stmt 0
	li	a5,-2147483648
	li	a4,16
	sw	a4,1000(a5)
.LVL206:
	.loc 1 294 39 is_stmt 1
	.loc 1 294 69 is_stmt 0
	lw	t4,32(sp)
	li	a6,-2147483648
	.loc 1 294 155
	li	a0,-2147483648
	.loc 1 294 69
	sw	t4,1128(a6)
	.loc 1 294 89 is_stmt 1
	.loc 1 294 155 is_stmt 0
	lw	a5,108(sp)
	.loc 1 294 119
	sw	a2,0(a3)
	.loc 1 294 134 is_stmt 1
	.loc 1 294 193 is_stmt 0
	li	a1,-2147475456
	.loc 1 294 155
	sw	a5,1384(a0)
	.loc 1 294 171 is_stmt 1
	.loc 1 294 193 is_stmt 0
	lw	a5,84(sp)
	.loc 1 294 231
	li	a2,-2147475456
	.loc 1 294 268 discriminator 8
	li	a7,1
	.loc 1 294 193
	sw	a5,1512(a1)
	.loc 1 294 209 is_stmt 1
	.loc 1 294 231 is_stmt 0
	lw	a4,88(sp)
	.loc 1 294 268 discriminator 8
	li	a5,-2147483648
	.loc 1 294 331 discriminator 9
	li	t1,-2147483648
	.loc 1 294 231
	sw	a4,-408(a2)
	.loc 1 294 247 is_stmt 1
	.loc 1 294 268 is_stmt 0 discriminator 8
	sw	a7,236(a5)
	.loc 1 294 302 is_stmt 1 discriminator 8
	.loc 1 294 315 discriminator 9
	.loc 1 294 331 is_stmt 0 discriminator 9
	li	t3,5
	sw	t3,20(t1)
	.loc 1 279 32 is_stmt 1
.LVL207:
	.loc 1 278 16 is_stmt 0
	lw	a2,56(sp)
	.loc 1 279 20
	li	a3,4096
	.loc 1 279 26
	li	a4,4096
	.loc 1 279 36
	li	a5,4096
	.loc 1 279 20
	addi	a3,a3,-1022
	.loc 1 279 26
	addi	a4,a4,-984
	.loc 1 279 36
	addi	a5,a5,-2016
	.loc 1 279 20
	add	a3,t4,a3
.LVL208:
	.loc 1 279 26
	add	a4,t4,a4
.LVL209:
	.loc 1 279 36
	add	a5,t4,a5
.LVL210:
	.loc 1 278 16 is_stmt 1
	ble	a2,a7,.L42
.LVL211:
.L43:
	.loc 1 282 16
	.loc 1 283 16
	.loc 1 292 16
	.loc 1 294 1
	.loc 1 294 22 is_stmt 0
	li	t1,-2147483648
	li	t4,16
	sw	t4,1000(t1)
	.loc 1 294 69
	lw	t6,32(sp)
	li	t3,-2147479552
	.loc 1 294 119
	li	a7,-2147479552
	.loc 1 294 69
	sw	t6,-920(t3)
	.loc 1 294 119
	sw	t6,-792(a7)
	.loc 1 294 155
	li	a6,-2147483648
	sw	a3,1384(a6)
	.loc 1 294 193
	li	a0,-2147475456
	sw	a4,1512(a0)
	.loc 1 294 231
	li	a1,-2147475456
	sw	a5,-408(a1)
	.loc 1 294 268 discriminator 8
	li	a2,-2147483648
	sw	zero,236(a2)
	.loc 1 278 16
	lw	t3,56(sp)
	.loc 1 279 20
	li	a3,4096
	addi	a3,a3,-1020
	.loc 1 278 16
	li	t5,2
	.loc 1 294 22
	addi	t1,t1,1000
	.loc 1 294 39 is_stmt 1
	.loc 1 294 89
	.loc 1 294 134
	.loc 1 294 171
	.loc 1 294 209
	.loc 1 294 247
	.loc 1 294 268 is_stmt 0 discriminator 8
	addi	a2,a2,236
	.loc 1 294 302 is_stmt 1 discriminator 8
	.loc 1 279 32
.LVL212:
	.loc 1 294 119 is_stmt 0
	addi	a7,a7,-792
	.loc 1 294 155
	addi	a6,a6,1384
	.loc 1 294 193
	addi	a0,a0,1512
	.loc 1 294 231
	addi	a1,a1,-408
	.loc 1 279 20
	add	a3,t6,a3
.LVL213:
	.loc 1 279 26
	addi	a4,a4,32
.LVL214:
	.loc 1 279 36
	addi	a5,a5,32
.LVL215:
	.loc 1 278 16 is_stmt 1
	ble	t3,t5,.L42
	.loc 1 281 16
	.loc 1 281 93 is_stmt 0
	lw	t3,28(sp)
	bne	t3,t5,.L44
.LVL216:
	.loc 1 283 16 is_stmt 1
	.loc 1 292 16
	.loc 1 294 1
	.loc 1 294 22 is_stmt 0
	sw	t4,0(t1)
	.loc 1 294 39 is_stmt 1
	.loc 1 294 69 is_stmt 0
	li	t3,-2147483648
	sw	t6,1128(t3)
	.loc 1 294 89 is_stmt 1
	.loc 1 294 119 is_stmt 0
	sw	t6,0(a7)
	.loc 1 294 134 is_stmt 1
	.loc 1 294 155 is_stmt 0
	sw	a3,0(a6)
	.loc 1 294 171 is_stmt 1
	.loc 1 294 193 is_stmt 0
	sw	a4,0(a0)
	.loc 1 294 209 is_stmt 1
	.loc 1 294 231 is_stmt 0
	sw	a5,0(a1)
	.loc 1 294 247 is_stmt 1
	.loc 1 294 268 is_stmt 0 discriminator 8
	li	a1,1
	sw	a1,0(a2)
	.loc 1 294 302 is_stmt 1 discriminator 8
	.loc 1 294 315 discriminator 9
	.loc 1 294 331 is_stmt 0 discriminator 9
	li	a3,-2147483648
.LVL217:
	li	a2,5
	sw	a2,20(a3)
	j	.L45
.LVL218:
.L65:
	.loc 1 282 77
	addi	a5,a5,-1816
	.loc 1 283 20 discriminator 2
	li	a4,0
	j	.L41
.LVL219:
.L83:
.LBB142:
	.loc 1 300 140 discriminator 2
	lw	a5,188(sp)
	addi	a5,a5,-1
	j	.L55
.LVL220:
.L84:
.LBE142:
	.loc 1 282 16 is_stmt 1
	.loc 1 282 77 is_stmt 0
	beq	s8,zero,.L21
	li	a5,-2147483648
	addi	a5,a5,1128
	j	.L19
.LVL221:
.L60:
	li	a4,-2147479552
	li	a5,-2147479552
	.loc 1 283 20 discriminator 2
	li	a1,0
	.loc 1 282 77
	addi	a4,a4,-1816
	addi	a5,a5,-920
	j	.L17
.LVL222:
.L21:
	.loc 1 294 1 is_stmt 1
	.loc 1 294 22 is_stmt 0
	lw	a5,64(sp)
	li	a0,-2147483648
	.loc 1 294 69
	li	a1,-2147483648
	.loc 1 294 22
	sw	a5,1000(a0)
.LVL223:
	.loc 1 294 39 is_stmt 1
	.loc 1 294 69 is_stmt 0
	lw	a5,32(sp)
	.loc 1 294 119
	li	a2,-2147479552
	.loc 1 294 155
	li	a3,-2147483648
	.loc 1 294 69
	sw	a5,1128(a1)
	.loc 1 294 89 is_stmt 1
	.loc 1 294 119 is_stmt 0
	sw	zero,-1816(a2)
	j	.L73
.LVL224:
.L58:
	.cfi_restore 8
	.cfi_restore 9
	.cfi_restore 20
	.cfi_restore 21
	.cfi_restore 22
	.cfi_restore 24
	.cfi_restore 25
	.cfi_restore 27
	.loc 1 209 9 discriminator 2
	li	a4,16384
	.loc 1 218 23 discriminator 1
	mv	s2,s3
	.loc 1 209 9 discriminator 2
	sw	a4,32(sp)
	j	.L3
.LVL225:
.L64:
	.cfi_offset 8, -8
	.cfi_offset 9, -12
	.cfi_offset 20, -24
	.cfi_offset 21, -28
	.cfi_offset 22, -32
	.cfi_offset 24, -40
	.cfi_offset 25, -44
	.cfi_offset 27, -52
	.loc 1 282 77
	addi	a3,a3,-1816
	.loc 1 283 20 discriminator 2
	li	a2,0
	j	.L40
	.cfi_endproc
.LFE12:
	.size	matmul_q4, .-matmul_q4
	.align	2
	.type	matmul_q8, @function
matmul_q8:
.LFB13:
	.loc 1 324 41 is_stmt 1
	.cfi_startproc
.LVL226:
	.loc 1 325 4
	.loc 1 324 41 is_stmt 0
	addi	sp,sp,-240
	.cfi_def_cfa_offset 240
	sw	s2,224(sp)
	sw	s5,212(sp)
	sw	s9,196(sp)
	sw	ra,236(sp)
	sw	s1,228(sp)
	.cfi_offset 18, -16
	.cfi_offset 21, -28
	.cfi_offset 25, -44
	.cfi_offset 1, -4
	.cfi_offset 9, -12
	.loc 1 341 12
	lw	s1,4(a0)
	.loc 1 324 41
	mv	s9,a0
.LVL227:
	.loc 1 326 4 is_stmt 1
	.loc 1 327 4
	.loc 1 328 4
	.loc 1 329 4
	.loc 1 330 4
	.loc 1 331 4
	.loc 1 332 4
	.loc 1 333 4
	.loc 1 334 4
	.loc 1 336 4
	.loc 1 324 41 is_stmt 0
	mv	s2,a1
	.loc 1 341 7
	srli	a5,s1,31
	add	a5,a5,s1
	srai	a5,a5,1
	.loc 1 342 20
	addi	a5,a5,127
	.loc 1 342 7
	srai	a4,a5,31
	andi	a4,a4,127
	add	a5,a4,a5
	andi	s5,a5,-128
	.loc 1 343 6
	ble	s5,s1,.L86
	mv	s5,s1
.L86:
	.loc 1 339 16
	lw	a3,8(s9)
	.loc 1 340 6
	lw	a4,0(s9)
	.loc 1 339 11
	srai	a5,a3,31
	.loc 1 340 6
	div	a4,a4,a3
	.loc 1 339 11
	andi	a5,a5,7
	add	a5,a5,a3
	srai	a5,a5,3
	.loc 1 339 16
	sw	a3,148(sp)
	.loc 1 339 11
	sw	a5,12(sp)
	.loc 1 340 6
	sw	a4,64(sp)
	.loc 1 336 9
	bne	s2,zero,.L143
	.loc 1 345 23 discriminator 2
	sw	zero,84(sp)
	.loc 1 346 22 discriminator 2
	mv	s1,s5
	.loc 1 336 9 discriminator 1
	sw	zero,36(sp)
.L87:
.LVL228:
	.loc 1 348 4 is_stmt 1
	.loc 1 348 19 discriminator 1
	lw	a5,84(sp)
	ble	s1,a5,.L85
.LBB143:
	.loc 1 392 382 is_stmt 0
	lw	a1,36(sp)
.LVL229:
	li	a2,4096
	addi	a2,a2,-1016
.LBE143:
.LBB144:
	.loc 1 398 382
	li	a4,4096
.LBE144:
.LBB145:
	.loc 1 392 382
	add	a7,a1,a2
.LBE145:
.LBB146:
	.loc 1 366 118
	lw	a6,12(sp)
.LBE146:
.LBB147:
	.loc 1 395 208
	mv	a2,a1
.LBE147:
.LBB148:
	.loc 1 398 382
	addi	a4,a4,-2048
	add	a4,a2,a4
	sw	a4,92(sp)
	.loc 1 398 389
	srli	a4,a4,1
.LBE148:
.LBB149:
	.loc 1 395 208
	li	a3,4096
.LBE149:
.LBB150:
	.loc 1 398 389
	sw	a4,140(sp)
	slli	a4,a6,5
.LBE150:
.LBB151:
	.loc 1 395 208
	addi	a3,a3,-1024
.LBE151:
.LBB152:
	.loc 1 366 118
	slli	a0,a6,3
.LVL230:
	sw	a4,152(sp)
.LBE152:
.LBB153:
	.loc 1 364 111
	li	a4,16384
.LBE153:
.LBB154:
	.loc 1 395 208
	add	a1,a1,a3
.LBE154:
.LBB155:
	.loc 1 364 111
	addi	a4,a4,-1
.LBE155:
.LBB156:
	.loc 1 398 382
	mv	a3,a2
.LBE156:
	.loc 1 405 20
	li	a5,4096
.LBB157:
	.loc 1 366 334
	addi	a2,a0,-1
.LBE157:
	.loc 1 405 20
	addi	a5,a5,-1018
.LBB158:
	.loc 1 366 334
	sw	a2,4(sp)
.LBE158:
.LBB159:
	.loc 1 364 111
	sw	a4,56(sp)
.LBE159:
.LBB160:
	.loc 1 392 389
	srli	a2,a7,1
.LBE160:
.LBB161:
	.loc 1 370 261
	li	a4,65536
	sw	s3,220(sp)
.LBE161:
.LBB162:
	.loc 1 392 389
	sw	a2,132(sp)
	.cfi_offset 19, -20
.LBE162:
.LBB163:
	.loc 1 428 540 discriminator 4
	srli	s3,a3,1
.LBE163:
.LBB164:
	.loc 1 395 215
	srli	a2,a1,1
.LBE164:
.LBB165:
	.loc 1 370 261
	addi	a4,a4,-1
.LBE165:
	.loc 1 405 20
	add	a5,a3,a5
	sw	s3,164(sp)
	sw	s0,232(sp)
	sw	s4,216(sp)
	sw	s6,208(sp)
	sw	s7,204(sp)
	sw	s8,200(sp)
	sw	s10,192(sp)
	sw	s11,188(sp)
	.cfi_offset 8, -8
	.cfi_offset 20, -24
	.cfi_offset 22, -32
	.cfi_offset 23, -36
	.cfi_offset 24, -40
	.cfi_offset 26, -48
	.cfi_offset 27, -52
.LBB166:
	.loc 1 366 118
	sw	a0,144(sp)
.LBE166:
.LBB167:
	.loc 1 392 382
	sw	a7,88(sp)
.LBE167:
.LBB168:
	.loc 1 395 208
	sw	a1,112(sp)
	.loc 1 395 215
	sw	a2,136(sp)
.LBE168:
.LBB169:
	.loc 1 370 261
	sw	a4,80(sp)
.LBE169:
	.loc 1 405 20
	sw	a5,156(sp)
	sw	s1,160(sp)
	sw	s5,172(sp)
	mv	s3,s9
	sw	s2,168(sp)
.LVL231:
.L141:
	.loc 1 350 7 is_stmt 1
	.loc 1 351 7
	.loc 1 353 7
	.loc 1 350 11 is_stmt 0
	lw	a4,84(sp)
	lw	a5,160(sp)
	sub	a5,a5,a4
	.loc 1 351 9
	li	a4,128
	ble	a5,a4,.L89
	li	a5,128
.L89:
	.loc 1 356 33
	lw	a1,84(sp)
	.loc 1 353 38
	addi	a5,a5,15
	.loc 1 353 11
	andi	a2,a5,-16
	.loc 1 356 33
	add	a4,a2,a1
.LBB170:
	.loc 1 428 23
	addi	a3,a4,-1
	.loc 1 428 39
	sub	a3,a3,a1
.LBE170:
	.loc 1 354 11
	srai	a0,a2,3
.LBB171:
	.loc 1 428 39
	sw	a3,96(sp)
.LBE171:
	.loc 1 358 17 discriminator 1
	lw	a3,64(sp)
	.loc 1 353 11
	sw	a2,24(sp)
	.loc 1 354 11
	sw	a0,108(sp)
.LBB172:
	.loc 1 428 352 discriminator 4
	addi	a2,a2,-1
	slli	a0,a1,3
	sw	a0,104(sp)
	sw	a2,52(sp)
.LBE172:
	.loc 1 353 41
	srai	a5,a5,4
.LVL232:
	.loc 1 354 7 is_stmt 1
	.loc 1 355 7
	.loc 1 356 7
	.loc 1 356 8 is_stmt 0
	slli	a4,a4,3
.LVL233:
	.loc 1 357 7 is_stmt 1
	.loc 1 358 7
	.loc 1 358 17 discriminator 1
	ble	a3,zero,.L130
.LBB173:
	.loc 1 368 97 is_stmt 0
	addi	a4,a4,-1
.LVL234:
	.loc 1 368 107
	sub	a4,a4,a0
.LVL235:
.LBE173:
	.loc 1 405 26
	slli	a5,a5,5
.LVL236:
	sw	a5,100(sp)
.LBB174:
	.loc 1 368 1070
	addi	a5,a4,1
	sw	a5,120(sp)
.LBE174:
.LBB175:
	.loc 1 370 58
	lw	a5,108(sp)
.LBE175:
.LBB176:
	.loc 1 364 59
	li	a3,-2147483648
	.loc 1 364 111
	li	a2,-2147483648
.LBE176:
.LBB177:
	.loc 1 370 58
	addi	a5,a5,-1
	sw	a5,76(sp)
.LBE177:
.LBB178:
	.loc 1 364 59
	addi	a5,a3,1696
	.loc 1 364 398
	li	a1,524288
.LVL237:
	.loc 1 364 59
	sw	a5,28(sp)
	.loc 1 364 111
	addi	a5,a2,1952
	.loc 1 364 398
	li	s8,-2147483648
	.loc 1 364 555
	li	a0,1032192
.LVL238:
	.loc 1 364 111
	sw	a5,32(sp)
	.loc 1 364 398
	addi	a5,a1,8
	.loc 1 364 555
	li	s2,-2147479552
.LBE178:
.LBB179:
	.loc 1 370 238
	li	s9,0
.LBE179:
.LBB180:
	.loc 1 364 398
	addi	s8,s8,544
	sw	a5,124(sp)
	.loc 1 364 555
	addi	a5,a0,97
.LBE180:
.LBB181:
	.loc 1 368 107
	sw	a4,116(sp)
.LBE181:
.LBB182:
	.loc 1 370 238
	sw	zero,60(sp)
.LBE182:
.LBB183:
	.loc 1 364 555
	addi	s2,s2,-1632
	sw	a5,128(sp)
	mv	a3,s9
	mv	s11,s8
.LVL239:
.L139:
.LBE183:
	.loc 1 360 10 is_stmt 1
	.loc 1 360 15 is_stmt 0
	lw	a5,64(sp)
	sub	a4,a5,a3
	sw	a4,48(sp)
.LVL240:
	.loc 1 361 10 is_stmt 1
	.loc 1 361 12 is_stmt 0
	li	a5,4
	sw	a4,16(sp)
	ble	a4,a5,.L93
	sw	a5,16(sp)
.L93:
.LVL241:
.LBB184:
	.loc 1 364 2 is_stmt 1
	.loc 1 364 59 is_stmt 0
	lw	a5,28(sp)
	li	a2,4096
	.loc 1 364 88
	li	t2,-2147483648
	.loc 1 364 59
	sw	a2,0(a5)
.LVL242:
	.loc 1 364 22
	lw	a4,16(sp)
	.loc 1 364 148
	li	t0,-2147479552
	.loc 1 364 177
	li	t5,-2147479552
	.loc 1 364 22
	addi	a2,a4,-1
.LVL243:
	.loc 1 364 42 is_stmt 1
	.loc 1 364 71
	.loc 1 364 88 is_stmt 0
	sw	a2,20(sp)
	sw	a2,1824(t2)
	.loc 1 364 94 is_stmt 1
	.loc 1 364 111 is_stmt 0
	lw	a1,32(sp)
	lw	a0,56(sp)
	.loc 1 364 223
	li	t3,-2147479552
	li	a5,8
	.loc 1 364 111
	sw	a0,0(a1)
	.loc 1 364 131 is_stmt 1
	.loc 1 364 148 is_stmt 0
	sw	zero,-1120(t0)
	.loc 1 364 160 is_stmt 1
	.loc 1 364 177 is_stmt 0
	sw	zero,-1888(t5)
	.loc 1 364 206 is_stmt 1
	.loc 1 364 223 is_stmt 0
	sw	a5,-2016(t3)
	.loc 1 364 232 is_stmt 1
	.loc 1 364 249 is_stmt 0
	li	a2,7
.LVL244:
	li	t1,-2147479552
	sw	a2,-1760(t1)
	.loc 1 364 252 is_stmt 1
	.loc 1 364 269 is_stmt 0
	li	a7,-2147479552
	sw	zero,-992(a7)
	.loc 1 364 272 is_stmt 1
	.loc 1 364 288 is_stmt 0
	li	s0,-2147483648
	.loc 1 364 333
	li	s1,-2147483648
	.loc 1 364 288
	sw	a2,672(s0)
	.loc 1 364 317 is_stmt 1
	.loc 1 364 333 is_stmt 0
	addi	s1,s1,1056
	li	ra,1
	sw	ra,0(s1)
	.loc 1 364 342 is_stmt 1
	.loc 1 364 359 is_stmt 0
	li	a6,-2147483648
	sw	a2,1568(a6)
	.loc 1 364 362 is_stmt 1
	.loc 1 364 379 is_stmt 0
	li	a0,-2147479552
	sw	zero,-864(a0)
	.loc 1 364 382 is_stmt 1
	.loc 1 364 398 is_stmt 0
	lw	t4,124(sp)
	.loc 1 364 468
	li	a1,-2147479552
	.loc 1 364 476
	slli	a5,a4,3
	.loc 1 364 398
	sw	t4,0(s11)
	.loc 1 364 451 is_stmt 1
	.loc 1 364 468 is_stmt 0
	sw	a5,-736(a1)
	.loc 1 364 538 is_stmt 1
	.loc 1 364 555 is_stmt 0
	lw	t4,128(sp)
.LBE184:
.LBB185:
	.loc 1 366 28
	sw	a4,16(sp)
	add	a5,a4,a3
.LBE185:
.LBB186:
	.loc 1 364 555
	sw	t4,0(s2)
.LBE186:
.LBB187:
	.loc 1 366 2 is_stmt 1
.LVL245:
	.loc 1 366 98 is_stmt 0
	lw	t4,144(sp)
	.loc 1 366 22
	addi	a5,a5,-1
.LVL246:
	.loc 1 366 81 is_stmt 1
	.loc 1 366 123
.LBE187:
.LBB188:
	.loc 1 364 288 is_stmt 0
	addi	s0,s0,672
.LBE188:
.LBB189:
	.loc 1 366 98
	sw	t4,-2016(t3)
.LVL247:
	.loc 1 366 37
	sub	t4,a5,a3
.LVL248:
	.loc 1 366 140
	sw	t4,-1888(t5)
	.loc 1 366 146 is_stmt 1
	.loc 1 366 172 is_stmt 0
	lw	s4,8(s3)
	lw	a5,0(s3)
	.loc 1 366 186
	lw	s6,12(sp)
	.loc 1 366 484
	sw	t4,40(sp)
	.loc 1 366 172
	div	a5,a5,s4
	.loc 1 366 484
	addi	t6,t4,1
	.loc 1 366 521
	li	a4,1036288
.LVL249:
	addi	a4,a4,99
.LBE189:
.LBB190:
	.loc 1 368 1100
	li	s5,1036288
	addi	s5,s5,69
.LBE190:
.LBB191:
	.loc 1 370 93
	li	s4,-2147483648
	.loc 1 370 121
	li	s10,-2147483648
	.loc 1 370 144
	li	s9,-2147483648
	.loc 1 370 181
	li	s8,-2147479552
	.loc 1 370 705
	li	t4,1032192
.LVL250:
	addi	t4,t4,71
.LBE191:
.LBB192:
	.loc 1 366 181
	sub	a5,a5,a3
	.loc 1 366 186
	mul	a5,a5,s6
	slli	a5,a5,3
	.loc 1 366 206
	addi	a5,a5,-1
	.loc 1 366 163
	sw	a5,-1760(t1)
.LVL251:
	.loc 1 366 209 is_stmt 1
	.loc 1 366 226 is_stmt 0
	lw	s6,60(sp)
	sw	s6,-992(a7)
	.loc 1 366 251 is_stmt 1
	.loc 1 366 267 is_stmt 0
	sw	ra,0(s1)
	.loc 1 366 278 is_stmt 1
	.loc 1 366 294 is_stmt 0
	sw	zero,0(s0)
	.loc 1 366 300 is_stmt 1
	.loc 1 366 317 is_stmt 0
	lw	a5,4(sp)
	sw	a5,1568(a6)
	.loc 1 366 342 is_stmt 1
	.loc 1 366 359 is_stmt 0
	sw	zero,-864(a0)
	.loc 1 366 368 is_stmt 1
.LVL252:
	.loc 1 366 411
	.loc 1 366 444 is_stmt 0
	lw	a5,12(s3)
.LBE192:
.LBB193:
	.loc 1 368 1073
	lw	s7,120(sp)
.LBE193:
.LBB194:
	.loc 1 366 444
	srli	a5,a5,1
	.loc 1 366 432
	add	a5,a5,s6
	.loc 1 366 427
	sw	a5,0(s11)
	.loc 1 366 461 is_stmt 1
	.loc 1 366 462
	.loc 1 366 479 is_stmt 0
	sw	t6,-736(a1)
	.loc 1 366 504 is_stmt 1
	.loc 1 366 521 is_stmt 0
	sw	a4,0(s2)
.LBE194:
.LBB195:
	.loc 1 368 2 is_stmt 1
.LVL253:
	.loc 1 368 120
	.loc 1 368 168 is_stmt 0
	lw	a4,4(s3)
.LBE195:
.LBB196:
	.loc 1 370 616
	lw	a5,16(sp)
.LBE196:
.LBB197:
	.loc 1 368 1073
	mul	s7,t6,s7
.LBE197:
.LBB198:
	.loc 1 370 616
	lw	t6,108(sp)
.LVL254:
.LBE198:
.LBB199:
	.loc 1 368 140
	lw	s6,8(s3)
.LVL255:
.LBE199:
.LBB200:
	.loc 1 370 616
	mul	t6,a5,t6
.LBE200:
.LBB201:
	.loc 1 368 168
	srai	a5,a4,31
	andi	a5,a5,7
	add	a5,a5,a4
	.loc 1 368 140
	lw	a4,0(s3)
	.loc 1 368 168
	srai	a5,a5,3
	.loc 1 368 140
	div	a4,a4,s6
.LBE201:
.LBB202:
	.loc 1 370 623
	slli	t6,t6,6
.LBE202:
.LBB203:
	.loc 1 368 159
	mul	a4,a4,a5
	.loc 1 368 137
	lw	a5,28(sp)
	.loc 1 368 206
	slli	a4,a4,6
	.loc 1 368 137
	sw	a4,0(a5)
.LVL256:
	.loc 1 368 211 is_stmt 1
	.loc 1 368 228 is_stmt 0
	sw	zero,1824(t2)
	.loc 1 368 234 is_stmt 1
	.loc 1 368 269 is_stmt 0
	lw	a4,8(s3)
	lw	a5,0(s3)
	.loc 1 368 297
	lw	s6,4(s3)
	.loc 1 368 269
	div	a5,a5,a4
	.loc 1 368 297
	lw	a4,4(s3)
	srai	a4,a4,31
	andi	a4,a4,7
	add	a4,a4,s6
	srai	a4,a4,3
	.loc 1 368 266
	lw	s6,12(sp)
	.loc 1 368 288
	mul	a5,a5,a4
	.loc 1 368 251
	lw	a4,32(sp)
	.loc 1 368 266
	mul	a5,a5,s6
	slli	a5,a5,6
	.loc 1 368 335
	addi	a5,a5,-1
	.loc 1 368 251
	sw	a5,0(a4)
	.loc 1 368 338 is_stmt 1
	.loc 1 368 355 is_stmt 0
	sw	zero,-1120(t0)
	.loc 1 368 429 is_stmt 1
	.loc 1 368 458 is_stmt 0
	lw	a4,4(s3)
	srai	a5,a4,31
	andi	a5,a5,7
	add	a5,a5,a4
	srai	a5,a5,3
	.loc 1 368 496
	slli	a5,a5,6
	.loc 1 368 446
	sw	a5,-2016(t3)
	.loc 1 368 501 is_stmt 1
	.loc 1 368 518 is_stmt 0
	lw	a5,40(sp)
	sw	a5,-1888(t5)
	.loc 1 368 524 is_stmt 1
	.loc 1 368 551 is_stmt 0
	lw	a4,8(s3)
	lw	a5,0(s3)
	.loc 1 368 578
	lw	s6,4(s3)
	.loc 1 368 551
	div	a5,a5,a4
	.loc 1 368 578
	srai	a4,s6,31
	andi	a4,a4,7
	add	a4,a4,s6
	srai	a4,a4,3
	.loc 1 368 561
	sub	a5,a5,a3
	.loc 1 368 566
	mul	a5,a5,a4
	slli	a5,a5,6
	.loc 1 368 616
	addi	a5,a5,-1
	.loc 1 368 541
	sw	a5,-1760(t1)
	.loc 1 368 619 is_stmt 1
	.loc 1 368 652 is_stmt 0
	lw	a4,4(s3)
	srai	a5,a4,31
	andi	a5,a5,7
	add	a5,a5,a4
	srai	a5,a5,3
	.loc 1 368 640
	mul	a5,a5,a3
	slli	a5,a5,6
	.loc 1 368 636
	sw	a5,-992(a7)
	.loc 1 368 691 is_stmt 1
	.loc 1 368 707 is_stmt 0
	sw	ra,0(s1)
	.loc 1 368 718 is_stmt 1
	.loc 1 368 734 is_stmt 0
	lw	s6,116(sp)
	sw	s6,0(s0)
	.loc 1 368 740 is_stmt 1
	.loc 1 368 767 is_stmt 0
	lw	a4,4(s3)
	.loc 1 368 806
	lw	s6,104(sp)
	.loc 1 368 767
	srai	a5,a4,31
	andi	a5,a5,7
	add	a5,a5,a4
	srai	a5,a5,3
	.loc 1 368 790
	slli	a5,a5,6
	.loc 1 368 804
	addi	a5,a5,-1
	.loc 1 368 806
	sub	a5,a5,s6
	.loc 1 368 757
	sw	a5,1568(a6)
	.loc 1 368 812 is_stmt 1
	.loc 1 368 829 is_stmt 0
	sw	s6,-864(a0)
	.loc 1 368 838 is_stmt 1
.LVL257:
	.loc 1 368 984
	.loc 1 368 881 is_stmt 0
	lw	a4,4(s3)
	srai	a5,a4,31
	andi	a5,a5,7
	add	a5,a5,a4
	srai	a5,a5,3
	.loc 1 368 923
	mul	a5,a5,a3
	.loc 1 368 919
	slli	a5,a5,6
	.loc 1 368 842
	add	a5,a5,s6
	.loc 1 368 1005
	lw	s6,20(s3)
.LVL258:
	add	a5,a5,s6
	.loc 1 368 1000
	sw	a5,0(s11)
.LVL259:
	.loc 1 368 1033 is_stmt 1
	.loc 1 368 1034
	.loc 1 368 1051 is_stmt 0
	sw	s7,-736(a1)
	.loc 1 368 1083 is_stmt 1
	.loc 1 368 1100 is_stmt 0
	sw	s5,0(s2)
.LBE203:
.LBB204:
	.loc 1 370 2 is_stmt 1
.LVL260:
	.loc 1 370 77
	.loc 1 370 93 is_stmt 0
	li	s5,4096
	sw	s5,800(s4)
.LVL261:
	.loc 1 370 105 is_stmt 1
	.loc 1 370 121 is_stmt 0
	lw	s4,20(sp)
	.loc 1 370 210
	li	a5,256
	.loc 1 370 121
	sw	s4,928(s10)
	.loc 1 370 127 is_stmt 1
	.loc 1 370 144 is_stmt 0
	lw	s4,56(sp)
	sw	s4,1440(s9)
	.loc 1 370 164 is_stmt 1
	.loc 1 370 181 is_stmt 0
	sw	zero,-1248(s8)
	.loc 1 370 193 is_stmt 1
	.loc 1 370 210 is_stmt 0
	lw	a4,28(sp)
	sw	a5,0(a4)
	.loc 1 370 221 is_stmt 1
	.loc 1 370 238 is_stmt 0
	lw	a5,76(sp)
	sw	a5,1824(t2)
	.loc 1 370 244 is_stmt 1
	.loc 1 370 261 is_stmt 0
	lw	a5,80(sp)
	lw	a4,32(sp)
	sw	a5,0(a4)
	.loc 1 370 282 is_stmt 1
	.loc 1 370 299 is_stmt 0
	sw	zero,-1120(t0)
	.loc 1 370 310 is_stmt 1
	.loc 1 370 327 is_stmt 0
	sw	a2,-1888(t5)
	.loc 1 370 359 is_stmt 1
	.loc 1 370 376 is_stmt 0
	li	a5,8
	sw	a5,-2016(t3)
	.loc 1 370 385 is_stmt 1
	.loc 1 370 402 is_stmt 0
	li	a5,63
	sw	a5,-1760(t1)
	.loc 1 370 406 is_stmt 1
	.loc 1 370 423 is_stmt 0
	sw	zero,-992(a7)
	.loc 1 370 426 is_stmt 1
	.loc 1 370 442 is_stmt 0
	sw	a2,0(s0)
	.loc 1 370 471 is_stmt 1
	.loc 1 370 487 is_stmt 0
	sw	ra,0(s1)
	.loc 1 370 496 is_stmt 1
	.loc 1 370 513 is_stmt 0
	sw	a5,1568(a6)
	.loc 1 370 517 is_stmt 1
	.loc 1 370 534 is_stmt 0
	sw	zero,-864(a0)
	.loc 1 370 537 is_stmt 1
	.loc 1 370 553 is_stmt 0
	sw	zero,0(s11)
	.loc 1 370 591 is_stmt 1
	.loc 1 370 608 is_stmt 0
	sw	t6,-736(a1)
	.loc 1 370 688 is_stmt 1
	.loc 1 370 705 is_stmt 0
	sw	t4,0(s2)
.LBE204:
	.loc 1 372 10 is_stmt 1
.LVL262:
	.loc 1 372 22 discriminator 1
	lw	a5,148(sp)
	ble	a5,a2,.L136
	lw	a4,20(sp)
	.loc 1 386 19 is_stmt 0
	li	a5,1015033856
	addi	a5,a5,-1276
	slli	a4,a4,18
	add	a5,a4,a5
	sw	a5,72(sp)
	.loc 1 385 27
	lw	a5,12(sp)
	.loc 1 382 19
	li	a2,1015029760
	.loc 1 384 19
	li	s4,1015029760
	.loc 1 382 19
	addi	a2,a2,516
	.loc 1 384 19
	addi	s4,s4,772
	.loc 1 377 421
	li	s10,-2147483648
	li	s7,393216
	.loc 1 382 19
	add	a2,a4,a2
	.loc 1 385 27
	addi	a5,a5,-1
	.loc 1 382 19
	sw	a2,44(sp)
	.loc 1 384 19
	add	s4,a4,s4
	.loc 1 385 27
	sw	a5,8(sp)
	li	s9,0
	li	s8,0
	.loc 1 377 40
	li	s5,30
.LBB205:
	.loc 1 377 215
	li	s6,1
.LBE205:
	.loc 1 377 421
	addi	s10,s10,20
	addi	s7,s7,1
	sw	a3,68(sp)
.LVL263:
.L137:
	.loc 1 377 3 is_stmt 1
	.loc 1 384 1
	.loc 1 384 2
	.loc 1 388 13
	.loc 1 377 20 is_stmt 0
	li	t4,-2147483648
	sw	zero,52(t4)
	.loc 1 377 23 is_stmt 1
	.loc 1 377 40 is_stmt 0
	sw	s5,0(s2)
	.loc 1 377 68 is_stmt 1
	.loc 1 377 85 is_stmt 0
	li	t3,-2147483648
	sw	zero,180(t3)
.LBB206:
	.loc 1 377 89 is_stmt 1
.LVL264:
	.loc 1 377 199
	.loc 1 377 215 is_stmt 0
	sw	s6,0(s1)
	.loc 1 377 226 is_stmt 1
	.loc 1 377 242 is_stmt 0
	li	a5,7
	sw	a5,0(s0)
	.loc 1 377 248 is_stmt 1
	lw	a5,4(sp)
	.loc 1 377 265 is_stmt 0
	li	t1,-2147483648
	.loc 1 377 307
	li	a1,-2147479552
	sub	a5,a5,s9
	.loc 1 377 265
	sw	a5,1568(t1)
	.loc 1 377 290 is_stmt 1
	.loc 1 377 307 is_stmt 0
	sw	s9,-864(a1)
	.loc 1 377 316 is_stmt 1
.LVL265:
	.loc 1 377 335
	.loc 1 377 351 is_stmt 0
	sw	s9,0(s11)
	.loc 1 377 359 is_stmt 1
.LBE206:
	.loc 1 377 361
	.loc 1 377 378 is_stmt 0
	li	a7,28
	sw	a7,0(s2)
	.loc 1 377 404 is_stmt 1
	.loc 1 377 405
	.loc 1 377 421 is_stmt 0
	sw	s7,0(s10)
	.loc 1 379 3 is_stmt 1
	.loc 1 379 20 is_stmt 0
	li	a2,-2147483648
	sw	zero,436(a2)
	.loc 1 379 23 is_stmt 1
	.loc 1 379 40 is_stmt 0
	sw	s5,0(s2)
	.loc 1 379 68 is_stmt 1
	.loc 1 379 85 is_stmt 0
	li	a3,-2147483648
	sw	zero,308(a3)
.LBB207:
	.loc 1 379 89 is_stmt 1
.LVL266:
	.loc 1 379 215
	.loc 1 379 299
	.loc 1 379 230 is_stmt 0
	lw	a4,8(s3)
	lw	a5,0(s3)
	.loc 1 379 258
	lw	t5,4(s3)
.LBE207:
	.loc 1 388 13
	li	a0,-2147483648
.LBB208:
	.loc 1 379 230
	div	a5,a5,a4
	.loc 1 379 258
	srai	a4,t5,31
	andi	a4,a4,7
	add	a4,a4,t5
	srai	a4,a4,3
.LBE208:
	.loc 1 388 13
	addi	a0,a0,36
.LBB209:
	.loc 1 379 249
	mul	a5,a5,a4
	.loc 1 379 227
	mul	a5,a5,s8
	.loc 1 379 219
	slli	a5,a5,6
	.loc 1 379 315
	sw	a5,0(s11)
.LVL267:
	.loc 1 379 323 is_stmt 1
.LBE209:
	.loc 1 379 325
	.loc 1 379 342 is_stmt 0
	sw	a7,0(s2)
	.loc 1 379 368 is_stmt 1
	.loc 1 379 369
	.loc 1 379 385 is_stmt 0
	sw	s7,0(s10)
	.loc 1 381 13 is_stmt 1
	.loc 1 381 15 is_stmt 0
	beq	s8,zero,.L159
	.loc 1 384 18
	sw	s4,0(s10)
	.loc 1 385 13 is_stmt 1
	.loc 1 385 15 is_stmt 0
	lw	a5,8(sp)
	beq	s8,a5,.L160
	.loc 1 388 13
	sw	zero,0(a0)
	.loc 1 388 13 is_stmt 1
	call	_taskYield
.LVL268:
	.loc 1 388 27 discriminator 1
	.loc 1 372 33 discriminator 2
	.loc 1 372 22 discriminator 1
	lw	a5,12(sp)
	addi	s8,s8,1
.LVL269:
	ble	a5,s8,.L156
	addi	s9,s9,8
.LVL270:
	j	.L137
.LVL271:
.L159:
	.loc 1 382 1
	.loc 1 382 2
	.loc 1 388 13
	.loc 1 382 18 is_stmt 0
	lw	a4,44(sp)
	sw	a4,0(s10)
	.loc 1 384 1 is_stmt 1
	.loc 1 384 2
	.loc 1 384 18 is_stmt 0
	sw	s4,0(s10)
	.loc 1 385 13 is_stmt 1
	.loc 1 385 15 is_stmt 0
	lw	a4,8(sp)
	beq	a4,zero,.L161
	.loc 1 388 13
	sw	zero,0(a0)
	.loc 1 388 13 is_stmt 1
	call	_taskYield
.LVL272:
	.loc 1 388 27 discriminator 1
	.loc 1 372 33 discriminator 2
	.loc 1 372 22 discriminator 1
	addi	s9,s9,8
.LVL273:
	li	s8,1
.LVL274:
	j	.L137
.LVL275:
.L160:
	.loc 1 386 1
	.loc 1 386 2
	.loc 1 386 18 is_stmt 0
	lw	a4,72(sp)
	.loc 1 388 13
	li	a5,-2147483648
	.loc 1 372 22 discriminator 1
	addi	s8,s8,1
.LVL276:
	.loc 1 386 18
	sw	a4,0(s10)
	.loc 1 388 13 is_stmt 1
	sw	zero,36(a5)
	.loc 1 388 13
	call	_taskYield
.LVL277:
	.loc 1 388 27 discriminator 1
	.loc 1 372 33 discriminator 2
	.loc 1 372 22 discriminator 1
	lw	a5,12(sp)
	addi	s9,s9,8
.LVL278:
	blt	s8,a5,.L137
.LVL279:
.L156:
	lw	a3,68(sp)
.LVL280:
.L136:
.LBB210:
	.loc 1 392 3
	.loc 1 392 78
	.loc 1 392 163 is_stmt 0
	lw	a5,16(sp)
	lw	a4,24(sp)
	.loc 1 392 95
	li	t5,-2147479552
	.loc 1 392 127
	li	t3,-2147479552
	.loc 1 392 163
	mul	s8,a5,a4
	.loc 1 392 95
	sw	a4,-2016(t5)
.LVL281:
	.loc 1 392 110 is_stmt 1
	.loc 1 392 127 is_stmt 0
	lw	t4,20(sp)
	.loc 1 392 150
	li	t1,-2147479552
	.loc 1 392 193
	li	a7,-2147479552
	.loc 1 392 127
	sw	t4,-1888(t3)
	.loc 1 392 133 is_stmt 1
	.loc 1 392 224 is_stmt 0
	li	a2,-2147483648
	li	a6,1
	.loc 1 392 251
	li	a1,-2147483648
	.loc 1 392 274
	li	a4,-2147483648
	.loc 1 392 173
	addi	s10,s8,-1
	.loc 1 392 150
	sw	s10,-1760(t1)
	.loc 1 392 176 is_stmt 1
	.loc 1 392 193 is_stmt 0
	sw	zero,-992(a7)
	.loc 1 392 208 is_stmt 1
	.loc 1 392 224 is_stmt 0
	sw	a6,1056(a2)
	.loc 1 392 235 is_stmt 1
	.loc 1 392 251 is_stmt 0
	lw	a0,52(sp)
	.loc 1 392 306
	li	a5,-2147479552
	.loc 1 392 424
	li	t2,-2147479552
	.loc 1 392 251
	sw	a0,672(a1)
	.loc 1 392 257 is_stmt 1
	.loc 1 392 274 is_stmt 0
	sw	a0,52(sp)
	sw	a0,1568(a4)
	.loc 1 392 289 is_stmt 1
	.loc 1 392 306 is_stmt 0
	sw	zero,-864(a5)
	.loc 1 392 315 is_stmt 1
.LVL282:
	.loc 1 392 348
	.loc 1 392 364 is_stmt 0
	lw	t6,132(sp)
	.loc 1 392 466
	li	s0,1036288
	addi	s0,s0,-1921
	.loc 1 392 364
	sw	t6,0(s11)
	.loc 1 392 406 is_stmt 1
	.loc 1 392 407
	.loc 1 392 424 is_stmt 0
	sw	s8,-736(t2)
	.loc 1 392 449 is_stmt 1
	.loc 1 392 466 is_stmt 0
	sw	s0,0(s2)
.LBE210:
.LBB211:
	.loc 1 392 499 is_stmt 1
.LVL283:
	.loc 1 392 590
	.loc 1 392 620 is_stmt 0
	lw	a0,4(s3)
	.loc 1 392 953
	li	ra,1036288
	addi	ra,ra,125
	.loc 1 392 607
	sw	a0,-2016(t5)
.LVL284:
	.loc 1 392 625 is_stmt 1
	.loc 1 392 642 is_stmt 0
	lw	t0,40(sp)
.LBE211:
	.loc 1 392 1002
	li	t6,-2147483648
.LBB212:
	.loc 1 398 467
	li	s7,1036288
.LBE212:
.LBB213:
	.loc 1 392 642
	sw	t0,-1888(t3)
	.loc 1 392 648 is_stmt 1
	.loc 1 392 674 is_stmt 0
	lw	t0,8(s3)
	lw	a0,0(s3)
	.loc 1 392 688
	lw	t4,4(s3)
.LBE213:
.LBB214:
	.loc 1 398 467
	addi	s7,s7,-1793
.LBE214:
.LBB215:
	.loc 1 392 674
	div	a0,a0,t0
.LBE215:
	.loc 1 392 1002
	li	t0,393216
	addi	t0,t0,1
.LBB216:
	.loc 1 398 621
	li	s6,-2147483648
	.loc 1 398 681
	li	s5,-2147479552
	.loc 1 398 993
	li	s4,1032192
	addi	s4,s4,253
.LBE216:
	.loc 1 400 10
	li	s1,-2147483648
.LBB217:
	.loc 1 392 683
	sub	a0,a0,a3
	.loc 1 392 688
	mul	a0,a0,t4
	.loc 1 392 701
	addi	a0,a0,-1
	.loc 1 392 665
	sw	a0,-1760(t1)
	.loc 1 392 704 is_stmt 1
	.loc 1 392 725 is_stmt 0
	lw	a0,4(s3)
	mul	a0,a3,a0
	.loc 1 392 721
	sw	a0,-992(a7)
	.loc 1 392 739 is_stmt 1
	.loc 1 392 755 is_stmt 0
	sw	a6,1056(a2)
	.loc 1 392 766 is_stmt 1
	.loc 1 392 782 is_stmt 0
	lw	s9,96(sp)
	sw	s9,672(a1)
	.loc 1 392 788 is_stmt 1
	.loc 1 392 815 is_stmt 0
	lw	a0,4(s3)
	.loc 1 392 817
	lw	s9,84(sp)
	.loc 1 392 815
	addi	a0,a0,-1
	.loc 1 392 817
	sub	a0,a0,s9
	.loc 1 392 805
	sw	a0,1568(a4)
	.loc 1 392 823 is_stmt 1
	.loc 1 392 840 is_stmt 0
	sw	s9,-864(a5)
	.loc 1 392 849 is_stmt 1
.LVL285:
	.loc 1 392 885
	.loc 1 392 861 is_stmt 0
	lw	a0,4(s3)
	.loc 1 392 918
	lw	t4,24(s3)
	.loc 1 392 861
	mul	a0,a3,a0
	.loc 1 392 918
	srli	t4,t4,1
	.loc 1 392 853
	add	a0,a0,s9
	.loc 1 392 906
	add	a0,a0,t4
	.loc 1 392 901
	sw	a0,0(s11)
	.loc 1 392 935 is_stmt 1
	.loc 1 392 936
	.loc 1 392 953 is_stmt 0
	sw	ra,0(s2)
.LBE217:
	.loc 1 392 985 is_stmt 1
	.loc 1 392 986
	.loc 1 392 1002 is_stmt 0
	sw	t0,20(t6)
.LBB218:
	.loc 1 395 3 is_stmt 1
.LVL286:
	.loc 1 395 47
	.loc 1 395 63 is_stmt 0
	sw	a6,1056(a2)
.LVL287:
	.loc 1 395 74 is_stmt 1
	.loc 1 395 90 is_stmt 0
	lw	t4,20(sp)
	sw	t4,672(a1)
	.loc 1 395 96 is_stmt 1
	.loc 1 395 113 is_stmt 0
	sw	t4,1568(a4)
	.loc 1 395 129 is_stmt 1
	.loc 1 395 146 is_stmt 0
	sw	zero,-864(a5)
	.loc 1 395 155 is_stmt 1
.LVL288:
	.loc 1 395 174
	.loc 1 395 190 is_stmt 0
	lw	s9,136(sp)
	sw	s9,0(s11)
	.loc 1 395 232 is_stmt 1
	.loc 1 395 233
	.loc 1 395 250 is_stmt 0
	lw	s9,16(sp)
	sw	s9,-736(t2)
	.loc 1 395 268 is_stmt 1
	.loc 1 395 285 is_stmt 0
	sw	s0,0(s2)
.LBE218:
.LBB219:
	.loc 1 395 318 is_stmt 1
.LVL289:
	.loc 1 395 366
	.loc 1 395 382 is_stmt 0
	sw	a6,1056(a2)
	.loc 1 395 393 is_stmt 1
	.loc 1 395 409 is_stmt 0
	lw	s0,40(sp)
	sw	s0,672(a1)
	.loc 1 395 415 is_stmt 1
	.loc 1 395 441 is_stmt 0
	lw	s0,8(s3)
	lw	a0,0(s3)
	div	a0,a0,s0
.LBE219:
.LBB220:
	.loc 1 398 127
	mv	s0,t4
.LBE220:
.LBB221:
	.loc 1 395 450
	addi	a0,a0,-1
	.loc 1 395 452
	sub	a0,a0,a3
	.loc 1 395 432
	sw	a0,1568(a4)
	.loc 1 395 458 is_stmt 1
	.loc 1 395 475 is_stmt 0
	sw	a3,-864(a5)
	.loc 1 395 484 is_stmt 1
.LVL290:
	.loc 1 395 503
	.loc 1 395 536 is_stmt 0
	lw	a0,16(s3)
	.loc 1 395 524
	sw	a3,8(sp)
	.loc 1 395 536
	srli	a0,a0,1
	.loc 1 395 524
	add	a0,a0,a3
	.loc 1 395 519
	sw	a0,0(s11)
	.loc 1 395 553 is_stmt 1
	.loc 1 395 554
	.loc 1 395 571 is_stmt 0
	sw	ra,0(s2)
.LBE221:
	.loc 1 395 603 is_stmt 1
	.loc 1 395 604
	.loc 1 395 620 is_stmt 0
	sw	t0,20(t6)
.LBB222:
	.loc 1 398 3 is_stmt 1
.LVL291:
	.loc 1 398 78
	.loc 1 398 95 is_stmt 0
	lw	s9,24(sp)
.LBE222:
.LBB223:
	.loc 1 398 826
	li	a3,7
.LBE223:
.LBB224:
	.loc 1 398 95
	sw	s9,-2016(t5)
	.loc 1 398 110 is_stmt 1
	.loc 1 398 127 is_stmt 0
	sw	t4,-1888(t3)
	.loc 1 398 133 is_stmt 1
	.loc 1 398 150 is_stmt 0
	sw	s10,-1760(t1)
	.loc 1 398 176 is_stmt 1
	.loc 1 398 193 is_stmt 0
	sw	zero,-992(a7)
	.loc 1 398 208 is_stmt 1
	.loc 1 398 224 is_stmt 0
	sw	a6,1056(a2)
	.loc 1 398 235 is_stmt 1
	.loc 1 398 251 is_stmt 0
	lw	a0,52(sp)
.LBE224:
.LBB225:
	.loc 1 398 592
	li	t4,4096
.LBE225:
.LBB226:
	.loc 1 398 251
	sw	a0,672(a1)
	.loc 1 398 257 is_stmt 1
	.loc 1 398 274 is_stmt 0
	sw	a0,1568(a4)
	.loc 1 398 289 is_stmt 1
	.loc 1 398 306 is_stmt 0
	sw	zero,-864(a5)
	.loc 1 398 315 is_stmt 1
.LVL292:
	.loc 1 398 348
	.loc 1 398 364 is_stmt 0
	lw	a0,140(sp)
	sw	a0,0(s11)
	.loc 1 398 407 is_stmt 1
	.loc 1 398 408
	.loc 1 398 425 is_stmt 0
	sw	s8,-736(t2)
	.loc 1 398 450 is_stmt 1
	.loc 1 398 467 is_stmt 0
	sw	s7,0(s2)
.LBE226:
.LBB227:
	.loc 1 398 501 is_stmt 1
.LVL293:
	.loc 1 398 575
	.loc 1 398 592 is_stmt 0
	lw	a0,28(sp)
	sw	t4,0(a0)
	.loc 1 398 604 is_stmt 1
	.loc 1 398 621 is_stmt 0
	li	a0,3
	sw	a0,1824(s6)
	.loc 1 398 627 is_stmt 1
	.loc 1 398 644 is_stmt 0
	lw	a0,32(sp)
	lw	t4,56(sp)
	sw	t4,0(a0)
	.loc 1 398 664 is_stmt 1
	.loc 1 398 681 is_stmt 0
	sw	zero,-1120(s5)
	.loc 1 398 693 is_stmt 1
	.loc 1 398 710 is_stmt 0
	li	a0,256
	sw	a0,-2016(t5)
	.loc 1 398 721 is_stmt 1
	.loc 1 398 738 is_stmt 0
	lw	a0,76(sp)
	sw	a0,-1888(t3)
	.loc 1 398 744 is_stmt 1
	.loc 1 398 761 is_stmt 0
	lw	a0,80(sp)
	sw	a0,-1760(t1)
	.loc 1 398 782 is_stmt 1
	.loc 1 398 799 is_stmt 0
	sw	zero,-992(a7)
	.loc 1 398 810 is_stmt 1
	.loc 1 398 826 is_stmt 0
	sw	a3,672(a1)
	.loc 1 398 864 is_stmt 1
	.loc 1 398 880 is_stmt 0
	sw	a6,1056(a2)
	.loc 1 398 889 is_stmt 1
	.loc 1 398 906 is_stmt 0
	sw	a3,1568(a4)
	.loc 1 398 909 is_stmt 1
	.loc 1 398 926 is_stmt 0
	sw	zero,-864(a5)
	.loc 1 398 929 is_stmt 1
	.loc 1 398 945 is_stmt 0
	li	a5,64
	sw	a5,0(s11)
	.loc 1 398 976 is_stmt 1
	.loc 1 398 993 is_stmt 0
	sw	s4,0(s2)
.LBE227:
	.loc 1 398 1026 is_stmt 1
	.loc 1 398 1027
	.loc 1 398 1043 is_stmt 0
	sw	t0,20(t6)
	.loc 1 400 10 is_stmt 1
	sw	zero,36(s1)
	.loc 1 400 10
	call	_taskYield
.LVL294:
	.loc 1 400 24 discriminator 1
	.loc 1 403 10
	.loc 1 404 16
	li	a5,31
	lw	a3,8(sp)
	ble	s9,a5,.L95
.LVL295:
	.loc 1 407 16
	.loc 1 407 93 is_stmt 0
	beq	s0,zero,.L162
.LVL296:
	.loc 1 409 16 is_stmt 1
	.loc 1 409 77 is_stmt 0
	li	a5,-2147479552
	beq	a3,zero,.L144
	.loc 1 411 20 discriminator 1
	lw	a4,36(sp)
	.loc 1 409 77
	addi	a5,a5,-792
.L102:
.LVL297:
	.loc 1 422 1 is_stmt 1
	.loc 1 422 22 is_stmt 0
	lw	a2,24(sp)
	li	a0,-2147483648
	.loc 1 422 69
	li	a7,-2147479552
	.loc 1 422 22
	sw	a2,1000(a0)
.LVL298:
	.loc 1 422 39 is_stmt 1
	.loc 1 422 69 is_stmt 0
	lw	a0,36(sp)
	.loc 1 422 155
	li	a1,-2147483648
	.loc 1 422 268 discriminator 8
	li	a6,-2147483648
	.loc 1 422 69
	sw	a0,-920(a7)
	.loc 1 422 89 is_stmt 1
	.loc 1 422 119 is_stmt 0
	sw	a4,0(a5)
	.loc 1 422 134 is_stmt 1
	.loc 1 422 155 is_stmt 0
	lw	a5,112(sp)
	.loc 1 422 193
	li	a4,-2147475456
	.loc 1 422 268 discriminator 8
	li	t1,2
	.loc 1 422 155
	sw	a5,1384(a1)
	.loc 1 422 171 is_stmt 1
	.loc 1 422 193 is_stmt 0
	lw	a1,88(sp)
	.loc 1 422 231
	li	a5,-2147475456
	.loc 1 405 20
	li	a2,4096
	.loc 1 422 193
	sw	a1,1512(a4)
	.loc 1 422 209 is_stmt 1
	.loc 1 422 231 is_stmt 0
	lw	t3,92(sp)
	.loc 1 405 20
	addi	a2,a2,-1022
	.loc 1 422 69
	addi	a7,a7,-920
	.loc 1 422 231
	sw	t3,-408(a5)
	.loc 1 422 247 is_stmt 1
.LVL299:
	.loc 1 422 268 is_stmt 0 discriminator 8
	sw	t1,236(a6)
	.loc 1 422 302 is_stmt 1 discriminator 8
	.loc 1 405 32
.LVL300:
	.loc 1 405 26 is_stmt 0
	lw	a5,100(sp)
	.loc 1 404 16
	li	a6,1
	.loc 1 405 20
	add	a2,a0,a2
.LVL301:
	.loc 1 405 26
	add	a4,a1,a5
.LVL302:
	.loc 1 404 16
	lw	a1,48(sp)
	.loc 1 405 36
	add	a5,t3,a5
.LVL303:
	.loc 1 404 16 is_stmt 1
	addi	s0,a3,4
.LVL304:
	ble	a1,a6,.L100
	.loc 1 407 16
	.loc 1 407 93 is_stmt 0
	lw	a1,20(sp)
	bne	a1,a6,.L163
	.loc 1 407 40 discriminator 1
	addi	s0,a3,4
	lw	a3,64(sp)
	li	a1,-2147483648
	addi	a1,a1,1128
	ble	a3,s0,.L109
	mv	a1,a7
.L109:
.LVL305:
	.loc 1 422 1 is_stmt 1
	.loc 1 422 22 is_stmt 0
	lw	a3,24(sp)
	li	a7,-2147483648
	.loc 1 422 119
	li	a6,-2147479552
	.loc 1 422 22
	sw	a3,1000(a7)
	.loc 1 422 39 is_stmt 1
	.loc 1 422 69 is_stmt 0
	lw	a7,36(sp)
	.loc 1 422 155
	li	a0,-2147483648
	.loc 1 422 268 discriminator 8
	li	a3,-2147483648
	.loc 1 422 69
	sw	a7,0(a1)
	.loc 1 422 89 is_stmt 1
	.loc 1 422 119 is_stmt 0
	sw	a7,-792(a6)
	.loc 1 422 134 is_stmt 1
	.loc 1 422 155 is_stmt 0
	sw	a2,1384(a0)
	.loc 1 422 171 is_stmt 1
	.loc 1 422 193 is_stmt 0
	li	a1,-2147475456
	sw	a4,1512(a1)
	.loc 1 422 209 is_stmt 1
	.loc 1 422 231 is_stmt 0
	li	a2,-2147475456
.LVL306:
	sw	a5,-408(a2)
	.loc 1 422 247 is_stmt 1
	.loc 1 422 268 is_stmt 0 discriminator 8
	li	t3,1
	sw	t3,236(a3)
	.loc 1 422 302 is_stmt 1 discriminator 8
	.loc 1 422 315 discriminator 9
	.loc 1 422 331 is_stmt 0 discriminator 9
	li	t1,-2147483648
	li	t3,5
	sw	t3,20(t1)
	.loc 1 405 32 is_stmt 1
.LVL307:
	.loc 1 405 26 is_stmt 0
	lw	a2,100(sp)
	.loc 1 405 20
	li	a3,4096
	addi	a3,a3,-1020
	.loc 1 405 26
	add	a4,a4,a2
.LVL308:
	.loc 1 405 36
	add	a5,a5,a2
.LVL309:
	.loc 1 404 16
	lw	a2,48(sp)
	li	t1,2
	.loc 1 405 20
	add	a3,a7,a3
.LVL310:
	.loc 1 404 16 is_stmt 1
	ble	a2,t1,.L100
.LVL311:
.L110:
	.loc 1 411 16
	.loc 1 420 16
	.loc 1 422 1
	.loc 1 422 22 is_stmt 0
	lw	a2,24(sp)
	li	t1,-2147483648
	.loc 1 422 69
	li	a7,-2147479552
	.loc 1 422 22
	sw	a2,1000(t1)
	.loc 1 422 39 is_stmt 1
	.loc 1 422 69 is_stmt 0
	lw	a2,36(sp)
	.loc 1 422 119
	li	a6,-2147479552
	.loc 1 422 155
	li	a0,-2147483648
	.loc 1 422 69
	sw	a2,-920(a7)
	.loc 1 422 89 is_stmt 1
	.loc 1 422 119 is_stmt 0
	sw	a2,-792(a6)
	.loc 1 422 134 is_stmt 1
	.loc 1 422 155 is_stmt 0
	sw	a3,1384(a0)
	.loc 1 422 171 is_stmt 1
	.loc 1 422 193 is_stmt 0
	li	a1,-2147475456
	.loc 1 422 231
	li	a2,-2147475456
	.loc 1 422 193
	sw	a4,1512(a1)
	.loc 1 422 209 is_stmt 1
	.loc 1 422 231 is_stmt 0
	sw	a5,-408(a2)
	.loc 1 422 247 is_stmt 1
	.loc 1 422 268 is_stmt 0 discriminator 8
	li	a3,-2147483648
.LVL312:
	li	a2,2
	sw	a2,236(a3)
	.loc 1 422 302 is_stmt 1 discriminator 8
.LVL313:
.L112:
	.loc 1 405 32
	.loc 1 405 26 is_stmt 0
	lw	a2,100(sp)
	.loc 1 404 16
	li	a3,3
	.loc 1 405 26
	add	a4,a4,a2
.LVL314:
	.loc 1 405 36
	add	a5,a5,a2
.LVL315:
	.loc 1 404 16 is_stmt 1
	lw	a2,48(sp)
	ble	a2,a3,.L100
	.loc 1 407 16
	.loc 1 407 40 is_stmt 0 discriminator 1
	lw	a2,64(sp)
	li	a3,-2147479552
	addi	a3,a3,-920
	bgt	a2,s0,.L138
	li	a3,-2147483648
	addi	a3,a3,1128
.L138:
.LVL316:
	.loc 1 422 1 is_stmt 1
	.loc 1 422 22 is_stmt 0
	lw	a2,24(sp)
	li	a6,-2147483648
	.loc 1 422 119
	li	a0,-2147479552
	.loc 1 422 22
	sw	a2,1000(a6)
.LVL317:
	.loc 1 422 39 is_stmt 1
	.loc 1 422 69 is_stmt 0
	lw	a2,36(sp)
	.loc 1 422 155
	li	a1,-2147483648
	.loc 1 422 268 discriminator 8
	li	a7,-2147483648
	.loc 1 422 69
	sw	a2,0(a3)
	.loc 1 422 89 is_stmt 1
	.loc 1 422 119 is_stmt 0
	sw	a2,-792(a0)
	.loc 1 422 134 is_stmt 1
	.loc 1 422 155 is_stmt 0
	lw	a3,156(sp)
	.loc 1 422 193
	li	a2,-2147475456
	.loc 1 422 155
	sw	a3,1384(a1)
	.loc 1 422 171 is_stmt 1
	.loc 1 422 193 is_stmt 0
	sw	a4,1512(a2)
	.loc 1 422 209 is_stmt 1
	.loc 1 422 231 is_stmt 0
	li	a3,-2147475456
	sw	a5,-408(a3)
	.loc 1 422 247 is_stmt 1
	.loc 1 422 268 is_stmt 0 discriminator 8
	li	a5,1
.LVL318:
	sw	a5,236(a7)
.LVL319:
	.loc 1 422 302 is_stmt 1 discriminator 8
	.loc 1 422 315 discriminator 9
	.loc 1 422 331 is_stmt 0 discriminator 9
	li	a4,-2147483648
.LVL320:
	li	a5,5
	sw	a5,20(a4)
	.loc 1 405 32 is_stmt 1
.LVL321:
	.loc 1 404 16
.L100:
	.loc 1 425 10
	li	a5,-2147483648
	sw	zero,36(a5)
	.loc 1 425 10
	call	_taskYield
.LVL322:
	.loc 1 425 24 discriminator 1
	.loc 1 358 22 discriminator 2
	.loc 1 358 17 discriminator 1
	lw	a5,60(sp)
	lw	a4,152(sp)
	mv	a3,s0
	add	a5,a5,a4
	sw	a5,60(sp)
	lw	a5,64(sp)
	blt	s0,a5,.L139
	j	.L130
.LVL323:
.L95:
	lw	a5,64(sp)
	addi	s0,a3,4
.LVL324:
	bge	s0,a5,.L115
.LVL325:
	.loc 1 407 16
	.loc 1 409 16
	.loc 1 409 77 is_stmt 0
	li	a5,-2147479552
	beq	a3,zero,.L148
	.loc 1 411 20 discriminator 1
	lw	a4,36(sp)
	.loc 1 409 77
	addi	a5,a5,-792
.L116:
.LVL326:
	.loc 1 420 16 is_stmt 1
	.loc 1 420 22 is_stmt 0
	lw	a3,20(sp)
	beq	a3,zero,.L164
.LVL327:
	.loc 1 422 1 is_stmt 1
	.loc 1 422 22 is_stmt 0
	li	a7,-2147483648
	li	t1,16
	sw	t1,1000(a7)
.LVL328:
	.loc 1 422 69
	lw	t4,36(sp)
	li	a6,-2147479552
	.loc 1 422 155
	li	a0,-2147483648
	.loc 1 422 69
	sw	t4,-920(a6)
	.loc 1 422 119
	sw	a4,0(a5)
	.loc 1 422 155
	lw	a5,112(sp)
	.loc 1 422 193
	li	a1,-2147475456
	.loc 1 422 231
	li	a2,-2147475456
	.loc 1 422 155
	sw	a5,1384(a0)
	.loc 1 422 193
	lw	a5,88(sp)
	.loc 1 422 268 discriminator 8
	li	a3,-2147483648
	.loc 1 404 16
	li	t3,1
	.loc 1 422 193
	sw	a5,1512(a1)
	.loc 1 422 231
	lw	a5,92(sp)
	.loc 1 422 22
	addi	a7,a7,1000
	.loc 1 422 39 is_stmt 1
	.loc 1 422 89
	.loc 1 422 134
	.loc 1 422 171
	.loc 1 422 209
	.loc 1 422 268 is_stmt 0 discriminator 8
	addi	a3,a3,236
	.loc 1 422 231
	sw	a5,-408(a2)
	.loc 1 422 247 is_stmt 1
	.loc 1 422 268 is_stmt 0 discriminator 8
	sw	zero,0(a3)
	.loc 1 422 302 is_stmt 1 discriminator 8
	.loc 1 405 32
.LVL329:
	.loc 1 404 16
	lw	a5,48(sp)
	.loc 1 422 69 is_stmt 0
	addi	a6,a6,-920
	.loc 1 422 155
	addi	a0,a0,1384
	.loc 1 422 193
	addi	a1,a1,1512
	.loc 1 422 231
	addi	a2,a2,-408
	.loc 1 404 16
	ble	a5,t3,.L119
	.loc 1 405 20
	li	t6,4096
	.loc 1 405 26
	li	a4,4096
	.loc 1 405 36
	li	a5,4096
	.loc 1 405 20
	addi	t6,t6,-1022
	.loc 1 405 26
	addi	a4,a4,-984
	.loc 1 405 36
	addi	a5,a5,-2016
	.loc 1 405 20
	add	t6,t4,t6
	.loc 1 405 26
	add	a4,t4,a4
	.loc 1 405 36
	add	a5,t4,a5
	.loc 1 407 16 is_stmt 1
	.loc 1 409 16
.LVL330:
	.loc 1 411 16
	.loc 1 420 16
	.loc 1 420 22 is_stmt 0
	lw	t4,20(sp)
.LVL331:
	beq	t4,t3,.L165
.LVL332:
.L118:
	.loc 1 422 1 is_stmt 1
	.loc 1 422 22 is_stmt 0
	li	t3,-2147483648
	li	t5,16
	sw	t5,1000(t3)
	.loc 1 422 69
	lw	t4,36(sp)
	li	t1,-2147479552
	.loc 1 422 119
	li	a7,-2147479552
	.loc 1 422 69
	sw	t4,-920(t1)
	.loc 1 422 119
	sw	t4,-792(a7)
	.loc 1 422 155
	li	a6,-2147483648
	sw	t6,1384(a6)
	.loc 1 422 193
	li	a0,-2147475456
	sw	a4,1512(a0)
	.loc 1 422 231
	li	a1,-2147475456
	sw	a5,-408(a1)
	.loc 1 422 268 discriminator 8
	li	a2,-2147483648
	sw	zero,236(a2)
	.loc 1 404 16
	lw	a3,48(sp)
	li	t6,2
.LVL333:
	.loc 1 422 22
	addi	t3,t3,1000
	.loc 1 422 39 is_stmt 1
	.loc 1 422 89
	.loc 1 422 134
	.loc 1 422 171
	.loc 1 422 209
	.loc 1 422 247
	.loc 1 422 268 is_stmt 0 discriminator 8
	addi	a2,a2,236
	.loc 1 422 302 is_stmt 1 discriminator 8
	.loc 1 405 32
.LVL334:
	.loc 1 404 16
	.loc 1 422 69 is_stmt 0
	addi	t1,t1,-920
	.loc 1 422 119
	addi	a7,a7,-792
	.loc 1 422 155
	addi	a6,a6,1384
	.loc 1 422 193
	addi	a0,a0,1512
	.loc 1 422 231
	addi	a1,a1,-408
	.loc 1 404 16
	ble	a3,t6,.L119
	.loc 1 405 20
	li	a3,4096
	addi	a3,a3,-1020
	add	a3,t4,a3
	.loc 1 420 22
	lw	t4,20(sp)
.LVL335:
	.loc 1 405 26
	addi	a4,a4,32
.LVL336:
	.loc 1 405 36
	addi	a5,a5,32
.LVL337:
	.loc 1 407 16 is_stmt 1
	.loc 1 409 16
	.loc 1 411 16
	.loc 1 420 16
	.loc 1 420 22 is_stmt 0
	beq	t4,t6,.L166
.LVL338:
.L120:
	.loc 1 422 1 is_stmt 1
	.loc 1 422 22 is_stmt 0
	li	a2,-2147483648
	li	a1,16
	sw	a1,1000(a2)
	.loc 1 422 39 is_stmt 1
	.loc 1 422 69 is_stmt 0
	lw	a2,36(sp)
	li	a7,-2147479552
	.loc 1 422 119
	li	a6,-2147479552
	.loc 1 422 69
	sw	a2,-920(a7)
	.loc 1 422 89 is_stmt 1
	.loc 1 422 119 is_stmt 0
	sw	a2,-792(a6)
	.loc 1 422 134 is_stmt 1
	.loc 1 422 155 is_stmt 0
	li	a0,-2147483648
	sw	a3,1384(a0)
	.loc 1 422 171 is_stmt 1
	.loc 1 422 193 is_stmt 0
	li	a1,-2147475456
	sw	a4,1512(a1)
	.loc 1 422 209 is_stmt 1
	.loc 1 422 231 is_stmt 0
	li	a2,-2147475456
	.loc 1 422 268 discriminator 8
	li	a3,-2147483648
.LVL339:
	.loc 1 422 231
	sw	a5,-408(a2)
	.loc 1 422 247 is_stmt 1
	.loc 1 422 268 is_stmt 0 discriminator 8
	sw	zero,236(a3)
	.loc 1 422 302 is_stmt 1 discriminator 8
.LVL340:
.L121:
	.loc 1 405 32
	.loc 1 404 16 is_stmt 0
	lw	a2,48(sp)
	li	a3,3
	.loc 1 405 26
	addi	a4,a4,32
.LVL341:
	.loc 1 405 36
	addi	a5,a5,32
.LVL342:
	.loc 1 404 16 is_stmt 1
	ble	a2,a3,.L119
	.loc 1 407 16
	.loc 1 409 16
.LVL343:
	.loc 1 411 16
	.loc 1 420 16
	.loc 1 422 1
	.loc 1 422 22 is_stmt 0
	li	a3,-2147483648
	li	a2,16
	sw	a2,1000(a3)
.LVL344:
	.loc 1 422 39 is_stmt 1
	.loc 1 422 69 is_stmt 0
	lw	a3,36(sp)
	li	a6,-2147479552
	.loc 1 422 119
	li	a0,-2147479552
	.loc 1 422 69
	sw	a3,-920(a6)
	.loc 1 422 89 is_stmt 1
	.loc 1 422 119 is_stmt 0
	sw	a3,-792(a0)
	.loc 1 422 134 is_stmt 1
	.loc 1 422 155 is_stmt 0
	lw	a3,156(sp)
	li	a1,-2147483648
	.loc 1 422 193
	li	a2,-2147475456
	.loc 1 422 155
	sw	a3,1384(a1)
	.loc 1 422 171 is_stmt 1
	.loc 1 422 193 is_stmt 0
	sw	a4,1512(a2)
	.loc 1 422 209 is_stmt 1
	.loc 1 422 231 is_stmt 0
	li	a3,-2147475456
	sw	a5,-408(a3)
	.loc 1 422 247 is_stmt 1
	.loc 1 422 268 is_stmt 0 discriminator 8
	li	a7,-2147483648
	li	a5,1
.LVL345:
	sw	a5,236(a7)
.LVL346:
	.loc 1 422 302 is_stmt 1 discriminator 8
	.loc 1 422 315 discriminator 9
	.loc 1 422 331 is_stmt 0 discriminator 9
	li	a4,-2147483648
.LVL347:
	li	a5,5
	sw	a5,20(a4)
	.loc 1 405 32 is_stmt 1
.LVL348:
	.loc 1 404 16
.L119:
	.loc 1 425 10
	li	a5,-2147483648
	sw	zero,36(a5)
	.loc 1 425 10
	call	_taskYield
.LVL349:
	.loc 1 425 24 discriminator 1
	.loc 1 358 22 discriminator 2
	.loc 1 358 17 discriminator 1
	lw	a5,60(sp)
	lw	a4,152(sp)
	mv	a3,s0
	add	a5,a5,a4
	sw	a5,60(sp)
	j	.L139
.LVL350:
.L161:
	lw	a3,68(sp)
	.loc 1 386 18 is_stmt 0
	lw	a4,72(sp)
	.loc 1 388 13
	li	a5,-2147483648
	sw	a3,8(sp)
	.loc 1 386 1 is_stmt 1
	.loc 1 386 2
	.loc 1 386 18 is_stmt 0
	sw	a4,0(s10)
	.loc 1 388 13 is_stmt 1
	sw	zero,36(a5)
	.loc 1 388 13
	call	_taskYield
.LVL351:
	.loc 1 388 27 discriminator 1
	.loc 1 372 33 discriminator 2
	.loc 1 372 22 discriminator 1
	lw	a3,8(sp)
	j	.L136
.LVL352:
.L144:
	.loc 1 411 20 is_stmt 0 discriminator 2
	li	a4,0
	.loc 1 409 77
	addi	a5,a5,-1816
	j	.L102
.LVL353:
.L115:
	.loc 1 407 93
	lw	a5,20(sp)
	mv	s9,a3
.LVL354:
	.loc 1 407 16 is_stmt 1
	.loc 1 407 93 is_stmt 0
	beq	a5,zero,.L167
.LVL355:
	.loc 1 409 16 is_stmt 1
	.loc 1 409 77 is_stmt 0
	li	a5,-2147479552
	beq	a3,zero,.L150
	.loc 1 411 20 discriminator 1
	lw	a4,36(sp)
	.loc 1 409 77
	addi	a5,a5,-792
.L125:
.LVL356:
	.loc 1 422 1 is_stmt 1
	.loc 1 422 22 is_stmt 0
	li	a7,-2147483648
	li	t1,16
	sw	t1,1000(a7)
.LVL357:
	.loc 1 422 69
	lw	t5,36(sp)
	li	t4,-2147479552
	.loc 1 422 155
	li	a6,-2147483648
	.loc 1 422 69
	sw	t5,-920(t4)
	.loc 1 422 119
	sw	a4,0(a5)
	.loc 1 422 155
	lw	a5,112(sp)
	.loc 1 422 193
	li	a0,-2147475456
	.loc 1 422 231
	li	a1,-2147475456
	.loc 1 422 155
	sw	a5,1384(a6)
	.loc 1 422 193
	lw	a5,88(sp)
	.loc 1 422 268 discriminator 8
	li	a2,-2147483648
	.loc 1 405 20
	li	a3,4096
	.loc 1 422 193
	sw	a5,1512(a0)
	.loc 1 422 231
	lw	t3,92(sp)
	.loc 1 405 26
	li	a4,4096
	.loc 1 405 36
	li	a5,4096
	.loc 1 422 231
	sw	t3,-408(a1)
	.loc 1 422 268 discriminator 8
	sw	zero,236(a2)
	.loc 1 404 16
	lw	t4,48(sp)
	.loc 1 405 20
	addi	a3,a3,-1022
	.loc 1 405 26
	addi	a4,a4,-984
	.loc 1 405 36
	addi	a5,a5,-2016
	.loc 1 404 16
	li	t3,1
	.loc 1 422 22
	addi	a7,a7,1000
	.loc 1 422 39 is_stmt 1
	.loc 1 422 89
	.loc 1 422 134
	.loc 1 422 171
	.loc 1 422 209
	.loc 1 422 247
	.loc 1 422 268 is_stmt 0 discriminator 8
	addi	a2,a2,236
	.loc 1 422 302 is_stmt 1 discriminator 8
	.loc 1 405 32
.LVL358:
	.loc 1 422 155 is_stmt 0
	addi	a6,a6,1384
	.loc 1 422 193
	addi	a0,a0,1512
	.loc 1 422 231
	addi	a1,a1,-408
	.loc 1 405 20
	add	a3,t5,a3
.LVL359:
	.loc 1 405 26
	add	a4,t5,a4
.LVL360:
	.loc 1 405 36
	add	a5,t5,a5
.LVL361:
	.loc 1 404 16 is_stmt 1
	ble	t4,t3,.L126
	.loc 1 407 16
	.loc 1 407 93 is_stmt 0
	lw	t6,20(sp)
	bne	t6,t3,.L127
.LVL362:
	.loc 1 411 16 is_stmt 1
	.loc 1 420 16
	.loc 1 422 1
	.loc 1 422 22 is_stmt 0
	sw	t1,0(a7)
	.loc 1 422 39 is_stmt 1
	.loc 1 422 69 is_stmt 0
	li	t3,-2147483648
	sw	t5,1128(t3)
	.loc 1 422 89 is_stmt 1
	.loc 1 422 119 is_stmt 0
	li	a7,-2147479552
	sw	t5,-792(a7)
	.loc 1 422 134 is_stmt 1
	.loc 1 422 155 is_stmt 0
	sw	a3,0(a6)
	.loc 1 422 171 is_stmt 1
	.loc 1 422 193 is_stmt 0
	sw	a4,0(a0)
	.loc 1 422 209 is_stmt 1
	.loc 1 422 231 is_stmt 0
	sw	a5,0(a1)
	.loc 1 422 247 is_stmt 1
	.loc 1 422 268 is_stmt 0 discriminator 8
	sw	t6,0(a2)
	.loc 1 422 302 is_stmt 1 discriminator 8
	.loc 1 422 315 discriminator 9
	.loc 1 422 331 is_stmt 0 discriminator 9
	li	a1,-2147483648
	li	a2,5
	.loc 1 405 20
	li	a3,4096
.LVL363:
	.loc 1 405 26
	li	a4,4096
.LVL364:
	.loc 1 405 36
	li	a5,4096
.LVL365:
	.loc 1 405 20
	addi	a3,a3,-1020
.LVL366:
	.loc 1 405 26
	addi	a4,a4,-952
.LVL367:
	.loc 1 405 36
	addi	a5,a5,-1984
.LVL368:
	.loc 1 422 331 discriminator 9
	sw	a2,20(a1)
	.loc 1 405 32 is_stmt 1
.LVL369:
	.loc 1 404 16 is_stmt 0
	li	a2,2
	.loc 1 405 20
	add	a3,t5,a3
.LVL370:
	.loc 1 405 26
	add	a4,t5,a4
.LVL371:
	.loc 1 405 36
	add	a5,t5,a5
.LVL372:
	.loc 1 404 16 is_stmt 1
	ble	t4,a2,.L126
.LVL373:
.L128:
	.loc 1 409 16
	.loc 1 411 16
	.loc 1 420 16
	.loc 1 422 1
	.loc 1 422 22 is_stmt 0
	li	a2,-2147483648
	li	a1,16
	sw	a1,1000(a2)
	.loc 1 422 39 is_stmt 1
	.loc 1 422 69 is_stmt 0
	lw	a2,36(sp)
	li	a7,-2147479552
	.loc 1 422 119
	li	a6,-2147479552
	.loc 1 422 69
	sw	a2,-920(a7)
	.loc 1 422 89 is_stmt 1
	.loc 1 422 119 is_stmt 0
	sw	a2,-792(a6)
	.loc 1 422 134 is_stmt 1
	.loc 1 422 155 is_stmt 0
	li	a0,-2147483648
	sw	a3,1384(a0)
	.loc 1 422 171 is_stmt 1
	.loc 1 422 193 is_stmt 0
	li	a1,-2147475456
	sw	a4,1512(a1)
	.loc 1 422 209 is_stmt 1
	.loc 1 422 231 is_stmt 0
	li	a2,-2147475456
	.loc 1 422 268 discriminator 8
	li	a3,-2147483648
.LVL374:
	.loc 1 422 231
	sw	a5,-408(a2)
	.loc 1 422 247 is_stmt 1
	.loc 1 422 268 is_stmt 0 discriminator 8
	sw	zero,236(a3)
	.loc 1 422 302 is_stmt 1 discriminator 8
.LVL375:
.L129:
	.loc 1 405 32
	.loc 1 404 16 is_stmt 0
	lw	a2,48(sp)
	li	a3,3
	.loc 1 405 26
	addi	a4,a4,32
.LVL376:
	.loc 1 405 36
	addi	a5,a5,32
.LVL377:
	.loc 1 404 16 is_stmt 1
	ble	a2,a3,.L126
	.loc 1 407 16
.LVL378:
	.loc 1 411 16
	.loc 1 420 16
	.loc 1 422 1
	.loc 1 422 22 is_stmt 0
	li	a3,-2147483648
	li	a2,16
	sw	a2,1000(a3)
.LVL379:
	.loc 1 422 39 is_stmt 1
	.loc 1 422 69 is_stmt 0
	lw	a3,36(sp)
	li	a6,-2147483648
	.loc 1 422 119
	li	a0,-2147479552
	.loc 1 422 69
	sw	a3,1128(a6)
	.loc 1 422 89 is_stmt 1
	.loc 1 422 119 is_stmt 0
	sw	a3,-792(a0)
	.loc 1 422 134 is_stmt 1
	.loc 1 422 155 is_stmt 0
	lw	a3,156(sp)
	li	a1,-2147483648
	.loc 1 422 193
	li	a2,-2147475456
	.loc 1 422 155
	sw	a3,1384(a1)
	.loc 1 422 171 is_stmt 1
	.loc 1 422 193 is_stmt 0
	sw	a4,1512(a2)
	.loc 1 422 209 is_stmt 1
	.loc 1 422 231 is_stmt 0
	li	a3,-2147475456
	sw	a5,-408(a3)
	.loc 1 422 247 is_stmt 1
	.loc 1 422 268 is_stmt 0 discriminator 8
	li	a7,-2147483648
	li	a5,1
.LVL380:
	sw	a5,236(a7)
.LVL381:
	.loc 1 422 302 is_stmt 1 discriminator 8
	.loc 1 422 315 discriminator 9
	.loc 1 422 331 is_stmt 0 discriminator 9
	li	a4,-2147483648
.LVL382:
	li	a5,5
	sw	a5,20(a4)
	.loc 1 405 32 is_stmt 1
.LVL383:
	.loc 1 404 16
.L126:
	.loc 1 425 10
	li	a5,-2147483648
	sw	zero,36(a5)
	.loc 1 425 10
	call	_taskYield
.LVL384:
	.loc 1 425 24 discriminator 1
	.loc 1 358 22 discriminator 2
	.loc 1 358 17 discriminator 1
.L130:
.LBB228:
	.loc 1 428 3
	.loc 1 428 52
	.loc 1 428 68 is_stmt 0
	li	a4,-2147483648
	li	a3,1
	sw	a3,1056(a4)
.LVL385:
	.loc 1 428 79 is_stmt 1
	.loc 1 428 95 is_stmt 0
	lw	a4,96(sp)
	li	a5,-2147483648
	sw	a4,672(a5)
	.loc 1 428 101 is_stmt 1
	.loc 1 428 140 is_stmt 0
	lw	a5,168(sp)
	beq	a5,zero,.L168
	.loc 1 428 140 discriminator 1
	lw	a5,4(s3)
	addi	a5,a5,-1
.L140:
	.loc 1 428 142 discriminator 4
	lw	t1,84(sp)
	.loc 1 428 118 discriminator 4
	li	a3,-2147483648
	.loc 1 428 165 discriminator 4
	li	a4,-2147479552
	.loc 1 428 142 discriminator 4
	sub	a5,a5,t1
	.loc 1 428 118 discriminator 4
	sw	a5,1568(a3)
	.loc 1 428 148 is_stmt 1 discriminator 4
	.loc 1 428 165 is_stmt 0 discriminator 4
	sw	t1,-864(a4)
	.loc 1 428 174 is_stmt 1 discriminator 4
.LVL386:
	.loc 1 428 193 discriminator 4
	.loc 1 428 229 is_stmt 0 discriminator 4
	lw	a5,28(s3)
	.loc 1 428 209 discriminator 4
	li	a1,-2147483648
	.loc 1 428 264 discriminator 4
	li	a7,-2147479552
	.loc 1 428 229 discriminator 4
	srli	a5,a5,1
	.loc 1 428 214 discriminator 4
	add	a5,a5,t1
	.loc 1 428 209 discriminator 4
	sw	a5,544(a1)
	.loc 1 428 246 is_stmt 1 discriminator 4
	.loc 1 428 247 discriminator 4
	.loc 1 428 272 is_stmt 0 discriminator 4
	lw	a5,96(sp)
	.loc 1 428 299 discriminator 4
	li	a6,-2147479552
.LBE228:
.LBB229:
	.loc 1 428 387 discriminator 4
	li	a0,1
.LBE229:
.LBB230:
	.loc 1 428 272 discriminator 4
	addi	a2,a5,1
	.loc 1 428 299 discriminator 4
	li	a5,1036288
	.loc 1 428 264 discriminator 4
	sw	a2,-736(a7)
	.loc 1 428 282 is_stmt 1 discriminator 4
	.loc 1 428 299 is_stmt 0 discriminator 4
	addi	a5,a5,127
	sw	a5,-1632(a6)
.LBE230:
.LBB231:
	.loc 1 428 332 is_stmt 1 discriminator 4
.LVL387:
	.loc 1 428 371 discriminator 4
	.loc 1 428 387 is_stmt 0 discriminator 4
	li	a2,-2147483648
	sw	a0,1056(a2)
	.loc 1 428 398 is_stmt 1 discriminator 4
	.loc 1 428 414 is_stmt 0 discriminator 4
	lw	a2,52(sp)
	li	a5,-2147483648
	.loc 1 428 575 discriminator 4
	li	a0,1036288
	.loc 1 428 414 discriminator 4
	sw	a2,672(a5)
	.loc 1 428 420 is_stmt 1 discriminator 4
	.loc 1 428 437 is_stmt 0 discriminator 4
	li	a2,32768
	addi	a2,a2,-1
	sw	a2,1568(a3)
	.loc 1 428 454 is_stmt 1 discriminator 4
	.loc 1 428 471 is_stmt 0 discriminator 4
	sw	zero,-864(a4)
	.loc 1 428 480 is_stmt 1 discriminator 4
.LVL388:
	.loc 1 428 499 discriminator 4
	.loc 1 428 515 is_stmt 0 discriminator 4
	lw	a5,164(sp)
	.loc 1 428 575 discriminator 4
	addi	a0,a0,-1923
.LBE231:
	.loc 1 428 624 discriminator 4
	li	a2,-2147483648
.LBB232:
	.loc 1 428 515 discriminator 4
	sw	a5,544(a1)
	.loc 1 428 557 is_stmt 1 discriminator 4
	.loc 1 428 558 discriminator 4
.LBE232:
	.loc 1 428 624 is_stmt 0 discriminator 4
	li	a1,393216
.LBB233:
	.loc 1 428 575 discriminator 4
	sw	a0,-1632(a6)
.LBE233:
	.loc 1 428 607 is_stmt 1 discriminator 4
	.loc 1 428 608 discriminator 4
	.loc 1 428 624 is_stmt 0 discriminator 4
	addi	a1,a1,1
	sw	a1,20(a2)
	.loc 1 348 28 is_stmt 1 discriminator 2
	.loc 1 348 19 is_stmt 0 discriminator 1
	lw	a4,160(sp)
	.loc 1 348 28 discriminator 2
	addi	a5,t1,128
	sw	a5,84(sp)
.LVL389:
	.loc 1 348 19 is_stmt 1 discriminator 1
	bgt	a4,a5,.L141
	lw	s0,232(sp)
	.cfi_restore 8
	lw	s3,220(sp)
	.cfi_restore 19
.LVL390:
	lw	s4,216(sp)
	.cfi_restore 20
	lw	s6,208(sp)
	.cfi_restore 22
	lw	s7,204(sp)
	.cfi_restore 23
	lw	s8,200(sp)
	.cfi_restore 24
	lw	s10,192(sp)
	.cfi_restore 26
	lw	s11,188(sp)
	.cfi_restore 27
.LVL391:
.L85:
	.loc 1 430 1 is_stmt 0
	lw	ra,236(sp)
	.cfi_restore 1
	lw	s1,228(sp)
	.cfi_restore 9
	lw	s2,224(sp)
	.cfi_restore 18
	lw	s5,212(sp)
	.cfi_restore 21
	lw	s9,196(sp)
	.cfi_restore 25
	addi	sp,sp,240
	.cfi_def_cfa_offset 0
	jr	ra
.LVL392:
.L164:
	.cfi_def_cfa_offset 240
	.cfi_offset 1, -4
	.cfi_offset 8, -8
	.cfi_offset 9, -12
	.cfi_offset 18, -16
	.cfi_offset 19, -20
	.cfi_offset 20, -24
	.cfi_offset 21, -28
	.cfi_offset 22, -32
	.cfi_offset 23, -36
	.cfi_offset 24, -40
	.cfi_offset 25, -44
	.cfi_offset 26, -48
	.cfi_offset 27, -52
	.loc 1 422 1 is_stmt 1
	.loc 1 422 22 is_stmt 0
	li	a3,-2147483648
	li	a2,16
	sw	a2,1000(a3)
.LVL393:
	.loc 1 422 39 is_stmt 1
	.loc 1 422 69 is_stmt 0
	lw	t3,36(sp)
	li	a0,-2147479552
	.loc 1 422 155
	li	a1,-2147483648
	.loc 1 422 69
	sw	t3,-920(a0)
	.loc 1 422 89 is_stmt 1
	.loc 1 422 119 is_stmt 0
	sw	a4,0(a5)
	.loc 1 422 134 is_stmt 1
	.loc 1 422 155 is_stmt 0
	lw	a5,112(sp)
	.loc 1 422 193
	li	a2,-2147475456
	.loc 1 422 231
	li	a3,-2147475456
	.loc 1 422 155
	sw	a5,1384(a1)
	.loc 1 422 171 is_stmt 1
	.loc 1 422 193 is_stmt 0
	lw	a5,88(sp)
	.loc 1 422 268 discriminator 8
	li	a7,1
	.loc 1 422 331 discriminator 9
	li	a6,-2147483648
	.loc 1 422 193
	sw	a5,1512(a2)
	.loc 1 422 209 is_stmt 1
	.loc 1 422 231 is_stmt 0
	lw	a4,92(sp)
	.loc 1 422 268 discriminator 8
	li	a5,-2147483648
	.loc 1 422 331 discriminator 9
	li	t1,5
	.loc 1 422 231
	sw	a4,-408(a3)
	.loc 1 422 247 is_stmt 1
	.loc 1 422 268 is_stmt 0 discriminator 8
	sw	a7,236(a5)
	.loc 1 422 302 is_stmt 1 discriminator 8
	.loc 1 422 315 discriminator 9
	.loc 1 422 331 is_stmt 0 discriminator 9
	sw	t1,20(a6)
	.loc 1 405 32 is_stmt 1
.LVL394:
	.loc 1 404 16 is_stmt 0
	lw	a3,48(sp)
	.loc 1 405 20
	li	t6,4096
	.loc 1 405 26
	li	a4,4096
	.loc 1 405 36
	li	a5,4096
	.loc 1 405 20
	addi	t6,t6,-1022
	.loc 1 405 26
	addi	a4,a4,-984
	.loc 1 405 36
	addi	a5,a5,-2016
	.loc 1 405 20
	add	t6,t3,t6
.LVL395:
	.loc 1 405 26
	add	a4,t3,a4
.LVL396:
	.loc 1 405 36
	add	a5,t3,a5
.LVL397:
	.loc 1 404 16 is_stmt 1
	bgt	a3,a7,.L118
	j	.L119
.LVL398:
.L148:
	.loc 1 411 20 is_stmt 0 discriminator 2
	li	a4,0
	.loc 1 409 77
	addi	a5,a5,-1816
	j	.L116
.LVL399:
.L165:
	.loc 1 422 1 is_stmt 1
	.loc 1 422 22 is_stmt 0
	sw	t1,0(a7)
	.loc 1 422 39 is_stmt 1
	.loc 1 422 69 is_stmt 0
	lw	t1,36(sp)
	.loc 1 422 119
	li	a7,-2147479552
	.loc 1 422 69
	sw	t1,0(a6)
	.loc 1 422 89 is_stmt 1
	.loc 1 422 119 is_stmt 0
	sw	t1,-792(a7)
	.loc 1 422 134 is_stmt 1
	.loc 1 422 155 is_stmt 0
	sw	t6,0(a0)
	.loc 1 422 171 is_stmt 1
	.loc 1 422 193 is_stmt 0
	sw	a4,0(a1)
	.loc 1 422 209 is_stmt 1
	.loc 1 422 231 is_stmt 0
	sw	a5,0(a2)
	.loc 1 422 247 is_stmt 1
	.loc 1 422 268 is_stmt 0 discriminator 8
	lw	a5,20(sp)
.LVL400:
	.loc 1 422 331 discriminator 9
	li	a2,-2147483648
.LVL401:
	li	a1,5
	.loc 1 422 268 discriminator 8
	sw	a5,0(a3)
.LVL402:
	.loc 1 422 302 is_stmt 1 discriminator 8
	.loc 1 422 315 discriminator 9
	.loc 1 422 331 is_stmt 0 discriminator 9
	sw	a1,20(a2)
	.loc 1 405 32 is_stmt 1
.LVL403:
	.loc 1 404 16 is_stmt 0
	lw	a1,48(sp)
	.loc 1 405 20
	li	a3,4096
	.loc 1 405 26
	li	a4,4096
.LVL404:
	.loc 1 405 36
	li	a5,4096
	.loc 1 405 20
	addi	a3,a3,-1020
	.loc 1 405 26
	addi	a4,a4,-952
	.loc 1 405 36
	addi	a5,a5,-1984
	.loc 1 404 16
	li	a2,2
	.loc 1 405 20
	add	a3,t1,a3
.LVL405:
	.loc 1 405 26
	add	a4,t1,a4
.LVL406:
	.loc 1 405 36
	add	a5,t1,a5
.LVL407:
	.loc 1 404 16 is_stmt 1
	bgt	a1,a2,.L120
	j	.L119
.LVL408:
.L162:
	.loc 1 407 40 is_stmt 0 discriminator 1
	lw	a5,64(sp)
	addi	s0,a3,4
.LVL409:
	bge	s0,a5,.L169
.LVL410:
	.loc 1 409 16 is_stmt 1
	.loc 1 409 77 is_stmt 0
	beq	a3,zero,.L145
	li	a5,-2147479552
	addi	a5,a5,-920
.LVL411:
.L103:
	.loc 1 411 16 is_stmt 1
	.loc 1 411 20 is_stmt 0 discriminator 1
	lw	a1,36(sp)
	li	a4,-2147479552
	addi	a4,a4,-792
.LVL412:
.L101:
	.loc 1 420 16 is_stmt 1
	.loc 1 422 1
	.loc 1 422 22 is_stmt 0
	lw	a3,24(sp)
	li	a2,-2147483648
	sw	a3,1000(a2)
.LVL413:
	.loc 1 422 39 is_stmt 1
	.loc 1 422 69 is_stmt 0
	lw	a3,36(sp)
	sw	a3,0(a5)
	.loc 1 422 89 is_stmt 1
	.loc 1 422 119 is_stmt 0
	sw	a1,0(a4)
	.loc 1 422 134 is_stmt 1
	.loc 1 422 155 is_stmt 0
	li	a3,-2147483648
.L158:
	.loc 1 422 134 is_stmt 1
	.loc 1 422 155 is_stmt 0
	lw	a2,112(sp)
	.loc 1 422 193
	li	a4,-2147475456
	.loc 1 422 231
	li	a5,-2147475456
	.loc 1 422 155
	sw	a2,1384(a3)
	.loc 1 422 171 is_stmt 1
	.loc 1 422 193 is_stmt 0
	lw	a3,88(sp)
	.loc 1 405 20
	li	a2,4096
	addi	a2,a2,-1022
	.loc 1 422 193
	sw	a3,1512(a4)
	.loc 1 422 209 is_stmt 1
	.loc 1 422 231 is_stmt 0
	lw	a4,92(sp)
	.loc 1 422 268 discriminator 8
	li	a3,1
	.loc 1 422 231
	sw	a4,-408(a5)
	.loc 1 422 247 is_stmt 1
	.loc 1 422 268 is_stmt 0 discriminator 8
	li	a4,-2147483648
	sw	a3,236(a4)
	.loc 1 422 302 is_stmt 1 discriminator 8
	.loc 1 422 315 discriminator 9
	.loc 1 422 331 is_stmt 0 discriminator 9
	li	a5,-2147483648
	li	a4,5
	sw	a4,20(a5)
	.loc 1 405 32 is_stmt 1
.LVL414:
	.loc 1 405 20 is_stmt 0
	lw	a5,36(sp)
	.loc 1 405 36
	lw	a1,92(sp)
	.loc 1 405 26
	lw	a4,88(sp)
	.loc 1 405 20
	add	a2,a5,a2
.LVL415:
	.loc 1 405 26
	lw	a5,100(sp)
	add	a4,a4,a5
.LVL416:
	.loc 1 405 36
	add	a5,a1,a5
.LVL417:
	.loc 1 404 16 is_stmt 1
	lw	a1,48(sp)
	ble	a1,a3,.L100
.LVL418:
.L106:
	.loc 1 411 16
	.loc 1 420 16
	.loc 1 422 1
	.loc 1 422 22 is_stmt 0
	lw	a3,24(sp)
	li	a7,-2147483648
	.loc 1 422 69
	li	t1,-2147479552
	.loc 1 422 22
	sw	a3,1000(a7)
	.loc 1 422 39 is_stmt 1
	.loc 1 422 69 is_stmt 0
	lw	a3,36(sp)
	.loc 1 422 119
	li	a6,-2147479552
	.loc 1 422 155
	li	a0,-2147483648
	.loc 1 422 69
	sw	a3,-920(t1)
	.loc 1 422 89 is_stmt 1
	.loc 1 422 119 is_stmt 0
	sw	a3,-792(a6)
	.loc 1 422 134 is_stmt 1
	.loc 1 422 155 is_stmt 0
	sw	a2,1384(a0)
	.loc 1 422 171 is_stmt 1
	.loc 1 422 193 is_stmt 0
	li	a1,-2147475456
	sw	a4,1512(a1)
	.loc 1 422 209 is_stmt 1
	.loc 1 422 231 is_stmt 0
	li	a3,-2147475456
	sw	a5,-408(a3)
	.loc 1 422 247 is_stmt 1
	.loc 1 422 268 is_stmt 0 discriminator 8
	li	a2,-2147483648
	li	t3,2
	sw	t3,236(a2)
	.loc 1 422 302 is_stmt 1 discriminator 8
	.loc 1 405 32
.LVL419:
	.loc 1 404 16
	lw	a3,48(sp)
	.loc 1 422 69 is_stmt 0
	addi	t1,t1,-920
	.loc 1 404 16
	ble	a3,t3,.L100
	.loc 1 405 20
	lw	a2,36(sp)
	li	a3,4096
	addi	a3,a3,-1020
	add	a3,a2,a3
	.loc 1 405 26
	lw	a2,100(sp)
	add	a4,a4,a2
.LVL420:
	.loc 1 405 36
	add	a5,a5,a2
.LVL421:
	.loc 1 407 16 is_stmt 1
	.loc 1 407 93 is_stmt 0
	lw	a2,20(sp)
	bne	a2,t3,.L110
	.loc 1 407 40 discriminator 1
	lw	a1,64(sp)
	li	a2,-2147483648
	addi	a2,a2,1128
	ble	a1,s0,.L113
	mv	a2,t1
.L113:
.LVL422:
	.loc 1 422 1 is_stmt 1
	.loc 1 422 22 is_stmt 0
	lw	a1,24(sp)
	li	a7,-2147483648
	.loc 1 422 119
	li	a6,-2147479552
	.loc 1 422 22
	sw	a1,1000(a7)
.LVL423:
	.loc 1 422 39 is_stmt 1
	.loc 1 422 69 is_stmt 0
	lw	a1,36(sp)
	.loc 1 422 155
	li	a0,-2147483648
	.loc 1 422 268 discriminator 8
	li	t1,-2147483648
	.loc 1 422 69
	sw	a1,0(a2)
	.loc 1 422 89 is_stmt 1
	.loc 1 422 119 is_stmt 0
	sw	a1,-792(a6)
	.loc 1 422 134 is_stmt 1
	.loc 1 422 155 is_stmt 0
	sw	a3,1384(a0)
	.loc 1 422 171 is_stmt 1
	.loc 1 422 193 is_stmt 0
	li	a1,-2147475456
	sw	a4,1512(a1)
	.loc 1 422 209 is_stmt 1
	.loc 1 422 231 is_stmt 0
	li	a2,-2147475456
	sw	a5,-408(a2)
	.loc 1 422 247 is_stmt 1
	.loc 1 422 268 is_stmt 0 discriminator 8
	li	t3,1
	.loc 1 422 331 discriminator 9
	li	a3,-2147483648
.LVL424:
	.loc 1 422 268 discriminator 8
	sw	t3,236(t1)
	.loc 1 422 302 is_stmt 1 discriminator 8
	.loc 1 422 315 discriminator 9
	.loc 1 422 331 is_stmt 0 discriminator 9
	li	a2,5
	sw	a2,20(a3)
	j	.L112
.LVL425:
.L166:
	.loc 1 422 1 is_stmt 1
	.loc 1 422 22 is_stmt 0
	sw	t5,0(t3)
	.loc 1 422 39 is_stmt 1
	.loc 1 422 69 is_stmt 0
	lw	t3,36(sp)
	sw	t3,0(t1)
	.loc 1 422 89 is_stmt 1
	.loc 1 422 119 is_stmt 0
	sw	t3,0(a7)
	.loc 1 422 134 is_stmt 1
	.loc 1 422 155 is_stmt 0
	sw	a3,0(a6)
	.loc 1 422 171 is_stmt 1
	.loc 1 422 193 is_stmt 0
	sw	a4,0(a0)
	.loc 1 422 209 is_stmt 1
	.loc 1 422 231 is_stmt 0
	sw	a5,0(a1)
	.loc 1 422 247 is_stmt 1
	.loc 1 422 268 is_stmt 0 discriminator 8
	li	a1,1
	sw	a1,0(a2)
	.loc 1 422 302 is_stmt 1 discriminator 8
	.loc 1 422 315 discriminator 9
	.loc 1 422 331 is_stmt 0 discriminator 9
	li	a3,-2147483648
.LVL426:
	li	a2,5
	sw	a2,20(a3)
	j	.L121
.LVL427:
.L163:
	addi	s0,a3,4
	j	.L106
.LVL428:
.L167:
	.loc 1 409 16 is_stmt 1
	.loc 1 409 77 is_stmt 0
	li	a3,-2147479552
	beq	s9,zero,.L149
	.loc 1 411 20 discriminator 1
	lw	a2,36(sp)
	.loc 1 409 77
	addi	a3,a3,-792
.L124:
.LVL429:
	.loc 1 422 1 is_stmt 1
	.loc 1 422 22 is_stmt 0
	li	a5,-2147483648
	li	a4,16
	sw	a4,1000(a5)
.LVL430:
	.loc 1 422 39 is_stmt 1
	.loc 1 422 69 is_stmt 0
	lw	t4,36(sp)
	li	a6,-2147483648
	.loc 1 422 155
	li	a0,-2147483648
	.loc 1 422 69
	sw	t4,1128(a6)
	.loc 1 422 89 is_stmt 1
	.loc 1 422 155 is_stmt 0
	lw	a5,112(sp)
	.loc 1 422 119
	sw	a2,0(a3)
	.loc 1 422 134 is_stmt 1
	.loc 1 422 193 is_stmt 0
	li	a1,-2147475456
	.loc 1 422 155
	sw	a5,1384(a0)
	.loc 1 422 171 is_stmt 1
	.loc 1 422 193 is_stmt 0
	lw	a5,88(sp)
	.loc 1 422 231
	li	a2,-2147475456
	.loc 1 422 268 discriminator 8
	li	t1,1
	.loc 1 422 193
	sw	a5,1512(a1)
	.loc 1 422 209 is_stmt 1
	.loc 1 422 231 is_stmt 0
	lw	a4,92(sp)
	.loc 1 422 268 discriminator 8
	li	a5,-2147483648
	.loc 1 422 331 discriminator 9
	li	a7,-2147483648
	.loc 1 422 231
	sw	a4,-408(a2)
	.loc 1 422 247 is_stmt 1
	.loc 1 422 268 is_stmt 0 discriminator 8
	sw	t1,236(a5)
	.loc 1 422 302 is_stmt 1 discriminator 8
	.loc 1 422 315 discriminator 9
	.loc 1 422 331 is_stmt 0 discriminator 9
	li	t3,5
	sw	t3,20(a7)
	.loc 1 405 32 is_stmt 1
.LVL431:
	.loc 1 404 16 is_stmt 0
	lw	a2,48(sp)
	.loc 1 405 20
	li	a3,4096
	.loc 1 405 26
	li	a4,4096
	.loc 1 405 36
	li	a5,4096
	.loc 1 405 20
	addi	a3,a3,-1022
	.loc 1 405 26
	addi	a4,a4,-984
	.loc 1 405 36
	addi	a5,a5,-2016
	.loc 1 405 20
	add	a3,t4,a3
.LVL432:
	.loc 1 405 26
	add	a4,t4,a4
.LVL433:
	.loc 1 405 36
	add	a5,t4,a5
.LVL434:
	.loc 1 404 16 is_stmt 1
	ble	a2,t1,.L126
.LVL435:
.L127:
	.loc 1 409 16
	.loc 1 411 16
	.loc 1 420 16
	.loc 1 422 1
	.loc 1 422 22 is_stmt 0
	li	t3,-2147483648
	li	t4,16
	sw	t4,1000(t3)
	.loc 1 422 69
	lw	t6,36(sp)
	li	a2,-2147479552
	.loc 1 422 119
	li	t1,-2147479552
	.loc 1 422 69
	sw	t6,-920(a2)
	.loc 1 422 119
	sw	t6,-792(t1)
	.loc 1 422 155
	li	a7,-2147483648
	sw	a3,1384(a7)
	.loc 1 422 193
	li	a6,-2147475456
	sw	a4,1512(a6)
	.loc 1 422 231
	li	a0,-2147475456
	sw	a5,-408(a0)
	.loc 1 422 268 discriminator 8
	li	a1,-2147483648
	sw	zero,236(a1)
	.loc 1 404 16
	lw	a2,48(sp)
	.loc 1 405 20
	li	a3,4096
	addi	a3,a3,-1020
	.loc 1 404 16
	li	t5,2
	.loc 1 422 22
	addi	t3,t3,1000
	.loc 1 422 39 is_stmt 1
	.loc 1 422 89
	.loc 1 422 134
	.loc 1 422 171
	.loc 1 422 209
	.loc 1 422 247
	.loc 1 422 268 is_stmt 0 discriminator 8
	addi	a1,a1,236
	.loc 1 422 302 is_stmt 1 discriminator 8
	.loc 1 405 32
.LVL436:
	.loc 1 422 119 is_stmt 0
	addi	t1,t1,-792
	.loc 1 422 155
	addi	a7,a7,1384
	.loc 1 422 193
	addi	a6,a6,1512
	.loc 1 422 231
	addi	a0,a0,-408
	.loc 1 405 20
	add	a3,t6,a3
.LVL437:
	.loc 1 405 26
	addi	a4,a4,32
.LVL438:
	.loc 1 405 36
	addi	a5,a5,32
.LVL439:
	.loc 1 404 16 is_stmt 1
	ble	a2,t5,.L126
	.loc 1 407 16
	.loc 1 407 93 is_stmt 0
	lw	a2,20(sp)
	bne	a2,t5,.L128
.LVL440:
	.loc 1 411 16 is_stmt 1
	.loc 1 420 16
	.loc 1 422 1
	.loc 1 422 22 is_stmt 0
	sw	t4,0(t3)
	.loc 1 422 39 is_stmt 1
	.loc 1 422 69 is_stmt 0
	li	a2,-2147483648
	sw	t6,1128(a2)
	.loc 1 422 89 is_stmt 1
	.loc 1 422 119 is_stmt 0
	sw	t6,0(t1)
	.loc 1 422 134 is_stmt 1
	.loc 1 422 155 is_stmt 0
	sw	a3,0(a7)
	.loc 1 422 171 is_stmt 1
	.loc 1 422 193 is_stmt 0
	sw	a4,0(a6)
	.loc 1 422 209 is_stmt 1
	.loc 1 422 231 is_stmt 0
	sw	a5,0(a0)
	.loc 1 422 247 is_stmt 1
	.loc 1 422 268 is_stmt 0 discriminator 8
	li	a0,1
	.loc 1 422 331 discriminator 9
	li	a3,-2147483648
.LVL441:
	.loc 1 422 268 discriminator 8
	sw	a0,0(a1)
	.loc 1 422 302 is_stmt 1 discriminator 8
	.loc 1 422 315 discriminator 9
	.loc 1 422 331 is_stmt 0 discriminator 9
	li	a2,5
	sw	a2,20(a3)
	j	.L129
.LVL442:
.L150:
	.loc 1 411 20 discriminator 2
	li	a4,0
	.loc 1 409 77
	addi	a5,a5,-1816
	j	.L125
.LVL443:
.L168:
.LBB234:
	.loc 1 428 140 discriminator 2
	lw	a5,172(sp)
	addi	a5,a5,-1
	j	.L140
.LVL444:
.L169:
.LBE234:
	.loc 1 409 16 is_stmt 1
	.loc 1 409 77 is_stmt 0
	beq	a3,zero,.L105
	li	a5,-2147483648
	addi	a5,a5,1128
	j	.L103
.LVL445:
.L145:
	li	a4,-2147479552
	li	a5,-2147479552
	.loc 1 411 20 discriminator 2
	li	a1,0
	.loc 1 409 77
	addi	a4,a4,-1816
	addi	a5,a5,-920
	j	.L101
.LVL446:
.L105:
	.loc 1 422 1 is_stmt 1
	.loc 1 422 22 is_stmt 0
	lw	a5,24(sp)
	li	a0,-2147483648
	.loc 1 422 69
	li	a1,-2147483648
	.loc 1 422 22
	sw	a5,1000(a0)
.LVL447:
	.loc 1 422 39 is_stmt 1
	.loc 1 422 69 is_stmt 0
	lw	a5,36(sp)
	.loc 1 422 119
	li	a2,-2147479552
	.loc 1 422 155
	li	a3,-2147483648
	.loc 1 422 69
	sw	a5,1128(a1)
	.loc 1 422 89 is_stmt 1
	.loc 1 422 119 is_stmt 0
	sw	zero,-1816(a2)
	j	.L158
.LVL448:
.L143:
	.cfi_restore 8
	.cfi_restore 19
	.cfi_restore 20
	.cfi_restore 22
	.cfi_restore 23
	.cfi_restore 24
	.cfi_restore 26
	.cfi_restore 27
	.loc 1 336 9 discriminator 2
	li	a5,16384
	.loc 1 345 23 discriminator 1
	sw	s5,84(sp)
	.loc 1 336 9 discriminator 2
	sw	a5,36(sp)
	j	.L87
.LVL449:
.L149:
	.cfi_offset 8, -8
	.cfi_offset 19, -20
	.cfi_offset 20, -24
	.cfi_offset 22, -32
	.cfi_offset 23, -36
	.cfi_offset 24, -40
	.cfi_offset 26, -48
	.cfi_offset 27, -52
	.loc 1 409 77
	addi	a3,a3,-1816
	.loc 1 411 20 discriminator 2
	li	a2,0
	j	.L124
	.cfi_endproc
.LFE13:
	.size	matmul_q8, .-matmul_q8
	.align	2
	.type	llm_dot_product_exe, @function
llm_dot_product_exe:
.LFB17:
	.loc 1 641 1 is_stmt 1
	.cfi_startproc
.LVL450:
	.loc 1 642 4
	.loc 1 643 4
	.loc 1 644 4
	.loc 1 645 4
	.loc 1 646 4
	.loc 1 647 4
	.loc 1 641 1 is_stmt 0
	addi	sp,sp,-128
	.cfi_def_cfa_offset 128
	sw	s5,100(sp)
	sw	s6,96(sp)
	sw	s7,92(sp)
	sw	ra,124(sp)
	sw	s0,120(sp)
	sw	s1,116(sp)
	sw	s2,112(sp)
	sw	s3,108(sp)
	sw	s4,104(sp)
	sw	s8,88(sp)
	sw	s9,84(sp)
	sw	s10,80(sp)
	sw	s11,76(sp)
	.cfi_offset 21, -28
	.cfi_offset 22, -32
	.cfi_offset 23, -36
	.cfi_offset 1, -4
	.cfi_offset 8, -8
	.cfi_offset 9, -12
	.cfi_offset 18, -16
	.cfi_offset 19, -20
	.cfi_offset 20, -24
	.cfi_offset 24, -40
	.cfi_offset 25, -44
	.cfi_offset 26, -48
	.cfi_offset 27, -52
	.loc 1 660 13
	lw	a5,4(a0)
	.loc 1 641 1
	mv	s5,a0
.LVL451:
	.loc 1 648 4 is_stmt 1
	.loc 1 649 4
	.loc 1 650 4
	.loc 1 651 4
	.loc 1 652 4
	.loc 1 653 4
	.loc 1 655 4
	.loc 1 641 1 is_stmt 0
	mv	s7,a1
	.loc 1 660 16
	addi	a3,a5,1
	.loc 1 660 7
	srli	a4,a3,31
	add	a4,a4,a3
	srai	s6,a4,1
	.loc 1 662 6
	ble	s6,a5,.L171
	mv	s6,a5
.L171:
	.loc 1 655 6
	beq	s7,zero,.L205
	.loc 1 665 20 discriminator 1
	sw	s6,20(sp)
	.loc 1 658 10
	li	s8,16384
.L172:
.LVL452:
.LBB235:
	.loc 1 719 540 discriminator 4
	li	a5,4096
	addi	a5,a5,384
	add	a5,s8,a5
	sw	a5,48(sp)
	.loc 1 719 549 discriminator 4
	srli	a5,a5,1
.LBE235:
.LBB236:
	.loc 1 688 466
	addi	a4,s8,128
.LBE236:
.LBB237:
	.loc 1 719 549 discriminator 4
	sw	a5,60(sp)
.LBE237:
.LBB238:
	.loc 1 686 108
	li	a5,32768
.LBE238:
.LBB239:
	.loc 1 688 466
	sw	a4,44(sp)
.LBE239:
.LBB240:
	.loc 1 686 58
	li	s9,-2147483648
	.loc 1 686 211
	srli	a3,s8,1
.LBE240:
.LBB241:
	.loc 1 688 473
	srli	a4,a4,1
.LBE241:
.LBB242:
	.loc 1 686 108
	addi	a5,a5,-1
.LBE242:
	.loc 1 714 22
	li	s10,-2147483648
	.loc 1 714 104
	li	s11,-2147479552
.LBB243:
	.loc 1 686 58
	addi	s9,s9,1056
	mv	t1,s7
	.loc 1 686 211
	sw	a3,32(sp)
.LBE243:
.LBB244:
	.loc 1 688 473
	sw	a4,36(sp)
.LBE244:
.LBB245:
	.loc 1 686 108
	sw	a5,40(sp)
.LBE245:
	.loc 1 714 22
	addi	s10,s10,1000
	.loc 1 714 104
	addi	s11,s11,-1688
	mv	s7,s9
.LVL453:
	.loc 1 665 26 is_stmt 1 discriminator 5
	.loc 1 665 40 is_stmt 0 discriminator 5
	bne	t1,zero,.L201
.LVL454:
.L225:
	.loc 1 665 26 discriminator 10
	lw	a5,20(sp)
	bge	a5,s6,.L177
.LVL455:
	.loc 1 668 7 is_stmt 1
	.loc 1 668 9 is_stmt 0
	li	a5,32
	mv	s0,s6
	ble	s6,a5,.L176
	li	s0,32
.L176:
.LVL456:
	.loc 1 671 7 is_stmt 1
	.loc 1 671 9 is_stmt 0
	beq	s6,zero,.L177
	sw	s6,28(sp)
.LVL457:
.L175:
	.loc 1 674 17 is_stmt 1 discriminator 1
.LBB246:
	.loc 1 719 29 is_stmt 0
	lw	a4,20(sp)
.LBE246:
	.loc 1 674 22 discriminator 1
	lw	a3,0(s5)
.LBB247:
	.loc 1 719 359 discriminator 4
	addi	s1,s0,-1
.LBE247:
.LBB248:
	.loc 1 719 29
	add	a5,a4,s0
	.loc 1 719 23
	addi	a5,a5,-1
	.loc 1 719 38
	sub	a5,a5,a4
	sw	a5,24(sp)
.LBE248:
	.loc 1 674 17 discriminator 1
	li	s2,0
	ble	a3,zero,.L183
.LBB249:
	.loc 1 686 108
	li	s3,-2147483648
.LBE249:
.LBB250:
	.loc 1 688 95
	li	a5,-2147479552
.LBE250:
.LBB251:
	.loc 1 686 108
	addi	s3,s3,1568
.LBE251:
.LBB252:
	.loc 1 688 95
	addi	a5,a5,-2016
	sw	s6,52(sp)
.LBE252:
	.loc 1 678 18
	li	s9,1
.LBB253:
	.loc 1 688 95
	sw	a5,8(sp)
	sw	t1,56(sp)
	mv	s6,s3
	sw	s10,12(sp)
.LVL458:
.L178:
.LBE253:
	.loc 1 676 14
	sub	t1,a3,s2
	.loc 1 677 12
	li	a4,64
	mv	a5,s2
.LVL459:
	.loc 1 676 10 is_stmt 1
	.loc 1 677 10
	mv	s3,s2
	addi	s2,s2,64
	.loc 1 677 12 is_stmt 0
	bgt	t1,a4,.L207
	.loc 1 678 18
	li	a2,1
.LBB254:
	.loc 1 686 23
	addi	s4,t1,-1
	.loc 1 686 254
	mv	a4,t1
.LBE254:
	.loc 1 678 18
	sw	a2,16(sp)
.LVL460:
.L181:
.LBB255:
	.loc 1 686 3 is_stmt 1
	.loc 1 686 42
	.loc 1 686 58 is_stmt 0
	li	a2,1
	sw	a2,0(s7)
.LVL461:
	.loc 1 686 69 is_stmt 1
	.loc 1 686 85 is_stmt 0
	li	a7,-2147483648
	sw	s4,672(a7)
	.loc 1 686 91 is_stmt 1
	.loc 1 686 108 is_stmt 0
	lw	a1,40(sp)
	.loc 1 686 142
	li	a6,-2147479552
	.loc 1 686 186
	li	a0,-2147483648
	.loc 1 686 108
	sw	a1,0(s6)
	.loc 1 686 125 is_stmt 1
	.loc 1 686 142 is_stmt 0
	sw	zero,-864(a6)
	.loc 1 686 151 is_stmt 1
.LVL462:
	.loc 1 686 170
	.loc 1 686 186 is_stmt 0
	lw	a1,32(sp)
	.loc 1 686 246
	li	t2,-2147479552
	.loc 1 686 281
	li	ra,1036288
	.loc 1 686 186
	sw	a1,544(a0)
	.loc 1 686 228 is_stmt 1
	.loc 1 686 229
	.loc 1 686 246 is_stmt 0
	sw	a4,-736(t2)
	.loc 1 686 264 is_stmt 1
	.loc 1 686 281 is_stmt 0
	li	a1,-2147479552
	addi	ra,ra,-1921
	sw	ra,-1632(a1)
.LBE255:
.LBB256:
	.loc 1 686 314 is_stmt 1
.LVL463:
	.loc 1 686 363
	.loc 1 686 334 is_stmt 0
	addi	a3,a3,-1
.LVL464:
	.loc 1 686 379
	sw	a2,0(s7)
	.loc 1 686 390 is_stmt 1
	.loc 1 686 350 is_stmt 0
	sub	a3,a3,a5
.LVL465:
	.loc 1 686 406
	sw	a3,672(a7)
	.loc 1 686 412 is_stmt 1
	.loc 1 686 439 is_stmt 0
	lw	t3,0(s5)
	.loc 1 686 569
	li	t4,1036288
.LBE256:
	.loc 1 686 618
	li	a2,-2147483648
.LBB257:
	.loc 1 686 439
	addi	t3,t3,-1
	.loc 1 686 441
	sub	t3,t3,a5
	.loc 1 686 429
	sw	t3,0(s6)
	.loc 1 686 447 is_stmt 1
	.loc 1 686 464 is_stmt 0
	sw	s3,-864(a6)
	.loc 1 686 473 is_stmt 1
.LVL466:
	.loc 1 686 492
	.loc 1 686 534 is_stmt 0
	lw	t5,8(s5)
	.loc 1 686 569
	addi	t4,t4,125
.LBE257:
	.loc 1 686 618
	li	t3,393216
.LBB258:
	.loc 1 686 534
	srli	t5,t5,1
	.loc 1 686 513
	add	t5,t5,s3
	.loc 1 686 508
	sw	t5,544(a0)
	.loc 1 686 551 is_stmt 1
	.loc 1 686 552
	.loc 1 686 569 is_stmt 0
	sw	t4,-1632(a1)
.LBE258:
	.loc 1 686 601 is_stmt 1
	.loc 1 686 602
	.loc 1 686 618 is_stmt 0
	addi	a2,a2,20
	addi	t3,t3,1
	sw	t3,0(a2)
.LBB259:
	.loc 1 688 3 is_stmt 1
.LVL467:
	.loc 1 688 78
	.loc 1 688 95 is_stmt 0
	lw	t5,8(sp)
	li	t6,64
	.loc 1 688 141
	li	t0,-2147479552
	.loc 1 688 95
	sw	t6,0(t5)
	.loc 1 688 124 is_stmt 1
	.loc 1 688 141 is_stmt 0
	sw	s1,-1888(t0)
	.loc 1 688 147 is_stmt 1
	.loc 1 688 164 is_stmt 0
	li	t6,-2147479552
	li	s10,2047
	sw	s10,-1760(t6)
	.loc 1 688 218 is_stmt 1
	.loc 1 688 523 is_stmt 0
	mul	t1,t1,s0
.LVL468:
	.loc 1 688 235
	li	t5,-2147479552
	sw	zero,-992(t5)
	.loc 1 688 264 is_stmt 1
	.loc 1 688 280 is_stmt 0
	li	s10,1
	sw	s10,0(s7)
	.loc 1 688 291 is_stmt 1
	.loc 1 688 307 is_stmt 0
	sw	s4,672(a7)
	.loc 1 688 313 is_stmt 1
	.loc 1 688 330 is_stmt 0
	li	s4,63
	sw	s4,0(s6)
	.loc 1 688 359 is_stmt 1
	.loc 1 688 376 is_stmt 0
	sw	zero,-864(a6)
	.loc 1 688 385 is_stmt 1
.LVL469:
	.loc 1 688 432
	.loc 1 688 448 is_stmt 0
	lw	s4,36(sp)
	sw	s4,544(a0)
	.loc 1 688 490 is_stmt 1
	.loc 1 688 491
	.loc 1 688 508 is_stmt 0
	sw	t1,-736(t2)
	.loc 1 688 533 is_stmt 1
	.loc 1 688 550 is_stmt 0
	sw	ra,-1632(a1)
.LBE259:
.LBB260:
	.loc 1 688 583 is_stmt 1
.LVL470:
	.loc 1 688 676
	.loc 1 688 712 is_stmt 0
	lw	ra,16(s5)
	.loc 1 688 693
	lw	t2,8(sp)
.LBE260:
	.loc 1 690 26
	li	t1,4096
	addi	t1,t1,128
.LBB261:
	.loc 1 688 693
	sw	ra,0(t2)
.LVL471:
	.loc 1 688 717 is_stmt 1
	.loc 1 688 734 is_stmt 0
	lw	t2,24(sp)
.LBE261:
	.loc 1 690 26
	add	t1,s8,t1
.LBB262:
	.loc 1 688 734
	sw	t2,-1888(t0)
	.loc 1 688 740 is_stmt 1
	.loc 1 688 767 is_stmt 0
	lw	t0,20(sp)
	lw	ra,4(s5)
	.loc 1 688 772
	lw	s4,16(s5)
	.loc 1 688 767
	sub	ra,ra,t0
	.loc 1 688 772
	mul	ra,ra,s4
	.loc 1 688 791
	addi	ra,ra,-1
	.loc 1 688 757
	sw	ra,-1760(t6)
	.loc 1 688 794 is_stmt 1
	.loc 1 688 815 is_stmt 0
	lw	t6,16(s5)
	mul	t6,t0,t6
	.loc 1 688 811
	sw	t6,-992(t5)
	.loc 1 688 835 is_stmt 1
	.loc 1 688 851 is_stmt 0
	sw	s10,0(s7)
	.loc 1 688 862 is_stmt 1
	.loc 1 688 878 is_stmt 0
	sw	a3,672(a7)
	.loc 1 688 884 is_stmt 1
	.loc 1 688 917 is_stmt 0
	lw	a3,16(s5)
	addi	a3,a3,-1
	.loc 1 688 919
	sub	a3,a3,a5
	.loc 1 688 901
	sw	a3,0(s6)
	.loc 1 688 925 is_stmt 1
	.loc 1 688 942 is_stmt 0
	sw	s3,-864(a6)
	.loc 1 688 951 is_stmt 1
.LVL472:
	.loc 1 688 993
	.loc 1 688 963 is_stmt 0
	lw	a3,16(s5)
	.loc 1 688 1036
	lw	a6,12(s5)
	.loc 1 688 963
	mul	a3,t0,a3
	.loc 1 688 1036
	srli	a6,a6,1
	.loc 1 688 955
	add	a3,a3,a5
	.loc 1 688 1014
	add	a3,a3,a6
	.loc 1 688 1009
	sw	a3,544(a0)
.LVL473:
	.loc 1 688 1053 is_stmt 1
	.loc 1 688 1054
	.loc 1 688 1071 is_stmt 0
	sw	t4,-1632(a1)
.LBE262:
	.loc 1 688 1103 is_stmt 1
	.loc 1 688 1104
	.loc 1 688 1120 is_stmt 0
	sw	t3,0(a2)
	.loc 1 690 10 is_stmt 1
.LVL474:
	.loc 1 691 10
	.loc 1 695 20 is_stmt 0 discriminator 1
	lw	a3,28(sp)
	.loc 1 691 18
	lw	a7,24(s5)
.LVL475:
	.loc 1 692 10 is_stmt 1
	.loc 1 693 10
	.loc 1 695 10
	.loc 1 695 20 discriminator 1
	ble	a3,zero,.L199
	.loc 1 714 39 is_stmt 0
	lw	a6,16(sp)
	.loc 1 714 203
	seqz	a3,a5
	neg	a3,a3
	.loc 1 714 39
	addi	a1,a6,-1
	.loc 1 714 203
	andi	a3,a3,-8
	.loc 1 714 39
	andi	a1,a1,16
	.loc 1 714 203
	addi	a3,a3,24
	.loc 1 714 39
	addi	a1,a1,8
	li	a0,-2147483648
	.loc 1 714 203
	ori	a3,a3,6
	.loc 1 714 39
	addi	a0,a0,104
	slli	a1,a1,7
	.loc 1 714 203
	slli	a3,a3,7
	.loc 1 714 39
	add	a1,a1,a0
	.loc 1 714 203
	snez	t4,a5
	add	a3,a3,a0
	bne	a6,zero,.L208
	.loc 1 693 13
	lw	a0,44(sp)
	.loc 1 714 150
	li	t5,-2147483648
	.loc 1 714 187
	li	t4,-2147483648
	.loc 1 714 268
	li	t3,-2147479552
	.loc 1 714 292 discriminator 8
	li	a6,-2147483648
	bne	a5,zero,.L209
	.loc 1 714 355 discriminator 9
	lw	s10,12(sp)
	.loc 1 714 150
	addi	t5,t5,1512
	.loc 1 714 187
	addi	t4,t4,1640
	.loc 1 714 268
	addi	t3,t3,-1816
	.loc 1 714 292 discriminator 8
	addi	a6,a6,1004
	li	t0,2
	.loc 1 714 355 discriminator 9
	li	t6,5
.LVL476:
.L193:
	.loc 1 697 13 is_stmt 1
	.loc 1 701 13
	.loc 1 709 13
	.loc 1 714 1
	.loc 1 714 22 is_stmt 0
	sw	a4,0(s10)
	.loc 1 714 39 is_stmt 1
	.loc 1 714 67 is_stmt 0
	sw	t1,0(a1)
	.loc 1 714 82 is_stmt 1
	.loc 1 714 104 is_stmt 0
	sw	a7,0(s11)
	.loc 1 714 129 is_stmt 1
	.loc 1 714 150 is_stmt 0
	sw	s8,0(t5)
	.loc 1 714 166 is_stmt 1
	.loc 1 714 187 is_stmt 0
	sw	a0,0(t4)
	.loc 1 714 203 is_stmt 1
	.loc 1 714 231 is_stmt 0
	sw	zero,0(a3)
	.loc 1 714 246 is_stmt 1
	.loc 1 714 268 is_stmt 0
	sw	zero,0(t3)
	.loc 1 709 18
	beq	a5,s1,.L223
	.loc 1 714 271 is_stmt 1
	.loc 1 714 292 is_stmt 0 discriminator 8
	sw	t0,0(a6)
	.loc 1 714 326 is_stmt 1 discriminator 8
	.loc 1 695 39 discriminator 2
.LVL477:
	.loc 1 695 28 is_stmt 0 discriminator 2
	addi	a5,a5,1
.LVL478:
	.loc 1 695 35 discriminator 2
	addi	t1,t1,4
.LVL479:
	.loc 1 695 43 discriminator 2
	addi	a0,a0,128
.LVL480:
	.loc 1 695 20 is_stmt 1 discriminator 1
	blt	a5,s0,.L193
.LVL481:
.L220:
	sw	s10,12(sp)
.LVL482:
.L199:
	.loc 1 717 10
	li	a5,-2147483648
	sw	zero,36(a5)
	.loc 1 717 10
	call	_taskYield
.LVL483:
	.loc 1 717 24 discriminator 1
	.loc 1 674 28 discriminator 2
	.loc 1 674 17 discriminator 1
	.loc 1 674 22 is_stmt 0 discriminator 1
	lw	a3,0(s5)
	.loc 1 674 17 discriminator 1
	bgt	a3,s2,.L178
	lw	s6,52(sp)
	lw	t1,56(sp)
	lw	s10,12(sp)
.LVL484:
.L183:
.LBB263:
	.loc 1 719 3 is_stmt 1
	.loc 1 719 51
	.loc 1 719 67 is_stmt 0
	li	a4,1
	sw	a4,0(s7)
.LVL485:
	.loc 1 719 78 is_stmt 1
	.loc 1 719 94 is_stmt 0
	lw	a4,24(sp)
	li	a5,-2147483648
	sw	a4,672(a5)
	.loc 1 719 100 is_stmt 1
	.loc 1 719 141 is_stmt 0
	beq	t1,zero,.L224
	.loc 1 719 141 discriminator 1
	lw	a5,4(s5)
	addi	a5,a5,-1
.L200:
	.loc 1 719 143 discriminator 4
	lw	t3,20(sp)
	.loc 1 719 117 discriminator 4
	li	a3,-2147483648
	.loc 1 719 166 discriminator 4
	li	a4,-2147479552
	.loc 1 719 143 discriminator 4
	sub	a5,a5,t3
	.loc 1 719 117 discriminator 4
	sw	a5,1568(a3)
	.loc 1 719 149 is_stmt 1 discriminator 4
	.loc 1 719 166 is_stmt 0 discriminator 4
	sw	t3,-864(a4)
	.loc 1 719 175 is_stmt 1 discriminator 4
.LVL486:
	.loc 1 719 194 discriminator 4
	.loc 1 719 236 is_stmt 0 discriminator 4
	lw	a5,20(s5)
	.loc 1 719 210 discriminator 4
	li	a1,-2147483648
	.loc 1 719 271 discriminator 4
	li	a6,-2147479552
	.loc 1 719 236 discriminator 4
	srli	a5,a5,1
	.loc 1 719 215 discriminator 4
	add	a5,a5,t3
	.loc 1 719 210 discriminator 4
	sw	a5,544(a1)
	.loc 1 719 253 is_stmt 1 discriminator 4
	.loc 1 719 254 discriminator 4
	.loc 1 719 279 is_stmt 0 discriminator 4
	lw	a5,24(sp)
	.loc 1 719 306 discriminator 4
	li	a0,1036288
	li	a2,-2147479552
	.loc 1 719 279 discriminator 4
	addi	a5,a5,1
	.loc 1 719 271 discriminator 4
	sw	a5,-736(a6)
	.loc 1 719 289 is_stmt 1 discriminator 4
	.loc 1 719 306 is_stmt 0 discriminator 4
	addi	a0,a0,127
	sw	a0,-1632(a2)
.LBE263:
.LBB264:
	.loc 1 719 339 is_stmt 1 discriminator 4
.LVL487:
	.loc 1 719 379 discriminator 4
	.loc 1 719 395 is_stmt 0 discriminator 4
	li	a5,1
	sw	a5,0(s7)
	.loc 1 719 406 is_stmt 1 discriminator 4
	.loc 1 719 422 is_stmt 0 discriminator 4
	li	a0,-2147483648
	sw	s1,672(a0)
	.loc 1 719 428 is_stmt 1 discriminator 4
	.loc 1 719 445 is_stmt 0 discriminator 4
	sw	s1,1568(a3)
	.loc 1 719 461 is_stmt 1 discriminator 4
	.loc 1 719 478 is_stmt 0 discriminator 4
	sw	zero,-864(a4)
	.loc 1 719 487 is_stmt 1 discriminator 4
.LVL488:
	.loc 1 719 506 discriminator 4
	.loc 1 719 522 is_stmt 0 discriminator 4
	lw	a5,60(sp)
	.loc 1 719 584 discriminator 4
	li	a7,1036288
	addi	a7,a7,-1923
	.loc 1 719 522 discriminator 4
	sw	a5,544(a1)
	.loc 1 719 566 is_stmt 1 discriminator 4
	.loc 1 719 567 discriminator 4
.LBE264:
	.loc 1 719 633 is_stmt 0 discriminator 4
	li	a1,393216
	li	a5,-2147483648
.LBB265:
	.loc 1 719 584 discriminator 4
	sw	a7,-1632(a2)
.LBE265:
	.loc 1 719 616 is_stmt 1 discriminator 4
	.loc 1 719 617 discriminator 4
	.loc 1 719 633 is_stmt 0 discriminator 4
	addi	a1,a1,1
	sw	a1,20(a5)
	.loc 1 665 50 is_stmt 1 discriminator 6
	addi	a5,t3,32
	sw	a5,20(sp)
.LVL489:
	.loc 1 665 26 discriminator 5
	.loc 1 665 40 is_stmt 0 discriminator 5
	beq	t1,zero,.L225
.LVL490:
.L201:
	.loc 1 665 40 discriminator 7
	lw	a5,4(s5)
	.loc 1 665 26 discriminator 10
	lw	a4,20(sp)
	bge	a4,a5,.L177
	.loc 1 667 7 is_stmt 1
	.loc 1 667 25 is_stmt 0 discriminator 1
	sub	a5,a5,a4
	mv	a4,a5
	sw	a5,28(sp)
.LVL491:
	.loc 1 668 7 is_stmt 1
	.loc 1 668 9 is_stmt 0
	li	a5,32
	mv	s0,a4
	ble	a4,a5,.L175
	li	s0,32
.LVL492:
	.loc 1 671 7 is_stmt 1
	j	.L175
.LVL493:
.L223:
	.loc 1 714 1
	.loc 1 714 271
	.loc 1 714 292 is_stmt 0 discriminator 8
	sw	s9,0(a6)
	.loc 1 714 326 is_stmt 1 discriminator 8
	.loc 1 714 339 discriminator 9
	.loc 1 714 355 is_stmt 0 discriminator 9
	sw	t6,0(a2)
	.loc 1 695 39 is_stmt 1 discriminator 2
.LVL494:
	.loc 1 695 28 is_stmt 0 discriminator 2
	addi	a5,a5,1
.LVL495:
	.loc 1 695 35 discriminator 2
	addi	t1,t1,4
.LVL496:
	.loc 1 695 43 discriminator 2
	addi	a0,a0,128
.LVL497:
	.loc 1 695 20 is_stmt 1 discriminator 1
	blt	a5,s0,.L193
	j	.L220
.LVL498:
.L207:
	mv	a3,s2
	li	a4,64
	li	s4,63
	.loc 1 683 18 is_stmt 0
	sw	zero,16(sp)
	.loc 1 682 17
	li	t1,64
.LVL499:
	j	.L181
.LVL500:
.L208:
	.loc 1 714 150
	li	t2,-2147483648
	.loc 1 714 187
	li	t0,-2147483648
	.loc 1 714 268
	li	t6,-2147479552
	.loc 1 714 292 discriminator 8
	li	t5,-2147483648
	.loc 1 714 203
	lw	a6,48(sp)
	.loc 1 693 13
	lw	a0,44(sp)
	.loc 1 714 355 discriminator 9
	lw	s10,12(sp)
	.loc 1 695 15
	li	a5,0
.LVL501:
	.loc 1 701 23 discriminator 2
	neg	t4,t4
	.loc 1 714 150
	addi	t2,t2,1512
	.loc 1 714 187
	addi	t0,t0,1640
	.loc 1 714 268
	addi	t6,t6,-1816
	.loc 1 714 292 discriminator 8
	addi	t5,t5,1004
	li	s3,2
.LVL502:
	.loc 1 714 355 discriminator 9
	li	ra,5
	j	.L188
.LVL503:
.L217:
	.loc 1 714 22
	sw	a4,0(s10)
	.loc 1 714 39 is_stmt 1
	.loc 1 714 67 is_stmt 0
	sw	a6,0(a1)
	.loc 1 714 82 is_stmt 1
	.loc 1 714 104 is_stmt 0
	sw	a7,0(s11)
	.loc 1 714 129 is_stmt 1
	.loc 1 714 150 is_stmt 0
	sw	s8,0(t2)
	.loc 1 714 166 is_stmt 1
	.loc 1 714 187 is_stmt 0
	sw	a0,0(t0)
	.loc 1 714 203 is_stmt 1
	.loc 1 714 231 is_stmt 0
	sw	t3,0(a3)
	.loc 1 714 246 is_stmt 1
	.loc 1 714 268 is_stmt 0
	sw	zero,0(t6)
	.loc 1 714 271 is_stmt 1
	.loc 1 714 292 is_stmt 0 discriminator 8
	sw	s3,0(t5)
.LVL504:
.L221:
	.loc 1 714 326 is_stmt 1 discriminator 8
	.loc 1 695 39 discriminator 2
	.loc 1 695 28 is_stmt 0 discriminator 2
	addi	a5,a5,1
.LVL505:
	.loc 1 695 35 discriminator 2
	addi	t1,t1,4
.LVL506:
	.loc 1 695 43 discriminator 2
	addi	a0,a0,128
.LVL507:
	.loc 1 695 20 is_stmt 1 discriminator 1
	addi	a6,a6,2
	bge	a5,s0,.L220
.LVL508:
.L188:
	.loc 1 697 13
	.loc 1 699 13
	.loc 1 701 13
	.loc 1 714 1
	.loc 1 701 23 is_stmt 0 discriminator 2
	and	t3,t1,t4
.LVL509:
	.loc 1 709 13 is_stmt 1
	.loc 1 709 18 is_stmt 0
	bne	a5,s1,.L217
.LVL510:
	.loc 1 714 1 is_stmt 1
	.loc 1 714 22 is_stmt 0
	sw	a4,0(s10)
	.loc 1 714 39 is_stmt 1
	.loc 1 714 67 is_stmt 0
	sw	a6,0(a1)
	.loc 1 714 82 is_stmt 1
	.loc 1 714 104 is_stmt 0
	sw	a7,0(s11)
	.loc 1 714 129 is_stmt 1
	.loc 1 714 150 is_stmt 0
	sw	s8,0(t2)
	.loc 1 714 166 is_stmt 1
	.loc 1 714 187 is_stmt 0
	sw	a0,0(t0)
	.loc 1 714 203 is_stmt 1
	.loc 1 714 231 is_stmt 0
	sw	t3,0(a3)
	.loc 1 714 246 is_stmt 1
	.loc 1 714 268 is_stmt 0
	sw	zero,0(t6)
	.loc 1 714 271 is_stmt 1
	.loc 1 714 292 is_stmt 0 discriminator 8
	sw	s9,0(t5)
	.loc 1 714 326 is_stmt 1 discriminator 8
	.loc 1 714 339 discriminator 9
	.loc 1 714 355 is_stmt 0 discriminator 9
	sw	ra,0(a2)
	.loc 1 695 39 is_stmt 1 discriminator 2
	j	.L221
.LVL511:
.L209:
	.loc 1 714 292 is_stmt 0 discriminator 8
	lw	s10,12(sp)
	.loc 1 695 15
	li	a5,0
.LVL512:
	.loc 1 714 150
	addi	t5,t5,1512
	.loc 1 714 187
	addi	t4,t4,1640
	.loc 1 714 268
	addi	t3,t3,-1816
	.loc 1 714 292 discriminator 8
	addi	a6,a6,1004
	.loc 1 714 355 discriminator 9
	li	t0,5
	.loc 1 714 292 discriminator 8
	li	t6,2
.LVL513:
.L189:
	.loc 1 697 13 is_stmt 1
	.loc 1 701 13
	.loc 1 709 13
	.loc 1 714 1
	.loc 1 714 22 is_stmt 0
	sw	a4,0(s10)
	.loc 1 714 39 is_stmt 1
	.loc 1 714 67 is_stmt 0
	sw	t1,0(a1)
	.loc 1 714 82 is_stmt 1
	.loc 1 714 104 is_stmt 0
	sw	a7,0(s11)
	.loc 1 714 129 is_stmt 1
	.loc 1 714 150 is_stmt 0
	sw	s8,0(t5)
	.loc 1 714 166 is_stmt 1
	.loc 1 714 187 is_stmt 0
	sw	a0,0(t4)
	.loc 1 714 203 is_stmt 1
	.loc 1 714 231 is_stmt 0
	sw	t1,0(a3)
	.loc 1 714 246 is_stmt 1
	.loc 1 714 268 is_stmt 0
	sw	zero,0(t3)
	.loc 1 709 18
	beq	a5,s1,.L194
.L226:
	.loc 1 714 271 is_stmt 1
	.loc 1 714 292 is_stmt 0 discriminator 8
	sw	t6,0(a6)
	.loc 1 714 326 is_stmt 1 discriminator 8
	.loc 1 695 39 discriminator 2
	.loc 1 695 28 is_stmt 0 discriminator 2
	addi	a5,a5,1
.LVL514:
	.loc 1 695 35 discriminator 2
	addi	t1,t1,4
.LVL515:
	.loc 1 695 43 discriminator 2
	addi	a0,a0,128
.LVL516:
	.loc 1 695 20 is_stmt 1 discriminator 1
	bge	a5,s0,.L220
	.loc 1 697 13
	.loc 1 701 13
	.loc 1 709 13
	.loc 1 714 1
	.loc 1 714 22 is_stmt 0
	sw	a4,0(s10)
	.loc 1 714 39 is_stmt 1
	.loc 1 714 67 is_stmt 0
	sw	t1,0(a1)
	.loc 1 714 82 is_stmt 1
	.loc 1 714 104 is_stmt 0
	sw	a7,0(s11)
	.loc 1 714 129 is_stmt 1
	.loc 1 714 150 is_stmt 0
	sw	s8,0(t5)
	.loc 1 714 166 is_stmt 1
	.loc 1 714 187 is_stmt 0
	sw	a0,0(t4)
	.loc 1 714 203 is_stmt 1
	.loc 1 714 231 is_stmt 0
	sw	t1,0(a3)
	.loc 1 714 246 is_stmt 1
	.loc 1 714 268 is_stmt 0
	sw	zero,0(t3)
	.loc 1 709 18
	bne	a5,s1,.L226
.L194:
.LVL517:
	.loc 1 714 1 is_stmt 1
	.loc 1 714 271
	.loc 1 714 292 is_stmt 0 discriminator 8
	sw	s9,0(a6)
	.loc 1 714 326 is_stmt 1 discriminator 8
	.loc 1 714 339 discriminator 9
	.loc 1 714 355 is_stmt 0 discriminator 9
	sw	t0,0(a2)
	.loc 1 695 39 is_stmt 1 discriminator 2
	.loc 1 695 28 is_stmt 0 discriminator 2
	addi	a5,a5,1
.LVL518:
	.loc 1 695 35 discriminator 2
	addi	t1,t1,4
.LVL519:
	.loc 1 695 43 discriminator 2
	addi	a0,a0,128
.LVL520:
	.loc 1 695 20 is_stmt 1 discriminator 1
	blt	a5,s0,.L189
	j	.L220
.LVL521:
.L224:
.LBB266:
	.loc 1 719 141 is_stmt 0 discriminator 2
	addi	a5,s6,-1
	j	.L200
.LVL522:
.L177:
.LBE266:
	.loc 1 721 1 is_stmt 1
	.loc 1 721 2
	.loc 1 721 18 is_stmt 0
	li	a5,-2147483648
	li	a4,88
	sw	a4,20(a5)
.LVL523:
	.loc 1 722 1
	lw	ra,124(sp)
	.cfi_remember_state
	.cfi_restore 1
	lw	s0,120(sp)
	.cfi_restore 8
	lw	s1,116(sp)
	.cfi_restore 9
	lw	s2,112(sp)
	.cfi_restore 18
	lw	s3,108(sp)
	.cfi_restore 19
	lw	s4,104(sp)
	.cfi_restore 20
	lw	s5,100(sp)
	.cfi_restore 21
.LVL524:
	lw	s6,96(sp)
	.cfi_restore 22
	lw	s7,92(sp)
	.cfi_restore 23
	lw	s8,88(sp)
	.cfi_restore 24
	lw	s9,84(sp)
	.cfi_restore 25
	lw	s10,80(sp)
	.cfi_restore 26
	lw	s11,76(sp)
	.cfi_restore 27
	addi	sp,sp,128
	.cfi_def_cfa_offset 0
	jr	ra
.LVL525:
.L205:
	.cfi_restore_state
	.loc 1 665 20 discriminator 2
	sw	zero,20(sp)
	.loc 1 656 10
	li	s8,0
	j	.L172
	.cfi_endproc
.LFE17:
	.size	llm_dot_product_exe, .-llm_dot_product_exe
	.section	.rodata.str1.4,"aMS",@progbits,1
	.align	2
.LC0:
	.string	"(req->N%8)==0"
	.align	2
.LC1:
	.string	"apps/llm/kernels/llm.m.c"
	.text
	.align	2
	.type	llm_dot_product2_exe, @function
llm_dot_product2_exe:
.LFB19:
	.loc 1 778 1 is_stmt 1
	.cfi_startproc
.LVL526:
	.loc 1 779 4
	.loc 1 780 4
	.loc 1 781 4
	.loc 1 782 4
	.loc 1 783 4
	.loc 1 784 4
	.loc 1 785 4
	.loc 1 786 4
	.loc 1 787 4
	.loc 1 778 1 is_stmt 0
	addi	sp,sp,-192
	.cfi_def_cfa_offset 192
	sw	s3,172(sp)
	sw	s7,156(sp)
	sw	ra,188(sp)
	sw	s0,184(sp)
	sw	s1,180(sp)
	sw	s2,176(sp)
	sw	s4,168(sp)
	sw	s5,164(sp)
	sw	s6,160(sp)
	sw	s8,152(sp)
	sw	s9,148(sp)
	sw	s10,144(sp)
	sw	s11,140(sp)
	.cfi_offset 19, -20
	.cfi_offset 23, -36
	.cfi_offset 1, -4
	.cfi_offset 8, -8
	.cfi_offset 9, -12
	.cfi_offset 18, -16
	.cfi_offset 20, -24
	.cfi_offset 21, -28
	.cfi_offset 22, -32
	.cfi_offset 24, -40
	.cfi_offset 25, -44
	.cfi_offset 26, -48
	.cfi_offset 27, -52
	.loc 1 798 4
	lw	a5,0(a0)
	.loc 1 778 1
	mv	s7,a0
.LVL527:
	.loc 1 788 4 is_stmt 1
	.loc 1 789 4
	.loc 1 790 4
	.loc 1 792 4
	.loc 1 778 1 is_stmt 0
	mv	s3,a1
	andi	a4,a5,7
	sw	a4,84(sp)
	.loc 1 792 6
	bne	a1,zero,.L282
.LVL528:
	.loc 1 798 4 is_stmt 1
	andi	a4,a5,7
	bne	a4,zero,.L258
	.loc 1 800 4
	.loc 1 802 17 is_stmt 0
	lw	a4,4(s7)
	.loc 1 800 7
	srli	a3,a5,31
	add	a3,a3,a5
	.loc 1 802 17
	addi	a4,a4,7
	.loc 1 802 6
	srai	a5,a4,31
	andi	a5,a5,7
	add	a5,a5,a4
	andi	a5,a5,-8
	.loc 1 800 7
	srai	s5,a3,1
.LVL529:
	.loc 1 802 4 is_stmt 1
	.loc 1 802 6 is_stmt 0
	sw	a5,80(sp)
.LVL530:
	.loc 1 804 4 is_stmt 1
	.loc 1 793 10 is_stmt 0
	li	s8,0
.LVL531:
.L257:
.LBB267:
	.loc 1 869 555 discriminator 4
	li	a5,8192
.LVL532:
	addi	a5,a5,-1824
	add	a5,s8,a5
	.loc 1 869 569 discriminator 4
	srli	s6,a5,1
	.loc 1 869 555 discriminator 4
	sw	a5,112(sp)
.LBE267:
.LBB268:
	.loc 1 831 153
	li	a5,16384
	addi	a5,a5,-1
	sw	a5,40(sp)
	.loc 1 831 270
	li	a5,65536
.LBE268:
.LBB269:
	.loc 1 837 1097
	addi	a4,s8,96
.LBE269:
.LBB270:
	.loc 1 831 270
	addi	a5,a5,-1
.LBE270:
	.loc 1 864 39
	li	a3,-2147483648
.LBB271:
	.loc 1 837 1097
	sw	a4,108(sp)
.LBE271:
.LBB272:
	.loc 1 824 214
	srli	a2,s8,1
.LBE272:
.LBB273:
	.loc 1 837 1109
	srli	a4,a4,1
.LBE273:
.LBB274:
	.loc 1 831 270
	sw	a5,44(sp)
.LBE274:
	.loc 1 864 39
	addi	a5,a3,104
.LBB275:
	.loc 1 824 214
	sw	a2,96(sp)
.LBE275:
.LBB276:
	.loc 1 837 1109
	sw	a4,100(sp)
.LBE276:
	.loc 1 864 39
	sw	a5,104(sp)
	sw	s6,124(sp)
	sw	s5,120(sp)
	mv	s9,s7
.LVL533:
.L230:
	.loc 1 804 26 is_stmt 1 discriminator 5
	.loc 1 804 40 is_stmt 0 discriminator 8
	lw	a5,120(sp)
	.loc 1 804 40 discriminator 5
	beq	s3,zero,.L254
	.loc 1 804 40 discriminator 7
	lw	a5,0(s9)
.L254:
	.loc 1 804 26 discriminator 10
	lw	a4,84(sp)
	bge	a4,a5,.L283
	.loc 1 806 7 is_stmt 1
.LVL534:
	.loc 1 807 7
	.loc 1 806 12 is_stmt 0 discriminator 4
	sub	s7,a5,a4
.LVL535:
	.loc 1 807 9
	li	a5,32
	ble	s7,a5,.L231
	li	s7,32
.LVL536:
.L231:
	.loc 1 809 7 is_stmt 1
	.loc 1 812 17 discriminator 1
.LBB277:
	.loc 1 869 29 is_stmt 0
	lw	a4,84(sp)
.LBE277:
.LBB278:
	.loc 1 869 359 discriminator 4
	addi	s4,s7,-1
.LBE278:
.LBB279:
	.loc 1 869 29
	add	a5,s7,a4
	.loc 1 869 23
	addi	a5,a5,-1
	.loc 1 869 38
	sub	a5,a5,a4
	sw	a5,88(sp)
.LBE279:
	.loc 1 812 17 discriminator 1
	lw	a5,80(sp)
	ble	a5,zero,.L252
.LBB280:
	.loc 1 831 478
	srai	a5,s7,2
	sw	a5,92(sp)
	.loc 1 831 483
	addi	a5,a5,-1
	sw	a5,12(sp)
	lw	a5,80(sp)
	.loc 1 831 153
	li	a4,-2147479552
	.loc 1 831 270
	li	a3,-2147483648
	sw	a5,16(sp)
	.loc 1 831 153
	addi	a5,a4,-1760
	sw	a5,20(sp)
	.loc 1 831 270
	addi	a5,a3,1952
	.loc 1 831 483
	sw	zero,8(sp)
	.loc 1 831 270
	sw	a5,32(sp)
	sw	s7,76(sp)
	sw	s4,36(sp)
	sw	s3,116(sp)
.LVL537:
.L251:
	lw	a3,8(sp)
.LBE280:
	.loc 1 815 12
	lw	a1,16(sp)
	li	a4,48
	mv	a5,a3
.LVL538:
	.loc 1 814 10 is_stmt 1
	.loc 1 815 10
	mv	t4,a3
	addi	a3,a3,48
.LVL539:
	sw	a3,8(sp)
	.loc 1 815 12 is_stmt 0
	bgt	a1,a4,.L261
	.loc 1 827 26
	addi	t3,a1,3
	.loc 1 827 15
	srai	t3,t3,2
.LBB281:
	.loc 1 831 361
	addi	a3,t3,-1
	sw	a3,4(sp)
.LBE281:
.LBB282:
	.loc 1 831 789
	lw	a3,80(sp)
	.loc 1 831 794
	slli	a4,t3,2
	.loc 1 831 789
	add	t5,a4,a5
	addi	a2,a1,-1
	mv	a4,a1
.LBE282:
	.loc 1 816 18
	li	t6,1
.L235:
.LVL540:
.LBB283:
	.loc 1 824 3 is_stmt 1
	.loc 1 824 42
	.loc 1 824 58 is_stmt 0
	li	t1,-2147483648
	li	t0,1
	sw	t0,1056(t1)
	.loc 1 824 69 is_stmt 1
	.loc 1 824 85 is_stmt 0
	li	a7,-2147483648
	sw	a2,672(a7)
	.loc 1 824 91 is_stmt 1
	.loc 1 824 108 is_stmt 0
	li	a6,-2147483648
	sw	a2,1568(a6)
	.loc 1 824 123 is_stmt 1
	.loc 1 824 140 is_stmt 0
	li	a0,-2147479552
	sw	zero,-864(a0)
	.loc 1 824 149 is_stmt 1
.LVL541:
	.loc 1 824 168
	.loc 1 824 184 is_stmt 0
	lw	a2,96(sp)
	li	a1,-2147483648
	.loc 1 824 249
	li	s7,-2147479552
	.loc 1 824 184
	sw	a2,544(a1)
	.loc 1 824 231 is_stmt 1
	.loc 1 824 232
	.loc 1 824 284 is_stmt 0
	li	t2,1036288
	.loc 1 824 249
	sw	a4,-736(s7)
	.loc 1 824 267 is_stmt 1
	.loc 1 824 284 is_stmt 0
	addi	t2,t2,-1921
	sw	t2,56(sp)
	li	a2,-2147479552
	sw	t2,-1632(a2)
.LBE283:
.LBB284:
	.loc 1 824 317 is_stmt 1
.LVL542:
	.loc 1 824 364
	.loc 1 824 337 is_stmt 0
	addi	a3,a3,-1
.LVL543:
	.loc 1 824 380
	sw	t0,1056(t1)
	.loc 1 824 391 is_stmt 1
	.loc 1 824 351 is_stmt 0
	sub	a3,a3,a5
.LVL544:
	.loc 1 824 407
	sw	a3,672(a7)
	.loc 1 824 413 is_stmt 1
	.loc 1 824 441 is_stmt 0
	lw	a3,4(s9)
	.loc 1 824 571
	li	ra,1036288
	addi	ra,ra,125
	.loc 1 824 441
	addi	a3,a3,-1
	.loc 1 824 443
	sub	a3,a3,a5
	.loc 1 824 430
	sw	a3,1568(a6)
	.loc 1 824 449 is_stmt 1
	.loc 1 824 466 is_stmt 0
	sw	t4,-864(a0)
	.loc 1 824 475 is_stmt 1
.LVL545:
	.loc 1 824 494
	.loc 1 824 536 is_stmt 0
	lw	a3,8(s9)
.LBE284:
	.loc 1 824 620
	li	s1,393216
	li	s3,-2147483648
.LBB285:
	.loc 1 824 536
	srli	a3,a3,1
	.loc 1 824 515
	add	a3,a3,t4
	.loc 1 824 510
	sw	a3,544(a1)
	.loc 1 824 553 is_stmt 1
	.loc 1 824 554
	.loc 1 824 571 is_stmt 0
	sw	ra,60(sp)
	sw	ra,-1632(a2)
.LBE285:
	.loc 1 824 603 is_stmt 1
	.loc 1 824 604
	.loc 1 824 620 is_stmt 0
	addi	a3,s1,1
	sw	a3,24(sp)
	sw	a3,20(s3)
	.loc 1 826 10 is_stmt 1
.LVL546:
	.loc 1 827 10
.LBB286:
	.loc 1 831 3
	.loc 1 831 84
	.loc 1 831 101 is_stmt 0
	li	s0,-2147479552
	li	t4,4096
	sw	t4,-2016(s0)
	.loc 1 831 113 is_stmt 1
	.loc 1 831 130 is_stmt 0
	li	ra,-2147479552
	li	t4,3
	sw	t4,-1888(ra)
	.loc 1 831 136 is_stmt 1
	.loc 1 831 153 is_stmt 0
	lw	a3,20(sp)
	lw	s1,40(sp)
	.loc 1 831 190
	li	t2,-2147479552
	.loc 1 831 219
	li	s2,-2147483648
	.loc 1 831 153
	sw	s1,0(a3)
	.loc 1 831 173 is_stmt 1
	.loc 1 831 190 is_stmt 0
	sw	zero,-992(t2)
	.loc 1 831 202 is_stmt 1
	.loc 1 831 219 is_stmt 0
	addi	s1,s2,1696
	sw	s1,28(sp)
	li	s2,256
	sw	s2,0(s1)
	.loc 1 831 230 is_stmt 1
	.loc 1 831 247 is_stmt 0
	li	s6,-2147483648
	sw	t4,1824(s6)
	.loc 1 831 253 is_stmt 1
	.loc 1 831 708 is_stmt 0
	lw	s4,92(sp)
	.loc 1 831 270
	lw	s11,32(sp)
	.loc 1 831 308
	li	s5,-2147479552
	.loc 1 831 708
	mul	t3,s4,t3
	.loc 1 831 270
	lw	s4,44(sp)
	.loc 1 831 381
	li	s10,-2147483648
	.loc 1 831 407
	li	a3,95
	.loc 1 831 270
	sw	s4,0(s11)
	.loc 1 831 291 is_stmt 1
	.loc 1 831 308 is_stmt 0
	sw	zero,-1120(s5)
	.loc 1 831 319 is_stmt 1
	.loc 1 831 335 is_stmt 0
	lw	s2,4(sp)
	li	s4,-2147483648
	.loc 1 831 381
	addi	s11,s10,800
	.loc 1 831 335
	sw	s2,928(s4)
	.loc 1 831 365 is_stmt 1
	.loc 1 831 381 is_stmt 0
	li	s10,8
	sw	s10,0(s11)
	.loc 1 831 390 is_stmt 1
	.loc 1 831 407 is_stmt 0
	li	s2,-2147483648
	sw	a3,1440(s2)
	.loc 1 831 411 is_stmt 1
	.loc 1 831 428 is_stmt 0
	li	s1,-2147479552
	sw	zero,-1248(s1)
	.loc 1 831 431 is_stmt 1
	.loc 1 831 447 is_stmt 0
	lw	s10,12(sp)
	.loc 1 831 639
	slli	t3,t3,4
.LBE286:
	.loc 1 824 620
	addi	s3,s3,20
.LBB287:
	.loc 1 831 447
	sw	s10,672(a7)
	.loc 1 831 487 is_stmt 1
	.loc 1 831 503 is_stmt 0
	sw	t0,1056(t1)
	.loc 1 831 512 is_stmt 1
	.loc 1 831 529 is_stmt 0
	sw	a3,1568(a6)
	.loc 1 831 533 is_stmt 1
	.loc 1 831 550 is_stmt 0
	sw	zero,-864(a0)
	.loc 1 831 553 is_stmt 1
	.loc 1 831 569 is_stmt 0
	sw	zero,544(a1)
	.loc 1 831 607 is_stmt 1
	.loc 1 831 624 is_stmt 0
	sw	t3,48(sp)
	.loc 1 831 730
	li	a3,1032192
	.loc 1 831 624
	sw	t3,-736(s7)
	.loc 1 831 713 is_stmt 1
	.loc 1 831 730 is_stmt 0
	addi	a3,a3,127
	sw	a3,-1632(a2)
.LBE287:
.LBB288:
	.loc 1 831 763 is_stmt 1
.LVL547:
	.loc 1 831 860
	.loc 1 831 895 is_stmt 0
	lw	t3,16(s9)
	.loc 1 831 783
	addi	a3,t5,-1
.LVL548:
	.loc 1 831 803
	sub	a3,a3,a5
.LVL549:
	.loc 1 831 877
	sw	t3,-2016(s0)
.LVL550:
	.loc 1 831 900 is_stmt 1
	.loc 1 831 917 is_stmt 0
	sw	a3,-1888(ra)
	.loc 1 831 923 is_stmt 1
	.loc 1 831 951 is_stmt 0
	lw	t5,4(s9)
.LVL551:
	.loc 1 831 956
	lw	a3,16(s9)
.LBE288:
.LBB289:
	.loc 1 837 1854
	li	t3,1032192
.LBE289:
.LBB290:
	.loc 1 831 951
	sub	t5,t5,a5
	.loc 1 831 956
	mul	t5,t5,a3
.LBE290:
.LBB291:
	.loc 1 837 1854
	mv	s10,t3
.LBE291:
.LBB292:
	.loc 1 831 940
	lw	t3,20(sp)
.LBE292:
	.loc 1 864 156
	seqz	a3,a5
	neg	a3,a3
	andi	a3,a3,-8
	addi	a3,a3,24
	ori	a3,a3,6
.LBB293:
	.loc 1 837 1854
	addi	s10,s10,1149
.LBE293:
	.loc 1 864 156
	slli	a3,a3,7
.LBB294:
	.loc 1 831 974
	addi	t5,t5,-1
	.loc 1 831 940
	sw	t5,0(t3)
	.loc 1 831 977 is_stmt 1
	.loc 1 831 998 is_stmt 0
	lw	t3,16(s9)
.LBE294:
	.loc 1 864 39
	addi	t5,t6,-1
	andi	t5,t5,16
.LBB295:
	.loc 1 831 998
	mul	t3,a5,t3
.LBE295:
	.loc 1 864 39
	addi	t5,t5,8
	slli	t5,t5,7
	sw	t5,68(sp)
.LBB296:
	.loc 1 837 1854
	sw	s10,64(sp)
.LBE296:
	.loc 1 864 156
	sw	a3,72(sp)
.LBB297:
	.loc 1 831 998
	sw	t3,52(sp)
	.loc 1 831 994
	lw	t5,52(sp)
.LBE297:
	.loc 1 840 26
	li	t3,8192
	addi	t3,t3,-1952
.LBB298:
	.loc 1 831 994
	sw	t5,-992(t2)
	.loc 1 831 1017 is_stmt 1
	.loc 1 831 1033 is_stmt 0
	sw	t0,1056(t1)
	.loc 1 831 1044 is_stmt 1
	.loc 1 831 1060 is_stmt 0
	lw	t5,88(sp)
	sw	t5,672(a7)
	.loc 1 831 1066 is_stmt 1
	.loc 1 831 1098 is_stmt 0
	lw	a3,16(s9)
	.loc 1 831 1100
	lw	s10,84(sp)
	.loc 1 831 1098
	addi	a3,a3,-1
	.loc 1 831 1100
	sub	a3,a3,s10
	.loc 1 831 1083
	sw	a3,1568(a6)
	.loc 1 831 1106 is_stmt 1
	.loc 1 831 1123 is_stmt 0
	sw	s10,-864(a0)
	.loc 1 831 1132 is_stmt 1
.LVL552:
	.loc 1 831 1173
	.loc 1 831 1144 is_stmt 0
	lw	a3,16(s9)
	.loc 1 831 1215
	lw	t5,12(s9)
	.loc 1 831 1144
	mul	a3,a5,a3
	.loc 1 831 1215
	srli	t5,t5,1
	.loc 1 831 1136
	add	a3,a3,s10
	.loc 1 831 1194
	add	a3,a3,t5
	.loc 1 831 1189
	sw	a3,544(a1)
.LVL553:
	.loc 1 831 1232 is_stmt 1
	.loc 1 831 1233
	.loc 1 831 1250 is_stmt 0
	lw	t5,60(sp)
.LBE298:
	.loc 1 833 18
	li	a3,88
.LBB299:
	.loc 1 831 1250
	sw	t5,-1632(a2)
.LBE299:
	.loc 1 831 1282 is_stmt 1
	.loc 1 831 1283
	.loc 1 831 1299 is_stmt 0
	lw	t5,24(sp)
	sw	t5,0(s3)
	.loc 1 833 1 is_stmt 1
	.loc 1 833 2
	.loc 1 833 18 is_stmt 0
	sw	a3,0(s3)
.LBB300:
	.loc 1 837 3 is_stmt 1
.LVL554:
	.loc 1 837 166
	.loc 1 837 183 is_stmt 0
	li	a3,384
	sw	a3,-2016(s0)
	.loc 1 837 252 is_stmt 1
	.loc 1 837 269 is_stmt 0
	sw	t4,-1888(ra)
	.loc 1 837 275 is_stmt 1
	.loc 1 837 292 is_stmt 0
	lw	t5,20(sp)
	li	a3,1535
	sw	a3,0(t5)
	.loc 1 837 377 is_stmt 1
	.loc 1 837 394 is_stmt 0
	sw	zero,-992(t2)
	.loc 1 837 463 is_stmt 1
	.loc 1 837 479 is_stmt 0
	sw	s11,52(sp)
	li	a3,48
	sw	a3,0(s11)
	.loc 1 837 516 is_stmt 1
	.loc 1 837 532 is_stmt 0
	lw	s10,12(sp)
	.loc 1 837 555
	li	a3,383
	.loc 1 837 532
	sw	s10,928(s4)
	.loc 1 837 538 is_stmt 1
	.loc 1 837 555 is_stmt 0
	sw	a3,1440(s2)
	.loc 1 837 628 is_stmt 1
	.loc 1 837 645 is_stmt 0
	sw	zero,-1248(s1)
	.loc 1 837 682 is_stmt 1
	.loc 1 837 699 is_stmt 0
	lw	s11,28(sp)
	li	a3,4
	sw	a3,0(s11)
	.loc 1 837 712 is_stmt 1
	.loc 1 837 729 is_stmt 0
	lw	s11,4(sp)
	.loc 1 837 752
	li	a3,47
	.loc 1 837 729
	sw	s11,1824(s6)
	.loc 1 837 735 is_stmt 1
	.loc 1 837 752 is_stmt 0
	lw	s11,32(sp)
	sw	a3,0(s11)
	.loc 1 837 793 is_stmt 1
	.loc 1 837 810 is_stmt 0
	sw	zero,-1120(s5)
	.loc 1 837 823 is_stmt 1
	.loc 1 837 839 is_stmt 0
	sw	t0,1056(t1)
	.loc 1 837 850 is_stmt 1
	.loc 1 837 866 is_stmt 0
	sw	t4,672(a7)
	.loc 1 837 872 is_stmt 1
	.loc 1 837 889 is_stmt 0
	sw	t4,1568(a6)
	.loc 1 837 902 is_stmt 1
	.loc 1 837 919 is_stmt 0
	sw	zero,-864(a0)
	.loc 1 837 928 is_stmt 1
.LVL555:
	.loc 1 837 1063
	.loc 1 837 1079 is_stmt 0
	lw	a3,100(sp)
	sw	a3,544(a1)
	.loc 1 837 1126 is_stmt 1
	.loc 1 837 1127
	.loc 1 837 1144 is_stmt 0
	lw	s10,48(sp)
.LBE300:
.LBB301:
	.loc 1 837 1637
	li	a3,95
.LBE301:
.LBB302:
	.loc 1 837 1144
	sw	s10,-736(s7)
	.loc 1 837 1183 is_stmt 1
	.loc 1 837 1200 is_stmt 0
	lw	s7,56(sp)
	sw	s7,-1632(a2)
.LBE302:
.LBB303:
	.loc 1 837 1233 is_stmt 1
.LVL556:
	.loc 1 837 1314
	.loc 1 837 1331 is_stmt 0
	li	s7,4096
	sw	s7,-2016(s0)
	.loc 1 837 1343 is_stmt 1
	.loc 1 837 1360 is_stmt 0
	sw	t4,-1888(ra)
	.loc 1 837 1366 is_stmt 1
	.loc 1 837 1383 is_stmt 0
	lw	ra,40(sp)
	sw	ra,0(t5)
	.loc 1 837 1403 is_stmt 1
	.loc 1 837 1420 is_stmt 0
	sw	zero,-992(t2)
	.loc 1 837 1432 is_stmt 1
	.loc 1 837 1448 is_stmt 0
	li	t2,256
	sw	t2,1056(t1)
	.loc 1 837 1459 is_stmt 1
	.loc 1 837 1475 is_stmt 0
	sw	t4,672(a7)
	.loc 1 837 1481 is_stmt 1
	.loc 1 837 1498 is_stmt 0
	lw	a7,44(sp)
	sw	a7,1568(a6)
	.loc 1 837 1519 is_stmt 1
	.loc 1 837 1536 is_stmt 0
	sw	zero,-864(a0)
	.loc 1 837 1547 is_stmt 1
	.loc 1 837 1564 is_stmt 0
	lw	a6,4(sp)
	sw	a6,1824(s6)
	.loc 1 837 1594 is_stmt 1
	.loc 1 837 1611 is_stmt 0
	lw	a0,28(sp)
	li	a6,8
	sw	a6,0(a0)
	.loc 1 837 1620 is_stmt 1
	.loc 1 837 1637 is_stmt 0
	sw	a3,0(s11)
	.loc 1 837 1641 is_stmt 1
	.loc 1 837 1658 is_stmt 0
	sw	zero,-1120(s5)
	.loc 1 837 1661 is_stmt 1
	.loc 1 837 1677 is_stmt 0
	lw	s10,12(sp)
	sw	s10,928(s4)
	.loc 1 837 1717 is_stmt 1
	.loc 1 837 1733 is_stmt 0
	lw	s11,52(sp)
	sw	t0,0(s11)
	.loc 1 837 1742 is_stmt 1
	.loc 1 837 1759 is_stmt 0
	sw	a3,1440(s2)
	.loc 1 837 1763 is_stmt 1
	.loc 1 837 1780 is_stmt 0
	sw	zero,-1248(s1)
	.loc 1 837 1783 is_stmt 1
	.loc 1 837 1799 is_stmt 0
	sw	zero,544(a1)
	.loc 1 837 1837 is_stmt 1
	.loc 1 837 1854 is_stmt 0
	lw	s10,64(sp)
.LBE303:
	.loc 1 840 26
	add	a3,s8,t3
.LBB304:
	.loc 1 837 1854
	sw	s10,-1632(a2)
.LBE304:
	.loc 1 837 1886 is_stmt 1
	.loc 1 837 1887
	.loc 1 837 1903 is_stmt 0
	lw	t5,24(sp)
	sw	t5,0(s3)
	.loc 1 840 10 is_stmt 1
.LVL557:
	.loc 1 842 10
	.loc 1 844 10
	.loc 1 846 10
	.loc 1 846 20 discriminator 1
	.loc 1 864 39 is_stmt 0
	lw	a2,104(sp)
	lw	t5,68(sp)
	.loc 1 864 156
	lw	a1,72(sp)
	.loc 1 864 39
	add	a6,t5,a2
	.loc 1 864 156
	add	a7,a1,a2
	beq	a5,zero,.L284
	lw	a1,112(sp)
	.loc 1 842 13
	lw	a2,108(sp)
	.loc 1 864 337 discriminator 9
	lw	s11,76(sp)
	lw	s10,36(sp)
	.loc 1 864 22
	li	ra,-2147483648
	.loc 1 864 103
	li	t2,-2147483648
	.loc 1 864 140
	li	t0,-2147483648
	.loc 1 864 221
	li	t5,-2147479552
	.loc 1 864 245
	li	t4,-2147483648
	li	t3,16384
	.loc 1 864 274 discriminator 8
	li	t1,-2147483648
	.loc 1 846 15
	li	a5,0
.LVL558:
	.loc 1 864 22
	addi	ra,ra,1000
	.loc 1 864 103
	addi	t2,t2,1512
	.loc 1 864 140
	addi	t0,t0,1640
	.loc 1 864 221
	addi	t5,t5,-1816
	.loc 1 864 245
	addi	t4,t4,360
	addi	t3,t3,-128
	.loc 1 864 274 discriminator 8
	addi	t1,t1,1004
	li	s2,2
	li	s1,1
	.loc 1 864 337 discriminator 9
	li	s0,5
.LVL559:
.L240:
	.loc 1 848 13 is_stmt 1
	.loc 1 848 51 is_stmt 0 discriminator 2
	mv	a0,a3
	.loc 1 848 51
	beq	t6,zero,.L248
.LVL560:
	.loc 1 848 51 discriminator 1
	mv	a0,a1
.LVL561:
.L248:
	.loc 1 852 13 is_stmt 1
	.loc 1 861 13
	.loc 1 861 19 is_stmt 0
	beq	a5,s10,.L285
.LVL562:
	.loc 1 864 1 is_stmt 1
	.loc 1 864 22 is_stmt 0
	sw	a4,0(ra)
	.loc 1 864 39 is_stmt 1
	.loc 1 864 67 is_stmt 0
	sw	a0,0(a6)
	.loc 1 864 82 is_stmt 1
	.loc 1 864 103 is_stmt 0
	sw	a2,0(t2)
	.loc 1 864 119 is_stmt 1
	.loc 1 864 140 is_stmt 0
	sw	s8,0(t0)
	.loc 1 864 156 is_stmt 1
	.loc 1 864 184 is_stmt 0
	sw	a3,0(a7)
	.loc 1 864 199 is_stmt 1
	.loc 1 864 221 is_stmt 0
	sw	zero,0(t5)
	.loc 1 864 224 is_stmt 1
	.loc 1 864 245 is_stmt 0
	sw	t3,0(t4)
	.loc 1 864 253 is_stmt 1
	.loc 1 864 274 is_stmt 0 discriminator 8
	sw	s2,0(t1)
.LVL563:
.L279:
	.loc 1 864 308 is_stmt 1 discriminator 8
	.loc 1 846 37 discriminator 2
	.loc 1 846 28 is_stmt 0 discriminator 2
	addi	a5,a5,1
.LVL564:
	.loc 1 846 34 discriminator 2
	addi	a3,a3,4
.LVL565:
	.loc 1 846 40 discriminator 2
	addi	a2,a2,96
.LVL566:
	.loc 1 846 20 is_stmt 1 discriminator 1
	addi	a1,a1,2
	bne	s11,a5,.L240
.LVL567:
.L277:
	.loc 1 867 10 is_stmt 0
	li	a5,-2147483648
	sw	s11,76(sp)
	sw	s10,36(sp)
	.loc 1 867 10 is_stmt 1
	sw	zero,36(a5)
	.loc 1 867 10
	call	_taskYield
.LVL568:
	.loc 1 867 24 discriminator 1
	.loc 1 812 23 discriminator 2
	.loc 1 812 17 discriminator 1
	lw	a5,16(sp)
	lw	a4,8(sp)
	addi	a5,a5,-48
	sw	a5,16(sp)
	lw	a5,80(sp)
	bgt	a5,a4,.L251
	lw	s4,36(sp)
	lw	s3,116(sp)
.LVL569:
.L252:
.LBB305:
	.loc 1 869 3
	.loc 1 869 51
	.loc 1 869 67 is_stmt 0
	li	a4,-2147483648
	li	a3,1
	sw	a3,1056(a4)
.LVL570:
	.loc 1 869 78 is_stmt 1
	.loc 1 869 94 is_stmt 0
	lw	a4,88(sp)
	li	a5,-2147483648
	sw	a4,672(a5)
	.loc 1 869 100 is_stmt 1
	.loc 1 869 141 is_stmt 0
	beq	s3,zero,.L286
	.loc 1 869 141 discriminator 1
	lw	a5,0(s9)
	addi	a5,a5,-1
.L253:
	.loc 1 869 143 discriminator 4
	lw	t1,84(sp)
	.loc 1 869 117 discriminator 4
	li	a3,-2147483648
	.loc 1 869 166 discriminator 4
	li	a4,-2147479552
	.loc 1 869 143 discriminator 4
	sub	a5,a5,t1
	.loc 1 869 117 discriminator 4
	sw	a5,1568(a3)
	.loc 1 869 149 is_stmt 1 discriminator 4
	.loc 1 869 166 is_stmt 0 discriminator 4
	sw	t1,-864(a4)
	.loc 1 869 175 is_stmt 1 discriminator 4
.LVL571:
	.loc 1 869 194 discriminator 4
	.loc 1 869 236 is_stmt 0 discriminator 4
	lw	a5,20(s9)
	.loc 1 869 210 discriminator 4
	li	a1,-2147483648
	.loc 1 869 271 discriminator 4
	li	a6,-2147479552
	.loc 1 869 236 discriminator 4
	srli	a5,a5,1
	.loc 1 869 215 discriminator 4
	add	a5,a5,t1
	.loc 1 869 210 discriminator 4
	sw	a5,544(a1)
	.loc 1 869 253 is_stmt 1 discriminator 4
	.loc 1 869 254 discriminator 4
	.loc 1 869 279 is_stmt 0 discriminator 4
	lw	a5,88(sp)
	.loc 1 869 306 discriminator 4
	li	a0,1036288
	li	a2,-2147479552
	.loc 1 869 279 discriminator 4
	addi	a5,a5,1
	.loc 1 869 271 discriminator 4
	sw	a5,-736(a6)
	.loc 1 869 289 is_stmt 1 discriminator 4
	.loc 1 869 306 is_stmt 0 discriminator 4
	addi	a0,a0,127
	sw	a0,-1632(a2)
.LBE305:
.LBB306:
	.loc 1 869 339 is_stmt 1 discriminator 4
.LVL572:
	.loc 1 869 379 discriminator 4
	.loc 1 869 395 is_stmt 0 discriminator 4
	li	a5,-2147483648
	li	a7,1
	sw	a7,1056(a5)
	.loc 1 869 406 is_stmt 1 discriminator 4
	.loc 1 869 422 is_stmt 0 discriminator 4
	li	a0,-2147483648
	sw	s4,672(a0)
	.loc 1 869 428 is_stmt 1 discriminator 4
	.loc 1 869 445 is_stmt 0 discriminator 4
	li	a5,31
	sw	a5,1568(a3)
	.loc 1 869 476 is_stmt 1 discriminator 4
	.loc 1 869 493 is_stmt 0 discriminator 4
	sw	zero,-864(a4)
	.loc 1 869 502 is_stmt 1 discriminator 4
.LVL573:
	.loc 1 869 521 discriminator 4
	.loc 1 869 537 is_stmt 0 discriminator 4
	lw	a5,124(sp)
	.loc 1 869 604 discriminator 4
	li	a7,1036288
	addi	a7,a7,-1923
	.loc 1 869 537 discriminator 4
	sw	a5,544(a1)
	.loc 1 869 586 is_stmt 1 discriminator 4
	.loc 1 869 587 discriminator 4
.LBE306:
	.loc 1 869 653 is_stmt 0 discriminator 4
	li	a1,393216
	li	a5,-2147483648
.LBB307:
	.loc 1 869 604 discriminator 4
	sw	a7,-1632(a2)
.LBE307:
	.loc 1 869 636 is_stmt 1 discriminator 4
	.loc 1 869 637 discriminator 4
	.loc 1 869 653 is_stmt 0 discriminator 4
	addi	a1,a1,1
	sw	a1,20(a5)
	.loc 1 804 51 is_stmt 1 discriminator 6
	addi	a5,t1,32
	sw	a5,84(sp)
.LVL574:
	j	.L230
.LVL575:
.L285:
	.loc 1 864 1
	.loc 1 864 22 is_stmt 0
	sw	a4,0(ra)
	.loc 1 864 39 is_stmt 1
	.loc 1 864 67 is_stmt 0
	sw	a0,0(a6)
	.loc 1 864 82 is_stmt 1
	.loc 1 864 103 is_stmt 0
	sw	a2,0(t2)
	.loc 1 864 119 is_stmt 1
	.loc 1 864 140 is_stmt 0
	sw	s8,0(t0)
	.loc 1 864 156 is_stmt 1
	.loc 1 864 184 is_stmt 0
	sw	a3,0(a7)
	.loc 1 864 199 is_stmt 1
	.loc 1 864 221 is_stmt 0
	sw	zero,0(t5)
	.loc 1 864 224 is_stmt 1
	.loc 1 864 245 is_stmt 0
	sw	t3,0(t4)
	.loc 1 864 253 is_stmt 1
	.loc 1 864 274 is_stmt 0 discriminator 8
	sw	s1,0(t1)
	.loc 1 864 308 is_stmt 1 discriminator 8
	.loc 1 864 321 discriminator 9
	.loc 1 864 337 is_stmt 0 discriminator 9
	sw	s0,0(s3)
	.loc 1 846 37 is_stmt 1 discriminator 2
	j	.L279
.LVL576:
.L261:
	li	a4,11
	sw	a4,4(sp)
	mv	t5,a3
	li	t3,12
	li	a4,48
	li	a2,47
	.loc 1 818 18 is_stmt 0
	li	t6,0
	j	.L235
.LVL577:
.L284:
	bne	t6,zero,.L263
	.loc 1 842 13
	lw	a2,108(sp)
	.loc 1 864 337 discriminator 9
	lw	s11,76(sp)
	lw	s10,36(sp)
	.loc 1 864 22
	li	t6,-2147483648
.LVL578:
	.loc 1 864 103
	li	t5,-2147483648
	.loc 1 864 140
	li	t4,-2147483648
	.loc 1 864 221
	li	t3,-2147479552
	.loc 1 864 245
	li	t1,-2147483648
	li	a0,16384
	.loc 1 864 274 discriminator 8
	li	a1,-2147483648
	.loc 1 864 22
	addi	t6,t6,1000
	.loc 1 864 103
	addi	t5,t5,1512
	.loc 1 864 140
	addi	t4,t4,1640
	.loc 1 864 221
	addi	t3,t3,-1816
	.loc 1 864 245
	addi	t1,t1,360
	addi	a0,a0,-128
	.loc 1 864 274 discriminator 8
	addi	a1,a1,1004
	li	ra,2
	li	t2,1
	.loc 1 864 337 discriminator 9
	li	t0,5
.LVL579:
.L245:
	.loc 1 848 13 is_stmt 1
	.loc 1 852 13
	.loc 1 861 13
	.loc 1 864 22 is_stmt 0
	sw	a4,0(t6)
	.loc 1 864 39 is_stmt 1
	.loc 1 864 67 is_stmt 0
	sw	a3,0(a6)
	.loc 1 864 82 is_stmt 1
	.loc 1 864 103 is_stmt 0
	sw	a2,0(t5)
	.loc 1 864 119 is_stmt 1
	.loc 1 864 140 is_stmt 0
	sw	s8,0(t4)
	.loc 1 864 156 is_stmt 1
	.loc 1 864 184 is_stmt 0
	sw	zero,0(a7)
	.loc 1 864 199 is_stmt 1
	.loc 1 864 221 is_stmt 0
	sw	zero,0(t3)
	.loc 1 864 224 is_stmt 1
	.loc 1 864 245 is_stmt 0
	sw	a0,0(t1)
	.loc 1 861 19
	beq	a5,s10,.L287
.L242:
.LVL580:
	.loc 1 864 1 is_stmt 1
	.loc 1 864 253
	.loc 1 864 274 is_stmt 0 discriminator 8
	sw	ra,0(a1)
	.loc 1 864 308 is_stmt 1 discriminator 8
	.loc 1 846 37 discriminator 2
.LVL581:
	.loc 1 846 28 is_stmt 0 discriminator 2
	addi	a5,a5,1
.LVL582:
	.loc 1 846 34 discriminator 2
	addi	a3,a3,4
.LVL583:
	.loc 1 846 40 discriminator 2
	addi	a2,a2,96
.LVL584:
	.loc 1 846 20 is_stmt 1 discriminator 1
	beq	s11,a5,.L277
	.loc 1 848 13
	.loc 1 852 13
	.loc 1 861 13
	.loc 1 864 22 is_stmt 0
	sw	a4,0(t6)
	.loc 1 864 39 is_stmt 1
	.loc 1 864 67 is_stmt 0
	sw	a3,0(a6)
	.loc 1 864 82 is_stmt 1
	.loc 1 864 103 is_stmt 0
	sw	a2,0(t5)
	.loc 1 864 119 is_stmt 1
	.loc 1 864 140 is_stmt 0
	sw	s8,0(t4)
	.loc 1 864 156 is_stmt 1
	.loc 1 864 184 is_stmt 0
	sw	zero,0(a7)
	.loc 1 864 199 is_stmt 1
	.loc 1 864 221 is_stmt 0
	sw	zero,0(t3)
	.loc 1 864 224 is_stmt 1
	.loc 1 864 245 is_stmt 0
	sw	a0,0(t1)
	.loc 1 861 19
	bne	a5,s10,.L242
.LVL585:
.L287:
	.loc 1 864 1 is_stmt 1
	.loc 1 864 253
	.loc 1 864 274 is_stmt 0 discriminator 8
	sw	t2,0(a1)
	.loc 1 864 308 is_stmt 1 discriminator 8
	.loc 1 864 321 discriminator 9
	.loc 1 864 337 is_stmt 0 discriminator 9
	sw	t0,0(s3)
	.loc 1 846 37 is_stmt 1 discriminator 2
.LVL586:
	.loc 1 846 28 is_stmt 0 discriminator 2
	addi	a5,a5,1
.LVL587:
	.loc 1 846 34 discriminator 2
	addi	a3,a3,4
.LVL588:
	.loc 1 846 40 discriminator 2
	addi	a2,a2,96
.LVL589:
	.loc 1 846 20 is_stmt 1 discriminator 1
	bne	s11,a5,.L245
	j	.L277
.LVL590:
.L263:
	.loc 1 864 156 is_stmt 0
	lw	a2,112(sp)
	.loc 1 842 13
	lw	a3,108(sp)
.LVL591:
	.loc 1 864 274 discriminator 8
	lw	s11,76(sp)
	lw	s10,36(sp)
	.loc 1 864 22
	li	t6,-2147483648
.LVL592:
	.loc 1 864 103
	li	t5,-2147483648
	.loc 1 864 140
	li	t4,-2147483648
	.loc 1 864 221
	li	t3,-2147479552
.LVL593:
	.loc 1 864 245
	li	t1,-2147483648
	li	a0,16384
	.loc 1 864 274 discriminator 8
	li	a1,-2147483648
	.loc 1 864 22
	addi	t6,t6,1000
	.loc 1 864 103
	addi	t5,t5,1512
	.loc 1 864 140
	addi	t4,t4,1640
	.loc 1 864 221
	addi	t3,t3,-1816
	.loc 1 864 245
	addi	t1,t1,360
	addi	a0,a0,-128
	.loc 1 864 274 discriminator 8
	addi	a1,a1,1004
	li	ra,1
	.loc 1 864 337 discriminator 9
	li	t2,5
	.loc 1 864 274 discriminator 8
	li	t0,2
.LVL594:
.L241:
	.loc 1 848 13 is_stmt 1
	.loc 1 850 13
	.loc 1 852 13
	.loc 1 861 13
	.loc 1 864 22 is_stmt 0
	sw	a4,0(t6)
	.loc 1 864 39 is_stmt 1
	.loc 1 864 67 is_stmt 0
	sw	a2,0(a6)
	.loc 1 864 82 is_stmt 1
	.loc 1 864 103 is_stmt 0
	sw	a3,0(t5)
	.loc 1 864 119 is_stmt 1
	.loc 1 864 140 is_stmt 0
	sw	s8,0(t4)
	.loc 1 864 156 is_stmt 1
	.loc 1 864 184 is_stmt 0
	sw	zero,0(a7)
	.loc 1 864 199 is_stmt 1
	.loc 1 864 221 is_stmt 0
	sw	zero,0(t3)
	.loc 1 864 224 is_stmt 1
	.loc 1 864 245 is_stmt 0
	sw	a0,0(t1)
	.loc 1 861 19
	beq	a5,s10,.L246
.L288:
.LVL595:
	.loc 1 864 1 is_stmt 1
	.loc 1 864 253
	.loc 1 864 274 is_stmt 0 discriminator 8
	sw	t0,0(a1)
	.loc 1 864 308 is_stmt 1 discriminator 8
	.loc 1 846 37 discriminator 2
.LVL596:
	.loc 1 846 28 is_stmt 0 discriminator 2
	addi	a5,a5,1
.LVL597:
	.loc 1 846 40 discriminator 2
	addi	a3,a3,96
.LVL598:
	.loc 1 846 20 is_stmt 1 discriminator 1
	addi	a2,a2,2
	beq	s11,a5,.L277
.LVL599:
	.loc 1 848 13
	.loc 1 850 13
	.loc 1 852 13
	.loc 1 861 13
	.loc 1 864 22 is_stmt 0
	sw	a4,0(t6)
	.loc 1 864 39 is_stmt 1
	.loc 1 864 67 is_stmt 0
	sw	a2,0(a6)
	.loc 1 864 82 is_stmt 1
	.loc 1 864 103 is_stmt 0
	sw	a3,0(t5)
	.loc 1 864 119 is_stmt 1
	.loc 1 864 140 is_stmt 0
	sw	s8,0(t4)
	.loc 1 864 156 is_stmt 1
	.loc 1 864 184 is_stmt 0
	sw	zero,0(a7)
	.loc 1 864 199 is_stmt 1
	.loc 1 864 221 is_stmt 0
	sw	zero,0(t3)
	.loc 1 864 224 is_stmt 1
	.loc 1 864 245 is_stmt 0
	sw	a0,0(t1)
	.loc 1 861 19
	bne	a5,s10,.L288
.LVL600:
.L246:
	.loc 1 864 1 is_stmt 1
	.loc 1 864 253
	.loc 1 864 274 is_stmt 0 discriminator 8
	sw	ra,0(a1)
	.loc 1 864 308 is_stmt 1 discriminator 8
	.loc 1 864 321 discriminator 9
	.loc 1 864 337 is_stmt 0 discriminator 9
	sw	t2,0(s3)
	.loc 1 846 37 is_stmt 1 discriminator 2
.LVL601:
	.loc 1 846 28 is_stmt 0 discriminator 2
	addi	a5,a5,1
.LVL602:
	.loc 1 846 40 discriminator 2
	addi	a3,a3,96
.LVL603:
	.loc 1 846 20 is_stmt 1 discriminator 1
	addi	a2,a2,2
	bne	s11,a5,.L241
	j	.L277
.LVL604:
.L286:
.LBB308:
	.loc 1 869 141 is_stmt 0 discriminator 2
	lw	a5,120(sp)
	addi	a5,a5,-1
	j	.L253
.LVL605:
.L283:
.LBE308:
	.loc 1 871 1
	lw	ra,188(sp)
	.cfi_remember_state
	.cfi_restore 1
	lw	s0,184(sp)
	.cfi_restore 8
	lw	s1,180(sp)
	.cfi_restore 9
	lw	s2,176(sp)
	.cfi_restore 18
	lw	s3,172(sp)
	.cfi_restore 19
	lw	s4,168(sp)
	.cfi_restore 20
	lw	s5,164(sp)
	.cfi_restore 21
	lw	s6,160(sp)
	.cfi_restore 22
	lw	s7,156(sp)
	.cfi_restore 23
	lw	s8,152(sp)
	.cfi_restore 24
	lw	s9,148(sp)
	.cfi_restore 25
.LVL606:
	lw	s10,144(sp)
	.cfi_restore 26
	lw	s11,140(sp)
	.cfi_restore 27
	addi	sp,sp,192
	.cfi_def_cfa_offset 0
.LVL607:
	jr	ra
.LVL608:
.L282:
	.cfi_restore_state
	.loc 1 795 7 is_stmt 1
	.loc 1 798 4
	andi	a4,a5,7
	bne	a4,zero,.L258
	.loc 1 800 4
	.loc 1 802 17 is_stmt 0
	lw	a4,4(s7)
	.loc 1 800 7
	srli	a3,a5,31
	add	a3,a3,a5
	.loc 1 802 17
	addi	a4,a4,7
	.loc 1 802 6
	srai	a5,a4,31
	andi	a5,a5,7
	add	a5,a5,a4
	.loc 1 800 7
	srai	s5,a3,1
	.loc 1 802 6
	andi	a5,a5,-8
	.loc 1 800 7
	sw	s5,84(sp)
.LVL609:
	.loc 1 802 4 is_stmt 1
	.loc 1 802 6 is_stmt 0
	sw	a5,80(sp)
.LVL610:
	.loc 1 804 4 is_stmt 1
	.loc 1 795 10 is_stmt 0
	li	s8,16384
	j	.L257
.LVL611:
.L258:
	.loc 1 798 4 discriminator 1
	lui	a3,%hi(.LC0)
	lui	a2,%hi(.LANCHOR0)
	lui	a0,%hi(.LC1)
.LVL612:
	addi	a3,a3,%lo(.LC0)
	addi	a2,a2,%lo(.LANCHOR0)
	li	a1,798
.LVL613:
	addi	a0,a0,%lo(.LC1)
	call	__assert_func
.LVL614:
	.cfi_endproc
.LFE19:
	.size	llm_dot_product2_exe, .-llm_dot_product2_exe
	.align	2
	.type	exponent.constprop.0, @function
exponent.constprop.0:
.LFB35:
	.loc 1 122 13 is_stmt 1
	.cfi_startproc
.LVL615:
	.loc 1 123 1
	.loc 1 122 13 is_stmt 0
	addi	sp,sp,-48
	.cfi_def_cfa_offset 48
	sw	s0,44(sp)
	sw	s1,40(sp)
	sw	s2,36(sp)
	sw	s3,32(sp)
	sw	s4,28(sp)
	sw	s5,24(sp)
	sw	s6,20(sp)
	sw	s7,16(sp)
	sw	s8,12(sp)
	sw	s9,8(sp)
	.cfi_offset 8, -4
	.cfi_offset 9, -8
	.cfi_offset 18, -12
	.cfi_offset 19, -16
	.cfi_offset 20, -20
	.cfi_offset 21, -24
	.cfi_offset 22, -28
	.cfi_offset 23, -32
	.cfi_offset 24, -36
	.cfi_offset 25, -40
	.loc 1 123 22
	li	a7,-2147483648
	sw	a0,1000(a7)
	.loc 1 123 37 is_stmt 1
	.loc 1 123 59 is_stmt 0
	li	t4,-2147479552
	.loc 1 123 99
	li	t1,1069068288
	.loc 1 123 59
	sw	a3,-920(t4)
	.loc 1 123 77 is_stmt 1
	.loc 1 123 99 is_stmt 0
	li	t2,-2147479552
	addi	t1,t1,-1477
	sw	t1,-1688(t2)
	.loc 1 123 111 is_stmt 1
	.loc 1 123 133 is_stmt 0
	li	t3,-2147479552
	sw	a1,-536(t3)
	.loc 1 123 148 is_stmt 1
	.loc 1 123 169 is_stmt 0
	li	s1,-2147483648
	.loc 1 123 193
	li	t1,16384
	.loc 1 123 169
	sw	zero,232(s1)
	.loc 1 123 172 is_stmt 1
	.loc 1 123 193 is_stmt 0
	addi	t1,t1,-128
	li	t0,-2147483648
	sw	t1,616(t0)
	.loc 1 123 201 is_stmt 1
	.loc 1 123 223 is_stmt 0
	li	s5,1
	li	s3,-2147479552
	sw	s5,-1812(s3)
	.loc 1 123 226 is_stmt 1
	.loc 1 123 242 is_stmt 0
	li	s0,-2147483648
	li	s4,5
	sw	s4,20(s0)
	.loc 1 126 1 is_stmt 1
	.loc 1 126 22 is_stmt 0
	sw	a0,1000(a7)
	.loc 1 126 37 is_stmt 1
	.loc 1 126 59 is_stmt 0
	li	s2,-2147479552
	sw	a4,1128(s2)
	.loc 1 126 77 is_stmt 1
	.loc 1 126 99 is_stmt 0
	sw	a3,-536(t3)
	.loc 1 126 117 is_stmt 1
	.loc 1 126 138 is_stmt 0
	sw	zero,232(s1)
	.loc 1 126 141 is_stmt 1
	.loc 1 126 162 is_stmt 0
	sw	t1,616(t0)
	.loc 1 126 170 is_stmt 1
	.loc 1 126 191 is_stmt 0
	li	t6,-2147483648
	.loc 1 126 220
	li	t5,-2147483648
	.loc 1 126 191
	sw	t1,360(t6)
	.loc 1 126 199 is_stmt 1
	.loc 1 126 220 is_stmt 0
	sw	zero,236(t5)
	.loc 1 129 1 is_stmt 1
	.loc 1 129 22 is_stmt 0
	sw	a0,1000(a7)
	.loc 1 129 37 is_stmt 1
	.loc 1 129 59 is_stmt 0
	sw	a5,-920(t4)
	.loc 1 129 77 is_stmt 1
	.loc 1 129 99 is_stmt 0
	li	s8,-2147479552
	sw	a4,1256(s8)
	.loc 1 129 117 is_stmt 1
	.loc 1 129 138 is_stmt 0
	li	s7,-2147483648
	sw	zero,748(s7)
	.loc 1 132 1 is_stmt 1
	.loc 1 132 22 is_stmt 0
	sw	a0,1000(a7)
	.loc 1 132 37 is_stmt 1
	.loc 1 132 96 is_stmt 0
	li	s6,-2147479552
	.loc 1 132 59
	sw	a1,-920(t4)
	.loc 1 132 74 is_stmt 1
	.loc 1 132 133 is_stmt 0
	li	a4,-1087279104
.LVL616:
	.loc 1 132 96
	sw	a1,-792(s6)
	.loc 1 132 111 is_stmt 1
	.loc 1 132 133 is_stmt 0
	addi	a4,a4,536
	sw	a4,-1688(t2)
	.loc 1 132 145 is_stmt 1
	.loc 1 132 167 is_stmt 0
	sw	a3,-536(t3)
	.loc 1 132 185 is_stmt 1
	.loc 1 132 206 is_stmt 0
	sw	t1,616(t0)
	.loc 1 132 214 is_stmt 1
	.loc 1 132 235 is_stmt 0
	sw	zero,236(t5)
	.loc 1 135 1 is_stmt 1
	.loc 1 135 22 is_stmt 0
	sw	a0,1000(a7)
	.loc 1 135 37 is_stmt 1
	.loc 1 135 96 is_stmt 0
	li	s9,1007194112
	.loc 1 135 59
	sw	a2,-920(t4)
	.loc 1 135 74 is_stmt 1
	.loc 1 135 96 is_stmt 0
	li	a4,-2147479552
	addi	s9,s9,-1915
	.loc 1 135 130
	li	a3,985010176
.LVL617:
	.loc 1 135 96
	sw	s9,-1816(a4)
	.loc 1 135 108 is_stmt 1
	.loc 1 135 130 is_stmt 0
	addi	a3,a3,-1174
	sw	a3,-1688(t2)
	.loc 1 135 142 is_stmt 1
	.loc 1 135 164 is_stmt 0
	sw	a1,-536(t3)
	.loc 1 135 179 is_stmt 1
	.loc 1 135 200 is_stmt 0
	sw	t1,616(t0)
	.loc 1 135 208 is_stmt 1
	.loc 1 135 229 is_stmt 0
	sw	zero,236(t5)
	.loc 1 138 1 is_stmt 1
	.loc 1 138 22 is_stmt 0
	sw	a0,1000(a7)
	.loc 1 138 37 is_stmt 1
	.loc 1 138 96 is_stmt 0
	li	a3,1026207744
	.loc 1 138 59
	sw	a2,-920(t4)
	.loc 1 138 74 is_stmt 1
	.loc 1 138 96 is_stmt 0
	addi	a3,a3,-1364
	sw	a3,-1816(a4)
	.loc 1 138 108 is_stmt 1
	.loc 1 138 130 is_stmt 0
	sw	a1,-536(t3)
	.loc 1 138 145 is_stmt 1
	.loc 1 138 167 is_stmt 0
	li	a3,-2147479552
	sw	a2,-408(a3)
	.loc 1 138 182 is_stmt 1
	.loc 1 138 203 is_stmt 0
	sw	t1,360(t6)
	.loc 1 138 211 is_stmt 1
	.loc 1 138 232 is_stmt 0
	sw	zero,236(t5)
	.loc 1 141 1 is_stmt 1
	.loc 1 141 22 is_stmt 0
	sw	a0,1000(a7)
	.loc 1 141 37 is_stmt 1
	.loc 1 141 96 is_stmt 0
	li	t2,1042984960
	.loc 1 141 59
	sw	a2,-920(t4)
	.loc 1 141 74 is_stmt 1
	.loc 1 141 96 is_stmt 0
	addi	t2,t2,-1365
	sw	t2,-1816(a4)
	.loc 1 141 108 is_stmt 1
	.loc 1 141 130 is_stmt 0
	sw	a1,-536(t3)
	.loc 1 141 145 is_stmt 1
	.loc 1 141 167 is_stmt 0
	sw	a2,-408(a3)
	.loc 1 141 182 is_stmt 1
	.loc 1 141 203 is_stmt 0
	sw	t1,360(t6)
	.loc 1 141 211 is_stmt 1
	.loc 1 141 232 is_stmt 0
	sw	zero,236(t5)
	.loc 1 144 1 is_stmt 1
	.loc 1 144 22 is_stmt 0
	sw	a0,1000(a7)
	.loc 1 144 37 is_stmt 1
	.loc 1 144 59 is_stmt 0
	sw	a2,-920(t4)
	.loc 1 144 74 is_stmt 1
	.loc 1 144 96 is_stmt 0
	li	t2,1056964608
	sw	t2,-1816(a4)
	.loc 1 144 108 is_stmt 1
	.loc 1 144 130 is_stmt 0
	sw	a1,-536(t3)
	.loc 1 144 145 is_stmt 1
	.loc 1 144 167 is_stmt 0
	sw	a2,-408(a3)
	.loc 1 144 182 is_stmt 1
	.loc 1 144 203 is_stmt 0
	sw	t1,360(t6)
	.loc 1 144 211 is_stmt 1
	.loc 1 144 232 is_stmt 0
	sw	zero,236(t5)
	.loc 1 147 1 is_stmt 1
	.loc 1 147 96 is_stmt 0
	li	t2,1065353216
	.loc 1 147 22
	sw	a0,1000(a7)
	.loc 1 147 37 is_stmt 1
	.loc 1 147 59 is_stmt 0
	sw	a2,-920(t4)
	.loc 1 147 74 is_stmt 1
	.loc 1 147 96 is_stmt 0
	sw	t2,-1816(a4)
	.loc 1 147 108 is_stmt 1
	.loc 1 147 130 is_stmt 0
	sw	a1,-536(t3)
	.loc 1 147 145 is_stmt 1
	.loc 1 147 167 is_stmt 0
	sw	a2,-408(a3)
	.loc 1 147 182 is_stmt 1
	.loc 1 147 203 is_stmt 0
	sw	t1,360(t6)
	.loc 1 147 211 is_stmt 1
	.loc 1 147 232 is_stmt 0
	sw	zero,236(t5)
	.loc 1 150 1 is_stmt 1
	.loc 1 150 22 is_stmt 0
	sw	a0,1000(a7)
	.loc 1 150 37 is_stmt 1
	.loc 1 150 59 is_stmt 0
	sw	a2,-920(t4)
	.loc 1 150 74 is_stmt 1
	.loc 1 150 96 is_stmt 0
	sw	t2,-1816(a4)
	.loc 1 150 108 is_stmt 1
	.loc 1 150 130 is_stmt 0
	sw	a1,-536(t3)
	.loc 1 150 145 is_stmt 1
	.loc 1 150 167 is_stmt 0
	sw	a2,-408(a3)
	.loc 1 150 182 is_stmt 1
	.loc 1 150 203 is_stmt 0
	sw	t1,360(t6)
	.loc 1 150 211 is_stmt 1
	.loc 1 150 232 is_stmt 0
	sw	zero,236(t5)
	.loc 1 153 1 is_stmt 1
	.loc 1 153 22 is_stmt 0
	sw	a0,1000(a7)
	.loc 1 153 37 is_stmt 1
	.loc 1 153 59 is_stmt 0
	sw	a2,-920(t4)
	.loc 1 153 74 is_stmt 1
	.loc 1 153 96 is_stmt 0
	sw	a6,-1816(a4)
	.loc 1 153 120 is_stmt 1
	.loc 1 153 142 is_stmt 0
	sw	a5,-536(t3)
	.loc 1 153 160 is_stmt 1
	.loc 1 153 182 is_stmt 0
	sw	a2,-408(a3)
	.loc 1 153 197 is_stmt 1
	.loc 1 153 218 is_stmt 0
	sw	t1,360(t6)
	.loc 1 153 226 is_stmt 1
	.loc 1 153 247 is_stmt 0
	sw	s5,236(t5)
	.loc 1 153 250 is_stmt 1
	.loc 1 153 266 is_stmt 0
	sw	s4,20(s0)
	.loc 1 155 1
	lw	s0,44(sp)
	.cfi_restore 8
	lw	s1,40(sp)
	.cfi_restore 9
	lw	s2,36(sp)
	.cfi_restore 18
	lw	s3,32(sp)
	.cfi_restore 19
	lw	s4,28(sp)
	.cfi_restore 20
	lw	s5,24(sp)
	.cfi_restore 21
	lw	s6,20(sp)
	.cfi_restore 22
	lw	s7,16(sp)
	.cfi_restore 23
	lw	s8,12(sp)
	.cfi_restore 24
	lw	s9,8(sp)
	.cfi_restore 25
	addi	sp,sp,48
	.cfi_def_cfa_offset 0
	jr	ra
	.cfi_endproc
.LFE35:
	.size	exponent.constprop.0, .-exponent.constprop.0
	.align	2
	.type	reciprocal.constprop.0, @function
reciprocal.constprop.0:
.LFB36:
	.loc 1 66 13 is_stmt 1
	.cfi_startproc
.LVL618:
	.loc 1 68 4
	.loc 1 66 13 is_stmt 0
	addi	sp,sp,-32
	.cfi_def_cfa_offset 32
	sw	s0,28(sp)
	sw	s1,24(sp)
	sw	s2,20(sp)
	sw	s3,16(sp)
	sw	s4,12(sp)
	.loc 1 68 6
	li	t2,1
	.cfi_offset 8, -4
	.cfi_offset 9, -8
	.cfi_offset 18, -12
	.cfi_offset 19, -16
	.cfi_offset 20, -20
	beq	a0,t2,.L295
	sw	s5,8(sp)
	.cfi_offset 21, -24
	.loc 1 90 1 is_stmt 1
	.loc 1 90 22 is_stmt 0
	li	a4,-2147483648
	sw	a0,1000(a4)
	.loc 1 90 39 is_stmt 1
	.loc 1 90 61 is_stmt 0
	li	a5,-2147479552
	sw	a2,-920(a5)
	.loc 1 90 76 is_stmt 1
	.loc 1 90 104 is_stmt 0
	li	s2,-2147479552
	sw	a1,-792(s2)
	.loc 1 90 119 is_stmt 1
	.loc 1 90 140 is_stmt 0
	li	s1,-2147483648
	sw	t2,492(s1)
	.loc 1 90 143 is_stmt 1
	.loc 1 90 159 is_stmt 0
	li	s0,-2147483648
	li	s5,5
	sw	s5,20(s0)
	.loc 1 93 1 is_stmt 1
	.loc 1 93 22 is_stmt 0
	sw	a0,1000(a4)
	.loc 1 93 39 is_stmt 1
	.loc 1 93 61 is_stmt 0
	sw	a3,-920(a5)
	.loc 1 93 79 is_stmt 1
	.loc 1 93 101 is_stmt 0
	li	s4,1073741824
	li	t0,-2147479552
	sw	s4,-1816(t0)
	.loc 1 93 113 is_stmt 1
	.loc 1 93 141 is_stmt 0
	li	t1,-2147479552
	sw	a1,-536(t1)
	.loc 1 93 156 is_stmt 1
	.loc 1 93 178 is_stmt 0
	li	a7,-2147479552
	sw	a2,-408(a7)
	.loc 1 93 193 is_stmt 1
	.loc 1 93 215 is_stmt 0
	li	s3,-1082130432
	li	t6,-2147479552
	sw	s3,-1688(t6)
	.loc 1 93 227 is_stmt 1
	.loc 1 93 248 is_stmt 0
	li	a6,-2147483648
	sw	zero,236(a6)
	.loc 1 96 1 is_stmt 1
	.loc 1 96 22 is_stmt 0
	sw	a0,1000(a4)
	.loc 1 96 39 is_stmt 1
	.loc 1 96 61 is_stmt 0
	sw	a2,-920(a5)
	.loc 1 96 76 is_stmt 1
	.loc 1 96 98 is_stmt 0
	sw	a3,-536(t1)
	.loc 1 96 116 is_stmt 1
	.loc 1 96 138 is_stmt 0
	sw	a2,-408(a7)
	.loc 1 96 153 is_stmt 1
	.loc 1 96 174 is_stmt 0
	li	t3,-2147483648
	.loc 1 96 198
	li	t5,16384
	.loc 1 96 174
	sw	zero,232(t3)
	.loc 1 96 177 is_stmt 1
	.loc 1 96 198 is_stmt 0
	li	t4,-2147483648
	addi	t5,t5,-128
	sw	t5,360(t4)
	.loc 1 96 206 is_stmt 1
	.loc 1 96 227 is_stmt 0
	sw	zero,236(a6)
	.loc 1 99 1 is_stmt 1
	.loc 1 99 22 is_stmt 0
	sw	a0,1000(a4)
	.loc 1 99 39 is_stmt 1
	.loc 1 99 61 is_stmt 0
	sw	a3,-920(a5)
	.loc 1 99 79 is_stmt 1
	.loc 1 99 101 is_stmt 0
	sw	s4,-1816(t0)
	.loc 1 99 113 is_stmt 1
	.loc 1 99 141 is_stmt 0
	sw	a1,-536(t1)
	.loc 1 99 156 is_stmt 1
	.loc 1 99 178 is_stmt 0
	sw	a2,-408(a7)
	.loc 1 99 193 is_stmt 1
	.loc 1 99 215 is_stmt 0
	sw	s3,-1688(t6)
	.loc 1 99 227 is_stmt 1
	.loc 1 99 248 is_stmt 0
	sw	zero,236(a6)
	.loc 1 102 1 is_stmt 1
	.loc 1 102 22 is_stmt 0
	sw	a0,1000(a4)
	.loc 1 102 39 is_stmt 1
	.loc 1 102 61 is_stmt 0
	sw	a2,-920(a5)
	.loc 1 102 76 is_stmt 1
	.loc 1 102 98 is_stmt 0
	sw	a3,-536(t1)
	.loc 1 102 116 is_stmt 1
	.loc 1 102 138 is_stmt 0
	sw	a2,-408(a7)
	.loc 1 102 153 is_stmt 1
	.loc 1 102 174 is_stmt 0
	sw	zero,232(t3)
	.loc 1 102 177 is_stmt 1
	.loc 1 102 198 is_stmt 0
	sw	t5,360(t4)
	.loc 1 102 206 is_stmt 1
	.loc 1 102 227 is_stmt 0
	sw	zero,236(a6)
	.loc 1 105 1 is_stmt 1
	.loc 1 105 22 is_stmt 0
	sw	a0,1000(a4)
	.loc 1 105 39 is_stmt 1
	.loc 1 105 61 is_stmt 0
	sw	a3,-920(a5)
	.loc 1 105 79 is_stmt 1
	.loc 1 105 101 is_stmt 0
	sw	s4,-1816(t0)
	.loc 1 105 113 is_stmt 1
	.loc 1 105 141 is_stmt 0
	sw	a1,-536(t1)
	.loc 1 105 156 is_stmt 1
	.loc 1 105 178 is_stmt 0
	sw	a2,-408(a7)
	.loc 1 105 193 is_stmt 1
	.loc 1 105 215 is_stmt 0
	sw	s3,-1688(t6)
	.loc 1 105 227 is_stmt 1
	.loc 1 105 248 is_stmt 0
	sw	zero,236(a6)
	.loc 1 108 1 is_stmt 1
	.loc 1 108 22 is_stmt 0
	sw	a0,1000(a4)
	.loc 1 108 39 is_stmt 1
	.loc 1 108 61 is_stmt 0
	sw	a2,-920(a5)
	.loc 1 108 76 is_stmt 1
	.loc 1 108 98 is_stmt 0
	sw	a3,-536(t1)
	.loc 1 108 116 is_stmt 1
	.loc 1 108 138 is_stmt 0
	sw	a2,-408(a7)
	.loc 1 108 153 is_stmt 1
	.loc 1 108 174 is_stmt 0
	sw	zero,232(t3)
	.loc 1 108 177 is_stmt 1
	.loc 1 108 198 is_stmt 0
	sw	t5,360(t4)
	.loc 1 108 206 is_stmt 1
	.loc 1 108 227 is_stmt 0
	sw	t2,236(a6)
	.loc 1 108 230 is_stmt 1
	.loc 1 108 246 is_stmt 0
	sw	s5,20(s0)
	.loc 1 111 1
	lw	s0,28(sp)
	.cfi_restore 8
	.loc 1 90 159
	lw	s5,8(sp)
	.cfi_restore 21
	.loc 1 111 1
	lw	s1,24(sp)
	.cfi_restore 9
	lw	s2,20(sp)
	.cfi_restore 18
	lw	s3,16(sp)
	.cfi_restore 19
	lw	s4,12(sp)
	.cfi_restore 20
	addi	sp,sp,32
	.cfi_def_cfa_offset 0
	jr	ra
.L295:
	.cfi_def_cfa_offset 32
	.cfi_offset 8, -4
	.cfi_offset 9, -8
	.cfi_offset 18, -12
	.cfi_offset 19, -16
	.cfi_offset 20, -20
	.loc 1 69 1 is_stmt 1
	.loc 1 69 22 is_stmt 0
	li	a4,-2147483648
	sw	a0,744(a4)
	.loc 1 69 39 is_stmt 1
	.loc 1 69 61 is_stmt 0
	li	a5,-2147479552
	sw	a2,-920(a5)
	.loc 1 69 76 is_stmt 1
	.loc 1 69 104 is_stmt 0
	li	s1,-2147479552
	sw	a1,-792(s1)
	.loc 1 69 119 is_stmt 1
	.loc 1 69 140 is_stmt 0
	li	s0,-2147483648
	sw	a0,492(s0)
	.loc 1 69 143 is_stmt 1
	.loc 1 69 159 is_stmt 0
	li	s4,5
	li	t2,-2147483648
	sw	s4,20(t2)
	.loc 1 72 1 is_stmt 1
	.loc 1 72 22 is_stmt 0
	sw	a0,744(a4)
	.loc 1 72 39 is_stmt 1
	.loc 1 72 61 is_stmt 0
	sw	a3,-920(a5)
	.loc 1 72 79 is_stmt 1
	.loc 1 72 101 is_stmt 0
	li	s3,1073741824
	li	t0,-2147479552
	sw	s3,-1816(t0)
	.loc 1 72 113 is_stmt 1
	.loc 1 72 141 is_stmt 0
	li	t1,-2147479552
	sw	a1,-536(t1)
	.loc 1 72 156 is_stmt 1
	.loc 1 72 178 is_stmt 0
	li	a7,-2147479552
	sw	a2,-408(a7)
	.loc 1 72 193 is_stmt 1
	.loc 1 72 215 is_stmt 0
	li	s2,-1082130432
	li	t6,-2147479552
	sw	s2,-1688(t6)
	.loc 1 72 227 is_stmt 1
	.loc 1 72 248 is_stmt 0
	li	a6,-2147483648
	sw	zero,236(a6)
	.loc 1 75 1 is_stmt 1
	.loc 1 75 22 is_stmt 0
	sw	a0,744(a4)
	.loc 1 75 39 is_stmt 1
	.loc 1 75 61 is_stmt 0
	sw	a2,-920(a5)
	.loc 1 75 76 is_stmt 1
	.loc 1 75 98 is_stmt 0
	sw	a3,-536(t1)
	.loc 1 75 116 is_stmt 1
	.loc 1 75 138 is_stmt 0
	sw	a2,-408(a7)
	.loc 1 75 153 is_stmt 1
	.loc 1 75 174 is_stmt 0
	li	t3,-2147483648
	.loc 1 75 198
	li	t5,16384
	.loc 1 75 174
	sw	zero,232(t3)
	.loc 1 75 177 is_stmt 1
	.loc 1 75 198 is_stmt 0
	li	t4,-2147483648
	addi	t5,t5,-128
	sw	t5,360(t4)
	.loc 1 75 206 is_stmt 1
	.loc 1 75 227 is_stmt 0
	sw	zero,236(a6)
	.loc 1 78 1 is_stmt 1
	.loc 1 78 22 is_stmt 0
	sw	a0,744(a4)
	.loc 1 78 39 is_stmt 1
	.loc 1 78 61 is_stmt 0
	sw	a3,-920(a5)
	.loc 1 78 79 is_stmt 1
	.loc 1 78 101 is_stmt 0
	sw	s3,-1816(t0)
	.loc 1 78 113 is_stmt 1
	.loc 1 78 141 is_stmt 0
	sw	a1,-536(t1)
	.loc 1 78 156 is_stmt 1
	.loc 1 78 178 is_stmt 0
	sw	a2,-408(a7)
	.loc 1 78 193 is_stmt 1
	.loc 1 78 215 is_stmt 0
	sw	s2,-1688(t6)
	.loc 1 78 227 is_stmt 1
	.loc 1 78 248 is_stmt 0
	sw	zero,236(a6)
	.loc 1 81 1 is_stmt 1
	.loc 1 81 22 is_stmt 0
	sw	a0,744(a4)
	.loc 1 81 39 is_stmt 1
	.loc 1 81 61 is_stmt 0
	sw	a2,-920(a5)
	.loc 1 81 76 is_stmt 1
	.loc 1 81 98 is_stmt 0
	sw	a3,-536(t1)
	.loc 1 81 116 is_stmt 1
	.loc 1 81 138 is_stmt 0
	sw	a2,-408(a7)
	.loc 1 81 153 is_stmt 1
	.loc 1 81 174 is_stmt 0
	sw	zero,232(t3)
	.loc 1 81 177 is_stmt 1
	.loc 1 81 198 is_stmt 0
	sw	t5,360(t4)
	.loc 1 81 206 is_stmt 1
	.loc 1 81 227 is_stmt 0
	sw	zero,236(a6)
	.loc 1 84 1 is_stmt 1
	.loc 1 84 22 is_stmt 0
	sw	a0,744(a4)
	.loc 1 84 39 is_stmt 1
	.loc 1 84 61 is_stmt 0
	sw	a3,-920(a5)
	.loc 1 84 79 is_stmt 1
	.loc 1 84 101 is_stmt 0
	sw	s3,-1816(t0)
	.loc 1 84 113 is_stmt 1
	.loc 1 84 141 is_stmt 0
	sw	a1,-536(t1)
	.loc 1 84 156 is_stmt 1
	.loc 1 84 178 is_stmt 0
	sw	a2,-408(a7)
	.loc 1 84 193 is_stmt 1
	.loc 1 84 215 is_stmt 0
	sw	s2,-1688(t6)
	.loc 1 84 227 is_stmt 1
	.loc 1 84 248 is_stmt 0
	sw	zero,236(a6)
	.loc 1 87 1 is_stmt 1
	.loc 1 87 22 is_stmt 0
	sw	a0,744(a4)
	.loc 1 87 39 is_stmt 1
	.loc 1 87 61 is_stmt 0
	sw	a2,-920(a5)
	.loc 1 87 76 is_stmt 1
	.loc 1 87 98 is_stmt 0
	sw	a3,-536(t1)
	.loc 1 87 116 is_stmt 1
	.loc 1 87 138 is_stmt 0
	sw	a2,-408(a7)
	.loc 1 87 153 is_stmt 1
	.loc 1 87 174 is_stmt 0
	sw	zero,232(t3)
	.loc 1 87 177 is_stmt 1
	.loc 1 87 198 is_stmt 0
	sw	t5,360(t4)
	.loc 1 87 206 is_stmt 1
	.loc 1 87 227 is_stmt 0
	sw	a0,236(a6)
	.loc 1 87 230 is_stmt 1
	.loc 1 87 246 is_stmt 0
	sw	s4,20(t2)
	.loc 1 111 1
	lw	s0,28(sp)
	.cfi_restore 8
	lw	s1,24(sp)
	.cfi_restore 9
	lw	s2,20(sp)
	.cfi_restore 18
	lw	s3,16(sp)
	.cfi_restore 19
	lw	s4,12(sp)
	.cfi_restore 20
	addi	sp,sp,32
	.cfi_def_cfa_offset 0
	jr	ra
	.cfi_endproc
.LFE36:
	.size	reciprocal.constprop.0, .-reciprocal.constprop.0
	.align	2
	.globl	invsqrt
	.type	invsqrt, @function
invsqrt:
.LFB9:
	.loc 1 39 1 is_stmt 1
	.cfi_startproc
.LVL619:
	.loc 1 40 1
	.loc 1 39 1 is_stmt 0
	addi	sp,sp,-32
	.cfi_def_cfa_offset 32
	sw	s0,28(sp)
	sw	s1,24(sp)
	sw	s2,20(sp)
	sw	s3,16(sp)
	sw	s4,12(sp)
	sw	s5,8(sp)
	.cfi_offset 8, -4
	.cfi_offset 9, -8
	.cfi_offset 18, -12
	.cfi_offset 19, -16
	.cfi_offset 20, -20
	.cfi_offset 21, -24
	.loc 1 40 22
	li	a7,-2147483648
	sw	a0,744(a7)
	.loc 1 40 39 is_stmt 1
	.loc 1 40 61 is_stmt 0
	li	a6,-2147479552
	sw	a2,-920(a6)
	.loc 1 40 76 is_stmt 1
	.loc 1 40 98 is_stmt 0
	li	s4,-2147479552
	sw	a1,-792(s4)
	.loc 1 40 113 is_stmt 1
	.loc 1 40 134 is_stmt 0
	li	t6,1
	li	s5,-2147483648
	sw	t6,1132(s5)
	.loc 1 40 137 is_stmt 1
	.loc 1 40 153 is_stmt 0
	li	a5,-2147483648
	li	t3,5
	sw	t3,20(a5)
	.loc 1 43 1 is_stmt 1
	.loc 1 43 22 is_stmt 0
	sw	a0,744(a7)
	.loc 1 43 39 is_stmt 1
	.loc 1 43 61 is_stmt 0
	sw	a4,-920(a6)
	.loc 1 43 80 is_stmt 1
	.loc 1 43 102 is_stmt 0
	li	t1,-2147479552
	sw	a1,-536(t1)
	.loc 1 43 117 is_stmt 1
	.loc 1 43 139 is_stmt 0
	li	t4,-2147479552
	li	a1,1056964608
.LVL620:
	sw	a1,-1432(t4)
.LVL621:
	.loc 1 43 151 is_stmt 1
	.loc 1 43 172 is_stmt 0
	li	s3,-2147483648
	.loc 1 43 196
	li	t2,16384
	.loc 1 43 172
	sw	zero,232(s3)
	.loc 1 43 175 is_stmt 1
	.loc 1 43 196 is_stmt 0
	li	t0,-2147483648
	addi	t2,t2,-128
	sw	t2,360(t0)
	.loc 1 43 204 is_stmt 1
	.loc 1 43 225 is_stmt 0
	li	a1,-2147483648
	sw	t6,236(a1)
	.loc 1 43 228 is_stmt 1
	.loc 1 43 244 is_stmt 0
	sw	t3,20(a5)
	.loc 1 46 4 is_stmt 1
.LBB309:
	.loc 1 46 8
.LVL622:
	.loc 1 46 18 discriminator 1
	.loc 1 47 1
	.loc 1 47 22 is_stmt 0
	sw	a0,744(a7)
	.loc 1 47 39 is_stmt 1
	.loc 1 47 101 is_stmt 0
	li	t5,-2147479552
	.loc 1 47 61
	sw	a3,-920(a6)
	.loc 1 47 79 is_stmt 1
	.loc 1 47 101 is_stmt 0
	sw	zero,-1816(t5)
	.loc 1 47 106 is_stmt 1
	.loc 1 47 165 is_stmt 0
	li	t4,-2147479552
	.loc 1 47 128
	sw	a2,-536(t1)
	.loc 1 47 143 is_stmt 1
	.loc 1 47 165 is_stmt 0
	sw	a2,-408(t4)
	.loc 1 47 180 is_stmt 1
	.loc 1 47 201 is_stmt 0
	sw	t2,360(t0)
	.loc 1 47 209 is_stmt 1
	.loc 1 47 230 is_stmt 0
	sw	t6,236(a1)
	.loc 1 47 233 is_stmt 1
	.loc 1 47 249 is_stmt 0
	sw	t3,20(a5)
	.loc 1 50 1 is_stmt 1
	.loc 1 50 22 is_stmt 0
	sw	a0,744(a7)
	.loc 1 50 39 is_stmt 1
	.loc 1 50 101 is_stmt 0
	li	s2,1069547520
	.loc 1 50 61
	sw	a3,-920(a6)
	.loc 1 50 79 is_stmt 1
	.loc 1 50 101 is_stmt 0
	sw	s2,-1816(t5)
	.loc 1 50 113 is_stmt 1
	.loc 1 50 135 is_stmt 0
	sw	a3,-536(t1)
	.loc 1 50 153 is_stmt 1
	.loc 1 50 216 is_stmt 0
	li	s0,-2147479552
	li	s1,-1082130432
	.loc 1 50 175
	sw	a4,-408(t4)
	.loc 1 50 194 is_stmt 1
	.loc 1 50 216 is_stmt 0
	sw	s1,-1688(s0)
	.loc 1 50 228 is_stmt 1
	.loc 1 50 249 is_stmt 0
	sw	t6,236(a1)
	.loc 1 50 252 is_stmt 1
	.loc 1 50 268 is_stmt 0
	sw	t3,20(a5)
	.loc 1 53 1 is_stmt 1
	.loc 1 53 22 is_stmt 0
	sw	a0,744(a7)
	.loc 1 53 39 is_stmt 1
	.loc 1 53 61 is_stmt 0
	sw	a2,-920(a6)
	.loc 1 53 76 is_stmt 1
	.loc 1 53 98 is_stmt 0
	sw	zero,-1816(t5)
	.loc 1 53 103 is_stmt 1
	.loc 1 53 125 is_stmt 0
	sw	a3,-536(t1)
	.loc 1 53 143 is_stmt 1
	.loc 1 53 165 is_stmt 0
	sw	a2,-408(t4)
	.loc 1 53 180 is_stmt 1
	.loc 1 53 201 is_stmt 0
	sw	t2,360(t0)
	.loc 1 53 209 is_stmt 1
	.loc 1 53 230 is_stmt 0
	sw	t6,236(a1)
	.loc 1 53 233 is_stmt 1
	.loc 1 53 249 is_stmt 0
	sw	t3,20(a5)
	.loc 1 46 23 is_stmt 1 discriminator 3
	.loc 1 46 18 discriminator 1
	.loc 1 47 1
	.loc 1 47 22 is_stmt 0
	sw	a0,744(a7)
	.loc 1 47 39 is_stmt 1
	.loc 1 47 61 is_stmt 0
	sw	a3,-920(a6)
	.loc 1 47 79 is_stmt 1
	.loc 1 47 101 is_stmt 0
	sw	zero,-1816(t5)
	.loc 1 47 106 is_stmt 1
	.loc 1 47 128 is_stmt 0
	sw	a2,-536(t1)
	.loc 1 47 143 is_stmt 1
	.loc 1 47 165 is_stmt 0
	sw	a2,-408(t4)
	.loc 1 47 180 is_stmt 1
	.loc 1 47 201 is_stmt 0
	sw	t2,360(t0)
	.loc 1 47 209 is_stmt 1
	.loc 1 47 230 is_stmt 0
	sw	t6,236(a1)
	.loc 1 47 233 is_stmt 1
	.loc 1 47 249 is_stmt 0
	sw	t3,20(a5)
	.loc 1 50 1 is_stmt 1
	.loc 1 50 22 is_stmt 0
	sw	a0,744(a7)
	.loc 1 50 39 is_stmt 1
	.loc 1 50 61 is_stmt 0
	sw	a3,-920(a6)
	.loc 1 50 79 is_stmt 1
	.loc 1 50 101 is_stmt 0
	sw	s2,-1816(t5)
	.loc 1 50 113 is_stmt 1
	.loc 1 50 135 is_stmt 0
	sw	a3,-536(t1)
	.loc 1 50 153 is_stmt 1
	.loc 1 50 175 is_stmt 0
	sw	a4,-408(t4)
	.loc 1 50 194 is_stmt 1
	.loc 1 50 216 is_stmt 0
	sw	s1,-1688(s0)
	.loc 1 50 228 is_stmt 1
	.loc 1 50 249 is_stmt 0
	sw	t6,236(a1)
	.loc 1 50 252 is_stmt 1
	.loc 1 50 268 is_stmt 0
	sw	t3,20(a5)
	.loc 1 53 1 is_stmt 1
	.loc 1 53 22 is_stmt 0
	sw	a0,744(a7)
	.loc 1 53 39 is_stmt 1
	.loc 1 53 61 is_stmt 0
	sw	a2,-920(a6)
	.loc 1 53 76 is_stmt 1
	.loc 1 53 98 is_stmt 0
	sw	zero,-1816(t5)
	.loc 1 53 103 is_stmt 1
	.loc 1 53 125 is_stmt 0
	sw	a3,-536(t1)
	.loc 1 53 143 is_stmt 1
	.loc 1 53 165 is_stmt 0
	sw	a2,-408(t4)
	.loc 1 53 180 is_stmt 1
	.loc 1 53 201 is_stmt 0
	sw	t2,360(t0)
	.loc 1 53 209 is_stmt 1
	.loc 1 53 230 is_stmt 0
	sw	t6,236(a1)
	.loc 1 53 233 is_stmt 1
	.loc 1 53 249 is_stmt 0
	sw	t3,20(a5)
	.loc 1 46 23 is_stmt 1 discriminator 3
	.loc 1 46 18 discriminator 1
	.loc 1 47 1
	.loc 1 47 22 is_stmt 0
	sw	a0,744(a7)
	.loc 1 47 39 is_stmt 1
	.loc 1 47 61 is_stmt 0
	sw	a3,-920(a6)
	.loc 1 47 79 is_stmt 1
	.loc 1 47 101 is_stmt 0
	sw	zero,-1816(t5)
	.loc 1 47 106 is_stmt 1
	.loc 1 47 128 is_stmt 0
	sw	a2,-536(t1)
	.loc 1 47 143 is_stmt 1
	.loc 1 47 165 is_stmt 0
	sw	a2,-408(t4)
	.loc 1 47 180 is_stmt 1
	.loc 1 47 201 is_stmt 0
	sw	t2,360(t0)
	.loc 1 47 209 is_stmt 1
	.loc 1 47 230 is_stmt 0
	sw	t6,236(a1)
	.loc 1 47 233 is_stmt 1
	.loc 1 47 249 is_stmt 0
	sw	t3,20(a5)
	.loc 1 50 1 is_stmt 1
	.loc 1 50 22 is_stmt 0
	sw	a0,744(a7)
	.loc 1 50 39 is_stmt 1
	.loc 1 50 61 is_stmt 0
	sw	a3,-920(a6)
	.loc 1 50 79 is_stmt 1
	.loc 1 50 101 is_stmt 0
	sw	s2,-1816(t5)
	.loc 1 50 113 is_stmt 1
	.loc 1 50 135 is_stmt 0
	sw	a3,-536(t1)
	.loc 1 50 153 is_stmt 1
	.loc 1 50 175 is_stmt 0
	sw	a4,-408(t4)
	.loc 1 50 194 is_stmt 1
	.loc 1 50 216 is_stmt 0
	sw	s1,-1688(s0)
	.loc 1 50 228 is_stmt 1
	.loc 1 50 249 is_stmt 0
	sw	t6,236(a1)
	.loc 1 50 252 is_stmt 1
	.loc 1 50 268 is_stmt 0
	sw	t3,20(a5)
	.loc 1 53 1 is_stmt 1
	.loc 1 53 22 is_stmt 0
	sw	a0,744(a7)
	.loc 1 53 39 is_stmt 1
	.loc 1 53 61 is_stmt 0
	sw	a2,-920(a6)
	.loc 1 53 76 is_stmt 1
	.loc 1 53 98 is_stmt 0
	sw	zero,-1816(t5)
	.loc 1 53 103 is_stmt 1
	.loc 1 53 125 is_stmt 0
	sw	a3,-536(t1)
	.loc 1 53 143 is_stmt 1
	.loc 1 53 165 is_stmt 0
	sw	a2,-408(t4)
	.loc 1 53 180 is_stmt 1
	.loc 1 53 201 is_stmt 0
	sw	t2,360(t0)
	.loc 1 53 209 is_stmt 1
	.loc 1 53 230 is_stmt 0
	sw	t6,236(a1)
	.loc 1 53 233 is_stmt 1
	.loc 1 53 249 is_stmt 0
	sw	t3,20(a5)
	.loc 1 46 23 is_stmt 1 discriminator 3
	.loc 1 46 18 discriminator 1
	.loc 1 47 1
	.loc 1 47 22 is_stmt 0
	sw	a0,744(a7)
	.loc 1 47 39 is_stmt 1
	.loc 1 47 61 is_stmt 0
	sw	a3,-920(a6)
	.loc 1 47 79 is_stmt 1
	.loc 1 47 101 is_stmt 0
	sw	zero,-1816(t5)
	.loc 1 47 106 is_stmt 1
	.loc 1 47 128 is_stmt 0
	sw	a2,-536(t1)
	.loc 1 47 143 is_stmt 1
	.loc 1 47 165 is_stmt 0
	sw	a2,-408(t4)
	.loc 1 47 180 is_stmt 1
	.loc 1 47 201 is_stmt 0
	sw	t2,360(t0)
	.loc 1 47 209 is_stmt 1
	.loc 1 47 230 is_stmt 0
	sw	t6,236(a1)
	.loc 1 47 233 is_stmt 1
	.loc 1 47 249 is_stmt 0
	sw	t3,20(a5)
	.loc 1 50 1 is_stmt 1
	.loc 1 50 22 is_stmt 0
	sw	a0,744(a7)
	.loc 1 50 39 is_stmt 1
	.loc 1 50 61 is_stmt 0
	sw	a3,-920(a6)
	.loc 1 50 79 is_stmt 1
	.loc 1 50 101 is_stmt 0
	sw	s2,-1816(t5)
	.loc 1 50 113 is_stmt 1
	.loc 1 50 135 is_stmt 0
	sw	a3,-536(t1)
	.loc 1 50 153 is_stmt 1
	.loc 1 50 175 is_stmt 0
	sw	a4,-408(t4)
	.loc 1 50 194 is_stmt 1
	.loc 1 50 216 is_stmt 0
	sw	s1,-1688(s0)
	.loc 1 50 228 is_stmt 1
	.loc 1 50 249 is_stmt 0
	sw	t6,236(a1)
	.loc 1 50 252 is_stmt 1
	.loc 1 50 268 is_stmt 0
	sw	t3,20(a5)
	.loc 1 53 1 is_stmt 1
	.loc 1 53 22 is_stmt 0
	sw	a0,744(a7)
	.loc 1 53 39 is_stmt 1
	.loc 1 53 61 is_stmt 0
	sw	a2,-920(a6)
	.loc 1 53 76 is_stmt 1
	.loc 1 53 98 is_stmt 0
	sw	zero,-1816(t5)
	.loc 1 53 103 is_stmt 1
	.loc 1 53 125 is_stmt 0
	sw	a3,-536(t1)
	.loc 1 53 143 is_stmt 1
	.loc 1 53 165 is_stmt 0
	sw	a2,-408(t4)
	.loc 1 53 180 is_stmt 1
	.loc 1 53 201 is_stmt 0
	sw	t2,360(t0)
	.loc 1 53 209 is_stmt 1
	.loc 1 53 230 is_stmt 0
	sw	t6,236(a1)
	.loc 1 53 233 is_stmt 1
	.loc 1 53 249 is_stmt 0
	sw	t3,20(a5)
	.loc 1 46 23 is_stmt 1 discriminator 3
	.loc 1 46 18 discriminator 1
.LBE309:
	.loc 1 56 1 is_stmt 0
	lw	s0,28(sp)
	.cfi_restore 8
	lw	s1,24(sp)
	.cfi_restore 9
	lw	s2,20(sp)
	.cfi_restore 18
	lw	s3,16(sp)
	.cfi_restore 19
	lw	s4,12(sp)
	.cfi_restore 20
	lw	s5,8(sp)
	.cfi_restore 21
	addi	sp,sp,32
	.cfi_def_cfa_offset 0
	jr	ra
	.cfi_endproc
.LFE9:
	.size	invsqrt, .-invsqrt
	.align	2
	.globl	kernel_llm_matmul_q4_exe
	.type	kernel_llm_matmul_q4_exe, @function
kernel_llm_matmul_q4_exe:
.LFB14:
	.loc 1 446 3 is_stmt 1
	.cfi_startproc
.LVL623:
	.loc 1 447 4
	.loc 1 448 4
	.loc 1 450 4
	.loc 1 446 3 is_stmt 0
	addi	sp,sp,-80
	.cfi_def_cfa_offset 80
	sw	s0,72(sp)
	.cfi_offset 8, -8
	mv	s0,a0
	.loc 1 450 4
	lui	a0,%hi(.LANCHOR1)
.LVL624:
	addi	a0,a0,%lo(.LANCHOR1)
	.loc 1 446 3
	sw	ra,76(sp)
	sw	s1,68(sp)
	sw	s2,64(sp)
	sw	s3,60(sp)
	sw	s4,56(sp)
	sw	s5,52(sp)
	sw	s6,48(sp)
	sw	s7,44(sp)
	.cfi_offset 1, -4
	.cfi_offset 9, -12
	.cfi_offset 18, -16
	.cfi_offset 19, -20
	.cfi_offset 20, -24
	.cfi_offset 21, -28
	.cfi_offset 22, -32
	.cfi_offset 23, -36
	.loc 1 446 3
	mv	s6,a2
	mv	s5,a3
	mv	s4,a4
	mv	s2,a6
	mv	s1,a7
	mv	s7,a1
	mv	s3,a5
	.loc 1 450 4
	call	ztaInitPcore
.LVL625:
	.loc 1 452 4 is_stmt 1
	.loc 1 459 15 is_stmt 0
	lw	a5,80(sp)
	.loc 1 463 4
	lui	a0,%hi(matmul_q4)
	mv	a1,sp
	addi	a0,a0,%lo(matmul_q4)
	.loc 1 452 10
	sw	s7,0(sp)
	.loc 1 453 4 is_stmt 1
	.loc 1 453 10 is_stmt 0
	sw	s6,4(sp)
	.loc 1 454 4 is_stmt 1
	.loc 1 454 11 is_stmt 0
	sw	s5,8(sp)
	.loc 1 455 4 is_stmt 1
	.loc 1 455 12 is_stmt 0
	sw	s4,12(sp)
	.loc 1 456 4 is_stmt 1
	.loc 1 456 12 is_stmt 0
	sw	s3,16(sp)
	.loc 1 457 4 is_stmt 1
	.loc 1 457 12 is_stmt 0
	sw	s2,20(sp)
	.loc 1 458 4 is_stmt 1
	.loc 1 458 12 is_stmt 0
	sw	s1,24(sp)
	.loc 1 459 4 is_stmt 1
	.loc 1 459 15 is_stmt 0
	sw	a5,28(sp)
	.loc 1 463 4 is_stmt 1
	call	ztaDualHartExecute
.LVL626:
	.loc 1 465 4
	mv	a0,s0
	call	ztaJobDone
.LVL627:
	.loc 1 466 1 is_stmt 0
	lw	ra,76(sp)
	.cfi_restore 1
	lw	s0,72(sp)
	.cfi_restore 8
.LVL628:
	lw	s1,68(sp)
	.cfi_restore 9
.LVL629:
	lw	s2,64(sp)
	.cfi_restore 18
.LVL630:
	lw	s3,60(sp)
	.cfi_restore 19
.LVL631:
	lw	s4,56(sp)
	.cfi_restore 20
.LVL632:
	lw	s5,52(sp)
	.cfi_restore 21
.LVL633:
	lw	s6,48(sp)
	.cfi_restore 22
.LVL634:
	lw	s7,44(sp)
	.cfi_restore 23
.LVL635:
	addi	sp,sp,80
	.cfi_def_cfa_offset 0
.LVL636:
	jr	ra
	.cfi_endproc
.LFE14:
	.size	kernel_llm_matmul_q4_exe, .-kernel_llm_matmul_q4_exe
	.align	2
	.globl	kernel_llm_matmul_q8_exe
	.type	kernel_llm_matmul_q8_exe, @function
kernel_llm_matmul_q8_exe:
.LFB15:
	.loc 1 478 3 is_stmt 1
	.cfi_startproc
.LVL637:
	.loc 1 479 4
	.loc 1 480 4
	.loc 1 482 4
	.loc 1 478 3 is_stmt 0
	addi	sp,sp,-80
	.cfi_def_cfa_offset 80
	sw	s0,72(sp)
	.cfi_offset 8, -8
	mv	s0,a0
	.loc 1 482 4
	lui	a0,%hi(.LANCHOR1)
.LVL638:
	addi	a0,a0,%lo(.LANCHOR1)
	.loc 1 478 3
	sw	ra,76(sp)
	sw	s1,68(sp)
	sw	s2,64(sp)
	sw	s3,60(sp)
	sw	s4,56(sp)
	sw	s5,52(sp)
	sw	s6,48(sp)
	sw	s7,44(sp)
	.cfi_offset 1, -4
	.cfi_offset 9, -12
	.cfi_offset 18, -16
	.cfi_offset 19, -20
	.cfi_offset 20, -24
	.cfi_offset 21, -28
	.cfi_offset 22, -32
	.cfi_offset 23, -36
	.loc 1 478 3
	mv	s6,a2
	mv	s5,a3
	mv	s4,a4
	mv	s2,a6
	mv	s1,a7
	mv	s7,a1
	mv	s3,a5
	.loc 1 482 4
	call	ztaInitPcore
.LVL639:
	.loc 1 484 4 is_stmt 1
	.loc 1 491 15 is_stmt 0
	lw	a5,80(sp)
	.loc 1 495 4
	lui	a0,%hi(matmul_q8)
	mv	a1,sp
	addi	a0,a0,%lo(matmul_q8)
	.loc 1 484 10
	sw	s7,0(sp)
	.loc 1 485 4 is_stmt 1
	.loc 1 485 10 is_stmt 0
	sw	s6,4(sp)
	.loc 1 486 4 is_stmt 1
	.loc 1 486 11 is_stmt 0
	sw	s5,8(sp)
	.loc 1 487 4 is_stmt 1
	.loc 1 487 12 is_stmt 0
	sw	s4,12(sp)
	.loc 1 488 4 is_stmt 1
	.loc 1 488 12 is_stmt 0
	sw	s3,16(sp)
	.loc 1 489 4 is_stmt 1
	.loc 1 489 12 is_stmt 0
	sw	s2,20(sp)
	.loc 1 490 4 is_stmt 1
	.loc 1 490 12 is_stmt 0
	sw	s1,24(sp)
	.loc 1 491 4 is_stmt 1
	.loc 1 491 15 is_stmt 0
	sw	a5,28(sp)
	.loc 1 495 4 is_stmt 1
	call	ztaDualHartExecute
.LVL640:
	.loc 1 497 4
	mv	a0,s0
	call	ztaJobDone
.LVL641:
	.loc 1 498 1 is_stmt 0
	lw	ra,76(sp)
	.cfi_restore 1
	lw	s0,72(sp)
	.cfi_restore 8
.LVL642:
	lw	s1,68(sp)
	.cfi_restore 9
.LVL643:
	lw	s2,64(sp)
	.cfi_restore 18
.LVL644:
	lw	s3,60(sp)
	.cfi_restore 19
.LVL645:
	lw	s4,56(sp)
	.cfi_restore 20
.LVL646:
	lw	s5,52(sp)
	.cfi_restore 21
.LVL647:
	lw	s6,48(sp)
	.cfi_restore 22
.LVL648:
	lw	s7,44(sp)
	.cfi_restore 23
.LVL649:
	addi	sp,sp,80
	.cfi_def_cfa_offset 0
.LVL650:
	jr	ra
	.cfi_endproc
.LFE15:
	.size	kernel_llm_matmul_q8_exe, .-kernel_llm_matmul_q8_exe
	.section	.rodata.str1.4
	.align	2
.LC2:
	.string	"(N%32)==0"
	.text
	.align	2
	.globl	kernel_llm_quantize_exe
	.type	kernel_llm_quantize_exe, @function
kernel_llm_quantize_exe:
.LFB16:
	.loc 1 528 84 is_stmt 1
	.cfi_startproc
.LVL651:
	.loc 1 533 8 is_stmt 0
	srai	a5,a1,31
	andi	a5,a5,31
	add	a5,a5,a1
	.loc 1 528 84
	addi	sp,sp,-192
	.cfi_def_cfa_offset 192
	.loc 1 533 8
	srai	a5,a5,5
	.loc 1 528 84
	sw	a1,36(sp)
	sw	ra,188(sp)
	andi	a1,a1,31
.LVL652:
	.loc 1 529 4 is_stmt 1
	.loc 1 530 4
	.loc 1 531 4
	.loc 1 532 4
	.loc 1 533 4
	.loc 1 533 8 is_stmt 0
	sw	a5,88(sp)
.LVL653:
	.loc 1 534 4 is_stmt 1
	.loc 1 535 4
	.loc 1 536 4
	.loc 1 537 4
	.loc 1 538 4
	.loc 1 539 4
	.loc 1 540 4
	.loc 1 542 4
	.cfi_offset 1, -4
	bne	a1,zero,.L319
	.loc 1 544 4
.LVL654:
	.loc 1 545 4
	.loc 1 546 4
	.loc 1 548 4
	.loc 1 548 18 discriminator 1
	lw	a5,36(sp)
.LVL655:
	ble	a5,zero,.L314
.LBB320:
	.loc 1 559 531 is_stmt 0
	srli	a5,a2,1
	sw	a5,96(sp)
.LBE320:
.LBB321:
	.loc 1 559 115
	li	a6,-2147483648
.LBE321:
.LBB322:
	.loc 1 570 209
	srli	a5,a3,1
.LBE322:
.LBB323:
	.loc 1 559 150
	li	a7,-2147479552
.LBE323:
.LBB324:
	.loc 1 570 209
	sw	a5,100(sp)
.LBE324:
.LBB325:
	.loc 1 598 205
	srli	a5,a4,1
.LBE325:
.LBB326:
	.loc 1 559 115
	addi	a4,a6,1568
.LVL656:
	sw	a4,40(sp)
	.loc 1 559 194
	li	t1,-2147483648
	.loc 1 559 150
	addi	a4,a7,-864
	sw	a4,44(sp)
	.loc 1 559 194
	li	t3,4096
	addi	a4,t1,544
	sw	s3,172(sp)
	sw	a4,20(sp)
	.cfi_offset 19, -20
.LBE326:
.LBB327:
	.loc 1 570 128
	lw	s3,88(sp)
.LBE327:
.LBB328:
	.loc 1 559 194
	addi	a4,t3,-2048
	.loc 1 559 253
	li	t4,-2147479552
	.loc 1 559 194
	sw	a4,48(sp)
	.loc 1 559 288
	li	t5,-2147479552
	.loc 1 559 253
	addi	a4,t4,-736
	sw	s0,184(sp)
	sw	a4,24(sp)
	.cfi_offset 8, -8
	.loc 1 559 288
	li	s0,1036288
	addi	a4,t5,-1632
	sw	s1,180(sp)
.LBE328:
.LBB329:
	.loc 1 598 205
	sw	a5,92(sp)
.LBE329:
.LBB330:
	.loc 1 559 288
	sw	a4,12(sp)
.LBE330:
.LBB331:
	.loc 1 570 128
	addi	a5,s3,-1
.LBE331:
.LBB332:
	.loc 1 559 288
	addi	a4,s0,-1921
	.cfi_offset 9, -12
.LBE332:
	.loc 1 559 615
	li	s1,393216
	sw	s2,176(sp)
.LBB333:
	.loc 1 570 128
	sw	a5,120(sp)
.LBE333:
.LBB334:
	.loc 1 559 288
	sw	a4,60(sp)
	lw	a5,36(sp)
.LBE334:
	.loc 1 559 615
	addi	a4,s1,1
	.cfi_offset 18, -16
	.loc 1 561 64
	li	s2,-2147479552
	sw	s4,168(sp)
	.loc 1 559 615
	sw	a4,28(sp)
	.cfi_offset 20, -24
	.loc 1 567 148
	li	s4,-2147479552
	.loc 1 561 64
	addi	a4,s2,-920
	sw	s5,164(sp)
	sw	a4,104(sp)
	.cfi_offset 21, -28
	.loc 1 567 148
	li	s5,973082624
	addi	a4,s4,-1432
	sw	s6,160(sp)
	addi	a5,a5,-1
	sw	a4,108(sp)
	.cfi_offset 22, -32
	.loc 1 567 205
	li	s6,-2147483648
	.loc 1 567 148
	addi	a4,s5,2
	sw	s7,156(sp)
	sw	s8,152(sp)
	sw	s9,148(sp)
	sw	s10,144(sp)
	sw	s11,140(sp)
	sw	a5,116(sp)
	sw	a4,112(sp)
.LBB335:
	.loc 1 559 519
	sw	a2,32(sp)
.LBE335:
	.loc 1 567 205
	addi	a4,s6,360
	.cfi_offset 23, -36
	.cfi_offset 24, -40
	.cfi_offset 25, -44
	.cfi_offset 26, -48
	.cfi_offset 27, -52
.LBB336:
	.loc 1 570 279
	li	s7,1036288
.LBE336:
	.loc 1 548 13
	sw	zero,16(sp)
	.loc 1 567 205
	sw	a4,64(sp)
.LBB337:
	.loc 1 559 65
	li	s11,-2147483648
.LBE337:
.LBB338:
	.loc 1 570 279
	addi	a4,s7,127
.LBE338:
.LBB339:
	.loc 1 559 92
	li	a1,-2147483648
.LBE339:
.LBB340:
	.loc 1 570 566
	li	s8,1036288
.LBE340:
.LBB341:
	.loc 1 559 65
	addi	s11,s11,1056
.LBE341:
	.loc 1 559 615
	li	t2,-2147483648
	.loc 1 567 205
	li	t0,16384
.LBB342:
	.loc 1 559 92
	addi	a5,a1,672
.LBE342:
.LBB343:
	.loc 1 570 279
	sw	a4,52(sp)
.LBE343:
.LBB344:
	.loc 1 570 566
	addi	a4,s8,-1923
	mv	a7,s11
.LBE344:
	.loc 1 548 9
	li	t6,0
.LBB345:
	.loc 1 559 65
	li	s9,1
.LBE345:
	.loc 1 559 615
	addi	t2,t2,20
	.loc 1 561 64
	li	s10,8192
	.loc 1 567 205
	addi	t0,t0,-128
.LBB346:
	.loc 1 570 566
	sw	a4,56(sp)
	sw	a0,124(sp)
	mv	s11,a5
.LVL657:
.L313:
.LBE346:
	.loc 1 550 7 is_stmt 1
	.loc 1 551 7
	.loc 1 550 14 is_stmt 0
	lw	a5,36(sp)
	sub	a4,a5,t6
.LVL658:
	.loc 1 553 9
	li	a5,1024
	ble	a4,a5,.L305
	li	a4,1024
.LVL659:
.L305:
	li	a5,64
	bge	a4,a5,.L306
	li	a4,64
.L306:
.LVL660:
	.loc 1 555 7 is_stmt 1
.LBB347:
	.loc 1 559 65 is_stmt 0
	sw	s9,0(a7)
.LVL661:
	.loc 1 559 23
	addi	s0,a4,-1
	.loc 1 559 92
	sw	s0,0(s11)
	.loc 1 559 115
	lw	s2,40(sp)
.LBE347:
.LBB348:
	.loc 1 559 566
	li	s8,1036288
	addi	s8,s8,125
.LBE348:
.LBB349:
	.loc 1 559 115
	sw	s0,0(s2)
	.loc 1 559 150
	lw	s5,44(sp)
.LBE349:
	.loc 1 561 104
	li	a0,-2147483648
	.loc 1 561 145
	li	a6,-2147479552
.LBB350:
	.loc 1 559 150
	sw	zero,0(s5)
	.loc 1 559 194
	lw	s6,20(sp)
	lw	a5,48(sp)
.LBE350:
	.loc 1 561 190
	li	t3,5
	.loc 1 561 171
	li	s7,-2147479552
.LBB351:
	.loc 1 559 194
	sw	a5,0(s6)
	.loc 1 559 253
	lw	s1,24(sp)
.LBE351:
.LBB352:
	.loc 1 559 347
	add	a5,a4,t6
	.loc 1 559 341
	addi	a5,a5,-1
.LBE352:
.LBB353:
	.loc 1 559 253
	sw	a4,0(s1)
	.loc 1 559 288
	lw	a3,12(sp)
	lw	a2,60(sp)
.LBE353:
.LBB354:
	.loc 1 559 358
	sub	a5,a5,t6
.LBE354:
	.loc 1 567 64
	li	s4,-2147483648
.LBB355:
	.loc 1 559 288
	sw	a2,0(a3)
.LBE355:
.LBB356:
	.loc 1 559 387
	sw	s9,0(a7)
	.loc 1 559 358
	sw	a5,68(sp)
	.loc 1 559 414
	sw	a5,0(s11)
	lw	a5,116(sp)
.LBE356:
	.loc 1 561 22
	li	a2,-2147483648
	.loc 1 567 107
	li	a1,-2147479552
	sub	a5,a5,t6
	sw	a5,72(sp)
.LBB357:
	.loc 1 559 437
	sw	a5,0(s2)
	.loc 1 559 467
	sw	t6,0(s5)
	.loc 1 559 516
	lw	a5,96(sp)
.LBE357:
	.loc 1 567 181
	li	t4,-2147483648
	.loc 1 561 22
	addi	a2,a2,1000
.LBB358:
	.loc 1 559 516
	add	a5,a5,t6
	.loc 1 559 511
	sw	a5,0(s6)
	.loc 1 559 566
	sw	a3,12(sp)
	sw	s8,0(a3)
.LBE358:
	.loc 1 559 615
	lw	a5,28(sp)
	.loc 1 567 181
	addi	t4,t4,232
	.loc 1 559 615
	sw	a5,0(t2)
	.loc 1 561 22
	sw	a4,0(a2)
	.loc 1 561 64
	lw	t5,104(sp)
.LBB359:
	.loc 1 559 194
	li	a5,4096
.LBE359:
	.loc 1 561 64
	sw	s10,0(t5)
	.loc 1 561 104
	sw	a5,1256(a0)
	.loc 1 561 145
	li	a5,31
	sw	a5,-1688(a6)
	.loc 1 561 171
	sw	s9,364(s7)
	.loc 1 555 15
	srai	a5,a4,5
.LVL662:
.LBB360:
	.loc 1 559 3 is_stmt 1
	.loc 1 559 49
	.loc 1 559 76
	.loc 1 559 98
	.loc 1 559 133
	.loc 1 559 159
	.loc 1 559 178
	.loc 1 559 235
	.loc 1 559 236
	.loc 1 559 271
.LBE360:
.LBB361:
	.loc 1 559 321
	.loc 1 559 371
	.loc 1 559 398
	.loc 1 559 420
	.loc 1 559 450
	.loc 1 559 476
	.loc 1 559 495
	.loc 1 559 548
	.loc 1 559 549
.LBE361:
	.loc 1 559 598
	.loc 1 559 599
	.loc 1 561 1
	.loc 1 561 42
	.loc 1 561 83
	.loc 1 561 123
	.loc 1 561 149
	.loc 1 561 174
	.loc 1 567 1
	.loc 1 561 190 is_stmt 0
	sw	t3,0(t2)
.LVL663:
	.loc 1 567 22
	sw	a5,0(a2)
	.loc 1 567 43 is_stmt 1
	.loc 1 567 64 is_stmt 0
	sw	zero,1128(s4)
	.loc 1 567 85 is_stmt 1
	.loc 1 567 107 is_stmt 0
	sw	s10,-536(a1)
	.loc 1 567 126 is_stmt 1
	.loc 1 567 148 is_stmt 0
	lw	t1,108(sp)
	lw	s4,112(sp)
	sw	s4,0(t1)
	.loc 1 567 160 is_stmt 1
	.loc 1 567 181 is_stmt 0
	sw	zero,0(t4)
	.loc 1 567 184 is_stmt 1
	.loc 1 567 205 is_stmt 0
	lw	s4,64(sp)
	.loc 1 567 234
	li	t1,-2147483648
	addi	t1,t1,236
	.loc 1 567 205
	sw	t0,0(s4)
	.loc 1 567 213 is_stmt 1
	.loc 1 567 234 is_stmt 0
	sw	s9,0(t1)
	.loc 1 567 237 is_stmt 1
.LBB362:
	.loc 1 570 29 is_stmt 0
	lw	s4,16(sp)
.LBE362:
	.loc 1 567 253
	sw	t3,0(t2)
.LBB363:
	.loc 1 570 3 is_stmt 1
.LVL664:
	.loc 1 570 70 is_stmt 0
	sw	s9,0(a7)
	.loc 1 570 29
	add	a3,a5,s4
	.loc 1 570 23
	addi	a3,a3,-1
.LVL665:
	.loc 1 570 41
	sub	a3,a3,s4
.LVL666:
	.loc 1 570 54 is_stmt 1
	.loc 1 570 81
	.loc 1 570 97 is_stmt 0
	sw	a3,0(s11)
	.loc 1 570 103 is_stmt 1
	addi	t3,s3,-1
	.loc 1 570 120 is_stmt 0
	sw	t3,0(s2)
	.loc 1 570 136 is_stmt 1
	.loc 1 570 153 is_stmt 0
	sw	s4,0(s5)
	.loc 1 570 162 is_stmt 1
.LVL667:
	.loc 1 570 181
	.loc 1 570 202 is_stmt 0
	lw	s7,100(sp)
	sw	s4,16(sp)
	.loc 1 570 252
	addi	a3,a3,1
.LVL668:
	.loc 1 570 202
	add	t3,s7,s4
	.loc 1 570 197
	sw	t3,0(s6)
	.loc 1 570 226 is_stmt 1
	.loc 1 570 227
	.loc 1 570 244 is_stmt 0
	sw	s1,24(sp)
	sw	a3,0(s1)
	.loc 1 570 262 is_stmt 1
	.loc 1 570 279 is_stmt 0
	lw	t3,12(sp)
	lw	a3,52(sp)
.LVL669:
.LBE363:
.LBB364:
	.loc 1 570 461
	mv	s7,s5
	.loc 1 570 425
	mv	s4,s2
.LVL670:
.LBE364:
.LBB365:
	.loc 1 570 279
	sw	a3,0(t3)
.LVL671:
.LBE365:
.LBB366:
	.loc 1 570 312 is_stmt 1
	.loc 1 570 359
	.loc 1 570 375 is_stmt 0
	sw	s9,0(a7)
	.loc 1 570 386 is_stmt 1
	.loc 1 570 332 is_stmt 0
	addi	a3,a5,-1
.LVL672:
	.loc 1 570 402
	sw	a3,0(s11)
	.loc 1 570 408 is_stmt 1
	.loc 1 570 425 is_stmt 0
	sw	a3,0(s2)
	.loc 1 570 444 is_stmt 1
	.loc 1 570 461 is_stmt 0
	sw	zero,0(s5)
	.loc 1 570 470 is_stmt 1
.LVL673:
	.loc 1 570 489
	.loc 1 570 505 is_stmt 0
	sw	s6,20(sp)
	sw	zero,0(s6)
	.loc 1 570 548 is_stmt 1
	.loc 1 570 549
	.loc 1 570 566 is_stmt 0
	sw	t3,12(sp)
	lw	s5,56(sp)
.LBE366:
.LBB367:
.LBB368:
	.loc 1 93 101
	li	s6,1073741824
	.loc 1 93 178
	li	a3,-2147479552
.LVL674:
.LBE368:
.LBE367:
.LBB371:
	.loc 1 570 566
	sw	s5,0(t3)
.LBE371:
	.loc 1 570 598 is_stmt 1
	.loc 1 570 599
	.loc 1 570 615 is_stmt 0
	lw	s2,28(sp)
.LBB372:
.LBB369:
	.loc 1 90 159
	li	t3,5
	.loc 1 93 215
	li	s5,-1082130432
.LBE369:
.LBE372:
	.loc 1 570 615
	sw	s2,0(t2)
	.loc 1 572 7 is_stmt 1
.LVL675:
.LBB373:
.LBB370:
	.loc 1 68 4
	.loc 1 90 1
	.loc 1 90 22 is_stmt 0
	sw	a5,0(a2)
	.loc 1 90 39 is_stmt 1
	.loc 1 90 61 is_stmt 0
	sw	s10,0(t5)
	.loc 1 90 76 is_stmt 1
	.loc 1 90 104 is_stmt 0
	sw	zero,1256(a0)
	.loc 1 90 119 is_stmt 1
	.loc 1 90 140 is_stmt 0
	li	s2,-2147483648
	sw	s9,492(s2)
	.loc 1 90 143 is_stmt 1
	.loc 1 90 159 is_stmt 0
	sw	t3,0(t2)
	.loc 1 93 1 is_stmt 1
	.loc 1 93 22 is_stmt 0
	sw	a5,0(a2)
	.loc 1 93 39 is_stmt 1
	.loc 1 93 61 is_stmt 0
	li	a0,12288
	sw	a0,0(t5)
	.loc 1 93 79 is_stmt 1
	.loc 1 93 101 is_stmt 0
	li	t3,-2147479552
	sw	s6,-1816(t3)
	.loc 1 93 113 is_stmt 1
	.loc 1 93 61 is_stmt 0
	mv	s2,t5
	.loc 1 93 141
	li	t5,-2147483648
	sw	zero,1512(t5)
	.loc 1 93 156 is_stmt 1
	.loc 1 93 178 is_stmt 0
	sw	s10,-408(a3)
	.loc 1 93 193 is_stmt 1
	.loc 1 93 215 is_stmt 0
	sw	s5,-1688(a6)
	.loc 1 93 227 is_stmt 1
	.loc 1 93 248 is_stmt 0
	sw	zero,0(t1)
	.loc 1 96 1 is_stmt 1
	.loc 1 96 22 is_stmt 0
	sw	a5,0(a2)
	.loc 1 96 39 is_stmt 1
	.loc 1 96 61 is_stmt 0
	sw	s10,0(s2)
	.loc 1 96 76 is_stmt 1
	.loc 1 96 98 is_stmt 0
	sw	a0,-536(a1)
	.loc 1 96 116 is_stmt 1
	.loc 1 96 138 is_stmt 0
	sw	s10,-408(a3)
	.loc 1 96 153 is_stmt 1
	.loc 1 96 174 is_stmt 0
	sw	zero,0(t4)
	.loc 1 96 177 is_stmt 1
	.loc 1 96 198 is_stmt 0
	lw	s1,64(sp)
	.loc 1 93 141
	addi	t5,t5,1512
	.loc 1 96 198
	sw	t0,0(s1)
	.loc 1 96 206 is_stmt 1
	.loc 1 96 227 is_stmt 0
	sw	zero,0(t1)
	.loc 1 99 1 is_stmt 1
	.loc 1 99 22 is_stmt 0
	sw	a5,0(a2)
	.loc 1 99 39 is_stmt 1
	.loc 1 99 61 is_stmt 0
	sw	a0,0(s2)
	.loc 1 99 79 is_stmt 1
	.loc 1 99 101 is_stmt 0
	sw	s6,-1816(t3)
	.loc 1 99 113 is_stmt 1
	.loc 1 99 141 is_stmt 0
	sw	zero,0(t5)
	.loc 1 99 156 is_stmt 1
	.loc 1 99 178 is_stmt 0
	sw	s10,-408(a3)
	.loc 1 99 193 is_stmt 1
	.loc 1 99 215 is_stmt 0
	sw	s5,-1688(a6)
	.loc 1 99 227 is_stmt 1
	.loc 1 99 248 is_stmt 0
	sw	zero,0(t1)
	.loc 1 102 1 is_stmt 1
	.loc 1 102 22 is_stmt 0
	sw	a5,0(a2)
	.loc 1 102 39 is_stmt 1
	.loc 1 102 61 is_stmt 0
	sw	s10,0(s2)
	.loc 1 102 76 is_stmt 1
	.loc 1 102 98 is_stmt 0
	sw	a0,-536(a1)
	.loc 1 102 116 is_stmt 1
	.loc 1 102 138 is_stmt 0
	sw	s10,-408(a3)
	.loc 1 102 153 is_stmt 1
	.loc 1 102 174 is_stmt 0
	sw	zero,0(t4)
	.loc 1 102 177 is_stmt 1
	.loc 1 102 198 is_stmt 0
	sw	t0,0(s1)
	.loc 1 102 206 is_stmt 1
	.loc 1 102 227 is_stmt 0
	sw	zero,0(t1)
	.loc 1 105 1 is_stmt 1
	.loc 1 105 22 is_stmt 0
	sw	a5,0(a2)
	.loc 1 105 39 is_stmt 1
	.loc 1 105 61 is_stmt 0
	sw	a0,0(s2)
	.loc 1 105 79 is_stmt 1
	.loc 1 105 101 is_stmt 0
	sw	s6,-1816(t3)
	.loc 1 105 113 is_stmt 1
	.loc 1 105 141 is_stmt 0
	sw	zero,0(t5)
	.loc 1 105 156 is_stmt 1
	.loc 1 105 178 is_stmt 0
	sw	s10,-408(a3)
	.loc 1 105 193 is_stmt 1
	.loc 1 105 215 is_stmt 0
	sw	s5,-1688(a6)
	.loc 1 105 227 is_stmt 1
	.loc 1 105 248 is_stmt 0
	sw	zero,0(t1)
	.loc 1 108 1 is_stmt 1
	.loc 1 108 22 is_stmt 0
	sw	a5,0(a2)
	.loc 1 108 39 is_stmt 1
	.loc 1 108 61 is_stmt 0
	sw	s10,0(s2)
	.loc 1 108 76 is_stmt 1
	.loc 1 108 98 is_stmt 0
	sw	a0,-536(a1)
	.loc 1 108 116 is_stmt 1
	.loc 1 108 138 is_stmt 0
	sw	s10,-408(a3)
	.loc 1 108 153 is_stmt 1
	.loc 1 108 174 is_stmt 0
	sw	zero,0(t4)
	.loc 1 108 177 is_stmt 1
	.loc 1 108 198 is_stmt 0
	sw	t0,0(s1)
	.loc 1 108 206 is_stmt 1
	.loc 1 108 227 is_stmt 0
	sw	s9,0(t1)
	.loc 1 108 230 is_stmt 1
	.loc 1 108 246 is_stmt 0
	li	t3,5
	sw	t3,0(t2)
.LVL676:
.LBE370:
.LBE373:
	.loc 1 574 7 is_stmt 1
	.loc 1 575 7
.LBB374:
	.loc 1 577 3
	.loc 1 577 49
	.loc 1 577 65 is_stmt 0
	sw	s9,0(a7)
.LVL677:
	.loc 1 577 76 is_stmt 1
	.loc 1 577 92 is_stmt 0
	sw	s0,0(s11)
	.loc 1 577 98 is_stmt 1
	.loc 1 577 115 is_stmt 0
	sw	s0,0(s4)
	.loc 1 577 133 is_stmt 1
	.loc 1 577 150 is_stmt 0
	sw	zero,0(s7)
	.loc 1 577 159 is_stmt 1
.LVL678:
	.loc 1 577 178
	.loc 1 577 194 is_stmt 0
	lw	s6,20(sp)
	sw	s10,0(s6)
	.loc 1 577 236 is_stmt 1
	.loc 1 577 237
	.loc 1 577 254 is_stmt 0
	lw	s1,24(sp)
	sw	a4,0(s1)
	.loc 1 577 272 is_stmt 1
	.loc 1 577 289 is_stmt 0
	lw	a3,12(sp)
	lw	a4,60(sp)
.LVL679:
	sw	a4,0(a3)
.LVL680:
.LBE374:
.LBB375:
	.loc 1 577 322 is_stmt 1
	.loc 1 577 368
	.loc 1 577 384 is_stmt 0
	sw	s9,0(a7)
	.loc 1 577 395 is_stmt 1
	.loc 1 577 411 is_stmt 0
	sw	s0,0(s11)
	.loc 1 577 417 is_stmt 1
	.loc 1 577 434 is_stmt 0
	sw	s0,0(s4)
	.loc 1 577 452 is_stmt 1
	.loc 1 577 469 is_stmt 0
	sw	zero,0(s7)
	.loc 1 577 478 is_stmt 1
.LVL681:
	.loc 1 577 497
	.loc 1 577 524 is_stmt 0
	lw	a4,32(sp)
	srli	a5,a4,1
.LVL682:
	.loc 1 577 513
	sw	a5,0(s6)
	.loc 1 577 541 is_stmt 1
	.loc 1 577 542
	.loc 1 577 559 is_stmt 0
	sw	s8,0(a3)
.LBE375:
	.loc 1 577 591 is_stmt 1
	.loc 1 577 592
	.loc 1 577 608 is_stmt 0
	lw	s2,28(sp)
	sw	s2,0(t2)
	.loc 1 581 7 is_stmt 1
.LVL683:
	.loc 1 582 14
	.loc 1 584 10
	.loc 1 585 10
	.loc 1 585 12 is_stmt 0
	lw	a5,88(sp)
	lw	a1,16(sp)
	ble	a5,a1,.L307
	sw	a7,84(sp)
	lw	a7,120(sp)
	.loc 1 595 60
	li	s4,-2147479552
	.loc 1 595 98
	li	s2,-2147479552
	.loc 1 595 196
	li	s1,-2147483648
	.loc 1 581 14
	li	a5,0
	.loc 1 581 63
	li	a4,16384
	.loc 1 581 42
	li	a3,8192
	li	s6,4096
	.loc 1 593 16
	li	s5,7
	.loc 1 595 22
	li	t3,32
	.loc 1 595 60
	addi	s4,s4,1128
	.loc 1 595 98
	addi	s2,s2,-664
	.loc 1 595 196
	addi	s1,s1,616
	.loc 1 595 288 discriminator 9
	li	s8,5
	.loc 1 593 30 discriminator 2
	addi	s7,a1,-1
	sw	s0,76(sp)
	sw	t6,80(sp)
.LVL684:
.L308:
	.loc 1 593 22
	andi	t6,a5,7
	add	a6,a4,s6
.LVL685:
	.loc 1 593 10 is_stmt 1
	mv	s0,a5
	mv	a1,a4
	mv	a0,a3
	.loc 1 583 13 is_stmt 0
	addi	a5,a5,1
.LVL686:
	.loc 1 583 49
	addi	a4,a4,64
.LVL687:
	.loc 1 583 43
	addi	a3,a3,4
.LVL688:
	.loc 1 593 16
	beq	t6,s5,.L309
	.loc 1 593 30 discriminator 2
	add	t6,s7,a5
	beq	t6,a7,.L309
	.loc 1 593 55 discriminator 4
	li	t6,31
	beq	s0,t6,.L312
.LVL689:
	.loc 1 595 1 is_stmt 1
	.loc 1 595 22 is_stmt 0
	sw	t3,0(a2)
.LVL690:
	.loc 1 595 38 is_stmt 1
	.loc 1 595 60 is_stmt 0
	sw	a6,0(s4)
	.loc 1 595 76 is_stmt 1
	.loc 1 595 98 is_stmt 0
	sw	a0,0(s2)
	.loc 1 595 114 is_stmt 1
	.loc 1 595 135 is_stmt 0
	sw	a1,0(t5)
	.loc 1 595 151 is_stmt 1
	.loc 1 595 172 is_stmt 0
	sw	zero,0(t4)
	.loc 1 595 175 is_stmt 1
	.loc 1 595 196 is_stmt 0
	sw	t0,0(s1)
	.loc 1 595 204 is_stmt 1
	.loc 1 595 225 is_stmt 0 discriminator 8
	sw	zero,0(t1)
	.loc 1 595 259 is_stmt 1 discriminator 8
	.loc 1 583 46
.LVL691:
	.loc 1 582 14
	.loc 1 584 10
	.loc 1 585 10
	.loc 1 585 12 is_stmt 0
	bne	s3,a5,.L308
.LVL692:
.L316:
	lw	s0,76(sp)
	lw	t6,80(sp)
	lw	a7,84(sp)
.L307:
.LBB376:
	.loc 1 598 3 is_stmt 1
.LVL693:
	.loc 1 598 55
	.loc 1 598 71 is_stmt 0
	li	a4,1
	sw	a4,0(a7)
.LVL694:
	.loc 1 598 82 is_stmt 1
	.loc 1 598 98 is_stmt 0
	lw	a3,68(sp)
.LBE376:
	.loc 1 548 18 discriminator 1
	addi	s3,s3,-32
.LBB377:
	.loc 1 598 98
	sw	a3,0(s11)
	.loc 1 598 104 is_stmt 1
	.loc 1 598 121 is_stmt 0
	lw	a5,72(sp)
	lw	a2,40(sp)
	sw	a5,0(a2)
	.loc 1 598 134 is_stmt 1
	.loc 1 598 151 is_stmt 0
	lw	a1,44(sp)
	sw	t6,0(a1)
	.loc 1 598 160 is_stmt 1
.LVL695:
	.loc 1 598 179
	.loc 1 598 200 is_stmt 0
	lw	a5,92(sp)
	.loc 1 598 195
	lw	a0,20(sp)
	.loc 1 598 200
	add	a5,a5,t6
	.loc 1 598 195
	sw	a5,0(a0)
	.loc 1 598 222 is_stmt 1
	.loc 1 598 223
	.loc 1 598 248 is_stmt 0
	addi	a5,a3,1
	.loc 1 598 240
	lw	a3,24(sp)
.LBE377:
	.loc 1 548 23 discriminator 2
	addi	t6,t6,1024
.LVL696:
.LBB378:
	.loc 1 598 240
	sw	a5,0(a3)
	.loc 1 598 258 is_stmt 1
	.loc 1 598 275 is_stmt 0
	lw	a5,52(sp)
	lw	a3,12(sp)
	sw	a5,0(a3)
.LBE378:
.LBB379:
	.loc 1 598 308 is_stmt 1
.LVL697:
	.loc 1 598 354
	.loc 1 598 370 is_stmt 0
	sw	a4,0(a7)
	.loc 1 598 381 is_stmt 1
	.loc 1 598 397 is_stmt 0
	sw	s0,0(s11)
	.loc 1 598 403 is_stmt 1
	.loc 1 598 420 is_stmt 0
	sw	s0,0(a2)
	.loc 1 598 438 is_stmt 1
	.loc 1 598 499 is_stmt 0
	li	a5,12288
	.loc 1 598 455
	sw	zero,0(a1)
	.loc 1 598 464 is_stmt 1
.LVL698:
	.loc 1 598 483
	.loc 1 598 499 is_stmt 0
	addi	a5,a5,-2048
	sw	a5,0(a0)
	.loc 1 598 541 is_stmt 1
	.loc 1 598 542
	.loc 1 598 559 is_stmt 0
	lw	a5,56(sp)
	sw	a5,0(a3)
.LBE379:
	.loc 1 598 591 is_stmt 1
	.loc 1 598 592
	.loc 1 598 608 is_stmt 0
	lw	a5,28(sp)
	sw	a5,0(t2)
	.loc 1 599 1 is_stmt 1
	.loc 1 599 2
	.loc 1 599 18 is_stmt 0
	li	a5,88
	sw	a5,0(t2)
	.loc 1 548 28 is_stmt 1 discriminator 2
.LVL699:
	.loc 1 548 30 is_stmt 0 discriminator 2
	lw	a5,16(sp)
	.loc 1 548 18 discriminator 1
	lw	a4,48(sp)
	.loc 1 548 30 discriminator 2
	addi	a5,a5,32
	sw	a5,16(sp)
.LVL700:
	.loc 1 548 18 is_stmt 1 discriminator 1
	lw	a5,32(sp)
.LVL701:
	add	a5,a5,a4
	sw	a5,32(sp)
	lw	a5,36(sp)
	bgt	a5,t6,.L313
	lw	a0,124(sp)
	lw	s0,184(sp)
	.cfi_restore 8
	lw	s1,180(sp)
	.cfi_restore 9
	lw	s2,176(sp)
	.cfi_restore 18
	lw	s3,172(sp)
	.cfi_restore 19
	lw	s4,168(sp)
	.cfi_restore 20
	lw	s5,164(sp)
	.cfi_restore 21
	lw	s6,160(sp)
	.cfi_restore 22
	lw	s7,156(sp)
	.cfi_restore 23
	lw	s8,152(sp)
	.cfi_restore 24
	lw	s9,148(sp)
	.cfi_restore 25
	lw	s10,144(sp)
	.cfi_restore 26
	lw	s11,140(sp)
	.cfi_restore 27
.LVL702:
.L314:
	.loc 1 601 4
	.loc 1 602 1 is_stmt 0
	lw	ra,188(sp)
	.cfi_restore 1
	addi	sp,sp,192
	.cfi_def_cfa_offset 0
	.loc 1 601 4
	tail	ztaJobDone
.LVL703:
.L309:
	.cfi_def_cfa_offset 192
	.cfi_offset 1, -4
	.cfi_offset 8, -8
	.cfi_offset 9, -12
	.cfi_offset 18, -16
	.cfi_offset 19, -20
	.cfi_offset 20, -24
	.cfi_offset 21, -28
	.cfi_offset 22, -32
	.cfi_offset 23, -36
	.cfi_offset 24, -40
	.cfi_offset 25, -44
	.cfi_offset 26, -48
	.cfi_offset 27, -52
	.loc 1 595 1 is_stmt 1
	.loc 1 595 22 is_stmt 0
	sw	t3,0(a2)
	.loc 1 595 38 is_stmt 1
	.loc 1 595 60 is_stmt 0
	sw	a6,0(s4)
	.loc 1 595 76 is_stmt 1
	.loc 1 595 98 is_stmt 0
	sw	a0,0(s2)
	.loc 1 595 114 is_stmt 1
	.loc 1 595 135 is_stmt 0
	sw	a1,0(t5)
	.loc 1 595 151 is_stmt 1
	.loc 1 595 172 is_stmt 0
	sw	zero,0(t4)
	.loc 1 595 175 is_stmt 1
	.loc 1 595 196 is_stmt 0
	sw	t0,0(s1)
	.loc 1 595 204 is_stmt 1
	.loc 1 595 225 is_stmt 0 discriminator 8
	li	a1,1
.LVL704:
	sw	a1,0(t1)
	.loc 1 595 259 is_stmt 1 discriminator 8
	.loc 1 595 272 discriminator 9
	.loc 1 595 288 is_stmt 0 discriminator 9
	sw	s8,0(t2)
	.loc 1 583 46 is_stmt 1
.LVL705:
	.loc 1 582 14
	beq	a5,t3,.L316
.LVL706:
	.loc 1 584 10
	.loc 1 585 10
	.loc 1 585 12 is_stmt 0
	bne	s3,a5,.L308
	j	.L316
.LVL707:
.L312:
	.loc 1 595 22
	li	a5,-2147483648
	li	a4,32
	lw	s0,76(sp)
.LVL708:
	lw	t6,80(sp)
	lw	a7,84(sp)
.LVL709:
	.loc 1 595 1 is_stmt 1
	.loc 1 595 60 is_stmt 0
	li	a3,-2147479552
	.loc 1 595 22
	sw	a4,1000(a5)
	.loc 1 595 38 is_stmt 1
	.loc 1 595 60 is_stmt 0
	sw	a6,1128(a3)
	.loc 1 595 76 is_stmt 1
	.loc 1 595 98 is_stmt 0
	li	a4,-2147479552
	sw	a0,-664(a4)
	.loc 1 595 114 is_stmt 1
	.loc 1 595 135 is_stmt 0
	li	a2,-2147483648
	sw	a1,1512(a2)
	.loc 1 595 151 is_stmt 1
	.loc 1 595 172 is_stmt 0
	li	a0,-2147483648
.LVL710:
	sw	zero,232(a0)
	.loc 1 595 175 is_stmt 1
	.loc 1 595 196 is_stmt 0
	li	a1,-2147483648
.LVL711:
	.loc 1 595 225 discriminator 8
	li	a5,-2147483648
	.loc 1 595 196
	sw	t0,616(a1)
	.loc 1 595 204 is_stmt 1
	.loc 1 595 225 is_stmt 0 discriminator 8
	li	a4,1
	sw	a4,236(a5)
	.loc 1 595 259 is_stmt 1 discriminator 8
	.loc 1 595 272 discriminator 9
	.loc 1 595 288 is_stmt 0 discriminator 9
	li	a5,5
	sw	a5,0(t2)
	.loc 1 583 46 is_stmt 1
	.loc 1 582 14
	j	.L307
.LVL712:
.L319:
	.cfi_restore 8
	.cfi_restore 9
	.cfi_restore 18
	.cfi_restore 19
	.cfi_restore 20
	.cfi_restore 21
	.cfi_restore 22
	.cfi_restore 23
	.cfi_restore 24
	.cfi_restore 25
	.cfi_restore 26
	.cfi_restore 27
	.loc 1 542 4 is_stmt 0 discriminator 1
	lui	a3,%hi(.LC2)
.LVL713:
	lui	a2,%hi(.LANCHOR0+24)
.LVL714:
	lui	a0,%hi(.LC1)
.LVL715:
	addi	a3,a3,%lo(.LC2)
	addi	a2,a2,%lo(.LANCHOR0+24)
	li	a1,542
	addi	a0,a0,%lo(.LC1)
	sw	s0,184(sp)
	sw	s1,180(sp)
	sw	s2,176(sp)
	sw	s3,172(sp)
	sw	s4,168(sp)
	sw	s5,164(sp)
	sw	s6,160(sp)
	sw	s7,156(sp)
	sw	s8,152(sp)
	sw	s9,148(sp)
	sw	s10,144(sp)
	sw	s11,140(sp)
	.cfi_offset 8, -8
	.cfi_offset 9, -12
	.cfi_offset 18, -16
	.cfi_offset 19, -20
	.cfi_offset 20, -24
	.cfi_offset 21, -28
	.cfi_offset 22, -32
	.cfi_offset 23, -36
	.cfi_offset 24, -40
	.cfi_offset 25, -44
	.cfi_offset 26, -48
	.cfi_offset 27, -52
	.loc 1 542 4 discriminator 1
	call	__assert_func
.LVL716:
	.cfi_endproc
.LFE16:
	.size	kernel_llm_quantize_exe, .-kernel_llm_quantize_exe
	.align	2
	.globl	kernel_llm_dot_product_exe
	.type	kernel_llm_dot_product_exe, @function
kernel_llm_dot_product_exe:
.LFB18:
	.loc 1 725 1 is_stmt 1
	.cfi_startproc
.LVL717:
	.loc 1 726 4
	.loc 1 727 4
	.loc 1 729 4
	.loc 1 725 1 is_stmt 0
	addi	sp,sp,-48
	.cfi_def_cfa_offset 48
	sw	s0,40(sp)
	.cfi_offset 8, -8
	mv	s0,a0
	.loc 1 737 4
	lui	a0,%hi(llm_dot_product_exe)
.LVL718:
	.loc 1 725 1
	mv	t1,a1
	.loc 1 737 4
	addi	a0,a0,%lo(llm_dot_product_exe)
	addi	a1,sp,4
.LVL719:
	.loc 1 725 1
	sw	ra,44(sp)
	.cfi_offset 1, -4
	.loc 1 729 10
	sw	t1,4(sp)
	.loc 1 730 4 is_stmt 1
	.loc 1 730 10 is_stmt 0
	sw	a2,8(sp)
	.loc 1 731 4 is_stmt 1
	.loc 1 731 11 is_stmt 0
	sw	a3,12(sp)
	.loc 1 732 4 is_stmt 1
	.loc 1 732 12 is_stmt 0
	sw	a4,16(sp)
	.loc 1 733 4 is_stmt 1
	.loc 1 733 16 is_stmt 0
	sw	a5,20(sp)
	.loc 1 734 4 is_stmt 1
	.loc 1 734 11 is_stmt 0
	sw	a6,24(sp)
	.loc 1 735 4 is_stmt 1
	.loc 1 735 14 is_stmt 0
	sw	a7,28(sp)
	.loc 1 737 4 is_stmt 1
	call	ztaDualHartExecute
.LVL720:
	.loc 1 739 4
	mv	a0,s0
	call	ztaJobDone
.LVL721:
	.loc 1 740 1 is_stmt 0
	lw	ra,44(sp)
	.cfi_restore 1
	lw	s0,40(sp)
	.cfi_restore 8
.LVL722:
	addi	sp,sp,48
	.cfi_def_cfa_offset 0
	jr	ra
	.cfi_endproc
.LFE18:
	.size	kernel_llm_dot_product_exe, .-kernel_llm_dot_product_exe
	.align	2
	.globl	kernel_llm_dot_product2_exe
	.type	kernel_llm_dot_product2_exe, @function
kernel_llm_dot_product2_exe:
.LFB20:
	.loc 1 874 1 is_stmt 1
	.cfi_startproc
.LVL723:
	.loc 1 875 4
	.loc 1 876 4
	.loc 1 878 4
	.loc 1 874 1 is_stmt 0
	addi	sp,sp,-48
	.cfi_def_cfa_offset 48
	sw	s0,40(sp)
	.cfi_offset 8, -8
	mv	s0,a0
	.loc 1 885 4
	lui	a0,%hi(llm_dot_product2_exe)
.LVL724:
	.loc 1 874 1
	mv	a7,a1
	.loc 1 885 4
	addi	a0,a0,%lo(llm_dot_product2_exe)
	addi	a1,sp,8
.LVL725:
	.loc 1 874 1
	sw	ra,44(sp)
	.cfi_offset 1, -4
	.loc 1 878 10
	sw	a7,8(sp)
	.loc 1 879 4 is_stmt 1
	.loc 1 879 11 is_stmt 0
	sw	a2,12(sp)
	.loc 1 880 4 is_stmt 1
	.loc 1 880 11 is_stmt 0
	sw	a3,16(sp)
	.loc 1 881 4 is_stmt 1
	.loc 1 881 11 is_stmt 0
	sw	a4,20(sp)
	.loc 1 882 4 is_stmt 1
	.loc 1 882 15 is_stmt 0
	sw	a5,24(sp)
	.loc 1 883 4 is_stmt 1
	.loc 1 883 11 is_stmt 0
	sw	a6,28(sp)
	.loc 1 885 4 is_stmt 1
	call	ztaDualHartExecute
.LVL726:
	.loc 1 887 4
	mv	a0,s0
	call	ztaJobDone
.LVL727:
	.loc 1 888 1 is_stmt 0
	lw	ra,44(sp)
	.cfi_restore 1
	lw	s0,40(sp)
	.cfi_restore 8
.LVL728:
	addi	sp,sp,48
	.cfi_def_cfa_offset 0
	jr	ra
	.cfi_endproc
.LFE20:
	.size	kernel_llm_dot_product2_exe, .-kernel_llm_dot_product2_exe
	.align	2
	.globl	kernel_llm_cosine_exe
	.type	kernel_llm_cosine_exe, @function
kernel_llm_cosine_exe:
.LFB21:
	.loc 1 911 1 is_stmt 1
	.cfi_startproc
.LVL729:
	.loc 1 912 4
	.loc 1 913 4
	.loc 1 914 4
	.loc 1 915 4
	.loc 1 917 4
	.loc 1 917 14 discriminator 1
	.loc 1 911 1 is_stmt 0
	addi	sp,sp,-112
	.cfi_def_cfa_offset 112
	sw	a1,16(sp)
	mv	a5,a0
	.loc 1 917 14 discriminator 1
	ble	a1,zero,.L328
.LBB380:
	.loc 1 922 91
	li	t3,-2147483648
	.loc 1 922 114
	li	t5,-2147483648
.LBE380:
	.loc 1 927 103
	sw	a3,40(sp)
.LBB381:
	.loc 1 922 91
	addi	a3,t3,672
.LVL730:
	.loc 1 922 257
	li	t6,-2147479552
	.loc 1 922 91
	sw	a3,4(sp)
	.loc 1 922 114
	addi	a3,t5,1568
	.loc 1 922 292
	li	t2,-2147479552
	.loc 1 922 114
	sw	a3,8(sp)
	.loc 1 922 257
	addi	a3,t6,-736
	sw	s1,104(sp)
	sw	a3,20(sp)
	.cfi_offset 9, -8
	.loc 1 922 292
	li	s1,1036288
	addi	a3,t2,-1632
	sw	s2,100(sp)
	sw	a3,12(sp)
	.cfi_offset 18, -12
.LBE381:
	.loc 1 922 624
	li	s2,393216
.LBB382:
	.loc 1 922 292
	addi	a3,s1,-1921
	slli	a6,a1,1
.LBE382:
.LBB383:
	.loc 1 965 218
	srli	a4,a4,1
.LVL731:
	sw	s4,92(sp)
	sw	s8,76(sp)
	.cfi_offset 20, -20
	.cfi_offset 24, -36
.LBE383:
	.loc 1 930 102
	li	s4,1078530048
.LBB384:
	.loc 1 922 192
	li	s8,-2147483648
	.loc 1 922 292
	sw	a3,44(sp)
.LBE384:
	.loc 1 922 624
	addi	a3,s2,1
.LBB385:
	.loc 1 922 192
	addi	s8,s8,544
	sw	s5,88(sp)
	sw	s10,68(sp)
	.loc 1 922 64
	li	t1,-2147483648
	.cfi_offset 21, -24
	.cfi_offset 26, -44
	.loc 1 922 148
	li	s10,-2147479552
.LBE385:
	.loc 1 933 105
	li	s5,1042481152
.LBB386:
	.loc 1 965 218
	sw	a4,36(sp)
.LBE386:
	.loc 1 922 624
	sw	a3,24(sp)
	addi	a4,a6,-1
	.loc 1 930 102
	addi	a3,s4,-37
.LBB387:
	.loc 1 922 148
	addi	s10,s10,-864
	sw	s0,108(sp)
	sw	s3,96(sp)
	sw	s11,64(sp)
.LBE387:
	.loc 1 922 624
	li	a0,-2147483648
.LVL732:
	.loc 1 927 61
	li	a7,-2147479552
	li	t4,4096
	.cfi_offset 8, -4
	.cfi_offset 19, -16
	.cfi_offset 27, -48
	.loc 1 927 102
	li	s11,-2147479552
	.loc 1 927 215
	li	s0,-2147483648
	li	a1,16384
.LVL733:
	.loc 1 930 102
	li	s3,-2147479552
.LBB388:
	.loc 1 922 540
	srli	a2,a2,1
.LVL734:
	sw	a4,56(sp)
.LBE388:
	.loc 1 930 102
	sw	a3,48(sp)
.LBB389:
	.loc 1 922 64
	addi	a4,t1,1056
.LBE389:
	.loc 1 933 105
	addi	a3,s5,-1661
	sw	a5,60(sp)
	mv	a5,s8
.LVL735:
	sw	s7,80(sp)
.LBB390:
	.loc 1 922 64
	sw	a4,0(sp)
.LBE390:
	.loc 1 933 105
	mv	s8,s10
	sw	s6,84(sp)
	sw	s9,72(sp)
	.cfi_offset 23, -32
	.cfi_offset 22, -28
	.cfi_offset 25, -40
.LBB391:
	.loc 1 922 540
	sw	a2,32(sp)
.LBE391:
	.loc 1 927 103
	li	t0,0
	.loc 1 917 9
	li	s7,0
.LBB392:
	.loc 1 922 64
	li	a4,1
.LBE392:
	.loc 1 922 624
	addi	a0,a0,20
	.loc 1 927 61
	addi	a7,a7,-920
	addi	t4,t4,-2048
	.loc 1 927 102
	addi	s11,s11,-1688
	.loc 1 927 215
	addi	s0,s0,616
	addi	a1,a1,-128
	.loc 1 930 102
	addi	s3,s3,-1816
	.loc 1 933 105
	sw	a3,52(sp)
	mv	s10,a5
.LVL736:
.L327:
	.loc 1 918 7 is_stmt 1
	.loc 1 919 7
	.loc 1 918 11 is_stmt 0
	lw	a5,16(sp)
	.loc 1 919 9
	li	a3,512
	.loc 1 918 11
	sub	a5,a5,s7
.LVL737:
	.loc 1 919 9
	ble	a5,a3,.L326
	li	a5,512
.LVL738:
.L326:
.LBB393:
	.loc 1 922 3 is_stmt 1
	.loc 1 922 64 is_stmt 0
	lw	a2,0(sp)
	.loc 1 922 31
	slli	a3,a5,1
.LVL739:
	.loc 1 922 48 is_stmt 1
	.loc 1 922 23 is_stmt 0
	addi	s6,a3,-1
.LVL740:
	.loc 1 922 64
	sw	a4,0(a2)
	.loc 1 922 75 is_stmt 1
	.loc 1 922 91 is_stmt 0
	lw	a6,4(sp)
.LBE393:
.LBB394:
	.loc 1 922 355
	add	t3,a5,s7
	slli	t3,t3,1
.LBE394:
.LBB395:
	.loc 1 922 91
	sw	s6,0(a6)
	.loc 1 922 97 is_stmt 1
	.loc 1 922 114 is_stmt 0
	lw	t1,8(sp)
.LBE395:
.LBB396:
	.loc 1 922 347
	addi	t3,t3,-1
	.loc 1 922 365
	sub	t3,t3,t0
.LBE396:
.LBB397:
	.loc 1 922 114
	sw	s6,0(t1)
	.loc 1 922 131 is_stmt 1
	.loc 1 922 148 is_stmt 0
	sw	zero,0(s8)
	.loc 1 922 157 is_stmt 1
.LVL741:
	.loc 1 922 176
	.loc 1 922 192 is_stmt 0
	sw	zero,0(s10)
	.loc 1 922 239 is_stmt 1
	.loc 1 922 240
	.loc 1 922 257 is_stmt 0
	lw	t5,20(sp)
.LBE397:
	.loc 1 936 105
	li	s5,-2147479552
	.loc 1 936 253
	li	s4,-2147479552
.LBB398:
	.loc 1 922 257
	sw	a3,0(t5)
	.loc 1 922 275 is_stmt 1
	.loc 1 922 292 is_stmt 0
	lw	t5,12(sp)
	lw	a3,44(sp)
.LBE398:
	.loc 1 950 136
	li	s9,-1237782528
	addi	s9,s9,-235
.LBB399:
	.loc 1 922 292
	sw	a3,0(t5)
.LBE399:
.LBB400:
	.loc 1 922 325 is_stmt 1
.LVL742:
	.loc 1 922 378
	.loc 1 922 405
	.loc 1 922 394 is_stmt 0
	sw	a2,0(sp)
	sw	a4,0(a2)
	.loc 1 922 421
	sw	a6,4(sp)
	sw	t3,0(a6)
	.loc 1 922 427 is_stmt 1
	lw	t6,56(sp)
	.loc 1 922 444 is_stmt 0
	sw	t1,8(sp)
	.loc 1 922 575
	li	a3,1036288
	sub	t6,t6,t0
	.loc 1 922 444
	sw	t6,28(sp)
	sw	t6,0(t1)
	.loc 1 922 459 is_stmt 1
	.loc 1 922 476 is_stmt 0
	sw	t0,0(s8)
	.loc 1 922 485 is_stmt 1
.LVL743:
	.loc 1 922 504
	.loc 1 922 525 is_stmt 0
	lw	t2,32(sp)
	.loc 1 922 575
	addi	a3,a3,125
.LBE400:
	.loc 1 927 244
	li	t1,-2147483648
.LBB401:
	.loc 1 922 525
	add	a2,t2,t0
	.loc 1 922 520
	sw	a2,0(s10)
	.loc 1 922 557 is_stmt 1
	.loc 1 922 558
	.loc 1 922 575 is_stmt 0
	sw	t5,12(sp)
	sw	a3,0(t5)
.LBE401:
	.loc 1 922 607 is_stmt 1
	.loc 1 922 608
	.loc 1 922 624 is_stmt 0
	lw	t2,24(sp)
	.loc 1 927 22
	li	a3,-2147483648
	.loc 1 927 149
	li	a2,-2147479552
	.loc 1 922 624
	sw	t2,0(a0)
	.loc 1 927 1 is_stmt 1
	.loc 1 927 22 is_stmt 0
	sw	a5,1000(a3)
	.loc 1 927 39 is_stmt 1
	.loc 1 927 61 is_stmt 0
	sw	t4,0(a7)
	.loc 1 927 80 is_stmt 1
	.loc 1 927 102 is_stmt 0
	lw	s1,40(sp)
	.loc 1 927 263
	li	a6,5
	.loc 1 930 205
	li	t6,-2147483648
	.loc 1 927 102
	sw	s1,0(s11)
	.loc 1 927 127 is_stmt 1
	.loc 1 927 191 is_stmt 0
	li	s1,-2147483648
	.loc 1 927 149
	sw	zero,-536(a2)
	.loc 1 927 170 is_stmt 1
	.loc 1 927 191 is_stmt 0
	sw	zero,232(s1)
	.loc 1 927 194 is_stmt 1
	.loc 1 927 215 is_stmt 0
	sw	a1,0(s0)
	.loc 1 927 223 is_stmt 1
	.loc 1 927 244 is_stmt 0
	sw	a4,236(t1)
	.loc 1 927 247 is_stmt 1
	.loc 1 927 263 is_stmt 0
	sw	a6,0(a0)
	.loc 1 930 1 is_stmt 1
	.loc 1 930 22 is_stmt 0
	sw	a5,1000(a3)
	.loc 1 930 39 is_stmt 1
	.loc 1 930 61 is_stmt 0
	sw	t4,0(a7)
	.loc 1 930 80 is_stmt 1
	.loc 1 930 102 is_stmt 0
	lw	s2,48(sp)
	.loc 1 933 61
	li	t5,12288
	addi	t5,t5,-2048
	.loc 1 930 102
	sw	s2,0(s3)
	.loc 1 930 114 is_stmt 1
	.loc 1 930 136 is_stmt 0
	sw	t4,-536(a2)
	.loc 1 930 155 is_stmt 1
	.loc 1 930 176 is_stmt 0
	sw	a1,0(s0)
	.loc 1 930 184 is_stmt 1
	.loc 1 930 205 is_stmt 0
	sw	a1,360(t6)
	.loc 1 930 213 is_stmt 1
	.loc 1 930 234 is_stmt 0
	sw	a4,236(t1)
	.loc 1 930 237 is_stmt 1
	.loc 1 930 253 is_stmt 0
	sw	a6,0(a0)
	.loc 1 933 1 is_stmt 1
	.loc 1 933 22 is_stmt 0
	sw	a5,1000(a3)
	.loc 1 933 39 is_stmt 1
	.loc 1 933 61 is_stmt 0
	sw	t5,0(a7)
	.loc 1 933 83 is_stmt 1
	.loc 1 933 105 is_stmt 0
	lw	s2,52(sp)
	.loc 1 933 61
	li	t2,12288
	.loc 1 917 20 discriminator 2
	addi	s7,s7,512
.LVL744:
	.loc 1 933 105
	sw	s2,0(s11)
	.loc 1 933 117 is_stmt 1
	.loc 1 933 139 is_stmt 0
	sw	t4,-536(a2)
	.loc 1 933 158 is_stmt 1
	.loc 1 933 179 is_stmt 0
	sw	zero,232(s1)
	.loc 1 933 182 is_stmt 1
	.loc 1 933 203 is_stmt 0
	sw	a1,0(s0)
	.loc 1 933 211 is_stmt 1
	.loc 1 933 233 is_stmt 0
	li	s2,-2147479552
	sw	a4,-1812(s2)
	.loc 1 933 236 is_stmt 1
	.loc 1 933 252 is_stmt 0
	sw	a6,0(a0)
	.loc 1 936 1 is_stmt 1
	.loc 1 936 22 is_stmt 0
	sw	a5,1000(a3)
	.loc 1 936 39 is_stmt 1
	.loc 1 936 61 is_stmt 0
	sw	t2,0(a7)
	.loc 1 936 83 is_stmt 1
	.loc 1 936 146 is_stmt 0
	li	s2,-1060564992
	.loc 1 936 105
	sw	t4,-792(s5)
	.loc 1 936 124 is_stmt 1
	.loc 1 936 146 is_stmt 0
	addi	s2,s2,-37
	sw	s2,0(s11)
	.loc 1 936 158 is_stmt 1
	.loc 1 936 180 is_stmt 0
	sw	t5,-536(a2)
	.loc 1 936 202 is_stmt 1
	.loc 1 936 223 is_stmt 0
	sw	a1,0(s0)
	.loc 1 936 231 is_stmt 1
	.loc 1 936 253 is_stmt 0
	sw	a4,236(s4)
	.loc 1 936 256 is_stmt 1
	.loc 1 936 272 is_stmt 0
	sw	a6,0(a0)
	.loc 1 939 1 is_stmt 1
	.loc 1 939 22 is_stmt 0
	sw	a5,1000(a3)
	.loc 1 939 39 is_stmt 1
	.loc 1 939 146 is_stmt 0
	li	t5,-1068953600
	addi	t5,t5,-37
	.loc 1 939 61
	sw	t4,0(a7)
	.loc 1 939 80 is_stmt 1
	.loc 1 939 102 is_stmt 0
	sw	t2,-792(s5)
	.loc 1 939 124 is_stmt 1
	.loc 1 939 179 is_stmt 0
	li	s2,-2147483648
	.loc 1 939 146
	sw	t5,0(s11)
	.loc 1 939 158 is_stmt 1
	.loc 1 939 179 is_stmt 0
	sw	a1,488(s2)
	.loc 1 939 187 is_stmt 1
	.loc 1 939 208 is_stmt 0
	sw	a1,0(s0)
	.loc 1 939 216 is_stmt 1
	.loc 1 939 238 is_stmt 0
	sw	a4,236(s4)
	.loc 1 939 241 is_stmt 1
	.loc 1 939 257 is_stmt 0
	sw	a6,0(a0)
	.loc 1 944 1 is_stmt 1
	.loc 1 944 22 is_stmt 0
	sw	a5,1000(a3)
	.loc 1 944 39 is_stmt 1
	.loc 1 944 102 is_stmt 0
	li	t5,-1077342208
	.loc 1 944 61
	sw	t4,0(a7)
	.loc 1 944 80 is_stmt 1
	.loc 1 944 102 is_stmt 0
	addi	t5,t5,-37
	sw	t5,0(s3)
	.loc 1 944 114 is_stmt 1
	.loc 1 944 136 is_stmt 0
	sw	t4,-536(a2)
	.loc 1 944 155 is_stmt 1
	.loc 1 944 176 is_stmt 0
	sw	a1,0(s0)
	.loc 1 944 184 is_stmt 1
	.loc 1 944 205 is_stmt 0
	sw	a1,360(t6)
	.loc 1 944 213 is_stmt 1
	.loc 1 944 234 is_stmt 0
	sw	a4,236(t1)
	.loc 1 944 237 is_stmt 1
	.loc 1 944 253 is_stmt 0
	sw	a6,0(a0)
	.loc 1 947 1 is_stmt 1
	.loc 1 947 22 is_stmt 0
	sw	a5,1000(a3)
	.loc 1 947 39 is_stmt 1
	.loc 1 927 61 is_stmt 0
	li	s2,4096
	.loc 1 947 61
	sw	s2,0(a7)
	.loc 1 947 81 is_stmt 1
	.loc 1 947 103 is_stmt 0
	sw	t4,-536(a2)
	.loc 1 947 122 is_stmt 1
	.loc 1 947 144 is_stmt 0
	li	t2,-2147479552
	sw	t4,-408(t2)
	.loc 1 947 163 is_stmt 1
	.loc 1 947 184 is_stmt 0
	sw	zero,232(s1)
	.loc 1 947 187 is_stmt 1
	.loc 1 947 208 is_stmt 0
	sw	a1,360(t6)
	.loc 1 947 216 is_stmt 1
	.loc 1 947 237 is_stmt 0
	sw	a4,236(t1)
	.loc 1 947 240 is_stmt 1
	.loc 1 947 256 is_stmt 0
	sw	a6,0(a0)
	.loc 1 950 1 is_stmt 1
	.loc 1 950 61 is_stmt 0
	li	t5,8192
	.loc 1 950 22
	sw	a5,1000(a3)
	.loc 1 950 39 is_stmt 1
	.loc 1 950 61 is_stmt 0
	addi	t5,t5,-2048
	.loc 1 950 102
	li	s4,961548288
	.loc 1 950 61
	sw	t5,0(a7)
	.loc 1 950 80 is_stmt 1
	.loc 1 950 102 is_stmt 0
	addi	s4,s4,-767
	sw	s4,0(s3)
	.loc 1 950 114 is_stmt 1
	.loc 1 950 136 is_stmt 0
	sw	s9,0(s11)
	.loc 1 950 148 is_stmt 1
	.loc 1 950 170 is_stmt 0
	sw	s2,-536(a2)
	.loc 1 950 190 is_stmt 1
	.loc 1 950 211 is_stmt 0
	sw	a1,0(s0)
	.loc 1 950 219 is_stmt 1
	.loc 1 950 240 is_stmt 0
	sw	a4,236(t1)
	.loc 1 950 243 is_stmt 1
	.loc 1 950 259 is_stmt 0
	sw	a6,0(a0)
	.loc 1 953 1 is_stmt 1
	.loc 1 953 22 is_stmt 0
	sw	a5,1000(a3)
	.loc 1 953 39 is_stmt 1
	.loc 1 953 102 is_stmt 0
	li	s9,-1140289536
	.loc 1 953 61
	sw	t5,0(a7)
	.loc 1 953 80 is_stmt 1
	.loc 1 953 102 is_stmt 0
	addi	s9,s9,-1911
	sw	s9,0(s3)
	.loc 1 953 114 is_stmt 1
	.loc 1 953 136 is_stmt 0
	sw	s2,-536(a2)
	.loc 1 953 156 is_stmt 1
	.loc 1 953 178 is_stmt 0
	sw	t5,-408(t2)
	.loc 1 953 197 is_stmt 1
	.loc 1 953 218 is_stmt 0
	sw	a1,360(t6)
	.loc 1 953 226 is_stmt 1
	.loc 1 953 247 is_stmt 0
	sw	a4,236(t1)
	.loc 1 953 250 is_stmt 1
	.loc 1 953 266 is_stmt 0
	sw	a6,0(a0)
	.loc 1 956 1 is_stmt 1
	.loc 1 956 22 is_stmt 0
	sw	a5,1000(a3)
	.loc 1 956 39 is_stmt 1
	.loc 1 956 102 is_stmt 0
	li	s9,1042984960
	.loc 1 956 61
	sw	t5,0(a7)
	.loc 1 956 80 is_stmt 1
	.loc 1 956 102 is_stmt 0
	addi	s9,s9,-1365
	sw	s9,0(s3)
	.loc 1 956 114 is_stmt 1
	.loc 1 956 136 is_stmt 0
	sw	s2,-536(a2)
	.loc 1 956 156 is_stmt 1
	.loc 1 956 178 is_stmt 0
	sw	t5,-408(t2)
	.loc 1 956 197 is_stmt 1
	.loc 1 956 218 is_stmt 0
	sw	a1,360(t6)
	.loc 1 956 226 is_stmt 1
	.loc 1 956 247 is_stmt 0
	sw	a4,236(t1)
	.loc 1 956 250 is_stmt 1
	.loc 1 956 266 is_stmt 0
	sw	a6,0(a0)
	.loc 1 959 1 is_stmt 1
	.loc 1 959 22 is_stmt 0
	sw	a5,1000(a3)
	.loc 1 959 39 is_stmt 1
	.loc 1 959 61 is_stmt 0
	sw	t5,0(a7)
	.loc 1 959 80 is_stmt 1
	.loc 1 959 102 is_stmt 0
	li	s9,-1082130432
	sw	s9,0(s3)
	.loc 1 959 114 is_stmt 1
	.loc 1 959 136 is_stmt 0
	sw	s2,-536(a2)
	.loc 1 959 156 is_stmt 1
	.loc 1 959 178 is_stmt 0
	sw	t5,-408(t2)
	.loc 1 959 197 is_stmt 1
	.loc 1 959 218 is_stmt 0
	sw	a1,360(t6)
	.loc 1 959 226 is_stmt 1
	.loc 1 959 247 is_stmt 0
	sw	a4,236(t1)
	.loc 1 959 250 is_stmt 1
	.loc 1 959 266 is_stmt 0
	sw	a6,0(a0)
	.loc 1 962 1 is_stmt 1
	.loc 1 962 22 is_stmt 0
	sw	a5,1000(a3)
	.loc 1 962 39 is_stmt 1
	.loc 1 950 61 is_stmt 0
	li	a5,8192
.LVL745:
	.loc 1 962 61
	sw	a5,0(a7)
.LVL746:
	.loc 1 962 81 is_stmt 1
	.loc 1 962 103 is_stmt 0
	sw	t4,-536(a2)
	.loc 1 962 122 is_stmt 1
	.loc 1 962 144 is_stmt 0
	sw	t5,-408(t2)
	.loc 1 962 163 is_stmt 1
	.loc 1 962 184 is_stmt 0
	sw	zero,232(s1)
	.loc 1 962 187 is_stmt 1
	.loc 1 962 208 is_stmt 0
	sw	a1,360(t6)
	.loc 1 962 216 is_stmt 1
	.loc 1 962 237 is_stmt 0
	sw	a4,236(t1)
	.loc 1 962 240 is_stmt 1
	.loc 1 962 256 is_stmt 0
	sw	a6,0(a0)
.LBB402:
	.loc 1 965 3 is_stmt 1
.LVL747:
	.loc 1 965 56
	.loc 1 965 72 is_stmt 0
	lw	a3,0(sp)
	sw	a4,0(a3)
	.loc 1 965 83 is_stmt 1
	.loc 1 965 99 is_stmt 0
	lw	a2,4(sp)
	sw	t3,0(a2)
	.loc 1 965 105 is_stmt 1
	.loc 1 965 122 is_stmt 0
	lw	t1,8(sp)
	lw	t6,28(sp)
	.loc 1 965 261
	addi	t3,t3,1
.LVL748:
	.loc 1 965 122
	sw	t6,0(t1)
.LVL749:
	.loc 1 965 137 is_stmt 1
	.loc 1 965 154 is_stmt 0
	sw	t0,0(s8)
	.loc 1 965 163 is_stmt 1
.LVL750:
	.loc 1 965 182
	.loc 1 965 203 is_stmt 0
	lw	a5,36(sp)
	add	a5,a5,t0
	.loc 1 965 198
	sw	a5,0(s10)
	.loc 1 965 235 is_stmt 1
	.loc 1 965 236
	.loc 1 965 253 is_stmt 0
	lw	a6,20(sp)
	.loc 1 965 288
	li	a5,1036288
	addi	a5,a5,127
	.loc 1 965 253
	sw	t3,0(a6)
	.loc 1 965 271 is_stmt 1
	.loc 1 965 288 is_stmt 0
	lw	t5,12(sp)
.LBE402:
	.loc 1 917 14 discriminator 1
	addi	t0,t0,1024
.LVL751:
.LBB403:
	.loc 1 965 288
	sw	a5,0(t5)
.LBE403:
.LBB404:
	.loc 1 965 321 is_stmt 1
.LVL752:
	.loc 1 965 362
	.loc 1 965 378 is_stmt 0
	sw	a4,0(a3)
	.loc 1 965 389 is_stmt 1
	.loc 1 965 405 is_stmt 0
	sw	s6,0(a2)
	.loc 1 965 411 is_stmt 1
	.loc 1 965 428 is_stmt 0
	sw	s6,0(t1)
	.loc 1 965 445 is_stmt 1
	.loc 1 965 462 is_stmt 0
	sw	zero,0(s8)
	.loc 1 965 471 is_stmt 1
.LVL753:
	.loc 1 965 490
	.loc 1 965 572 is_stmt 0
	li	a5,1036288
	.loc 1 965 506
	sw	s2,0(s10)
	.loc 1 965 554 is_stmt 1
	.loc 1 965 555
	.loc 1 965 572 is_stmt 0
	addi	a5,a5,-1923
	sw	a5,0(t5)
.LBE404:
	.loc 1 965 604 is_stmt 1
	.loc 1 965 605
	.loc 1 965 621 is_stmt 0
	lw	t2,24(sp)
	.loc 1 967 18
	li	a5,88
	.loc 1 965 621
	sw	t2,0(a0)
	.loc 1 967 1 is_stmt 1
	.loc 1 967 2
	.loc 1 967 18 is_stmt 0
	sw	a5,0(a0)
	.loc 1 917 20 is_stmt 1 discriminator 2
.LVL754:
	.loc 1 917 14 discriminator 1
	lw	a5,16(sp)
	bgt	a5,s7,.L327
	lw	a5,60(sp)
	lw	s0,108(sp)
	.cfi_restore 8
	lw	s1,104(sp)
	.cfi_restore 9
	lw	s2,100(sp)
	.cfi_restore 18
	lw	s3,96(sp)
	.cfi_restore 19
	lw	s4,92(sp)
	.cfi_restore 20
	lw	s5,88(sp)
	.cfi_restore 21
	lw	s6,84(sp)
	.cfi_restore 22
.LVL755:
	lw	s7,80(sp)
	.cfi_restore 23
.LVL756:
	lw	s8,76(sp)
	.cfi_restore 24
	lw	s9,72(sp)
	.cfi_restore 25
	lw	s10,68(sp)
	.cfi_restore 26
	lw	s11,64(sp)
	.cfi_restore 27
.LVL757:
.L328:
	.loc 1 969 4
	.loc 1 970 1 is_stmt 0
	.loc 1 969 4
	mv	a0,a5
	.loc 1 970 1
	addi	sp,sp,112
	.cfi_def_cfa_offset 0
	.loc 1 969 4
	tail	ztaJobDone
.LVL758:
	.cfi_endproc
.LFE21:
	.size	kernel_llm_cosine_exe, .-kernel_llm_cosine_exe
	.align	2
	.globl	kernel_llm_sine_exe
	.type	kernel_llm_sine_exe, @function
kernel_llm_sine_exe:
.LFB22:
	.loc 1 979 1 is_stmt 1
	.cfi_startproc
.LVL759:
	.loc 1 980 4
	.loc 1 981 4
	.loc 1 982 4
	.loc 1 983 4
	.loc 1 985 4
	.loc 1 985 14 discriminator 1
	.loc 1 979 1 is_stmt 0
	addi	sp,sp,-128
	.cfi_def_cfa_offset 128
	sw	a1,28(sp)
	mv	a5,a0
	.loc 1 985 14 discriminator 1
	ble	a1,zero,.L335
.LBB405:
	.loc 1 990 91
	li	t1,-2147483648
	.loc 1 990 114
	li	t5,-2147483648
.LBE405:
	.loc 1 994 103
	sw	a3,52(sp)
.LBB406:
	.loc 1 990 91
	addi	a3,t1,672
.LVL760:
	.loc 1 990 148
	li	t6,-2147479552
	.loc 1 990 91
	sw	a3,12(sp)
	.loc 1 990 114
	addi	a3,t5,1568
	.loc 1 990 292
	li	t2,-2147479552
	.loc 1 990 114
	sw	a3,16(sp)
	.loc 1 990 148
	addi	a3,t6,-864
	sw	s0,124(sp)
	sw	a3,20(sp)
	.cfi_offset 8, -4
	.loc 1 990 292
	li	s0,1036288
	addi	a3,t2,-1632
	sw	s1,120(sp)
	sw	a3,24(sp)
	.cfi_offset 9, -8
.LBE406:
	.loc 1 990 624
	li	s1,393216
.LBB407:
	.loc 1 990 292
	addi	a3,s0,-1921
	sw	s2,116(sp)
	sw	a3,56(sp)
	.cfi_offset 18, -12
.LBE407:
	.loc 1 997 102
	li	s2,1083625472
	.loc 1 990 624
	addi	a3,s1,1
	slli	a6,a1,1
.LBB408:
	.loc 1 1032 218
	srli	a4,a4,1
.LVL761:
	sw	s3,112(sp)
.LBE408:
	.loc 1 990 624
	sw	a3,32(sp)
	.cfi_offset 19, -16
	.loc 1 1000 105
	li	s3,1042481152
	.loc 1 997 102
	addi	a3,s2,-1052
	sw	s4,108(sp)
	sw	s9,88(sp)
	.cfi_offset 20, -20
	.cfi_offset 25, -40
	.loc 1 1029 61
	li	s4,-2147479552
.LBB409:
	.loc 1 990 64
	li	a7,-2147483648
	.loc 1 990 192
	li	s9,-2147483648
.LBE409:
.LBB410:
	.loc 1 1032 218
	sw	a4,48(sp)
.LBE410:
	.loc 1 997 102
	sw	a3,60(sp)
	addi	a4,a6,-1
	.loc 1 1000 105
	addi	a3,s3,-1661
.LBB411:
	.loc 1 990 192
	addi	s9,s9,544
	sw	s6,100(sp)
	sw	s7,96(sp)
	sw	s10,84(sp)
	sw	s11,80(sp)
.LBE411:
	.loc 1 990 624
	li	a1,-2147483648
.LVL762:
	.loc 1 994 61
	li	t4,-2147479552
	li	t3,4096
	.cfi_offset 22, -28
	.cfi_offset 23, -32
	.cfi_offset 26, -44
	.cfi_offset 27, -48
	.loc 1 994 102
	li	s6,-2147479552
	.loc 1 994 215
	li	s11,-2147483648
	li	a0,16384
.LVL763:
	.loc 1 997 102
	li	s10,-2147479552
.LBB412:
	.loc 1 990 540
	srli	a2,a2,1
.LVL764:
.LBE412:
	.loc 1 985 9
	li	s7,0
	sw	a4,72(sp)
	.loc 1 1000 105
	sw	a3,64(sp)
.LBB413:
	.loc 1 990 64
	addi	a4,a7,1056
.LBE413:
	.loc 1 1029 61
	addi	a3,s4,-1944
.LBB414:
	.loc 1 990 64
	sw	a4,8(sp)
.LBE414:
	.loc 1 1029 61
	mv	s4,s9
	sw	s5,104(sp)
	sw	s8,92(sp)
	.cfi_offset 21, -24
	.cfi_offset 24, -36
.LBB415:
	.loc 1 990 540
	sw	a2,44(sp)
.LBE415:
	.loc 1 994 103
	li	t0,0
.LBB416:
	.loc 1 990 64
	li	a4,1
.LBE416:
	.loc 1 990 624
	addi	a1,a1,20
	.loc 1 994 61
	addi	t4,t4,-920
	addi	t3,t3,-2048
	.loc 1 994 102
	addi	s6,s6,-1688
	.loc 1 994 215
	addi	s11,s11,616
	addi	a0,a0,-128
	.loc 1 997 102
	addi	s10,s10,-1816
	.loc 1 1029 61
	sw	a3,68(sp)
	sw	a5,76(sp)
	mv	s9,s7
.LVL765:
.L334:
	.loc 1 986 7 is_stmt 1
	.loc 1 987 7
	.loc 1 986 11 is_stmt 0
	lw	a5,28(sp)
	.loc 1 987 9
	li	a3,512
	.loc 1 986 11
	sub	a5,a5,s9
.LVL766:
	.loc 1 987 9
	ble	a5,a3,.L333
	li	a5,512
.LVL767:
.L333:
.LBB417:
	.loc 1 990 3 is_stmt 1
	.loc 1 990 64 is_stmt 0
	lw	a6,8(sp)
	.loc 1 990 31
	slli	a2,a5,1
.LVL768:
	.loc 1 990 48 is_stmt 1
	.loc 1 990 23 is_stmt 0
	addi	s3,a2,-1
.LVL769:
	.loc 1 990 64
	sw	a4,0(a6)
	.loc 1 990 75 is_stmt 1
	.loc 1 990 91 is_stmt 0
	lw	a7,12(sp)
	.loc 1 990 257
	li	s5,-2147479552
.LBE417:
.LBB418:
	.loc 1 990 355
	add	a3,a5,s9
.LBE418:
.LBB419:
	.loc 1 990 91
	sw	s3,0(a7)
	.loc 1 990 97 is_stmt 1
	.loc 1 990 114 is_stmt 0
	lw	t1,16(sp)
.LBE419:
.LBB420:
	.loc 1 990 355
	slli	a3,a3,1
	.loc 1 990 347
	addi	a3,a3,-1
.LBE420:
.LBB421:
	.loc 1 990 114
	sw	s3,0(t1)
	.loc 1 990 131 is_stmt 1
	.loc 1 990 148 is_stmt 0
	lw	t5,20(sp)
.LBE421:
.LBB422:
	.loc 1 990 365
	sub	t2,a3,t0
	.loc 1 990 575
	li	a3,1036288
.LBE422:
.LBB423:
	.loc 1 990 148
	sw	zero,0(t5)
	.loc 1 990 157 is_stmt 1
.LVL770:
	.loc 1 990 176
	.loc 1 990 192 is_stmt 0
	sw	zero,0(s4)
	.loc 1 990 239 is_stmt 1
	.loc 1 990 240
	.loc 1 990 257 is_stmt 0
	sw	a2,-736(s5)
	.loc 1 990 275 is_stmt 1
	.loc 1 990 292 is_stmt 0
	lw	t6,24(sp)
	lw	a2,56(sp)
.LBE423:
.LBB424:
	.loc 1 990 575
	addi	a3,a3,125
.LBE424:
	.loc 1 1017 102
	li	s8,961548288
.LBB425:
	.loc 1 990 292
	sw	a2,0(t6)
.LBE425:
.LBB426:
	.loc 1 990 325 is_stmt 1
.LVL771:
	.loc 1 990 378
	.loc 1 990 405
	.loc 1 990 394 is_stmt 0
	sw	a6,8(sp)
	sw	a4,0(a6)
	.loc 1 990 421
	sw	a7,12(sp)
	sw	t2,36(sp)
	sw	t2,0(a7)
	.loc 1 990 427 is_stmt 1
	lw	s0,72(sp)
	.loc 1 990 444 is_stmt 0
	sw	t1,16(sp)
.LBE426:
	.loc 1 994 191
	li	t2,-2147483648
.LVL772:
	sub	s0,s0,t0
.LBB427:
	.loc 1 990 444
	sw	s0,40(sp)
	sw	s0,0(t1)
	.loc 1 990 459 is_stmt 1
	.loc 1 990 476 is_stmt 0
	sw	t5,20(sp)
	sw	t0,0(t5)
	.loc 1 990 485 is_stmt 1
.LVL773:
	.loc 1 990 504
	.loc 1 990 525 is_stmt 0
	lw	s1,44(sp)
.LBE427:
	.loc 1 994 244
	li	a7,-2147483648
	.loc 1 994 263
	li	a6,5
.LBB428:
	.loc 1 990 525
	add	a2,s1,t0
	.loc 1 990 520
	sw	a2,0(s4)
	.loc 1 990 557 is_stmt 1
	.loc 1 990 558
	.loc 1 990 575 is_stmt 0
	sw	t6,24(sp)
	sw	a3,0(t6)
.LBE428:
	.loc 1 990 607 is_stmt 1
	.loc 1 990 608
	.loc 1 990 624 is_stmt 0
	lw	s1,32(sp)
	.loc 1 994 22
	li	a3,-2147483648
	.loc 1 994 149
	li	a2,-2147479552
	.loc 1 990 624
	sw	s1,0(a1)
	.loc 1 994 1 is_stmt 1
	.loc 1 994 22 is_stmt 0
	sw	a5,1000(a3)
	.loc 1 994 39 is_stmt 1
	.loc 1 994 61 is_stmt 0
	sw	t3,0(t4)
	.loc 1 994 80 is_stmt 1
	.loc 1 994 102 is_stmt 0
	lw	s2,52(sp)
	.loc 1 1000 61
	li	t1,12288
	addi	t1,t1,-2048
	.loc 1 994 102
	sw	s2,0(s6)
	.loc 1 994 127 is_stmt 1
	.loc 1 994 149 is_stmt 0
	sw	zero,-536(a2)
	.loc 1 994 170 is_stmt 1
	.loc 1 994 191 is_stmt 0
	sw	zero,232(t2)
	.loc 1 994 194 is_stmt 1
	.loc 1 994 215 is_stmt 0
	sw	a0,0(s11)
	.loc 1 994 223 is_stmt 1
	.loc 1 994 244 is_stmt 0
	sw	a4,236(a7)
	.loc 1 994 247 is_stmt 1
	.loc 1 994 263 is_stmt 0
	sw	a6,0(a1)
	.loc 1 997 1 is_stmt 1
	.loc 1 997 22 is_stmt 0
	sw	a5,1000(a3)
	.loc 1 997 39 is_stmt 1
	.loc 1 997 61 is_stmt 0
	sw	t3,0(t4)
	.loc 1 997 80 is_stmt 1
	.loc 1 997 102 is_stmt 0
	lw	s2,60(sp)
	.loc 1 1000 61
	li	t5,12288
	.loc 1 1003 146
	li	t6,-1060564992
	.loc 1 997 102
	sw	s2,0(s10)
	.loc 1 997 114 is_stmt 1
	.loc 1 997 136 is_stmt 0
	li	s2,-1082130432
	sw	s2,0(s6)
	.loc 1 997 148 is_stmt 1
	.loc 1 997 170 is_stmt 0
	sw	t3,-536(a2)
	.loc 1 997 189 is_stmt 1
	.loc 1 997 210 is_stmt 0
	sw	a0,0(s11)
	.loc 1 997 218 is_stmt 1
	.loc 1 997 239 is_stmt 0
	sw	a4,236(a7)
	.loc 1 997 242 is_stmt 1
	.loc 1 997 258 is_stmt 0
	sw	a6,0(a1)
	.loc 1 1000 1 is_stmt 1
	.loc 1 1000 22 is_stmt 0
	sw	a5,1000(a3)
	.loc 1 1000 39 is_stmt 1
	.loc 1 1000 61 is_stmt 0
	sw	t1,0(t4)
	.loc 1 1000 83 is_stmt 1
	.loc 1 1000 105 is_stmt 0
	lw	s7,64(sp)
	.loc 1 1003 105
	li	s2,-2147479552
	.loc 1 1003 146
	addi	t6,t6,-37
	.loc 1 1000 105
	sw	s7,0(s6)
	.loc 1 1000 117 is_stmt 1
	.loc 1 1000 139 is_stmt 0
	sw	t3,-536(a2)
	.loc 1 1000 158 is_stmt 1
	.loc 1 1000 179 is_stmt 0
	sw	zero,232(t2)
	.loc 1 1000 182 is_stmt 1
	.loc 1 1000 203 is_stmt 0
	sw	a0,0(s11)
	.loc 1 1000 211 is_stmt 1
	.loc 1 1000 233 is_stmt 0
	li	s7,-2147479552
	sw	a4,-1812(s7)
	.loc 1 1000 236 is_stmt 1
	.loc 1 1000 252 is_stmt 0
	sw	a6,0(a1)
	.loc 1 1003 1 is_stmt 1
	.loc 1 1003 22 is_stmt 0
	sw	a5,1000(a3)
	.loc 1 1003 39 is_stmt 1
	.loc 1 1003 61 is_stmt 0
	sw	t5,0(t4)
	.loc 1 1003 83 is_stmt 1
	.loc 1 1003 105 is_stmt 0
	sw	t3,-792(s2)
	.loc 1 1003 124 is_stmt 1
	.loc 1 1003 146 is_stmt 0
	sw	t6,0(s6)
	.loc 1 1003 158 is_stmt 1
	.loc 1 1003 180 is_stmt 0
	sw	t1,-536(a2)
	.loc 1 1003 202 is_stmt 1
	.loc 1 1003 253 is_stmt 0
	li	s1,-2147479552
	.loc 1 1003 223
	sw	a0,0(s11)
	.loc 1 1003 231 is_stmt 1
	.loc 1 1003 253 is_stmt 0
	sw	a4,236(s1)
	.loc 1 1003 256 is_stmt 1
	.loc 1 1003 272 is_stmt 0
	sw	a6,0(a1)
	.loc 1 1006 1 is_stmt 1
	.loc 1 1006 22 is_stmt 0
	sw	a5,1000(a3)
	.loc 1 1006 39 is_stmt 1
	.loc 1 1006 61 is_stmt 0
	sw	t3,0(t4)
	.loc 1 1006 80 is_stmt 1
	.loc 1 1006 146 is_stmt 0
	li	t1,-1068953600
	.loc 1 1006 102
	sw	t5,-792(s2)
	.loc 1 1006 124 is_stmt 1
	.loc 1 1006 146 is_stmt 0
	addi	t1,t1,-37
	sw	t1,0(s6)
	.loc 1 1006 158 is_stmt 1
	.loc 1 1006 179 is_stmt 0
	li	s7,-2147483648
	sw	a0,488(s7)
	.loc 1 1006 187 is_stmt 1
	.loc 1 1006 208 is_stmt 0
	sw	a0,0(s11)
	.loc 1 1006 216 is_stmt 1
	.loc 1 1006 238 is_stmt 0
	sw	a4,236(s1)
	.loc 1 1006 241 is_stmt 1
	.loc 1 1006 257 is_stmt 0
	sw	a6,0(a1)
	.loc 1 1011 1 is_stmt 1
	.loc 1 1011 22 is_stmt 0
	sw	a5,1000(a3)
	.loc 1 1011 39 is_stmt 1
	.loc 1 1011 102 is_stmt 0
	li	t1,-1077342208
	.loc 1 1011 61
	sw	t3,0(t4)
	.loc 1 1011 80 is_stmt 1
	.loc 1 1011 102 is_stmt 0
	addi	t1,t1,-37
	sw	t1,0(s10)
	.loc 1 1011 114 is_stmt 1
	.loc 1 1011 136 is_stmt 0
	sw	t3,-536(a2)
	.loc 1 1011 155 is_stmt 1
	.loc 1 1011 176 is_stmt 0
	sw	a0,0(s11)
	.loc 1 1011 184 is_stmt 1
	.loc 1 1011 205 is_stmt 0
	li	t5,-2147483648
	sw	a0,360(t5)
	.loc 1 1011 213 is_stmt 1
	.loc 1 1011 234 is_stmt 0
	sw	a4,236(a7)
	.loc 1 1011 237 is_stmt 1
	.loc 1 1011 253 is_stmt 0
	sw	a6,0(a1)
	.loc 1 1014 1 is_stmt 1
	.loc 1 1014 22 is_stmt 0
	sw	a5,1000(a3)
	.loc 1 1014 39 is_stmt 1
	.loc 1 994 61 is_stmt 0
	li	s0,4096
	.loc 1 1014 61
	sw	s0,0(t4)
	.loc 1 1014 81 is_stmt 1
	.loc 1 1014 103 is_stmt 0
	sw	t3,-536(a2)
	.loc 1 1014 122 is_stmt 1
	.loc 1 1014 144 is_stmt 0
	li	t6,-2147479552
	sw	t3,-408(t6)
	.loc 1 1014 163 is_stmt 1
	.loc 1 1014 184 is_stmt 0
	sw	zero,232(t2)
	.loc 1 1014 187 is_stmt 1
	.loc 1 1014 208 is_stmt 0
	sw	a0,360(t5)
	.loc 1 1014 216 is_stmt 1
	.loc 1 1014 237 is_stmt 0
	sw	a4,236(a7)
	.loc 1 1014 240 is_stmt 1
	.loc 1 1014 256 is_stmt 0
	sw	a6,0(a1)
	.loc 1 1017 1 is_stmt 1
	.loc 1 1017 61 is_stmt 0
	li	t1,8192
	.loc 1 1017 22
	sw	a5,1000(a3)
	.loc 1 1017 39 is_stmt 1
	.loc 1 1017 61 is_stmt 0
	addi	t1,t1,-2048
	sw	t1,0(t4)
	.loc 1 1017 80 is_stmt 1
	.loc 1 1017 102 is_stmt 0
	addi	s8,s8,-767
	.loc 1 1017 136
	li	s7,-1237782528
	.loc 1 1017 102
	sw	s8,0(s10)
	.loc 1 1017 114 is_stmt 1
	.loc 1 1017 136 is_stmt 0
	addi	s7,s7,-235
	sw	s7,0(s6)
	.loc 1 1017 148 is_stmt 1
	.loc 1 1017 170 is_stmt 0
	sw	s0,-536(a2)
	.loc 1 1017 190 is_stmt 1
	.loc 1 1017 211 is_stmt 0
	sw	a0,0(s11)
	.loc 1 1017 219 is_stmt 1
	.loc 1 1017 240 is_stmt 0
	sw	a4,236(a7)
	.loc 1 1017 243 is_stmt 1
	.loc 1 1017 259 is_stmt 0
	sw	a6,0(a1)
	.loc 1 1020 1 is_stmt 1
	.loc 1 1020 102 is_stmt 0
	li	s7,-1140289536
	.loc 1 1020 22
	sw	a5,1000(a3)
	.loc 1 1020 39 is_stmt 1
	.loc 1 1020 102 is_stmt 0
	addi	s7,s7,-1911
	.loc 1 1020 61
	sw	t1,0(t4)
	.loc 1 1020 80 is_stmt 1
	.loc 1 1020 102 is_stmt 0
	sw	s7,0(s10)
	.loc 1 1020 114 is_stmt 1
	.loc 1 1020 136 is_stmt 0
	sw	s0,-536(a2)
	.loc 1 1020 156 is_stmt 1
	.loc 1 1020 178 is_stmt 0
	sw	t1,-408(t6)
	.loc 1 1020 197 is_stmt 1
	.loc 1 1020 218 is_stmt 0
	sw	a0,360(t5)
	.loc 1 1020 226 is_stmt 1
	.loc 1 1020 247 is_stmt 0
	sw	a4,236(a7)
	.loc 1 1020 250 is_stmt 1
	.loc 1 1020 266 is_stmt 0
	sw	a6,0(a1)
	.loc 1 1023 1 is_stmt 1
	.loc 1 1023 22 is_stmt 0
	sw	a5,1000(a3)
	.loc 1 1023 39 is_stmt 1
	.loc 1 1023 102 is_stmt 0
	li	s7,1042984960
	.loc 1 1023 61
	sw	t1,0(t4)
	.loc 1 1023 80 is_stmt 1
	.loc 1 1023 102 is_stmt 0
	addi	s7,s7,-1365
	sw	s7,0(s10)
	.loc 1 1023 114 is_stmt 1
	.loc 1 1023 136 is_stmt 0
	sw	s0,-536(a2)
	.loc 1 1023 156 is_stmt 1
	.loc 1 1023 178 is_stmt 0
	sw	t1,-408(t6)
	.loc 1 1023 197 is_stmt 1
	.loc 1 1023 218 is_stmt 0
	sw	a0,360(t5)
	.loc 1 1023 226 is_stmt 1
	.loc 1 1023 247 is_stmt 0
	sw	a4,236(a7)
	.loc 1 1023 250 is_stmt 1
	.loc 1 1023 266 is_stmt 0
	sw	a6,0(a1)
	.loc 1 1026 1 is_stmt 1
	.loc 1 1026 22 is_stmt 0
	sw	a5,1000(a3)
	.loc 1 1026 39 is_stmt 1
	.loc 1 1026 61 is_stmt 0
	sw	t1,0(t4)
	.loc 1 1026 80 is_stmt 1
	.loc 1 1026 102 is_stmt 0
	li	s2,-1082130432
	sw	s2,0(s10)
	.loc 1 1026 114 is_stmt 1
	.loc 1 1026 136 is_stmt 0
	sw	s0,-536(a2)
	.loc 1 1026 156 is_stmt 1
	.loc 1 1026 178 is_stmt 0
	sw	t1,-408(t6)
	.loc 1 1026 197 is_stmt 1
	.loc 1 1026 218 is_stmt 0
	sw	a0,360(t5)
	.loc 1 1026 226 is_stmt 1
	.loc 1 1026 247 is_stmt 0
	sw	a4,236(a7)
	.loc 1 1026 250 is_stmt 1
	.loc 1 1026 266 is_stmt 0
	sw	a6,0(a1)
	.loc 1 1029 1 is_stmt 1
	.loc 1 1029 22 is_stmt 0
	sw	a5,1000(a3)
	.loc 1 1029 39 is_stmt 1
	.loc 1 1029 61 is_stmt 0
	lw	s2,68(sp)
	li	s7,8192
	.loc 1 985 20 discriminator 2
	addi	s9,s9,512
.LVL774:
	.loc 1 1029 61
	sw	s7,0(s2)
	.loc 1 1029 81 is_stmt 1
	.loc 1 1029 103 is_stmt 0
	sw	t3,-536(a2)
	.loc 1 1029 122 is_stmt 1
	.loc 1 1029 144 is_stmt 0
	sw	t1,-408(t6)
	.loc 1 1029 163 is_stmt 1
	.loc 1 1029 184 is_stmt 0
	sw	zero,232(t2)
	.loc 1 1029 187 is_stmt 1
	.loc 1 1029 208 is_stmt 0
	sw	a0,360(t5)
	.loc 1 1029 216 is_stmt 1
	.loc 1 1029 237 is_stmt 0
	sw	a4,236(a7)
	.loc 1 1029 240 is_stmt 1
	.loc 1 1029 256 is_stmt 0
	sw	a6,0(a1)
.LBB429:
	.loc 1 1032 3 is_stmt 1
.LVL775:
	.loc 1 1032 56
	.loc 1 1032 72 is_stmt 0
	lw	a3,8(sp)
	sw	a4,0(a3)
.LVL776:
	.loc 1 1032 83 is_stmt 1
	.loc 1 1032 99 is_stmt 0
	lw	a6,36(sp)
	lw	a2,12(sp)
	sw	a6,0(a2)
	.loc 1 1032 105 is_stmt 1
	.loc 1 1032 122 is_stmt 0
	lw	a5,40(sp)
.LVL777:
	lw	t1,16(sp)
	sw	a5,0(t1)
	.loc 1 1032 137 is_stmt 1
	.loc 1 1032 154 is_stmt 0
	lw	t5,20(sp)
	sw	t0,0(t5)
	.loc 1 1032 163 is_stmt 1
.LVL778:
	.loc 1 1032 182
	.loc 1 1032 203 is_stmt 0
	lw	a5,48(sp)
	add	a5,a5,t0
	.loc 1 1032 198
	sw	a5,0(s4)
	.loc 1 1032 235 is_stmt 1
	.loc 1 1032 236
	.loc 1 1032 261 is_stmt 0
	addi	a5,a6,1
	.loc 1 1032 253
	sw	a5,-736(s5)
	.loc 1 1032 271 is_stmt 1
	.loc 1 1032 288 is_stmt 0
	lw	t6,24(sp)
	li	a6,1036288
	addi	a6,a6,127
	sw	a6,0(t6)
.LBE429:
.LBB430:
	.loc 1 1032 321 is_stmt 1
.LVL779:
	.loc 1 1032 362
	.loc 1 1032 378 is_stmt 0
	sw	a4,0(a3)
	.loc 1 1032 389 is_stmt 1
	.loc 1 1032 405 is_stmt 0
	sw	s3,0(a2)
	.loc 1 1032 411 is_stmt 1
	.loc 1 1032 428 is_stmt 0
	sw	s3,0(t1)
	.loc 1 1032 445 is_stmt 1
	.loc 1 1032 462 is_stmt 0
	sw	zero,0(t5)
	.loc 1 1032 471 is_stmt 1
.LVL780:
	.loc 1 1032 490
	.loc 1 1032 572 is_stmt 0
	li	a5,1036288
	.loc 1 1032 506
	sw	s0,0(s4)
	.loc 1 1032 554 is_stmt 1
	.loc 1 1032 555
	.loc 1 1032 572 is_stmt 0
	addi	a5,a5,-1923
	sw	a5,0(t6)
.LBE430:
	.loc 1 1032 604 is_stmt 1
	.loc 1 1032 605
	.loc 1 1032 621 is_stmt 0
	lw	s1,32(sp)
	.loc 1 1034 18
	li	a5,88
	.loc 1 985 14 discriminator 1
	addi	t0,t0,1024
.LVL781:
	.loc 1 1032 621
	sw	s1,0(a1)
	.loc 1 1034 1 is_stmt 1
	.loc 1 1034 2
	.loc 1 1034 18 is_stmt 0
	sw	a5,0(a1)
	.loc 1 985 20 is_stmt 1 discriminator 2
.LVL782:
	.loc 1 985 14 discriminator 1
	lw	a5,28(sp)
	bgt	a5,s9,.L334
	lw	a5,76(sp)
	lw	s0,124(sp)
	.cfi_restore 8
	lw	s1,120(sp)
	.cfi_restore 9
	lw	s2,116(sp)
	.cfi_restore 18
	lw	s3,112(sp)
	.cfi_restore 19
.LVL783:
	lw	s4,108(sp)
	.cfi_restore 20
	lw	s5,104(sp)
	.cfi_restore 21
	lw	s6,100(sp)
	.cfi_restore 22
	lw	s7,96(sp)
	.cfi_restore 23
	lw	s8,92(sp)
	.cfi_restore 24
	lw	s9,88(sp)
	.cfi_restore 25
.LVL784:
	lw	s10,84(sp)
	.cfi_restore 26
	lw	s11,80(sp)
	.cfi_restore 27
.LVL785:
.L335:
	.loc 1 1036 4
	.loc 1 1037 1 is_stmt 0
	.loc 1 1036 4
	mv	a0,a5
	.loc 1 1037 1
	addi	sp,sp,128
	.cfi_def_cfa_offset 0
	.loc 1 1036 4
	tail	ztaJobDone
.LVL786:
	.cfi_endproc
.LFE22:
	.size	kernel_llm_sine_exe, .-kernel_llm_sine_exe
	.align	2
	.globl	kernel_llm_exp_exe
	.type	kernel_llm_exp_exe, @function
kernel_llm_exp_exe:
.LFB23:
	.loc 1 1058 1 is_stmt 1
	.cfi_startproc
.LVL787:
	.loc 1 1059 4
	.loc 1 1060 4
	.loc 1 1061 4
	.loc 1 1062 4
	.loc 1 1064 4
	.loc 1 1064 14 discriminator 1
	.loc 1 1058 1 is_stmt 0
	addi	sp,sp,-112
	.cfi_def_cfa_offset 112
	sw	s2,96(sp)
	sw	ra,108(sp)
	.cfi_offset 18, -16
	.cfi_offset 1, -4
	mv	s2,a0
	.loc 1 1064 14 discriminator 1
	ble	a1,zero,.L339
	addi	a0,a1,-1
.LVL788:
.LBB431:
	.loc 1 1079 218
	srli	a3,a3,1
.LVL789:
	sw	s8,72(sp)
	sw	s9,68(sp)
	sw	s11,60(sp)
	andi	a0,a0,-128
	slli	a5,a1,1
.LBE431:
.LBB432:
	.loc 1 1068 64
	li	a7,-2147483648
	.cfi_offset 24, -40
	.cfi_offset 25, -44
	.cfi_offset 27, -52
	.loc 1 1068 290
	li	s11,-2147479552
	li	a4,1036288
.LBE432:
	.loc 1 1068 622
	li	s9,-2147483648
	li	s8,393216
.LBB433:
	.loc 1 1068 290
	addi	s11,s11,-1632
.LBE433:
	.loc 1 1068 622
	addi	s8,s8,1
.LBB434:
	.loc 1 1068 538
	srli	a2,a2,1
.LVL790:
.LBE434:
.LBB435:
	.loc 1 1079 218
	sw	a3,24(sp)
	addi	a5,a5,-1
	addi	a3,a0,128
.LBE435:
.LBB436:
	.loc 1 1068 64
	addi	a7,a7,1056
	.loc 1 1068 290
	addi	a4,a4,-1921
.LBE436:
	.loc 1 1068 622
	addi	s9,s9,20
	sw	s1,100(sp)
	sw	s6,80(sp)
	sw	s10,64(sp)
	mv	t4,s8
	sw	s0,104(sp)
	mv	s8,s11
	sw	s3,92(sp)
	sw	s4,88(sp)
	sw	s5,84(sp)
	sw	s7,76(sp)
	.cfi_offset 9, -12
	.cfi_offset 22, -32
	.cfi_offset 26, -48
	.cfi_offset 8, -8
	.cfi_offset 19, -20
	.cfi_offset 20, -24
	.cfi_offset 21, -28
	.cfi_offset 23, -36
.LBB437:
	.loc 1 1068 538
	sw	a2,20(sp)
	sw	a3,28(sp)
.LBE437:
.LBB438:
	.loc 1 1079 218
	li	s1,0
.LBE438:
	.loc 1 1064 9
	li	s6,0
	sw	a5,32(sp)
.LBB439:
	.loc 1 1068 64
	li	t5,1
.LBE439:
	.loc 1 1068 622
	sw	s2,44(sp)
	sw	a1,36(sp)
	sw	a4,40(sp)
	mv	s10,s9
	mv	s11,a7
.LVL791:
.L341:
	.loc 1 1065 7 is_stmt 1
	.loc 1 1066 7
	lw	a5,32(sp)
	.loc 1 1065 11 is_stmt 0
	lw	a0,36(sp)
.LBB440:
	.loc 1 1068 91
	li	s5,-2147483648
	sub	t3,a5,s1
.LBE440:
.LBB441:
	.loc 1 1068 523
	lw	a5,20(sp)
.LBE441:
.LBB442:
	.loc 1 1068 114
	li	s4,-2147483648
	.loc 1 1068 148
	li	s3,-2147479552
	.loc 1 1068 192
	li	s2,-2147483648
	.loc 1 1068 255
	li	s9,-2147479552
.LBE442:
.LBB443:
	.loc 1 1068 523
	add	t2,a5,s1
	.loc 1 1068 573
	li	t0,1036288
.LBE443:
	.loc 1 1070 7
	li	a5,4096
	.loc 1 1065 11
	sub	a0,a0,s6
.LVL792:
	.loc 1 1066 9
	li	ra,128
.LBB444:
	.loc 1 1068 91
	addi	s5,s5,672
	.loc 1 1068 114
	addi	s4,s4,1568
	.loc 1 1068 148
	addi	s3,s3,-864
	.loc 1 1068 192
	addi	s2,s2,544
	.loc 1 1068 255
	addi	s9,s9,-736
.LBE444:
.LBB445:
	.loc 1 1068 573
	addi	t0,t0,125
.LBE445:
	.loc 1 1070 7
	mv	a6,zero
	addi	a5,a5,-2048
	li	a4,1536
	li	a3,1024
	li	a2,512
	li	a1,0
	.loc 1 1066 9
	ble	a0,ra,.L340
	li	a0,128
.LVL793:
.L340:
.LBB446:
	.loc 1 1068 3 is_stmt 1
	.loc 1 1068 31 is_stmt 0
	slli	ra,a0,1
.LVL794:
	.loc 1 1068 48 is_stmt 1
	.loc 1 1068 64 is_stmt 0
	sw	t5,0(s11)
	.loc 1 1068 75 is_stmt 1
	.loc 1 1068 23 is_stmt 0
	addi	s7,ra,-1
.LVL795:
	.loc 1 1068 91
	sw	s7,0(s5)
	.loc 1 1068 97 is_stmt 1
	.loc 1 1068 114 is_stmt 0
	sw	s7,0(s4)
	.loc 1 1068 131 is_stmt 1
	.loc 1 1068 148 is_stmt 0
	sw	zero,0(s3)
	.loc 1 1068 157 is_stmt 1
.LVL796:
	.loc 1 1068 176
	.loc 1 1068 192 is_stmt 0
	sw	zero,0(s2)
	.loc 1 1068 237 is_stmt 1
	.loc 1 1068 238
	.loc 1 1068 255 is_stmt 0
	sw	ra,0(s9)
	.loc 1 1068 273 is_stmt 1
	.loc 1 1068 290 is_stmt 0
	lw	a7,40(sp)
.LBE446:
.LBB447:
	.loc 1 1068 353
	add	s0,a0,s6
	slli	s0,s0,1
.LBE447:
.LBB448:
	.loc 1 1068 290
	sw	a7,0(s8)
.LBE448:
.LBB449:
	.loc 1 1068 323 is_stmt 1
.LVL797:
	.loc 1 1068 345 is_stmt 0
	addi	s0,s0,-1
.LVL798:
	.loc 1 1068 392
	sw	t5,0(s11)
	.loc 1 1068 363
	sub	s0,s0,s1
.LVL799:
	.loc 1 1068 376 is_stmt 1
	.loc 1 1068 403
	.loc 1 1068 419 is_stmt 0
	sw	s0,0(s5)
	.loc 1 1068 425 is_stmt 1
	.loc 1 1068 442 is_stmt 0
	sw	t3,0(s4)
	sw	t3,16(sp)
	.loc 1 1068 457 is_stmt 1
	.loc 1 1068 474 is_stmt 0
	sw	s1,0(s3)
	.loc 1 1068 483 is_stmt 1
.LVL800:
	.loc 1 1068 502
	.loc 1 1068 518 is_stmt 0
	sw	t2,0(s2)
	.loc 1 1068 555 is_stmt 1
	.loc 1 1068 556
	.loc 1 1068 573 is_stmt 0
	sw	t0,0(s8)
.LBE449:
	.loc 1 1068 605 is_stmt 1
	.loc 1 1068 606
	.loc 1 1068 622 is_stmt 0
	sw	t4,0(s10)
	sw	t4,12(sp)
	.loc 1 1070 7 is_stmt 1
	call	exponent.constprop.0
.LVL801:
.LBB450:
	.loc 1 1079 3
	.loc 1 1079 56
	.loc 1 1079 72 is_stmt 0
	li	t6,1
	sw	t6,0(s11)
	.loc 1 1079 83 is_stmt 1
	.loc 1 1079 99 is_stmt 0
	sw	s0,0(s5)
	.loc 1 1079 105 is_stmt 1
	.loc 1 1079 122 is_stmt 0
	lw	t3,16(sp)
	.loc 1 1079 261
	addi	s0,s0,1
.LVL802:
.LBE450:
.LBB451:
	.loc 1 1079 506
	li	a4,256
.LBE451:
.LBB452:
	.loc 1 1079 122
	sw	t3,0(s4)
.LVL803:
	.loc 1 1079 137 is_stmt 1
	.loc 1 1079 154 is_stmt 0
	sw	s1,0(s3)
	.loc 1 1079 163 is_stmt 1
.LVL804:
	.loc 1 1079 182
	.loc 1 1079 203 is_stmt 0
	lw	a5,24(sp)
.LBE452:
	.loc 1 1064 20 discriminator 2
	addi	s6,s6,128
.LVL805:
	.loc 1 1064 14 discriminator 1
	li	t5,1
.LBB453:
	.loc 1 1079 203
	add	a5,a5,s1
	.loc 1 1079 198
	sw	a5,0(s2)
	.loc 1 1079 235 is_stmt 1
	.loc 1 1079 236
	.loc 1 1079 288 is_stmt 0
	li	a5,1036288
	.loc 1 1079 253
	sw	s0,0(s9)
	.loc 1 1079 271 is_stmt 1
	.loc 1 1079 288 is_stmt 0
	addi	a5,a5,127
	sw	a5,0(s8)
.LBE453:
.LBB454:
	.loc 1 1079 321 is_stmt 1
.LVL806:
	.loc 1 1079 362
	.loc 1 1079 378 is_stmt 0
	sw	t6,0(s11)
	.loc 1 1079 389 is_stmt 1
	.loc 1 1079 405 is_stmt 0
	sw	s7,0(s5)
	.loc 1 1079 411 is_stmt 1
	.loc 1 1079 428 is_stmt 0
	sw	s7,0(s4)
	.loc 1 1079 445 is_stmt 1
	.loc 1 1079 462 is_stmt 0
	sw	zero,0(s3)
	.loc 1 1079 471 is_stmt 1
.LVL807:
	.loc 1 1079 490
	.loc 1 1079 571 is_stmt 0
	li	a5,1036288
	.loc 1 1079 506
	sw	a4,0(s2)
	.loc 1 1079 553 is_stmt 1
	.loc 1 1079 554
	.loc 1 1079 571 is_stmt 0
	addi	a5,a5,-1923
	sw	a5,0(s8)
.LBE454:
	.loc 1 1079 603 is_stmt 1
	.loc 1 1079 604
	.loc 1 1079 620 is_stmt 0
	lw	t4,12(sp)
	.loc 1 1081 18
	li	a5,88
	.loc 1 1064 14 discriminator 1
	addi	s1,s1,256
.LVL808:
	.loc 1 1079 620
	sw	t4,0(s10)
	.loc 1 1081 1 is_stmt 1
	.loc 1 1081 2
	.loc 1 1081 18 is_stmt 0
	sw	a5,0(s10)
	.loc 1 1064 20 is_stmt 1 discriminator 2
