	.file	"gaussian.m.c"
	.option nopic
	.attribute arch, "rv32i2p1_m2p0"
	.attribute unaligned_access, 0
	.attribute stack_align, 16
	.text
.Ltext0:
	.cfi_sections	.debug_frame
	.file 0 "/home/mahmoudsamy/grad/ZC702/SW" "apps/gaussian/kernels/gaussian.m.c"
	.align	2
	.type	iconv, @function
iconv:
.LFB0:
	.file 1 "apps/gaussian/kernels/gaussian.m.c"
	.loc 1 45 37
	.cfi_startproc
.LVL0:
	.loc 1 46 4
	.loc 1 45 37 is_stmt 0
	addi	sp,sp,-320
	.cfi_def_cfa_offset 320
	sw	s4,296(sp)
	sw	ra,316(sp)
	sw	s0,312(sp)
	sw	s5,292(sp)
	sw	s7,284(sp)
	sw	s9,276(sp)
	.loc 1 58 12
	lw	a3,16(a0)
	.cfi_offset 20, -24
	.cfi_offset 1, -4
	.cfi_offset 8, -8
	.cfi_offset 21, -28
	.cfi_offset 23, -36
	.cfi_offset 25, -44
	.loc 1 63 14
	lw	s0,24(a0)
	.loc 1 56 9
	lw	s5,36(a0)
	.loc 1 58 12
	sw	a3,12(sp)
	.loc 1 63 20
	addi	a4,s0,31
	.loc 1 62 14
	lw	a3,20(a0)
	.loc 1 63 9
	srai	a5,a4,31
	andi	a5,a5,31
	add	a5,a5,a4
	.loc 1 62 14
	sw	a3,20(sp)
	.loc 1 57 9
	lw	s9,40(a0)
	.loc 1 45 37
	mv	t5,a0
.LVL1:
	.loc 1 47 4 is_stmt 1
	.loc 1 48 4
	.loc 1 49 4
	.loc 1 50 4
	.loc 1 51 4
	.loc 1 52 4
	.loc 1 53 4
	.loc 1 54 4
	.loc 1 56 4
	.loc 1 57 4
	.loc 1 58 4
	.loc 1 59 4
	.loc 1 60 4
	.loc 1 61 4
	.loc 1 62 4
	.loc 1 63 4
	.loc 1 63 9 is_stmt 0
	srai	s4,a5,5
.LVL2:
	.loc 1 64 4 is_stmt 1
	.loc 1 66 4
	.loc 1 66 6 is_stmt 0
	bne	a1,zero,.L2
	sw	s1,308(sp)
.LVL3:
	sw	s2,304(sp)
	sw	s3,300(sp)
	sw	s6,288(sp)
	sw	s8,280(sp)
	sw	s10,272(sp)
	sw	s11,268(sp)
	.loc 1 68 26
	li	a5,63
	mv	s7,a1
	.loc 1 67 7 is_stmt 1
.LVL4:
	.loc 1 68 7
	.cfi_offset 9, -12
	.cfi_offset 18, -16
	.cfi_offset 19, -20
	.cfi_offset 22, -32
	.cfi_offset 24, -40
	.cfi_offset 26, -48
	.cfi_offset 27, -52
	.loc 1 68 26 is_stmt 0
	bgt	a4,a5,.L22
.LVL5:
.L3:
.LBB2:
	.loc 1 77 3 is_stmt 1
	.loc 1 77 70
	.loc 1 77 87 is_stmt 0
	li	t4,-2147483648
	li	t0,4096
	sw	t0,1696(t4)
.LVL6:
	addi	t4,t4,1696
	sw	t4,68(sp)
	.loc 1 77 99 is_stmt 1
	.loc 1 77 116 is_stmt 0
	li	t3,-2147483648
	.loc 1 77 139
	li	a5,16384
	.loc 1 77 116
	sw	zero,1824(t3)
	.loc 1 77 122 is_stmt 1
	.loc 1 77 139 is_stmt 0
	addi	a5,a5,-1
	sw	a5,16(sp)
	li	t1,-2147483648
	sw	a5,1952(t1)
	addi	t1,t1,1952
	sw	t1,64(sp)
	.loc 1 77 167 is_stmt 1
	.loc 1 77 184 is_stmt 0
	li	a7,-2147479552
	sw	zero,-1120(a7)
	.loc 1 77 196 is_stmt 1
	.loc 1 77 213 is_stmt 0
	li	a0,-2147479552
.LVL7:
	li	a5,256
	sw	a5,-2016(a0)
	addi	a0,a0,-2016
	sw	a0,60(sp)
	.loc 1 77 224 is_stmt 1
	.loc 1 77 241 is_stmt 0
	li	a6,-2147479552
	li	a5,15
	sw	a5,-1888(a6)
	addi	a6,a6,-1888
	.loc 1 77 264
	li	a5,65536
	.loc 1 77 241
	sw	a6,56(sp)
	.loc 1 77 247 is_stmt 1
	.loc 1 77 264 is_stmt 0
	li	a1,-2147479552
.LVL8:
	addi	a5,a5,-1
	sw	a5,-1760(a1)
	addi	a1,a1,-1760
	sw	a1,52(sp)
	.loc 1 77 285 is_stmt 1
	.loc 1 77 302 is_stmt 0
	li	a2,-2147479552
	sw	zero,-992(a2)
	.loc 1 77 313 is_stmt 1
	.loc 1 77 329 is_stmt 0
	li	s10,-2147483648
	sw	zero,672(s10)
	.loc 1 77 332 is_stmt 1
	.loc 1 77 351
	.loc 1 77 348 is_stmt 0
	li	s11,-2147483648
	li	t2,1
	sw	t2,1056(s11)
	.loc 1 77 368
	li	s8,-2147483648
	sw	zero,1568(s8)
	.loc 1 77 371 is_stmt 1
	.loc 1 77 388 is_stmt 0
	li	s6,-2147479552
	sw	zero,-864(s6)
	.loc 1 77 391 is_stmt 1
	.loc 1 77 407 is_stmt 0
	li	s3,-2147483648
	sw	zero,544(s3)
	.loc 1 77 433 is_stmt 1
	.loc 1 77 450 is_stmt 0
	li	a3,-2147479552
	li	a5,16
	sw	a5,-736(a3)
	.loc 1 77 492
	li	a4,524288
.LVL9:
	.loc 1 77 450
	addi	a3,a3,-736
	sw	a3,48(sp)
	.loc 1 77 475 is_stmt 1
	.loc 1 77 492 is_stmt 0
	li	s1,-2147479552
	addi	a4,a4,127
	sw	a4,-1632(s1)
.LBE2:
	.loc 1 77 605
	lw	a5,16(t5)
.LBB3:
	.loc 1 77 492
	sw	a4,44(sp)
.LBE3:
	.loc 1 77 582 is_stmt 1
	.loc 1 77 583
	.loc 1 77 605 is_stmt 0
	sw	t5,40(sp)
	.loc 1 77 600
	li	t6,-2147479552
	.loc 1 77 629
	li	t0,1036288
	.loc 1 77 600
	sw	a5,-480(t6)
	.loc 1 77 612 is_stmt 1
	.loc 1 77 629 is_stmt 0
	addi	t0,t0,-1923
	.loc 1 77 678
	li	a5,393216
	.loc 1 77 629
	sw	t0,-1632(s1)
	.loc 1 77 661 is_stmt 1
	.loc 1 77 662
	.loc 1 77 678 is_stmt 0
	addi	a5,a5,1
	li	s2,-2147483648
	sw	a5,20(s2)
	.loc 1 79 18
	li	t0,1015808000
	.loc 1 77 678
	sw	a5,36(sp)
	.loc 1 79 1 is_stmt 1
	.loc 1 79 2
	.loc 1 79 18 is_stmt 0
	addi	t0,t0,4
	sw	t0,20(s2)
	.loc 1 80 4 is_stmt 1
	li	ra,-2147483648
	sw	zero,36(ra)
	.loc 1 80 4
.LBB4:
	.loc 1 77 116 is_stmt 0
	addi	t3,t3,1824
	sw	t3,32(sp)
	.loc 1 77 184
	addi	a7,a7,-1120
	.loc 1 77 302
	addi	a2,a2,-992
	.loc 1 77 184
	sw	a7,28(sp)
	.loc 1 77 302
	sw	a2,24(sp)
.LBE4:
	.loc 1 80 4
	call	_taskYield
.LVL10:
	.loc 1 80 18 is_stmt 1 discriminator 1
.LBB5:
	.loc 1 82 3
	.loc 1 82 38
	.loc 1 82 55 is_stmt 0
	lw	t4,68(sp)
	li	t0,4096
	.loc 1 82 348
	li	t2,1
	.loc 1 82 55
	sw	t0,0(t4)
	.loc 1 82 67 is_stmt 1
	.loc 1 82 84 is_stmt 0
	lw	t3,32(sp)
	sw	zero,0(t3)
	.loc 1 82 90 is_stmt 1
	.loc 1 82 107 is_stmt 0
	lw	a5,16(sp)
	lw	t1,64(sp)
	sw	a5,0(t1)
	.loc 1 82 135 is_stmt 1
	.loc 1 82 152 is_stmt 0
	lw	a7,28(sp)
	sw	zero,0(a7)
	.loc 1 82 164 is_stmt 1
	.loc 1 82 211 is_stmt 0
	lw	t5,40(sp)
	.loc 1 82 181
	lw	a6,56(sp)
	.loc 1 82 258
	li	a7,48
	.loc 1 82 211
	lw	t1,16(t5)
	addi	t1,t1,-1
	.loc 1 82 181
	sw	t1,0(a6)
	.loc 1 82 215 is_stmt 1
	.loc 1 82 232 is_stmt 0
	lw	a0,60(sp)
	li	a6,7
	sw	a6,0(a0)
	.loc 1 82 241 is_stmt 1
	.loc 1 82 258 is_stmt 0
	lw	a1,52(sp)
	sw	a7,0(a1)
	.loc 1 82 262 is_stmt 1
	.loc 1 82 279 is_stmt 0
	lw	a2,24(sp)
	sw	zero,0(a2)
	.loc 1 82 282 is_stmt 1
	.loc 1 82 328 is_stmt 0
	lw	a1,16(t5)
	.loc 1 82 414
	li	a2,524288
	addi	a2,a2,1384
	.loc 1 82 328
	addi	a1,a1,-1
	.loc 1 82 298
	sw	a1,672(s10)
	.loc 1 82 332 is_stmt 1
	.loc 1 82 348 is_stmt 0
	sw	t2,1056(s11)
	.loc 1 82 357 is_stmt 1
	.loc 1 82 374 is_stmt 0
	sw	a7,1568(s8)
	.loc 1 82 378 is_stmt 1
	.loc 1 82 395 is_stmt 0
	sw	zero,-864(s6)
	.loc 1 82 398 is_stmt 1
	.loc 1 82 414 is_stmt 0
	sw	a2,544(s3)
	.loc 1 82 470 is_stmt 1
	.loc 1 82 500 is_stmt 0
	lw	a2,16(t5)
	.loc 1 82 487
	lw	a3,48(sp)
.LBE5:
.LBB6:
	.loc 1 82 793
	li	a1,67108864
.LBE6:
.LBB7:
	.loc 1 82 562
	mul	a2,a2,a2
.LBE7:
.LBB8:
	.loc 1 82 793
	addi	a5,a1,-1
	sw	a5,180(sp)
	.loc 1 82 929
	li	a1,1036288
	addi	a1,a1,125
.LBE8:
.LBB9:
	.loc 1 82 487
	sw	a2,0(a3)
	.loc 1 82 567 is_stmt 1
	.loc 1 82 584 is_stmt 0
	lw	a4,44(sp)
	sw	a4,-1632(s1)
.LBE9:
.LBB10:
	.loc 1 82 674 is_stmt 1
.LVL11:
	.loc 1 82 702 is_stmt 0
	lw	a4,16(t5)
.LVL12:
	.loc 1 82 727 is_stmt 1
	.loc 1 82 743 is_stmt 0
	sw	t2,1056(s11)
	.loc 1 82 754 is_stmt 1
	.loc 1 82 707 is_stmt 0
	mul	a4,a4,a4
.LVL13:
	.loc 1 82 694
	addi	a4,a4,-1
.LVL14:
	.loc 1 82 770
	sw	a4,672(s10)
	.loc 1 82 776 is_stmt 1
	.loc 1 82 793 is_stmt 0
	sw	a5,1568(s8)
	.loc 1 82 813 is_stmt 1
	.loc 1 82 830 is_stmt 0
	sw	zero,-864(s6)
	.loc 1 82 839 is_stmt 1
.LVL15:
	.loc 1 82 858
	.loc 1 82 894 is_stmt 0
	lw	a4,8(t5)
.LVL16:
	srli	a4,a4,1
	.loc 1 82 874
	sw	a4,544(s3)
	.loc 1 82 911 is_stmt 1
	.loc 1 82 912
	.loc 1 82 929 is_stmt 0
	sw	a1,-1632(s1)
.LBE10:
	.loc 1 82 961 is_stmt 1
	.loc 1 82 962
	.loc 1 82 978 is_stmt 0
	lw	a5,36(sp)
	sw	a5,20(s2)
	.loc 1 84 4 is_stmt 1
.LVL17:
	.loc 1 84 16 discriminator 1
	lw	a5,12(t5)
	ble	a5,zero,.L20
	.loc 1 58 7 is_stmt 0
	lw	a4,12(sp)
	.loc 1 62 17
	lw	a0,20(sp)
	.loc 1 64 25
	addi	s0,s0,3
.LVL18:
	.loc 1 58 7
	srli	a5,a4,31
	add	a5,a5,a4
	srai	s8,a5,1
.LBB11:
	.loc 1 101 196
	addi	a3,s8,2
	.loc 1 101 215
	slli	t3,a3,1
.LBE11:
.LBB12:
	.loc 1 112 373
	addi	a5,t3,3
	.loc 1 112 404
	sub	a1,a5,s8
	.loc 1 112 373
	sw	a5,212(sp)
.LBE12:
	.loc 1 60 6
	li	a5,32
	sub	t2,a5,s8
	.loc 1 62 17
	add	t4,a0,t2
	.loc 1 62 20
	addi	t4,t4,-1
	.loc 1 62 9
	div	t4,t4,t2
.LBB13:
	.loc 1 112 882
	addi	a2,a1,-7
.LBE13:
.LBB14:
	.loc 1 106 3213
	li	a4,65536
.LBE14:
	.loc 1 64 5
	srai	a6,s0,31
.LBB15:
	.loc 1 106 3213
	addi	a4,a4,1
.LBE15:
.LBB16:
	.loc 1 112 1341
	addi	a5,t3,-4
.LBE16:
	.loc 1 64 5
	andi	a6,a6,3
.LBB17:
	.loc 1 106 371
	slli	s2,a3,9
.LBE17:
	.loc 1 64 5
	add	a6,a6,s0
.LBB18:
	.loc 1 106 300
	slli	s0,a3,6
.LVL19:
.LBE18:
.LBB19:
	.loc 1 98 1655
	li	t1,65536
	addi	t1,t1,1545
	sub	t1,t1,s8
.LBE19:
.LBB20:
	.loc 1 101 220
	addi	t3,t3,-1
.LBE20:
.LBB21:
	.loc 1 112 404
	addi	a1,a1,-8
.LBE21:
.LBB22:
	.loc 1 101 220
	sw	t3,28(sp)
.LBE22:
.LBB23:
	.loc 1 112 404
	sw	a1,164(sp)
.LBE23:
	.loc 1 60 6
	sw	t2,52(sp)
.LBB24:
	.loc 1 106 300
	sw	s0,56(sp)
	.loc 1 106 371
	sw	s2,60(sp)
.LBE24:
	.loc 1 64 5
	srai	a6,a6,2
.LBB25:
	.loc 1 101 789
	mul	a7,a3,s8
.LBE25:
	.loc 1 62 9
	sw	t4,156(sp)
.LBB26:
	.loc 1 112 790
	mul	t6,a2,a3
.LBE26:
.LBB27:
	.loc 1 106 3213
	add	a2,s8,a4
.LBE27:
.LBB28:
	.loc 1 101 258
	addi	a4,s8,4
.LBE28:
.LBB29:
	.loc 1 112 1364
	sub	a3,a5,s8
.LBE29:
.LBB30:
	.loc 1 116 754
	slli	a0,a7,1
	add	a0,a0,a7
.LBE30:
.LBB31:
	.loc 1 101 744
	slli	a7,a7,4
.LBE31:
.LBB32:
	.loc 1 106 3213
	slli	s1,a2,3
.LBE32:
.LBB33:
	.loc 1 112 1364
	addi	a3,a3,-1
.LBE33:
.LBB34:
	.loc 1 101 744
	sw	a7,192(sp)
.LBE34:
.LBB35:
	.loc 1 119 618
	mul	a5,a4,a5
.LBE35:
.LBB36:
	.loc 1 98 1655
	slli	a7,t1,3
.LBE36:
.LBB37:
	.loc 1 112 790
	slli	a2,t6,1
	add	a2,a2,t6
.LBE37:
.LBB38:
	.loc 1 98 1655
	sw	a7,196(sp)
.LBE38:
.LBB39:
	.loc 1 112 1364
	sw	a3,172(sp)
.LBE39:
.LBB40:
	.loc 1 106 451
	addi	a7,s2,-1
.LBE40:
.LBB41:
	.loc 1 112 1687
	add	a3,s1,t0
.LBE41:
.LBB42:
	.loc 1 101 282
	slli	t3,a4,4
.LBE42:
.LBB43:
	.loc 1 106 451
	sw	a7,64(sp)
.LBE43:
.LBB44:
	.loc 1 112 739
	addi	a1,s1,64
.LBE44:
.LBB45:
	.loc 1 106 758
	addi	a7,s0,-1
.LBE45:
.LBB46:
	.loc 1 112 790
	slli	a2,a2,4
.LBE46:
.LBB47:
	.loc 1 112 1687
	sw	a3,176(sp)
.LBE47:
.LBB48:
	.loc 1 116 754
	slli	a3,a0,4
.LBE48:
.LBB49:
	.loc 1 106 3213
	sw	s1,160(sp)
.LBE49:
.LBB50:
	.loc 1 101 282
	sw	t3,24(sp)
.LBE50:
.LBB51:
	.loc 1 106 758
	sw	a7,68(sp)
.LBE51:
.LBB52:
	.loc 1 112 739
	sw	a1,168(sp)
	.loc 1 112 790
	sw	a2,184(sp)
.LBE52:
.LBB53:
	.loc 1 116 754
	sw	a3,188(sp)
.LBE53:
.LBB54:
	.loc 1 119 618
	sw	a5,216(sp)
	bge	s7,s4,.L20
	ble	t4,zero,.L20
	slli	a5,s7,3
	sw	a5,252(sp)
	sub	a5,a6,a5
.LBE54:
.LBB55:
	.loc 1 101 54
	li	t6,-2147483648
.LBE55:
.LBB56:
	.loc 1 106 1509
	li	a4,1036288
	sw	a5,208(sp)
	addi	a5,s8,-1
.LBE56:
	.loc 1 84 10
	li	s6,0
	sw	a5,36(sp)
.LBB57:
	.loc 1 101 54
	addi	t6,t6,800
.LBE57:
.LBB58:
	.loc 1 106 1509
	addi	a5,a4,-1889
	sw	a5,72(sp)
	sw	s4,228(sp)
	sw	s5,232(sp)
	sw	s9,244(sp)
	sw	s8,248(sp)
	sw	s6,236(sp)
	mv	t4,t5
	sw	s7,240(sp)
	mv	t0,t6
.LVL20:
.L12:
.LBE58:
	.loc 1 85 7 is_stmt 1
	.loc 1 91 40 is_stmt 0
	lw	a0,48(t4)
	lw	a3,44(t4)
	.loc 1 85 19
	lw	a4,28(t4)
	.loc 1 85 15
	lw	a5,32(t4)
	.loc 1 91 40
	mul	a3,a3,a0
	.loc 1 87 22
	lw	a0,244(sp)
	.loc 1 89 24
	lw	a6,248(sp)
	.loc 1 89 12
	lw	a2,0(t4)
	.loc 1 91 13
	lw	a1,4(t4)
	.loc 1 85 15
	mul	a5,a4,a5
.LVL21:
	.loc 1 86 7 is_stmt 1
	.loc 1 87 7
	.loc 1 87 22 is_stmt 0
	mul	a0,a4,a0
	.loc 1 89 24
	mul	a4,a4,a6
	.loc 1 86 32
	lw	a6,236(sp)
	.loc 1 89 12
	add	a2,a0,a2
.LVL22:
	.loc 1 87 15
	sub	a0,a5,a0
.LVL23:
	.loc 1 88 7 is_stmt 1
	.loc 1 89 7
	.loc 1 89 12 is_stmt 0
	sub	a2,a2,a4
	.loc 1 86 32
	mul	a5,a5,a6
.LVL24:
	.loc 1 90 15
	add	a4,a4,a0
	sw	a4,148(sp)
	.loc 1 91 28
	mul	a4,a3,a6
	.loc 1 89 12
	add	a5,a2,a5
	sw	a5,144(sp)
.LVL25:
	.loc 1 90 7 is_stmt 1
	.loc 1 91 7
	.loc 1 91 13 is_stmt 0
	add	a5,a4,a1
.LVL26:
	sw	a5,152(sp)
.LVL27:
	.loc 1 92 7 is_stmt 1
	.loc 1 92 20 discriminator 1
	.loc 1 93 20 discriminator 1
	lw	a5,240(sp)
.LVL28:
	bne	a5,zero,.L23
.LBB59:
	.loc 1 101 54 is_stmt 0
	li	a5,4096
	sw	a5,0(t0)
.LVL29:
	.loc 1 101 82
	li	s1,-2147483648
	sw	zero,928(s1)
	.loc 1 101 105
	lw	a5,16(sp)
	li	t6,-2147483648
	.loc 1 101 150
	li	t5,-2147479552
	.loc 1 101 105
	sw	a5,1440(t6)
	.loc 1 101 150
	sw	zero,-1248(t5)
	.loc 1 101 179
	lw	a5,28(sp)
	li	s0,-2147483648
	.loc 1 101 241
	li	ra,-2147483648
	.loc 1 101 179
	sw	a5,1824(s0)
	.loc 1 101 241
	lw	a5,24(sp)
	.loc 1 101 304
	li	s3,-2147483648
	.loc 1 101 327
	li	a7,-2147479552
	.loc 1 101 241
	sw	a5,1696(ra)
	.loc 1 101 304
	li	a5,1119
	sw	a5,1952(s3)
	.loc 1 101 327
	sw	zero,-1120(a7)
	.loc 1 101 347
	lw	a3,36(sp)
	li	a6,-2147479552
.LVL30:
	.loc 1 101 393
	li	a4,-2147479552
.LVL31:
	.loc 1 101 347
	sw	a3,-1888(a6)
	.loc 1 101 393
	li	a3,8
	sw	a3,-2016(a4)
	.loc 1 101 436
	li	t3,-2147479552
	sw	a5,-1760(t3)
	.loc 1 101 459
	li	a0,-2147479552
	sw	zero,-992(a0)
	.loc 1 101 478
	li	a3,-2147483648
	li	a2,7
	sw	a2,672(a3)
	.loc 1 101 534
	li	a4,-2147483648
	li	a3,1
	sw	a3,1056(a4)
	.loc 1 101 562
	li	a1,-2147483648
	sw	a5,1568(a1)
	.loc 1 101 585
	li	a2,-2147479552
	.loc 1 101 604
	li	a4,524288
	.loc 1 101 585
	sw	zero,-864(a2)
	.loc 1 101 604
	li	a5,-2147483648
	addi	a4,a4,8
	sw	a4,544(a5)
	.loc 1 101 736
	lw	a4,192(sp)
	li	a3,-2147479552
	.loc 1 101 874
	li	a5,1032192
	.loc 1 101 736
	sw	a4,-736(a3)
	.loc 1 101 874
	li	t1,-2147479552
	addi	a5,a5,95
	sw	a5,-1632(t1)
.LBE59:
	.loc 1 101 924
	li	a4,-2147479552
	.loc 1 101 946
	li	t2,1036288
	.loc 1 101 924
	sw	zero,-480(a4)
	.loc 1 101 946
	addi	t2,t2,-1955
	sw	t2,-1632(t1)
	lw	a2,232(sp)
	.loc 1 101 994
	li	a3,-2147483648
	addi	a4,a3,20
	li	a5,393216
	sw	a4,48(sp)
	addi	a5,a5,1
	sw	a2,40(sp)
	.loc 1 94 13 is_stmt 1
.LVL32:
	.loc 1 96 13
.LBB60:
	.loc 1 101 3
	.loc 1 101 38
	.loc 1 101 66
	.loc 1 101 88
	.loc 1 101 133
	.loc 1 101 162
	.loc 1 101 224
	.loc 1 101 287
	.loc 1 101 310
	.loc 1 101 330
	.loc 1 101 376
	.loc 1 101 419
	.loc 1 101 442
	.loc 1 101 462
	.loc 1 101 518
	.loc 1 101 545
	.loc 1 101 568
	.loc 1 101 588
	.loc 1 101 719
	.loc 1 101 857
.LBE60:
	.loc 1 101 906
	.loc 1 101 907
	.loc 1 101 929
	.loc 1 101 977
	.loc 1 101 978
	.loc 1 101 994 is_stmt 0
	sw	a5,0(a4)
	.loc 1 106 2411
	li	a3,393216
.LBB61:
	.loc 1 101 874
	addi	t1,t1,-1632
	.loc 1 101 436
	addi	t3,t3,-1760
.LBE61:
	.loc 1 101 994
	sw	zero,84(sp)
	sw	zero,44(sp)
	.loc 1 106 2411
	addi	a5,a3,17
	sw	a5,76(sp)
	mv	s11,t3
	mv	s10,t1
	j	.L10
.LVL33:
.L24:
	.loc 1 94 13 is_stmt 1
	.loc 1 96 13
.LBB62:
	.loc 1 98 3
	.loc 1 98 38
	.loc 1 98 54 is_stmt 0
	sw	a1,0(t0)
.LVL34:
	.loc 1 98 66 is_stmt 1
	.loc 1 98 82 is_stmt 0
	sw	zero,0(a2)
	.loc 1 98 88 is_stmt 1
	.loc 1 98 105 is_stmt 0
	lw	ra,16(sp)
	lw	a3,12(sp)
	sw	ra,0(a3)
	.loc 1 98 133 is_stmt 1
	.loc 1 98 150 is_stmt 0
	lw	a4,20(sp)
	sw	zero,0(a4)
	.loc 1 98 162 is_stmt 1
	.loc 1 98 179 is_stmt 0
	lw	t1,28(sp)
	sw	t1,0(s9)
	.loc 1 98 224 is_stmt 1
	.loc 1 98 241 is_stmt 0
	lw	a7,24(sp)
	sw	a7,0(t5)
	.loc 1 98 287 is_stmt 1
	.loc 1 98 304 is_stmt 0
	sw	s1,0(s8)
	.loc 1 98 310 is_stmt 1
	.loc 1 98 327 is_stmt 0
	sw	zero,0(s7)
	.loc 1 98 330 is_stmt 1
	.loc 1 98 347 is_stmt 0
	lw	ra,36(sp)
	sw	ra,0(t3)
	.loc 1 98 376 is_stmt 1
	.loc 1 98 393 is_stmt 0
	sw	a0,0(t6)
	.loc 1 98 419 is_stmt 1
	.loc 1 98 436 is_stmt 0
	sw	s1,0(s11)
	.loc 1 98 442 is_stmt 1
	.loc 1 98 459 is_stmt 0
	sw	zero,0(s6)
	.loc 1 98 462 is_stmt 1
	.loc 1 98 478 is_stmt 0
	sw	s0,0(s5)
	.loc 1 98 518 is_stmt 1
	.loc 1 98 534 is_stmt 0
	sw	a5,0(t2)
	.loc 1 98 545 is_stmt 1
	.loc 1 98 562 is_stmt 0
	sw	s1,0(s4)
	.loc 1 98 568 is_stmt 1
	.loc 1 98 585 is_stmt 0
	sw	zero,0(s3)
	.loc 1 98 588 is_stmt 1
	.loc 1 98 604 is_stmt 0
	lw	a3,128(sp)
	sw	a3,0(s2)
	.loc 1 98 719 is_stmt 1
	.loc 1 98 736 is_stmt 0
	lw	a4,32(sp)
	lw	a3,192(sp)
	sw	a3,0(a4)
	.loc 1 98 857 is_stmt 1
	.loc 1 98 874 is_stmt 0
	lw	a4,80(sp)
	sw	a4,0(s10)
.LBE62:
.LBB63:
	.loc 1 98 907 is_stmt 1
.LVL35:
	.loc 1 98 956
	.loc 1 98 972 is_stmt 0
	sw	a1,0(t0)
	.loc 1 98 984 is_stmt 1
	.loc 1 98 1000 is_stmt 0
	sw	zero,0(a2)
	.loc 1 98 1006 is_stmt 1
	.loc 1 98 1023 is_stmt 0
	lw	a3,12(sp)
	addi	a1,a1,-1
	sw	a1,0(a3)
	.loc 1 98 1051 is_stmt 1
	.loc 1 98 1068 is_stmt 0
	lw	a4,20(sp)
	li	a3,12288
	sw	a3,0(a4)
	.loc 1 98 1080 is_stmt 1
	.loc 1 98 1097 is_stmt 0
	sw	t1,0(s9)
	.loc 1 98 1142 is_stmt 1
	.loc 1 98 1159 is_stmt 0
	sw	a7,0(t5)
	.loc 1 98 1205 is_stmt 1
	.loc 1 98 1222 is_stmt 0
	sw	s1,0(s8)
	.loc 1 98 1228 is_stmt 1
	.loc 1 98 1245 is_stmt 0
	sw	zero,0(s7)
	.loc 1 98 1248 is_stmt 1
	.loc 1 98 1265 is_stmt 0
	sw	ra,0(t3)
	.loc 1 98 1324 is_stmt 1
	.loc 1 98 1341 is_stmt 0
	sw	a0,0(t6)
	.loc 1 98 1367 is_stmt 1
	.loc 1 98 1384 is_stmt 0
	sw	s1,0(s11)
	.loc 1 98 1390 is_stmt 1
	.loc 1 98 1407 is_stmt 0
	sw	zero,0(s6)
	.loc 1 98 1410 is_stmt 1
	.loc 1 98 1426 is_stmt 0
	sw	s0,0(s5)
	.loc 1 98 1466 is_stmt 1
	.loc 1 98 1482 is_stmt 0
	sw	a5,0(t2)
	.loc 1 98 1493 is_stmt 1
	.loc 1 98 1510 is_stmt 0
	sw	s1,0(s4)
	.loc 1 98 1516 is_stmt 1
	.loc 1 98 1533 is_stmt 0
	sw	zero,0(s3)
	.loc 1 98 1536 is_stmt 1
	.loc 1 98 1552 is_stmt 0
	lw	a3,196(sp)
	sw	a3,0(s2)
	.loc 1 98 1681 is_stmt 1
	.loc 1 98 1698 is_stmt 0
	lw	a5,92(sp)
	sw	a5,0(s10)
.LBE63:
	.loc 1 98 1730 is_stmt 1
	.loc 1 98 1731
	.loc 1 98 1747 is_stmt 0
	lw	t3,124(sp)
	sw	t3,0(a6)
.LVL36:
.L10:
.LBB64:
	.loc 1 106 3 is_stmt 1
	.loc 1 106 204
	.loc 1 106 220 is_stmt 0
	lw	a5,56(sp)
	.loc 1 106 321
	li	s0,7
	li	a2,-2147483648
	.loc 1 106 220
	sw	a5,0(t0)
	.loc 1 106 305 is_stmt 1
	.loc 1 106 321 is_stmt 0
	sw	s0,928(a2)
	.loc 1 106 327 is_stmt 1
	.loc 1 106 344 is_stmt 0
	lw	a4,64(sp)
	li	a5,-2147483648
	sw	a5,12(sp)
	sw	a4,1440(a5)
	.loc 1 106 454 is_stmt 1
	.loc 1 106 471 is_stmt 0
	li	a3,-2147479552
	sw	a3,20(sp)
	sw	zero,-1248(a3)
	.loc 1 106 556 is_stmt 1
	.loc 1 106 573 is_stmt 0
	li	t5,-2147483648
	li	a4,32
	sw	a4,1696(t5)
	.loc 1 106 632 is_stmt 1
	.loc 1 106 649 is_stmt 0
	lw	ra,28(sp)
	li	s9,-2147483648
	.loc 1 106 672
	li	s8,-2147483648
	.loc 1 106 649
	sw	ra,1824(s9)
	.loc 1 106 655 is_stmt 1
	.loc 1 106 672 is_stmt 0
	lw	a1,68(sp)
	.loc 1 106 778
	li	s7,-2147479552
	.loc 1 106 854
	li	t6,-2147479552
	.loc 1 106 672
	sw	a1,1952(s8)
	.loc 1 106 761 is_stmt 1
	.loc 1 106 778 is_stmt 0
	sw	zero,-1120(s7)
	.loc 1 106 837 is_stmt 1
	.loc 1 106 854 is_stmt 0
	li	a0,8
	sw	a0,-2016(t6)
	.loc 1 106 895 is_stmt 1
	.loc 1 106 912 is_stmt 0
	li	t3,-2147479552
	li	a5,3
	sw	a5,-1888(t3)
	.loc 1 106 918 is_stmt 1
	.loc 1 106 935 is_stmt 0
	li	a7,31
	sw	a7,0(s11)
	.loc 1 106 998 is_stmt 1
	.loc 1 106 1015 is_stmt 0
	li	s6,-2147479552
	sw	zero,-992(s6)
	.loc 1 106 1056 is_stmt 1
	.loc 1 106 1072 is_stmt 0
	li	t2,-2147483648
	li	a5,1
	sw	a5,1056(t2)
	.loc 1 106 1083 is_stmt 1
	.loc 1 106 1099 is_stmt 0
	li	s5,-2147483648
	.loc 1 106 1122
	li	s4,-2147483648
	.loc 1 106 1099
	sw	s0,672(s5)
	.loc 1 106 1105 is_stmt 1
	.loc 1 106 1180 is_stmt 0
	li	s3,-2147479552
	.loc 1 106 1122
	sw	s0,1568(s4)
	.loc 1 106 1163 is_stmt 1
	.loc 1 106 1406 is_stmt 0
	li	s2,-2147483648
	.loc 1 106 1180
	sw	zero,-864(s3)
	.loc 1 106 1189 is_stmt 1
.LVL37:
	.loc 1 106 1390
	.loc 1 106 1406 is_stmt 0
	sw	zero,544(s2)
	.loc 1 106 1435 is_stmt 1
	.loc 1 106 1436
	.loc 1 106 1453 is_stmt 0
	lw	s1,60(sp)
	li	a1,-2147479552
	sw	a1,32(sp)
	sw	s1,-736(a1)
	.loc 1 106 1492 is_stmt 1
	.loc 1 106 1509 is_stmt 0
	lw	a6,72(sp)
.LBE64:
.LBB65:
	.loc 1 106 2260
	addi	a3,a3,-96
.LBE65:
.LBB66:
	.loc 1 106 573
	addi	t5,t5,1696
	.loc 1 106 1509
	sw	a6,0(s10)
.LBE66:
.LBB67:
	.loc 1 106 1542 is_stmt 1
.LVL38:
	.loc 1 106 1734
	.loc 1 106 2289 is_stmt 0
	lw	t1,40(sp)
	lw	s1,148(sp)
	.loc 1 106 1782
	lw	a1,28(t4)
.LBE67:
.LBB68:
	.loc 1 106 912
	addi	t3,t3,-1888
.LBE68:
.LBB69:
	.loc 1 106 2289
	sub	s1,s1,t1
	sw	s1,28(sp)
	.loc 1 106 1782
	slli	a1,a1,2
	.loc 1 106 1751
	sw	a1,0(t5)
.LVL39:
	.loc 1 106 1787 is_stmt 1
	.loc 1 106 1804 is_stmt 0
	sw	s0,1824(s9)
	.loc 1 106 1810 is_stmt 1
	.loc 1 106 1837 is_stmt 0
	lw	s1,208(sp)
	lw	a6,28(t4)
	.loc 1 106 2318
	lw	a4,144(sp)
	sw	t1,40(sp)
	.loc 1 106 1837
	mul	a6,s1,a6
	.loc 1 106 2318
	add	a4,a4,t1
	sw	a4,92(sp)
	.loc 1 106 2362
	li	s1,1036288
.LBE69:
.LBB70:
	.loc 1 106 0
	li	a4,1036288
.LBE70:
.LBB71:
	.loc 1 106 2362
	addi	s1,s1,157
.LBE71:
.LBB72:
	.loc 1 106 0
	addi	a4,a4,-1891
.LBE72:
.LBB73:
	.loc 1 106 2362
	sw	s1,96(sp)
.LBE73:
.LBB74:
	.loc 1 106 0
	sw	a4,88(sp)
.LBE74:
.LBB75:
	.loc 1 112 948
	li	a4,1032192
.LBE75:
.LBB76:
	.loc 1 106 1837
	slli	a6,a6,2
	.loc 1 106 1868
	addi	a6,a6,-1
	.loc 1 106 1827
	sw	a6,1952(s8)
	.loc 1 106 1871 is_stmt 1
	.loc 1 106 1888 is_stmt 0
	sw	zero,-1120(s7)
	.loc 1 106 1924 is_stmt 1
	.loc 1 106 1958 is_stmt 0
	lw	a6,28(t4)
.LBE76:
.LBB77:
	.loc 1 112 948
	addi	a4,a4,159
	sw	a4,80(sp)
.LBE77:
.LBB78:
	.loc 1 106 1941
	sw	a6,-2016(t6)
	.loc 1 106 1963 is_stmt 1
	.loc 1 106 1980 is_stmt 0
	sw	ra,0(t3)
	.loc 1 106 1986 is_stmt 1
	.loc 1 106 1980 is_stmt 0
	mv	a4,ra
	.loc 1 106 2003
	lw	ra,180(sp)
.LBE78:
.LBB79:
	.loc 1 106 2563
	li	a1,4096
	.loc 1 106 2812
	li	s1,1119
.LBE79:
.LBB80:
	.loc 1 106 2003
	sw	ra,0(s11)
	.loc 1 106 2015 is_stmt 1
	.loc 1 106 2032 is_stmt 0
	sw	zero,-992(s6)
	.loc 1 106 2054 is_stmt 1
	.loc 1 106 2070 is_stmt 0
	sw	a5,1056(t2)
	.loc 1 106 2081 is_stmt 1
	.loc 1 106 2097 is_stmt 0
	sw	a7,672(s5)
	.loc 1 106 2103 is_stmt 1
	.loc 1 106 2134 is_stmt 0
	lw	a6,28(t4)
	sw	t4,120(sp)
	.loc 1 106 2136
	lw	t4,40(sp)
	.loc 1 106 2134
	addi	a6,a6,-1
.LBE80:
.LBB81:
	.loc 1 106 3404
	li	t1,1032192
.LVL40:
.LBE81:
.LBB82:
	.loc 1 106 2136
	sub	a6,a6,t4
	.loc 1 106 2120
	sw	a6,1568(s4)
	.loc 1 106 2142 is_stmt 1
	.loc 1 106 2159 is_stmt 0
	sw	t4,40(sp)
	sw	t4,-864(s3)
	.loc 1 106 2168 is_stmt 1
.LVL41:
	.loc 1 106 2243
	.loc 1 106 2260 is_stmt 0
	mv	t4,a3
	lw	a3,28(sp)
.LBE82:
.LBB83:
	.loc 1 106 3404
	addi	t1,t1,1183
.LBE83:
.LBB84:
	.loc 1 112 1093
	li	ra,12288
.LBE84:
.LBB85:
	.loc 1 106 2260
	sw	a3,0(t4)
.LVL42:
	.loc 1 106 2296 is_stmt 1
	.loc 1 106 2297
	.loc 1 106 2313 is_stmt 0
	lw	a3,92(sp)
.LBE85:
.LBB86:
	.loc 1 112 1093
	addi	ra,ra,-1
.LBE86:
.LBB87:
	.loc 1 106 854
	addi	t6,t6,-2016
.LBE87:
.LBB88:
	.loc 1 106 2313
	sw	a3,544(s2)
	.loc 1 106 2344 is_stmt 1
	.loc 1 106 2345
	.loc 1 106 2362 is_stmt 0
	lw	a3,96(sp)
.LBE88:
.LBB89:
	.loc 1 106 1072
	addi	t2,t2,1056
	.loc 1 106 321
	addi	a2,a2,928
.LBE89:
.LBB90:
	.loc 1 106 2362
	sw	a3,0(s10)
.LBE90:
	.loc 1 106 2394 is_stmt 1
	.loc 1 106 2395
	.loc 1 106 2411 is_stmt 0
	lw	t4,48(sp)
	lw	a6,76(sp)
.LBB91:
	.loc 1 106 649
	addi	s9,s9,1824
	.loc 1 106 672
	addi	s8,s8,1952
.LBE91:
	.loc 1 106 2411
	sw	a6,0(t4)
.LBB92:
	.loc 1 106 2501 is_stmt 1
.LVL43:
	.loc 1 106 2546
	.loc 1 106 2563 is_stmt 0
	sw	a1,0(t6)
	.loc 1 106 2575 is_stmt 1
	.loc 1 106 2592 is_stmt 0
	li	t4,3
	sw	t4,0(t3)
	.loc 1 106 2598 is_stmt 1
	.loc 1 106 2615 is_stmt 0
	lw	a6,16(sp)
.LBE92:
.LBB93:
	.loc 1 106 778
	addi	s7,s7,-1120
	.loc 1 106 1015
	addi	s6,s6,-992
.LBE93:
.LBB94:
	.loc 1 106 2615
	sw	a6,0(s11)
	.loc 1 106 2643 is_stmt 1
	.loc 1 106 2660 is_stmt 0
	sw	zero,0(s6)
	.loc 1 106 2672 is_stmt 1
	.loc 1 106 2689 is_stmt 0
	sw	a4,0(s9)
	.loc 1 106 2732 is_stmt 1
	.loc 1 106 2749 is_stmt 0
	lw	a7,24(sp)
	.loc 1 106 2689
	mv	a6,a4
.LBE94:
.LBB95:
	.loc 1 106 1099
	addi	s5,s5,672
.LBE95:
.LBB96:
	.loc 1 106 2749
	sw	a7,0(t5)
	.loc 1 106 2795 is_stmt 1
	.loc 1 106 2812 is_stmt 0
	sw	s1,0(s8)
	.loc 1 106 2818 is_stmt 1
	.loc 1 106 2835 is_stmt 0
	sw	zero,0(s7)
	.loc 1 106 2838 is_stmt 1
	.loc 1 106 2854 is_stmt 0
	sw	s0,0(s5)
	.loc 1 106 2897 is_stmt 1
	.loc 1 106 2913 is_stmt 0
	sw	a0,0(t2)
	.loc 1 106 2939 is_stmt 1
	.loc 1 106 2956 is_stmt 0
	sw	s1,1568(s4)
	.loc 1 106 2962 is_stmt 1
	.loc 1 106 2979 is_stmt 0
	sw	zero,-864(s3)
	.loc 1 106 2982 is_stmt 1
	.loc 1 106 2998 is_stmt 0
	sw	s0,0(a2)
	.loc 1 106 3036 is_stmt 1
	.loc 1 106 3052 is_stmt 0
	sw	a5,0(t0)
	.loc 1 106 3063 is_stmt 1
	.loc 1 106 3080 is_stmt 0
	lw	a4,12(sp)
.LBE96:
.LBB97:
	.loc 1 106 1122
	addi	s4,s4,1568
	.loc 1 106 1180
	addi	s3,s3,-864
.LBE97:
.LBB98:
	.loc 1 106 3080
	sw	s1,1440(a4)
	.loc 1 106 3086 is_stmt 1
	.loc 1 106 3103 is_stmt 0
	lw	a3,20(sp)
.LBE98:
.LBB99:
	.loc 1 106 1406
	addi	s2,s2,544
.LBE99:
.LBB100:
	.loc 1 106 3103
	sw	zero,-1248(a3)
	.loc 1 106 3106 is_stmt 1
	.loc 1 106 3122 is_stmt 0
	lw	a3,160(sp)
	sw	a3,0(s2)
	.loc 1 106 3239 is_stmt 1
	.loc 1 106 3256 is_stmt 0
	lw	a7,32(sp)
	lw	a4,60(sp)
	sw	a4,-736(a7)
	.loc 1 106 3387 is_stmt 1
	.loc 1 106 3404 is_stmt 0
	sw	t1,0(s10)
.LBE100:
.LBB101:
	.loc 1 106 3437 is_stmt 1
.LVL44:
	.loc 1 106 3638
	.loc 1 106 3654 is_stmt 0
	lw	t1,56(sp)
	.loc 1 106 0
	li	a7,31
	.loc 1 106 3654
	sw	t1,0(t0)
	.loc 1 106 3739 is_stmt 1
	.loc 1 106 3755 is_stmt 0
	sw	s0,0(a2)
	.loc 1 106 3761 is_stmt 1
	.loc 1 106 3778 is_stmt 0
	lw	t1,64(sp)
	lw	a4,12(sp)
	sw	t1,1440(a4)
	.loc 1 106 3888 is_stmt 1
	.loc 1 106 3905 is_stmt 0
	lw	a3,20(sp)
	.loc 1 106 4007
	li	a4,32
	.loc 1 106 4083
	mv	t1,a6
	.loc 1 106 3905
	sw	zero,-1248(a3)
	.loc 1 106 3990 is_stmt 1
	.loc 1 106 4007 is_stmt 0
	sw	a4,0(t5)
	.loc 1 106 4066 is_stmt 1
	.loc 1 106 4083 is_stmt 0
	sw	a6,0(s9)
	.loc 1 106 4089 is_stmt 1
	.loc 1 106 0 is_stmt 0
	lw	a6,68(sp)
	sw	a6,0(s8)
	.loc 1 106 0 is_stmt 1
	sw	zero,0(s7)
	.loc 1 106 0
	sw	a0,0(t6)
	.loc 1 106 0
	sw	t4,0(t3)
	.loc 1 106 0
	sw	a7,0(s11)
	.loc 1 106 0
	sw	zero,0(s6)
	.loc 1 106 0
	sw	a5,0(t2)
	.loc 1 106 0
	sw	s0,0(s5)
	.loc 1 106 0
	sw	s0,0(s4)
	.loc 1 106 0
	sw	zero,0(s3)
	.loc 1 106 0
.LVL45:
	.loc 1 106 0
	sw	zero,0(s2)
	.loc 1 106 0
	.loc 1 106 0
	lw	a7,88(sp)
.LBE101:
.LBB102:
	.loc 1 112 86 is_stmt 0
	li	a6,2
.LBE102:
.LBB103:
	.loc 1 106 0
	sw	a7,0(s10)
.LBE103:
	.loc 1 106 0 is_stmt 1
	.loc 1 106 0
	lw	t4,48(sp)
	lw	a4,76(sp)
	sw	a4,0(t4)
.LBB104:
	.loc 1 112 3
.LVL46:
	.loc 1 112 42
	.loc 1 112 58 is_stmt 0
	sw	a1,0(t0)
	.loc 1 112 70 is_stmt 1
	.loc 1 112 86 is_stmt 0
	sw	a6,0(a2)
	.loc 1 112 92 is_stmt 1
	.loc 1 112 109 is_stmt 0
	lw	a6,16(sp)
	lw	a4,12(sp)
	sw	a6,1440(a4)
	.loc 1 112 137 is_stmt 1
	.loc 1 112 154 is_stmt 0
	sw	a3,20(sp)
	sw	zero,-1248(a3)
	.loc 1 112 166 is_stmt 1
	.loc 1 112 183 is_stmt 0
	sw	t1,0(s9)
	.loc 1 112 228 is_stmt 1
	.loc 1 112 245 is_stmt 0
	lw	a6,24(sp)
	sw	a6,0(t5)
	.loc 1 112 291 is_stmt 1
	.loc 1 112 308 is_stmt 0
	sw	s1,0(s8)
	.loc 1 112 314 is_stmt 1
	.loc 1 112 331 is_stmt 0
	sw	zero,0(s7)
	.loc 1 112 334 is_stmt 1
	.loc 1 112 351 is_stmt 0
	lw	a3,164(sp)
	sw	a3,0(t3)
	.loc 1 112 408 is_stmt 1
	.loc 1 112 425 is_stmt 0
	sw	a0,0(t6)
	.loc 1 112 451 is_stmt 1
	.loc 1 112 468 is_stmt 0
	sw	s1,0(s11)
	.loc 1 112 474 is_stmt 1
	.loc 1 112 491 is_stmt 0
	sw	zero,0(s6)
	.loc 1 112 494 is_stmt 1
	.loc 1 112 510 is_stmt 0
	sw	s0,0(s5)
	.loc 1 112 550 is_stmt 1
	.loc 1 112 566 is_stmt 0
	sw	a5,0(t2)
	.loc 1 112 577 is_stmt 1
	.loc 1 112 594 is_stmt 0
	sw	s1,0(s4)
	.loc 1 112 600 is_stmt 1
	.loc 1 112 617 is_stmt 0
	sw	zero,0(s3)
	.loc 1 112 620 is_stmt 1
	.loc 1 112 636 is_stmt 0
	lw	a3,168(sp)
	sw	a3,0(s2)
	.loc 1 112 765 is_stmt 1
	.loc 1 112 782 is_stmt 0
	lw	a7,32(sp)
	lw	a3,184(sp)
	sw	a3,-736(a7)
	.loc 1 112 931 is_stmt 1
	.loc 1 112 948 is_stmt 0
	lw	a4,80(sp)
	sw	a4,0(s10)
.LBE104:
.LBB105:
	.loc 1 112 981 is_stmt 1
.LVL47:
	.loc 1 112 1026
	.loc 1 112 1042 is_stmt 0
	sw	a1,0(t0)
	.loc 1 112 1054 is_stmt 1
	.loc 1 112 1070 is_stmt 0
	li	a4,2
	sw	a4,0(a2)
	.loc 1 112 1076 is_stmt 1
	.loc 1 112 1093 is_stmt 0
	lw	a4,12(sp)
	sw	ra,1440(a4)
	.loc 1 112 1121 is_stmt 1
	.loc 1 112 1138 is_stmt 0
	lw	a3,20(sp)
	sw	a1,-1248(a3)
	.loc 1 112 1150 is_stmt 1
	.loc 1 112 1167 is_stmt 0
	sw	t1,0(s9)
	.loc 1 112 1212 is_stmt 1
	.loc 1 112 1229 is_stmt 0
	sw	a6,24(sp)
	sw	a6,0(t5)
	.loc 1 112 1275 is_stmt 1
	.loc 1 112 1292 is_stmt 0
	sw	s1,0(s8)
	.loc 1 112 1298 is_stmt 1
	.loc 1 112 1315 is_stmt 0
	sw	zero,0(s7)
	.loc 1 112 1318 is_stmt 1
	.loc 1 112 1335 is_stmt 0
	lw	a3,172(sp)
	sw	a3,0(t3)
	.loc 1 112 1368 is_stmt 1
	.loc 1 112 1385 is_stmt 0
	sw	a0,0(t6)
	.loc 1 112 1411 is_stmt 1
	.loc 1 112 1428 is_stmt 0
	sw	s1,0(s11)
	.loc 1 112 1434 is_stmt 1
	.loc 1 112 1451 is_stmt 0
	sw	zero,0(s6)
	.loc 1 112 1454 is_stmt 1
	.loc 1 112 1470 is_stmt 0
	sw	s0,0(s5)
	.loc 1 112 1510 is_stmt 1
	.loc 1 112 1526 is_stmt 0
	sw	a5,0(t2)
	.loc 1 112 1537 is_stmt 1
	.loc 1 112 1554 is_stmt 0
	sw	s1,0(s4)
	.loc 1 112 1560 is_stmt 1
	.loc 1 112 1577 is_stmt 0
	sw	zero,0(s3)
	.loc 1 112 1580 is_stmt 1
	.loc 1 112 1596 is_stmt 0
	lw	a6,176(sp)
	.loc 1 112 1730
	li	a3,1032192
	.loc 1 112 1596
	sw	a6,0(s2)
	.loc 1 112 1713 is_stmt 1
	.loc 1 112 1730 is_stmt 0
	addi	a6,a3,157
	mv	a4,a6
	sw	a4,92(sp)
.LBE105:
	.loc 1 112 1779
	li	a6,393216
.LBB106:
	.loc 1 112 1730
	sw	a4,0(s10)
.LBE106:
	.loc 1 112 1762 is_stmt 1
	.loc 1 112 1763
	.loc 1 112 1779 is_stmt 0
	addi	a6,a6,9
	sw	a6,0(t4)
.LBB107:
	.loc 1 116 3 is_stmt 1
.LVL48:
	.loc 1 116 48
	.loc 1 116 64 is_stmt 0
	sw	a1,0(t0)
	.loc 1 116 76 is_stmt 1
	.loc 1 116 92 is_stmt 0
	li	a6,2
	sw	a6,0(a2)
	.loc 1 116 98 is_stmt 1
	.loc 1 116 115 is_stmt 0
	lw	a6,12(sp)
	sw	ra,1440(a6)
	.loc 1 116 143 is_stmt 1
	.loc 1 116 160 is_stmt 0
	lw	a3,20(sp)
	.loc 1 116 614
	li	a6,528384
	addi	a6,a6,8
	.loc 1 116 160
	sw	a1,-1248(a3)
	.loc 1 116 172 is_stmt 1
	.loc 1 116 189 is_stmt 0
	sw	t1,0(s9)
	.loc 1 116 234 is_stmt 1
	.loc 1 116 251 is_stmt 0
	lw	ra,24(sp)
	sw	ra,0(t5)
	.loc 1 116 297 is_stmt 1
	.loc 1 116 314 is_stmt 0
	sw	s1,0(s8)
	.loc 1 116 320 is_stmt 1
	.loc 1 116 337 is_stmt 0
	sw	zero,0(s7)
	.loc 1 116 340 is_stmt 1
	.loc 1 116 357 is_stmt 0
	lw	a4,36(sp)
	sw	a4,0(t3)
	.loc 1 116 386 is_stmt 1
	.loc 1 116 403 is_stmt 0
	sw	a0,0(t6)
	.loc 1 116 429 is_stmt 1
	.loc 1 116 446 is_stmt 0
	sw	s1,0(s11)
	.loc 1 116 452 is_stmt 1
	.loc 1 116 469 is_stmt 0
	sw	zero,0(s6)
	.loc 1 116 472 is_stmt 1
	.loc 1 116 488 is_stmt 0
	sw	s0,0(s5)
	.loc 1 116 528 is_stmt 1
	.loc 1 116 544 is_stmt 0
	sw	a5,0(t2)
	.loc 1 116 555 is_stmt 1
	.loc 1 116 572 is_stmt 0
	sw	s1,0(s4)
	.loc 1 116 578 is_stmt 1
	.loc 1 116 595 is_stmt 0
	sw	zero,0(s3)
	.loc 1 116 598 is_stmt 1
	.loc 1 116 614 is_stmt 0
	sw	a6,0(s2)
	.loc 1 116 729 is_stmt 1
	.loc 1 116 746 is_stmt 0
	sw	a7,32(sp)
	lw	a3,188(sp)
	sw	a3,-736(a7)
	.loc 1 116 867 is_stmt 1
	.loc 1 116 884 is_stmt 0
	lw	a6,80(sp)
.LBE107:
.LBB108:
	.loc 1 116 1000
	li	a7,2
.LBE108:
.LBB109:
	.loc 1 116 884
	sw	a6,0(s10)
.LBE109:
.LBB110:
	.loc 1 116 917 is_stmt 1
.LVL49:
	.loc 1 116 956
	.loc 1 116 972 is_stmt 0
	sw	a1,0(t0)
	sw	t0,116(sp)
	.loc 1 116 984 is_stmt 1
	.loc 1 116 1000 is_stmt 0
	sw	a7,0(a2)
	.loc 1 116 1006 is_stmt 1
	.loc 1 116 1023 is_stmt 0
	lw	t0,16(sp)
	lw	a6,12(sp)
.LBE110:
	.loc 1 119 820
	li	a7,-2147479552
.LBB111:
	.loc 1 116 1023
	sw	t0,1440(a6)
	.loc 1 116 1051 is_stmt 1
	.loc 1 116 1068 is_stmt 0
	lw	a3,20(sp)
	.loc 1 116 1544
	li	a6,524288
	addi	a6,a6,72
	.loc 1 116 1068
	sw	zero,-1248(a3)
	.loc 1 116 1080 is_stmt 1
	.loc 1 116 1097 is_stmt 0
	sw	t1,28(sp)
	sw	t1,0(s9)
	.loc 1 116 1142 is_stmt 1
	.loc 1 116 1159 is_stmt 0
	sw	ra,0(t5)
	.loc 1 116 1205 is_stmt 1
	.loc 1 116 1222 is_stmt 0
	sw	s1,0(s8)
	.loc 1 116 1228 is_stmt 1
	.loc 1 116 1245 is_stmt 0
	sw	zero,0(s7)
	.loc 1 116 1248 is_stmt 1
	.loc 1 116 1265 is_stmt 0
	sw	a4,0(t3)
	.loc 1 116 1316 is_stmt 1
	.loc 1 116 1333 is_stmt 0
	sw	a0,0(t6)
	.loc 1 116 1359 is_stmt 1
	.loc 1 116 1376 is_stmt 0
	sw	s1,0(s11)
	.loc 1 116 1382 is_stmt 1
	.loc 1 116 1399 is_stmt 0
	sw	zero,0(s6)
	.loc 1 116 1402 is_stmt 1
	.loc 1 116 1418 is_stmt 0
	sw	s0,0(s5)
	.loc 1 116 1458 is_stmt 1
	.loc 1 116 1485
	.loc 1 116 1474 is_stmt 0
	sw	a5,0(t2)
	.loc 1 116 1502
	sw	s1,0(s4)
	.loc 1 116 1508 is_stmt 1
	.loc 1 116 1525 is_stmt 0
	sw	zero,0(s3)
	.loc 1 116 1528 is_stmt 1
	.loc 1 116 1544 is_stmt 0
	sw	a6,0(s2)
	.loc 1 116 1669 is_stmt 1
	.loc 1 116 1686 is_stmt 0
	lw	a5,92(sp)
.LBE111:
	.loc 1 116 1735
	li	a3,393216
	addi	a6,a3,1
.LBB112:
	.loc 1 116 1686
	sw	a5,0(s10)
.LBE112:
	.loc 1 116 1718 is_stmt 1
	.loc 1 116 1719
	.loc 1 116 1735 is_stmt 0
	mv	a5,t4
	sw	a6,0(a5)
	.loc 1 118 13 is_stmt 1
.LBB113:
	.loc 1 119 3
.LVL50:
	.loc 1 119 38
	.loc 1 119 55 is_stmt 0
	sw	a1,0(t5)
	sw	t5,112(sp)
	.loc 1 119 67 is_stmt 1
	.loc 1 119 84 is_stmt 0
	sw	zero,0(s9)
	.loc 1 119 90 is_stmt 1
	.loc 1 119 107 is_stmt 0
	sw	t0,16(sp)
	sw	t0,0(s8)
	.loc 1 119 135 is_stmt 1
	.loc 1 119 152 is_stmt 0
	sw	zero,0(s7)
	.loc 1 119 164 is_stmt 1
	.loc 1 119 181 is_stmt 0
	sw	a4,36(sp)
	sw	a4,0(t3)
	sw	t3,108(sp)
	.loc 1 119 210 is_stmt 1
	.loc 1 119 227 is_stmt 0
	sw	ra,24(sp)
	sw	ra,0(t6)
	sw	t6,104(sp)
	.loc 1 119 273 is_stmt 1
	.loc 1 119 290 is_stmt 0
	sw	s1,0(s11)
	.loc 1 119 296 is_stmt 1
	.loc 1 119 313 is_stmt 0
	sw	zero,0(s6)
	.loc 1 119 316 is_stmt 1
	.loc 1 119 332 is_stmt 0
	lw	a3,212(sp)
.LBE113:
	.loc 1 116 1735
	mv	t4,a6
.LBB114:
	.loc 1 119 713
	li	a6,524288
	.loc 1 119 332
	sw	a3,0(s5)
	.loc 1 119 377 is_stmt 1
	.loc 1 119 393 is_stmt 0
	sw	a0,0(t2)
	sw	t2,100(sp)
	.loc 1 119 419 is_stmt 1
	.loc 1 119 436 is_stmt 0
	sw	s1,0(s4)
	.loc 1 119 442 is_stmt 1
	.loc 1 119 478 is_stmt 0
	li	a3,524288
	.loc 1 119 459
	sw	zero,0(s3)
	.loc 1 119 462 is_stmt 1
	.loc 1 119 478 is_stmt 0
	addi	a3,a3,8
	sw	a3,128(sp)
	sw	a3,0(s2)
	.loc 1 119 593 is_stmt 1
	.loc 1 119 610 is_stmt 0
	lw	a0,32(sp)
	lw	t3,216(sp)
	.loc 1 119 713
	addi	a6,a6,95
.LBE114:
	.loc 1 121 18
	li	t1,1015812096
.LBB115:
	.loc 1 119 610
	sw	t3,-736(a0)
	.loc 1 119 696 is_stmt 1
	.loc 1 119 713 is_stmt 0
	sw	a6,0(s10)
.LBE115:
	.loc 1 119 802 is_stmt 1
	.loc 1 119 803
	.loc 1 119 842 is_stmt 0
	li	a6,1036288
	.loc 1 119 820
	sw	zero,-480(a7)
	.loc 1 119 825 is_stmt 1
	.loc 1 119 842 is_stmt 0
	addi	a6,a6,-1955
	sw	a6,0(s10)
	.loc 1 119 873 is_stmt 1
	.loc 1 119 874
	.loc 1 119 890 is_stmt 0
	sw	t4,124(sp)
	sw	t4,0(a5)
	.loc 1 121 1 is_stmt 1
	.loc 1 121 2
	.loc 1 121 18 is_stmt 0
	sw	a5,48(sp)
	addi	t1,t1,-1532
	sw	t1,0(a5)
	.loc 1 123 13 is_stmt 1
	li	a6,-2147483648
	sw	zero,36(a6)
	.loc 1 123 13
.LBB116:
	.loc 1 106 344 is_stmt 0
	lw	a5,12(sp)
	.loc 1 106 321
	sw	a2,96(sp)
	.loc 1 106 344
	addi	a5,a5,1440
	sw	a5,12(sp)
	.loc 1 106 471
	lw	a3,20(sp)
	addi	a4,a3,-1248
	.loc 1 106 1453
	addi	a3,a0,-736
	.loc 1 106 471
	sw	a4,20(sp)
	.loc 1 106 1453
	sw	a3,32(sp)
.LBE116:
	.loc 1 123 13
	call	_taskYield
.LVL51:
	.loc 1 123 27 is_stmt 1 discriminator 1
.LBB117:
	.loc 1 127 3
	.loc 1 127 186
	.loc 1 127 202 is_stmt 0
	lw	t0,116(sp)
	li	a2,128
	.loc 1 127 308
	li	t5,1023
	.loc 1 127 202
	sw	a2,0(t0)
	.loc 1 127 269 is_stmt 1
	.loc 1 127 285 is_stmt 0
	lw	a2,96(sp)
	.loc 1 127 501
	li	a0,32
	.loc 1 127 565
	li	t4,3
	.loc 1 127 285
	sw	s0,0(a2)
	.loc 1 127 291 is_stmt 1
	.loc 1 127 308 is_stmt 0
	lw	a3,12(sp)
	.loc 1 127 588
	li	t1,127
	.loc 1 127 809
	li	a1,31
	.loc 1 127 308
	sw	t5,0(a3)
	.loc 1 127 400 is_stmt 1
	.loc 1 127 417 is_stmt 0
	lw	a4,20(sp)
	.loc 1 127 922
	li	a5,1
	.loc 1 127 1249
	li	a6,1024
	.loc 1 127 417
	sw	zero,0(a4)
	.loc 1 127 484 is_stmt 1
	.loc 1 127 501 is_stmt 0
	lw	t5,112(sp)
.LBE117:
.LBB118:
	.loc 1 127 1938
	li	a7,524288
	addi	a7,a7,1128
.LBE118:
.LBB119:
	.loc 1 127 501
	sw	a0,0(t5)
	.loc 1 127 548 is_stmt 1
	.loc 1 127 565 is_stmt 0
	sw	t4,0(s9)
	.loc 1 127 571 is_stmt 1
	.loc 1 127 588 is_stmt 0
	sw	t1,0(s8)
	.loc 1 127 659 is_stmt 1
	.loc 1 127 676 is_stmt 0
	sw	zero,0(s7)
	.loc 1 127 723 is_stmt 1
	.loc 1 127 740 is_stmt 0
	lw	t6,104(sp)
	li	a0,8
	sw	a0,0(t6)
	.loc 1 127 769 is_stmt 1
	.loc 1 127 786 is_stmt 0
	lw	t3,108(sp)
	sw	t4,0(t3)
	.loc 1 127 792 is_stmt 1
	.loc 1 127 809 is_stmt 0
	sw	a1,0(s11)
	.loc 1 127 860 is_stmt 1
	.loc 1 127 877 is_stmt 0
	sw	zero,0(s6)
	.loc 1 127 906 is_stmt 1
	.loc 1 127 922 is_stmt 0
	lw	t2,100(sp)
	sw	a5,0(t2)
	.loc 1 127 933 is_stmt 1
	.loc 1 127 949 is_stmt 0
	sw	s0,0(s5)
	.loc 1 127 955 is_stmt 1
	.loc 1 127 972 is_stmt 0
	sw	s0,0(s4)
	.loc 1 127 1001 is_stmt 1
	.loc 1 127 1018 is_stmt 0
	sw	zero,0(s3)
	.loc 1 127 1027 is_stmt 1
.LVL52:
	.loc 1 127 1186
	.loc 1 127 1202 is_stmt 0
	sw	zero,0(s2)
	.loc 1 127 1231 is_stmt 1
	.loc 1 127 1232
	.loc 1 127 1249 is_stmt 0
	lw	a1,32(sp)
	sw	a6,0(a1)
	.loc 1 127 1288 is_stmt 1
	.loc 1 127 1305 is_stmt 0
	lw	a1,72(sp)
	sw	a1,0(s10)
.LBE119:
.LBB120:
	.loc 1 127 1338 is_stmt 1
.LVL53:
	.loc 1 127 1383
	.loc 1 127 1400 is_stmt 0
	li	a1,4096
	sw	a1,0(t6)
	.loc 1 127 1412 is_stmt 1
	.loc 1 127 1429 is_stmt 0
	sw	t4,0(t3)
	.loc 1 127 1435 is_stmt 1
	.loc 1 127 1452 is_stmt 0
	lw	a6,16(sp)
	sw	a6,0(s11)
	.loc 1 127 1480 is_stmt 1
	.loc 1 127 1497 is_stmt 0
	sw	zero,0(s6)
	.loc 1 127 1509 is_stmt 1
	.loc 1 127 1526 is_stmt 0
	sw	t4,0(s9)
	.loc 1 127 1563 is_stmt 1
	.loc 1 127 1580 is_stmt 0
	li	a6,64
	sw	a6,0(t5)
	.loc 1 127 1620 is_stmt 1
	.loc 1 127 1637 is_stmt 0
	li	a6,255
	sw	a6,0(s8)
	.loc 1 127 1642 is_stmt 1
	.loc 1 127 1659 is_stmt 0
	sw	zero,0(s7)
	.loc 1 127 1662 is_stmt 1
	.loc 1 127 1678 is_stmt 0
	sw	s0,0(s5)
	.loc 1 127 1715 is_stmt 1
	.loc 1 127 1731 is_stmt 0
	sw	a0,0(t2)
	.loc 1 127 1757 is_stmt 1
	.loc 1 127 1774 is_stmt 0
	sw	a6,0(s4)
	.loc 1 127 1779 is_stmt 1
	.loc 1 127 1796 is_stmt 0
	sw	zero,0(s3)
	.loc 1 127 1799 is_stmt 1
	.loc 1 127 1815 is_stmt 0
	sw	s0,0(a2)
	.loc 1 127 1853 is_stmt 1
	.loc 1 127 1869 is_stmt 0
	sw	a5,0(t0)
	.loc 1 127 1880 is_stmt 1
	.loc 1 127 1897 is_stmt 0
	sw	a3,12(sp)
	sw	a6,0(a3)
	.loc 1 127 1902 is_stmt 1
	.loc 1 127 1919 is_stmt 0
	sw	a4,20(sp)
	sw	zero,0(a4)
	.loc 1 127 1922 is_stmt 1
	.loc 1 127 2067 is_stmt 0
	li	a6,1032192
	.loc 1 127 1938
	sw	a7,0(s2)
	.loc 1 127 2050 is_stmt 1
	.loc 1 127 2067 is_stmt 0
	addi	a6,a6,1181
	sw	a6,0(s10)
.LBE120:
	.loc 1 127 2099 is_stmt 1
	.loc 1 127 2100
	.loc 1 127 2116 is_stmt 0
	lw	a7,48(sp)
	lw	a4,76(sp)
	sw	a4,0(a7)
.LBB121:
	.loc 1 127 2206 is_stmt 1
.LVL54:
	.loc 1 127 2329
	.loc 1 127 2363 is_stmt 0
	lw	t4,120(sp)
	.loc 1 127 2661
	lw	a7,44(sp)
	lw	a3,152(sp)
	.loc 1 127 2363
	lw	a6,44(t4)
	.loc 1 127 2661
	add	a3,a3,a7
	sw	a3,96(sp)
	.loc 1 127 2346
	sw	a6,0(t6)
.LVL55:
	.loc 1 127 2368 is_stmt 1
	.loc 1 127 2385 is_stmt 0
	li	a6,31
	sw	a6,0(t3)
	.loc 1 127 2391 is_stmt 1
.LBE121:
	.loc 1 93 29 is_stmt 0 discriminator 2
	lw	a3,84(sp)
.LBB122:
	.loc 1 127 2427
	lw	a6,48(t4)
	.loc 1 127 2748
	li	a7,1036288
.LVL56:
.LBE122:
	.loc 1 93 29 discriminator 2
	addi	a4,a3,1
.LBB123:
	.loc 1 127 2427
	lw	a3,44(t4)
.LBE123:
	.loc 1 93 29 discriminator 2
	sw	a4,84(sp)
	.loc 1 93 20 discriminator 1
	lw	a4,40(sp)
.LBB124:
	.loc 1 127 2427
	mul	a6,a6,a3
.LBE124:
	.loc 1 93 20 discriminator 1
	lw	a3,52(sp)
.LBB125:
	.loc 1 127 2748
	addi	a7,a7,159
.LBE125:
	.loc 1 93 20 discriminator 1
	add	a3,a4,a3
	sw	a3,40(sp)
.LBB126:
	.loc 1 127 2444
	addi	a6,a6,-1
	.loc 1 127 2408
	sw	a6,0(s11)
	.loc 1 127 2447 is_stmt 1
	.loc 1 127 2464 is_stmt 0
	sw	zero,0(s6)
	.loc 1 127 2486 is_stmt 1
	.loc 1 127 2502 is_stmt 0
	sw	a5,0(t2)
	.loc 1 127 2513 is_stmt 1
	.loc 1 127 2529 is_stmt 0
	li	a6,31
	sw	a6,0(s5)
	.loc 1 127 2535 is_stmt 1
	.loc 1 127 2566 is_stmt 0
	lw	a6,44(t4)
	.loc 1 127 2568
	lw	a4,44(sp)
	.loc 1 127 2566
	addi	a6,a6,-1
	.loc 1 127 2568
	sub	a6,a6,a4
	.loc 1 127 2552
	sw	a6,0(s4)
	.loc 1 127 2574 is_stmt 1
	.loc 1 127 2591 is_stmt 0
	sw	a4,44(sp)
	sw	a4,0(s3)
	.loc 1 127 2600 is_stmt 1
.LVL57:
	.loc 1 127 2640
	.loc 1 127 2656 is_stmt 0
	lw	a3,96(sp)
	.loc 1 127 2706
	li	a4,1024
.LVL58:
	.loc 1 127 2656
	sw	a3,0(s2)
.LVL59:
	.loc 1 127 2688 is_stmt 1
	.loc 1 127 2689
	.loc 1 127 2706 is_stmt 0
	lw	a6,32(sp)
	sw	a4,0(a6)
	.loc 1 127 2731 is_stmt 1
	.loc 1 127 2748 is_stmt 0
	sw	a7,0(s10)
.LBE126:
.LBB127:
	.loc 1 127 2781 is_stmt 1
.LVL60:
	.loc 1 127 2964
	.loc 1 127 2980 is_stmt 0
	li	a7,128
	sw	a7,0(t0)
	.loc 1 127 3047 is_stmt 1
	.loc 1 127 3063 is_stmt 0
	sw	s0,0(a2)
	.loc 1 127 3069 is_stmt 1
	.loc 1 127 3086 is_stmt 0
	lw	a3,12(sp)
	li	a7,1023
	.loc 1 127 3343
	li	a6,3
	.loc 1 127 3086
	sw	a7,0(a3)
	.loc 1 127 3178 is_stmt 1
	.loc 1 127 3195 is_stmt 0
	lw	a4,20(sp)
	sw	zero,0(a4)
	.loc 1 127 3262 is_stmt 1
	.loc 1 127 3279 is_stmt 0
	li	a4,32
	sw	a4,0(t5)
	.loc 1 127 3326 is_stmt 1
	.loc 1 127 3343 is_stmt 0
	sw	a6,0(s9)
	.loc 1 127 3349 is_stmt 1
	.loc 1 127 3366 is_stmt 0
	sw	t1,0(s8)
	.loc 1 127 3437 is_stmt 1
	.loc 1 127 3454 is_stmt 0
	sw	zero,0(s7)
	.loc 1 127 3501 is_stmt 1
	.loc 1 127 3518 is_stmt 0
	sw	a0,0(t6)
	.loc 1 127 3547 is_stmt 1
	.loc 1 127 3564 is_stmt 0
	sw	a6,0(t3)
	.loc 1 127 3570 is_stmt 1
	.loc 1 127 3587 is_stmt 0
	li	a6,31
	sw	a6,0(s11)
	.loc 1 127 3638 is_stmt 1
	.loc 1 127 3655 is_stmt 0
	sw	zero,0(s6)
	.loc 1 127 3684 is_stmt 1
	.loc 1 127 3700 is_stmt 0
	sw	a5,0(t2)
	.loc 1 127 3711 is_stmt 1
	.loc 1 127 3727 is_stmt 0
	sw	s0,0(s5)
	.loc 1 127 3733 is_stmt 1
	.loc 1 127 3750 is_stmt 0
	sw	s0,0(s4)
	.loc 1 127 3779 is_stmt 1
	.loc 1 127 3796 is_stmt 0
	sw	zero,0(s3)
	.loc 1 127 3805 is_stmt 1
.LVL61:
	.loc 1 127 3964
	.loc 1 127 3980 is_stmt 0
	sw	zero,0(s2)
	.loc 1 127 4009 is_stmt 1
	.loc 1 127 4010
	.loc 1 127 4027 is_stmt 0
	lw	a7,88(sp)
	sw	a7,0(s10)
.LBE127:
	.loc 1 127 4059 is_stmt 1
	.loc 1 127 4060
	.loc 1 127 4076 is_stmt 0
	lw	a4,76(sp)
	lw	a6,48(sp)
	sw	a4,0(a6)
	.loc 1 93 29 is_stmt 1 discriminator 2
.LVL62:
	.loc 1 93 20 discriminator 1
	lw	a4,44(sp)
	lw	a3,52(sp)
	lw	a7,84(sp)
	add	a3,a4,a3
	sw	a3,44(sp)
	lw	a3,156(sp)
	bne	a3,a7,.L24
	lw	s1,208(sp)
	li	s0,0
.LVL63:
.L8:
	.loc 1 92 26 discriminator 2
	addi	s0,s0,1
.LVL64:
	.loc 1 92 20 discriminator 1
.LBB128:
	.loc 1 106 1546 is_stmt 0
	slli	a5,s0,3
	sw	a5,200(sp)
.LBE128:
.LBB129:
	.loc 1 127 2210
	slli	a5,s0,5
	sw	a5,96(sp)
.LBE129:
	.loc 1 92 20 discriminator 1
	lw	a5,228(sp)
	addi	s1,s1,-8
.LBB130:
	.loc 1 106 1832
	sw	s1,204(sp)
.LBE130:
	.loc 1 92 20 discriminator 1
	beq	a5,s0,.L25
.LVL65:
.L13:
.LBB131:
	.loc 1 101 54
	li	a5,4096
	sw	a5,0(t0)
	.loc 1 101 82
	li	s10,-2147483648
	sw	zero,928(s10)
	.loc 1 101 105
	lw	a5,16(sp)
	li	s3,-2147483648
	.loc 1 101 150
	li	s11,-2147479552
	.loc 1 101 105
	sw	a5,1440(s3)
	.loc 1 101 150
	sw	zero,-1248(s11)
	.loc 1 101 179
	lw	a5,28(sp)
	li	ra,-2147483648
	.loc 1 101 241
	li	t3,-2147483648
	.loc 1 101 179
	sw	a5,1824(ra)
	.loc 1 101 241
	lw	a5,24(sp)
	.loc 1 101 304
	li	t1,-2147483648
	.loc 1 101 327
	li	a7,-2147479552
	.loc 1 101 241
	sw	a5,1696(t3)
	.loc 1 101 304
	li	a5,1119
	sw	a5,1952(t1)
	.loc 1 101 327
	sw	zero,-1120(a7)
	.loc 1 101 347
	lw	a3,36(sp)
	li	a6,-2147479552
	.loc 1 101 393
	li	a4,-2147479552
	.loc 1 101 347
	sw	a3,-1888(a6)
	.loc 1 101 393
	li	a3,8
	sw	a3,-2016(a4)
	.loc 1 101 436
	li	t6,-2147479552
	sw	a5,-1760(t6)
	.loc 1 101 459
	li	a0,-2147479552
	sw	zero,-992(a0)
	.loc 1 101 478
	li	a3,-2147483648
	li	a2,7
	sw	a2,672(a3)
	.loc 1 101 534
	li	a4,-2147483648
	li	a3,1
	sw	a3,1056(a4)
	.loc 1 101 562
	li	a1,-2147483648
	sw	a5,1568(a1)
	.loc 1 101 585
	li	a2,-2147479552
	.loc 1 101 604
	li	a4,524288
	.loc 1 101 585
	sw	zero,-864(a2)
	.loc 1 101 604
	li	a5,-2147483648
	addi	a4,a4,8
	sw	a4,544(a5)
	.loc 1 101 736
	lw	a4,192(sp)
	li	a3,-2147479552
	.loc 1 101 874
	li	a5,1032192
	.loc 1 101 736
	sw	a4,-736(a3)
	.loc 1 101 874
	li	t5,-2147479552
	addi	a5,a5,95
	sw	a5,-1632(t5)
.LBE131:
	.loc 1 101 924
	li	a4,-2147479552
	.loc 1 101 946
	li	t2,1036288
	.loc 1 101 924
	sw	zero,-480(a4)
	.loc 1 101 946
	addi	t2,t2,-1955
	sw	t2,-1632(t5)
	lw	a2,232(sp)
	.loc 1 101 994
	li	a3,-2147483648
	addi	a4,a3,20
	li	a5,393216
	sw	a4,44(sp)
	addi	a5,a5,1
	sw	a2,40(sp)
.LVL66:
	.loc 1 94 13 is_stmt 1
	.loc 1 96 13
.LBB132:
	.loc 1 101 3
	.loc 1 101 38
	.loc 1 101 66
	.loc 1 101 88
	.loc 1 101 133
	.loc 1 101 162
	.loc 1 101 224
	.loc 1 101 287
	.loc 1 101 310
	.loc 1 101 330
	.loc 1 101 376
	.loc 1 101 419
	.loc 1 101 442
	.loc 1 101 462
	.loc 1 101 518
	.loc 1 101 545
	.loc 1 101 568
	.loc 1 101 588
	.loc 1 101 719
	.loc 1 101 857
.LBE132:
	.loc 1 101 906
	.loc 1 101 907
	.loc 1 101 929
	.loc 1 101 977
	.loc 1 101 978
	.loc 1 101 994 is_stmt 0
	sw	a5,0(a4)
	.loc 1 106 2411
	li	a3,393216
	.loc 1 101 994
	sw	zero,32(sp)
	sw	zero,76(sp)
	.loc 1 106 2411
	addi	a5,a3,17
	sw	a5,80(sp)
.LBB133:
	.loc 1 101 874
	addi	t5,t5,-1632
	.loc 1 101 436
	addi	t6,t6,-1760
.LBE133:
	.loc 1 106 2411
	sw	s0,220(sp)
	sw	s1,224(sp)
	j	.L9
.LVL67:
.L26:
	.loc 1 94 13 is_stmt 1
	.loc 1 96 13
.LBB134:
	.loc 1 98 3
	.loc 1 98 38
	.loc 1 98 54 is_stmt 0
	sw	a4,0(t0)
.LVL68:
	.loc 1 98 66 is_stmt 1
	.loc 1 98 82 is_stmt 0
	sw	zero,0(t3)
	.loc 1 98 88 is_stmt 1
	.loc 1 98 105 is_stmt 0
	lw	a0,16(sp)
	.loc 1 98 534
	li	a2,1
	.loc 1 98 105
	sw	a0,0(t2)
	.loc 1 98 133 is_stmt 1
	.loc 1 98 150 is_stmt 0
	sw	zero,0(a5)
	.loc 1 98 162 is_stmt 1
	.loc 1 98 179 is_stmt 0
	lw	a0,28(sp)
	sw	a0,0(s10)
	.loc 1 98 224 is_stmt 1
	.loc 1 98 241 is_stmt 0
	lw	ra,24(sp)
	sw	ra,0(t1)
	.loc 1 98 287 is_stmt 1
	.loc 1 98 304 is_stmt 0
	sw	s1,0(s9)
	.loc 1 98 310 is_stmt 1
	.loc 1 98 327 is_stmt 0
	lw	s11,12(sp)
	sw	zero,0(s11)
	.loc 1 98 330 is_stmt 1
	.loc 1 98 347 is_stmt 0
	lw	s11,36(sp)
	sw	s11,0(s7)
	.loc 1 98 376 is_stmt 1
	.loc 1 98 393 is_stmt 0
	sw	a3,0(a7)
	.loc 1 98 419 is_stmt 1
	.loc 1 98 436 is_stmt 0
	sw	s1,0(t6)
	.loc 1 98 442 is_stmt 1
	.loc 1 98 459 is_stmt 0
	sw	zero,0(s6)
	.loc 1 98 462 is_stmt 1
	.loc 1 98 478 is_stmt 0
	sw	s0,0(s5)
	.loc 1 98 518 is_stmt 1
	.loc 1 98 534 is_stmt 0
	sw	a2,0(a1)
	.loc 1 98 545 is_stmt 1
	.loc 1 98 562 is_stmt 0
	sw	s1,0(s4)
	.loc 1 98 568 is_stmt 1
	.loc 1 98 604 is_stmt 0
	li	a2,524288
	.loc 1 98 585
	sw	zero,0(s3)
	.loc 1 98 588 is_stmt 1
	.loc 1 98 604 is_stmt 0
	addi	a2,a2,8
	sw	a2,0(s2)
	.loc 1 98 719 is_stmt 1
	.loc 1 98 736 is_stmt 0
	lw	a2,192(sp)
	sw	a2,0(s8)
	.loc 1 98 857 is_stmt 1
	.loc 1 98 874 is_stmt 0
	lw	s8,140(sp)
	sw	s8,0(t5)
.LBE134:
.LBB135:
	.loc 1 98 907 is_stmt 1
.LVL69:
	.loc 1 98 956
	.loc 1 98 972 is_stmt 0
	sw	a4,0(t0)
	.loc 1 98 984 is_stmt 1
	.loc 1 98 1000 is_stmt 0
	sw	zero,0(t3)
	.loc 1 98 1006 is_stmt 1
	.loc 1 98 1023 is_stmt 0
	addi	a4,a4,-1
	sw	a4,0(t2)
	.loc 1 98 1051 is_stmt 1
	.loc 1 98 1068 is_stmt 0
	li	a4,12288
	sw	a4,0(a5)
	.loc 1 98 1080 is_stmt 1
	.loc 1 98 1097 is_stmt 0
	sw	a0,0(s10)
	.loc 1 98 1142 is_stmt 1
	.loc 1 98 1159 is_stmt 0
	sw	ra,0(t1)
	.loc 1 98 1205 is_stmt 1
	.loc 1 98 1222 is_stmt 0
	sw	s1,0(s9)
	.loc 1 98 1228 is_stmt 1
	.loc 1 98 1245 is_stmt 0
	lw	a4,12(sp)
	.loc 1 98 1482
	li	a5,1
	.loc 1 98 1245
	sw	zero,0(a4)
	.loc 1 98 1248 is_stmt 1
	.loc 1 98 1265 is_stmt 0
	sw	s11,0(s7)
	.loc 1 98 1324 is_stmt 1
	.loc 1 98 1341 is_stmt 0
	sw	a3,0(a7)
	.loc 1 98 1367 is_stmt 1
	.loc 1 98 1384 is_stmt 0
	sw	s1,0(t6)
	.loc 1 98 1390 is_stmt 1
	.loc 1 98 1407 is_stmt 0
	sw	zero,0(s6)
	.loc 1 98 1410 is_stmt 1
	.loc 1 98 1426 is_stmt 0
	sw	s0,0(s5)
	.loc 1 98 1466 is_stmt 1
	.loc 1 98 1482 is_stmt 0
	sw	a5,0(a1)
	.loc 1 98 1493 is_stmt 1
	.loc 1 98 1510 is_stmt 0
	sw	s1,0(s4)
	.loc 1 98 1516 is_stmt 1
	.loc 1 98 1533 is_stmt 0
	sw	zero,0(s3)
	.loc 1 98 1536 is_stmt 1
	.loc 1 98 1552 is_stmt 0
	lw	a5,196(sp)
	sw	a5,0(s2)
	.loc 1 98 1681 is_stmt 1
	.loc 1 98 1698 is_stmt 0
	lw	a1,48(sp)
	sw	a1,0(t5)
.LBE135:
	.loc 1 98 1730 is_stmt 1
	.loc 1 98 1731
	.loc 1 98 1747 is_stmt 0
	lw	a7,92(sp)
	sw	a7,0(a6)
.LVL70:
.L9:
.LBB136:
	.loc 1 106 3 is_stmt 1
	.loc 1 106 204
	.loc 1 106 220 is_stmt 0
	lw	a5,56(sp)
	.loc 1 106 321
	li	s0,7
	li	t3,-2147483648
	.loc 1 106 220
	sw	a5,0(t0)
	.loc 1 106 305 is_stmt 1
	.loc 1 106 321 is_stmt 0
	sw	s0,928(t3)
	.loc 1 106 327 is_stmt 1
	.loc 1 106 344 is_stmt 0
	lw	a4,64(sp)
	li	t2,-2147483648
	.loc 1 106 471
	li	a5,-2147479552
	.loc 1 106 344
	sw	a4,1440(t2)
	.loc 1 106 454 is_stmt 1
	.loc 1 106 471 is_stmt 0
	sw	zero,-1248(a5)
	.loc 1 106 556 is_stmt 1
	.loc 1 106 573 is_stmt 0
	li	t1,-2147483648
	li	a3,32
	sw	a3,1696(t1)
	.loc 1 106 632 is_stmt 1
	.loc 1 106 649 is_stmt 0
	lw	a0,28(sp)
	li	s10,-2147483648
	.loc 1 106 672
	li	s9,-2147483648
	.loc 1 106 649
	sw	a0,1824(s10)
	.loc 1 106 655 is_stmt 1
	.loc 1 106 672 is_stmt 0
	lw	a1,68(sp)
	.loc 1 106 778
	li	a6,-2147479552
	.loc 1 106 854
	li	a7,-2147479552
	.loc 1 106 672
	sw	a1,1952(s9)
	.loc 1 106 761 is_stmt 1
	.loc 1 106 778 is_stmt 0
	sw	zero,-1120(a6)
	.loc 1 106 837 is_stmt 1
	.loc 1 106 854 is_stmt 0
	li	a3,8
	sw	a3,-2016(a7)
	.loc 1 106 895 is_stmt 1
	.loc 1 106 912 is_stmt 0
	li	s7,-2147479552
	li	a2,3
	sw	a2,-1888(s7)
	.loc 1 106 918 is_stmt 1
	.loc 1 106 935 is_stmt 0
	li	a4,31
	sw	a4,0(t6)
	.loc 1 106 998 is_stmt 1
	.loc 1 106 1015 is_stmt 0
	li	s6,-2147479552
	sw	zero,-992(s6)
	.loc 1 106 1056 is_stmt 1
	.loc 1 106 1072 is_stmt 0
	li	a1,-2147483648
	li	a0,1
	sw	a0,1056(a1)
	.loc 1 106 1083 is_stmt 1
	.loc 1 106 1099 is_stmt 0
	li	s5,-2147483648
	sw	s0,672(s5)
	.loc 1 106 1105 is_stmt 1
	.loc 1 106 1122 is_stmt 0
	li	s4,-2147483648
	sw	s0,1568(s4)
	.loc 1 106 1163 is_stmt 1
	.loc 1 106 1180 is_stmt 0
	li	s3,-2147479552
	sw	zero,-864(s3)
	.loc 1 106 1189 is_stmt 1
.LVL71:
	.loc 1 106 1390
	.loc 1 106 1406 is_stmt 0
	li	s2,-2147483648
	sw	zero,544(s2)
	.loc 1 106 1435 is_stmt 1
	.loc 1 106 1436
	.loc 1 106 1453 is_stmt 0
	lw	s1,60(sp)
	li	ra,-2147479552
	sw	ra,20(sp)
	sw	s1,-736(ra)
	.loc 1 106 1492 is_stmt 1
	.loc 1 106 1509 is_stmt 0
	lw	s8,72(sp)
.LBE136:
.LBB137:
	.loc 1 106 2260
	li	s11,-2147479552
	addi	s11,s11,-96
.LBE137:
.LBB138:
	.loc 1 106 1509
	sw	s8,0(t5)
.LBE138:
.LBB139:
	.loc 1 106 1542 is_stmt 1
.LVL72:
	.loc 1 106 1734
	.loc 1 106 1782 is_stmt 0
	lw	a4,28(t4)
	.loc 1 106 2260
	sw	s11,100(sp)
	.loc 1 106 2362
	li	s1,1036288
	.loc 1 106 1782
	slli	a4,a4,2
	.loc 1 106 1751
	sw	a4,1696(t1)
.LVL73:
	.loc 1 106 1787 is_stmt 1
	.loc 1 106 1804 is_stmt 0
	sw	s0,1824(s10)
	.loc 1 106 1810 is_stmt 1
	.loc 1 106 2362 is_stmt 0
	addi	s1,s1,157
	.loc 1 106 1837
	lw	a0,28(t4)
	.loc 1 106 2362
	sw	s1,104(sp)
	.loc 1 106 1837
	lw	s8,204(sp)
.LBE139:
.LBB140:
	.loc 1 106 0
	li	s11,1036288
	addi	s11,s11,-1891
.LBE140:
.LBB141:
	.loc 1 106 1837
	mul	a0,s8,a0
.LBE141:
.LBB142:
	.loc 1 106 3404
	li	s8,1032192
	addi	s8,s8,1183
	sw	s8,108(sp)
.LBE142:
.LBB143:
	.loc 1 106 0
	sw	s11,84(sp)
.LBE143:
.LBB144:
	.loc 1 112 1093
	li	ra,12288
	addi	ra,ra,-1
	.loc 1 112 1730
	li	s11,1032192
	addi	s11,s11,157
.LBE144:
.LBB145:
	.loc 1 106 2563
	li	a4,4096
.LBE145:
.LBB146:
	.loc 1 106 1837
	slli	a0,a0,2
	.loc 1 106 1868
	addi	a0,a0,-1
	.loc 1 106 1827
	sw	a0,1952(s9)
	.loc 1 106 1871 is_stmt 1
	.loc 1 106 1892 is_stmt 0
	lw	a0,28(t4)
.LBE146:
.LBB147:
	.loc 1 112 1093
	sw	ra,88(sp)
.LBE147:
.LBB148:
	.loc 1 106 1892
	lw	ra,200(sp)
.LBE148:
.LBB149:
	.loc 1 112 1730
	sw	s11,48(sp)
.LBE149:
	.loc 1 112 1779
	li	s11,393216
.LBB150:
	.loc 1 106 1892
	mul	a0,ra,a0
.LBE150:
	.loc 1 112 1779
	addi	s11,s11,9
	sw	s11,112(sp)
.LBB151:
	.loc 1 116 614
	li	s11,528384
	addi	s11,s11,8
	sw	s11,116(sp)
.LBE151:
.LBB152:
	.loc 1 116 1544
	li	s11,524288
	addi	s11,s11,72
.LBE152:
.LBB153:
	.loc 1 106 1888
	sw	a6,12(sp)
.LBE153:
.LBB154:
	.loc 1 116 1544
	sw	s11,120(sp)
.LBE154:
.LBB155:
	.loc 1 106 1892
	slli	a0,a0,2
	.loc 1 106 1888
	sw	a0,-1120(a6)
	.loc 1 106 1924 is_stmt 1
	.loc 1 106 1958 is_stmt 0
	lw	a0,28(t4)
.LBE155:
	.loc 1 116 1735
	li	s11,393216
	addi	s11,s11,1
	sw	s11,92(sp)
.LBB156:
	.loc 1 106 1941
	sw	a0,-2016(a7)
	.loc 1 106 1963 is_stmt 1
	.loc 1 106 1980 is_stmt 0
	lw	a0,28(sp)
.LBE156:
	.loc 1 121 18
	li	a6,1015812096
	addi	a6,a6,-1532
.LBB157:
	.loc 1 106 1980
	sw	a0,-1888(s7)
	.loc 1 106 1986 is_stmt 1
	.loc 1 106 2003 is_stmt 0
	lw	a0,180(sp)
.LBE157:
	.loc 1 123 13
	li	s11,-2147483648
.LBB158:
	.loc 1 106 2812
	li	s1,1119
.LBE158:
.LBB159:
	.loc 1 106 2003
	sw	a0,0(t6)
	.loc 1 106 2015 is_stmt 1
	.loc 1 106 2032 is_stmt 0
	sw	zero,-992(s6)
	.loc 1 106 2054 is_stmt 1
	.loc 1 106 2070 is_stmt 0
	li	a0,1
	sw	a0,1056(a1)
	.loc 1 106 2081 is_stmt 1
	.loc 1 106 2097 is_stmt 0
	li	a0,31
	sw	a0,672(s5)
	.loc 1 106 2103 is_stmt 1
	.loc 1 106 2134 is_stmt 0
	lw	a0,28(t4)
.LBE159:
	.loc 1 121 18
	sw	a6,124(sp)
.LBB160:
	.loc 1 106 2136
	lw	a6,40(sp)
	.loc 1 106 2134
	addi	a0,a0,-1
.LBE160:
.LBB161:
	.loc 1 112 948
	li	s8,1032192
.LBE161:
.LBB162:
	.loc 1 106 2136
	sub	a0,a0,a6
	.loc 1 106 2120
	sw	a0,1568(s4)
	.loc 1 106 2142 is_stmt 1
	.loc 1 106 2159 is_stmt 0
	sw	a6,-864(s3)
	.loc 1 106 2168 is_stmt 1
	.loc 1 106 2180 is_stmt 0
	lw	a0,28(t4)
	sw	t4,136(sp)
.LBE162:
	.loc 1 123 13
	addi	t4,s11,36
.LBB163:
	.loc 1 106 2180
	mul	a0,ra,a0
.LBE163:
	.loc 1 123 13
	sw	t4,128(sp)
.LBB164:
	.loc 1 106 778
	lw	t4,12(sp)
.LBE164:
.LBB165:
	.loc 1 112 948
	addi	s8,s8,159
.LBE165:
.LBB166:
	.loc 1 106 321
	addi	t3,t3,928
	.loc 1 106 778
	addi	t4,t4,-1120
	sw	t4,12(sp)
.LBE166:
.LBB167:
	.loc 1 106 2289
	lw	t4,148(sp)
	.loc 1 106 2172
	sw	a6,40(sp)
.LBE167:
.LBB168:
	.loc 1 106 344
	addi	t2,t2,1440
.LBE168:
.LBB169:
	.loc 1 106 2180
	slli	a0,a0,2
	.loc 1 106 2172
	add	a0,a0,a6
.LVL74:
	.loc 1 106 2243 is_stmt 1
	.loc 1 106 2289 is_stmt 0
	sub	ra,t4,a0
	.loc 1 106 2260
	lw	t4,100(sp)
.LBE169:
.LBB170:
	.loc 1 106 3052
	li	a6,1
.LBE170:
.LBB171:
	.loc 1 106 573
	addi	t1,t1,1696
.LBE171:
.LBB172:
	.loc 1 106 2260
	sw	ra,0(t4)
	.loc 1 106 2296 is_stmt 1
	.loc 1 106 2297
	.loc 1 106 2318 is_stmt 0
	lw	t4,144(sp)
.LBE172:
.LBB173:
	.loc 1 106 854
	addi	a7,a7,-2016
	.loc 1 106 1072
	addi	a1,a1,1056
.LBE173:
.LBB174:
	.loc 1 106 2318
	add	a0,a0,t4
.LVL75:
	.loc 1 106 2313
	sw	a0,544(s2)
	.loc 1 106 2344 is_stmt 1
	.loc 1 106 2345
	.loc 1 106 2362 is_stmt 0
	lw	t4,104(sp)
.LBE174:
.LBB175:
	.loc 1 106 471
	addi	a5,a5,-1248
	.loc 1 106 649
	addi	s10,s10,1824
.LBE175:
.LBB176:
	.loc 1 106 2362
	sw	t4,0(t5)
.LBE176:
	.loc 1 106 2394 is_stmt 1
	.loc 1 106 2395
	.loc 1 106 2411 is_stmt 0
	lw	t4,44(sp)
	lw	s11,80(sp)
.LBB177:
	.loc 1 106 672
	addi	s9,s9,1952
	.loc 1 106 912
	addi	s7,s7,-1888
.LBE177:
	.loc 1 106 2411
	sw	s11,0(t4)
.LBB178:
	.loc 1 106 2501 is_stmt 1
.LVL76:
	.loc 1 106 2546
	.loc 1 106 2563 is_stmt 0
	sw	a4,0(a7)
	.loc 1 106 2575 is_stmt 1
	.loc 1 106 2592 is_stmt 0
	sw	a2,0(s7)
	.loc 1 106 2598 is_stmt 1
	.loc 1 106 2615 is_stmt 0
	lw	ra,16(sp)
.LBE178:
.LBB179:
	.loc 1 106 1015
	addi	s6,s6,-992
	.loc 1 106 1099
	addi	s5,s5,672
.LBE179:
.LBB180:
	.loc 1 106 2615
	sw	ra,0(t6)
	.loc 1 106 2643 is_stmt 1
	.loc 1 106 2660 is_stmt 0
	sw	zero,0(s6)
	.loc 1 106 2672 is_stmt 1
	.loc 1 106 2689 is_stmt 0
	lw	a0,28(sp)
.LBE180:
.LBB181:
	.loc 1 106 1122
	addi	s4,s4,1568
	.loc 1 106 1180
	addi	s3,s3,-864
.LBE181:
.LBB182:
	.loc 1 106 2689
	sw	a0,0(s10)
	.loc 1 106 2732 is_stmt 1
	.loc 1 106 2749 is_stmt 0
	lw	ra,24(sp)
.LBE182:
.LBB183:
	.loc 1 106 1406
	addi	s2,s2,544
.LBE183:
.LBB184:
	.loc 1 106 2749
	sw	ra,0(t1)
	.loc 1 106 2795 is_stmt 1
	.loc 1 106 2812 is_stmt 0
	sw	s1,0(s9)
	.loc 1 106 2818 is_stmt 1
	.loc 1 106 2835 is_stmt 0
	lw	ra,12(sp)
	sw	zero,0(ra)
	.loc 1 106 2838 is_stmt 1
	.loc 1 106 2854 is_stmt 0
	sw	s0,0(s5)
	.loc 1 106 2897 is_stmt 1
	.loc 1 106 2913 is_stmt 0
	sw	a3,0(a1)
	.loc 1 106 2939 is_stmt 1
	.loc 1 106 2956 is_stmt 0
	sw	s1,0(s4)
	.loc 1 106 2962 is_stmt 1
	.loc 1 106 2979 is_stmt 0
	sw	zero,0(s3)
	.loc 1 106 2982 is_stmt 1
	.loc 1 106 2998 is_stmt 0
	sw	s0,0(t3)
	.loc 1 106 3036 is_stmt 1
	.loc 1 106 3052 is_stmt 0
	sw	a6,0(t0)
	.loc 1 106 3063 is_stmt 1
	.loc 1 106 3080 is_stmt 0
	sw	s1,0(t2)
	.loc 1 106 3086 is_stmt 1
	.loc 1 106 3103 is_stmt 0
	sw	zero,0(a5)
	.loc 1 106 3106 is_stmt 1
	.loc 1 106 3122 is_stmt 0
	lw	ra,160(sp)
	sw	ra,0(s2)
	.loc 1 106 3239 is_stmt 1
	.loc 1 106 3256 is_stmt 0
	lw	ra,20(sp)
	lw	a6,60(sp)
	sw	a6,-736(ra)
	.loc 1 106 3387 is_stmt 1
	.loc 1 106 3404 is_stmt 0
	lw	a6,108(sp)
	sw	a6,0(t5)
.LBE184:
.LBB185:
	.loc 1 106 3437 is_stmt 1
.LVL77:
	.loc 1 106 3638
	.loc 1 106 3654 is_stmt 0
	lw	a6,56(sp)
	sw	a6,0(t0)
	.loc 1 106 3739 is_stmt 1
	.loc 1 106 3755 is_stmt 0
	sw	s0,0(t3)
	.loc 1 106 3761 is_stmt 1
	.loc 1 106 3778 is_stmt 0
	lw	a6,64(sp)
	sw	a6,0(t2)
	.loc 1 106 3888 is_stmt 1
	.loc 1 106 3905 is_stmt 0
	sw	zero,0(a5)
	.loc 1 106 3990 is_stmt 1
	.loc 1 106 4007 is_stmt 0
	li	a6,32
	sw	a6,0(t1)
	.loc 1 106 4066 is_stmt 1
	.loc 1 106 4083 is_stmt 0
	sw	a0,0(s10)
	.loc 1 106 4089 is_stmt 1
	.loc 1 106 0 is_stmt 0
	lw	a6,68(sp)
	sw	a6,0(s9)
	.loc 1 106 0 is_stmt 1
	lw	a6,12(sp)
	sw	zero,0(a6)
	.loc 1 106 0
	sw	a3,0(a7)
	.loc 1 106 0
	.loc 1 106 0
	sw	a2,0(s7)
	li	a2,31
	sw	a2,0(t6)
	.loc 1 106 0
	sw	zero,0(s6)
	.loc 1 106 0
	li	a6,1
	sw	a6,0(a1)
	.loc 1 106 0
	sw	s0,0(s5)
	.loc 1 106 0
	sw	s0,0(s4)
	.loc 1 106 0
	sw	zero,0(s3)
	.loc 1 106 0
.LVL78:
	.loc 1 106 0
	sw	zero,0(s2)
	.loc 1 106 0
	.loc 1 106 0
	lw	a2,84(sp)
	sw	a2,0(t5)
.LBE185:
	.loc 1 106 0
	.loc 1 106 0
	sw	s11,0(t4)
.LBB186:
	.loc 1 112 3
.LVL79:
	.loc 1 112 42
	.loc 1 112 58 is_stmt 0
	sw	a4,0(t0)
	.loc 1 112 70 is_stmt 1
	.loc 1 112 86 is_stmt 0
	li	a2,2
	sw	a2,0(t3)
	.loc 1 112 92 is_stmt 1
	.loc 1 112 109 is_stmt 0
	lw	a2,16(sp)
	sw	a2,0(t2)
	.loc 1 112 137 is_stmt 1
	.loc 1 112 154 is_stmt 0
	sw	zero,0(a5)
	.loc 1 112 166 is_stmt 1
	.loc 1 112 183 is_stmt 0
	sw	a0,0(s10)
	.loc 1 112 228 is_stmt 1
	.loc 1 112 183 is_stmt 0
	mv	a2,a0
	.loc 1 112 245
	lw	a0,24(sp)
	sw	a0,0(t1)
	.loc 1 112 291 is_stmt 1
	.loc 1 112 308 is_stmt 0
	sw	s1,0(s9)
	.loc 1 112 314 is_stmt 1
	.loc 1 112 331 is_stmt 0
	lw	a6,12(sp)
	sw	zero,0(a6)
	.loc 1 112 334 is_stmt 1
	.loc 1 112 351 is_stmt 0
	lw	a6,164(sp)
	sw	a6,0(s7)
	.loc 1 112 408 is_stmt 1
	.loc 1 112 425 is_stmt 0
	sw	a3,0(a7)
	.loc 1 112 451 is_stmt 1
	.loc 1 112 468 is_stmt 0
	sw	s1,0(t6)
	.loc 1 112 474 is_stmt 1
	.loc 1 112 491 is_stmt 0
	sw	zero,0(s6)
	.loc 1 112 494 is_stmt 1
	.loc 1 112 510 is_stmt 0
	sw	s0,0(s5)
	.loc 1 112 550 is_stmt 1
	.loc 1 112 566 is_stmt 0
	li	a6,1
	sw	a6,0(a1)
	.loc 1 112 577 is_stmt 1
	.loc 1 112 594 is_stmt 0
	sw	s1,0(s4)
	.loc 1 112 600 is_stmt 1
	.loc 1 112 617 is_stmt 0
	sw	zero,0(s3)
	.loc 1 112 620 is_stmt 1
	.loc 1 112 636 is_stmt 0
	lw	a6,168(sp)
	sw	a6,0(s2)
	.loc 1 112 765 is_stmt 1
	.loc 1 112 782 is_stmt 0
	lw	a6,184(sp)
	sw	ra,20(sp)
	sw	a6,-736(ra)
	.loc 1 112 931 is_stmt 1
	.loc 1 112 948 is_stmt 0
	sw	s8,0(t5)
.LBE186:
.LBB187:
	.loc 1 112 981 is_stmt 1
.LVL80:
	.loc 1 112 1026
	.loc 1 112 1042 is_stmt 0
	sw	a4,0(t0)
	.loc 1 112 1054 is_stmt 1
	.loc 1 112 1070 is_stmt 0
	li	ra,2
	sw	ra,0(t3)
	.loc 1 112 1076 is_stmt 1
	.loc 1 112 1093 is_stmt 0
	lw	ra,88(sp)
	sw	ra,0(t2)
	.loc 1 112 1121 is_stmt 1
	.loc 1 112 1138 is_stmt 0
	sw	a4,0(a5)
	.loc 1 112 1150 is_stmt 1
	.loc 1 112 1167 is_stmt 0
	sw	a2,0(s10)
	.loc 1 112 1212 is_stmt 1
	.loc 1 112 1229 is_stmt 0
	sw	a0,0(t1)
	.loc 1 112 1275 is_stmt 1
	.loc 1 112 1292 is_stmt 0
	sw	s1,0(s9)
	.loc 1 112 1298 is_stmt 1
	.loc 1 112 1315 is_stmt 0
	lw	ra,12(sp)
	sw	zero,0(ra)
	.loc 1 112 1318 is_stmt 1
	.loc 1 112 1335 is_stmt 0
	lw	a6,172(sp)
	sw	a6,0(s7)
	.loc 1 112 1368 is_stmt 1
	.loc 1 112 1385 is_stmt 0
	sw	a3,0(a7)
	.loc 1 112 1411 is_stmt 1
	.loc 1 112 1428 is_stmt 0
	sw	s1,0(t6)
	.loc 1 112 1434 is_stmt 1
	.loc 1 112 1451 is_stmt 0
	sw	zero,0(s6)
	.loc 1 112 1454 is_stmt 1
	.loc 1 112 1470 is_stmt 0
	sw	s0,0(s5)
	.loc 1 112 1510 is_stmt 1
	.loc 1 112 1526 is_stmt 0
	li	a6,1
	sw	a6,0(a1)
	.loc 1 112 1537 is_stmt 1
	.loc 1 112 1554 is_stmt 0
	sw	s1,0(s4)
	.loc 1 112 1560 is_stmt 1
	.loc 1 112 1577 is_stmt 0
	sw	zero,0(s3)
	.loc 1 112 1580 is_stmt 1
	.loc 1 112 1596 is_stmt 0
	lw	a6,176(sp)
	sw	a6,0(s2)
	.loc 1 112 1713 is_stmt 1
	.loc 1 112 1730 is_stmt 0
	lw	a6,48(sp)
	sw	a6,0(t5)
.LBE187:
	.loc 1 112 1762 is_stmt 1
	.loc 1 112 1763
	.loc 1 112 1779 is_stmt 0
	lw	ra,112(sp)
	sw	ra,0(t4)
.LBB188:
	.loc 1 116 3 is_stmt 1
.LVL81:
	.loc 1 116 48
	.loc 1 116 64 is_stmt 0
	sw	a4,0(t0)
	.loc 1 116 76 is_stmt 1
	.loc 1 116 92 is_stmt 0
	li	ra,2
	sw	ra,0(t3)
	.loc 1 116 98 is_stmt 1
	.loc 1 116 115 is_stmt 0
	lw	ra,88(sp)
	sw	ra,0(t2)
	.loc 1 116 143 is_stmt 1
	.loc 1 116 160 is_stmt 0
	sw	a4,0(a5)
	.loc 1 116 172 is_stmt 1
	.loc 1 116 189 is_stmt 0
	sw	a2,0(s10)
	.loc 1 116 234 is_stmt 1
	.loc 1 116 251 is_stmt 0
	sw	a0,0(t1)
	.loc 1 116 297 is_stmt 1
	.loc 1 116 314 is_stmt 0
	sw	s1,0(s9)
	.loc 1 116 320 is_stmt 1
	.loc 1 116 337 is_stmt 0
	lw	a6,12(sp)
	.loc 1 116 251
	mv	ra,a0
	.loc 1 116 337
	sw	zero,0(a6)
	.loc 1 116 340 is_stmt 1
	.loc 1 116 357 is_stmt 0
	lw	a0,36(sp)
	sw	a0,0(s7)
	.loc 1 116 386 is_stmt 1
	.loc 1 116 403 is_stmt 0
	sw	a3,0(a7)
	.loc 1 116 429 is_stmt 1
	.loc 1 116 446 is_stmt 0
	sw	s1,0(t6)
	.loc 1 116 452 is_stmt 1
	.loc 1 116 469 is_stmt 0
	sw	zero,0(s6)
	.loc 1 116 472 is_stmt 1
	.loc 1 116 488 is_stmt 0
	sw	s0,0(s5)
	.loc 1 116 528 is_stmt 1
	.loc 1 116 544 is_stmt 0
	li	a0,1
	sw	a0,0(a1)
	.loc 1 116 555 is_stmt 1
	.loc 1 116 572 is_stmt 0
	sw	s1,0(s4)
	.loc 1 116 578 is_stmt 1
	.loc 1 116 595 is_stmt 0
	sw	zero,0(s3)
	.loc 1 116 598 is_stmt 1
	.loc 1 116 614 is_stmt 0
	lw	a0,116(sp)
	sw	a0,0(s2)
	.loc 1 116 729 is_stmt 1
	.loc 1 116 746 is_stmt 0
	lw	a0,20(sp)
	lw	a6,188(sp)
	sw	a6,-736(a0)
	.loc 1 116 867 is_stmt 1
	.loc 1 116 884 is_stmt 0
	sw	s8,140(sp)
	sw	s8,0(t5)
.LBE188:
.LBB189:
	.loc 1 116 917 is_stmt 1
.LVL82:
	.loc 1 116 956
	.loc 1 116 972 is_stmt 0
	sw	a4,0(t0)
	sw	t0,132(sp)
	.loc 1 116 984 is_stmt 1
	.loc 1 116 1000 is_stmt 0
	li	t0,2
	sw	t0,0(t3)
	.loc 1 116 1023
	lw	a6,16(sp)
	.loc 1 116 1000
	sw	t3,116(sp)
	.loc 1 116 1006 is_stmt 1
	.loc 1 116 1474 is_stmt 0
	li	a4,1
	.loc 1 116 1023
	sw	a6,0(t2)
	sw	t2,112(sp)
	.loc 1 116 1051 is_stmt 1
	.loc 1 116 1068 is_stmt 0
	sw	zero,0(a5)
	.loc 1 116 1080 is_stmt 1
	.loc 1 116 1097 is_stmt 0
	sw	a2,28(sp)
	sw	a2,0(s10)
	.loc 1 116 1142 is_stmt 1
	.loc 1 116 1159 is_stmt 0
	sw	ra,24(sp)
	sw	ra,0(t1)
	sw	t1,108(sp)
	.loc 1 116 1205 is_stmt 1
	.loc 1 116 1222 is_stmt 0
	sw	s1,0(s9)
	.loc 1 116 1228 is_stmt 1
	.loc 1 116 1245 is_stmt 0
	lw	a6,12(sp)
.LBE189:
.LBB190:
	.loc 1 106 1453
	addi	s8,a0,-736
.LBE190:
.LBB191:
	.loc 1 116 1245
	sw	zero,0(a6)
	.loc 1 116 1248 is_stmt 1
	.loc 1 116 1265 is_stmt 0
	lw	t1,36(sp)
	sw	t1,0(s7)
	.loc 1 116 1316 is_stmt 1
	.loc 1 116 1333 is_stmt 0
	sw	a3,0(a7)
	sw	a7,104(sp)
	.loc 1 116 1359 is_stmt 1
	.loc 1 116 1376 is_stmt 0
	sw	s1,0(t6)
	sw	t6,100(sp)
	.loc 1 116 1382 is_stmt 1
	.loc 1 116 1399 is_stmt 0
	sw	zero,0(s6)
	.loc 1 116 1402 is_stmt 1
	.loc 1 116 1418 is_stmt 0
	sw	s0,0(s5)
	.loc 1 116 1458 is_stmt 1
	.loc 1 116 1474 is_stmt 0
	sw	a4,0(a1)
	sw	a1,88(sp)
	.loc 1 116 1485 is_stmt 1
	.loc 1 116 1502 is_stmt 0
	sw	s1,0(s4)
	.loc 1 116 1508 is_stmt 1
	.loc 1 116 1525 is_stmt 0
	sw	zero,0(s3)
	.loc 1 116 1528 is_stmt 1
	.loc 1 116 1544 is_stmt 0
	lw	a1,120(sp)
	sw	a1,0(s2)
	.loc 1 116 1669 is_stmt 1
	.loc 1 116 1686 is_stmt 0
	lw	a1,48(sp)
	sw	a1,0(t5)
.LBE191:
	.loc 1 116 1735
	lw	a7,92(sp)
.LBB192:
	.loc 1 116 1686
	sw	t5,80(sp)
.LBE192:
	.loc 1 116 1718 is_stmt 1
	.loc 1 116 1719
	.loc 1 116 1735 is_stmt 0
	sw	a7,0(t4)
	.loc 1 118 13 is_stmt 1
	.loc 1 121 1
	.loc 1 121 2
	.loc 1 121 18 is_stmt 0
	lw	t3,124(sp)
	sw	t4,44(sp)
	sw	t3,0(t4)
	.loc 1 123 13 is_stmt 1
	lw	t3,128(sp)
	sw	zero,0(t3)
	.loc 1 123 13
.LBB193:
	.loc 1 106 471 is_stmt 0
	sw	a5,20(sp)
.LBE193:
	.loc 1 123 13
	call	_taskYield
.LVL83:
	.loc 1 123 27 is_stmt 1 discriminator 1
.LBB194:
	.loc 1 127 3
	.loc 1 127 186
	.loc 1 127 202 is_stmt 0
	lw	t0,132(sp)
	li	a5,128
	.loc 1 127 308
	li	a7,1023
	.loc 1 127 202
	sw	a5,0(t0)
	.loc 1 127 269 is_stmt 1
	.loc 1 127 285 is_stmt 0
	lw	t3,116(sp)
	.loc 1 127 501
	li	a3,32
	.loc 1 127 565
	li	a2,3
	.loc 1 127 285
	sw	s0,0(t3)
	.loc 1 127 291 is_stmt 1
	.loc 1 127 308 is_stmt 0
	lw	t2,112(sp)
	.loc 1 127 588
	li	t5,127
	.loc 1 127 809
	li	a4,31
	.loc 1 127 308
	sw	a7,0(t2)
	.loc 1 127 400 is_stmt 1
	.loc 1 127 417 is_stmt 0
	lw	a5,20(sp)
	.loc 1 127 922
	li	t4,1
.LBE194:
.LBB195:
	.loc 1 127 1580
	li	a0,64
.LBE195:
.LBB196:
	.loc 1 127 417
	sw	zero,0(a5)
	.loc 1 127 484 is_stmt 1
	.loc 1 127 501 is_stmt 0
	lw	t1,108(sp)
	sw	a3,0(t1)
	.loc 1 127 548 is_stmt 1
	.loc 1 127 565 is_stmt 0
	sw	a2,0(s10)
	.loc 1 127 571 is_stmt 1
	.loc 1 127 588 is_stmt 0
	sw	t5,0(s9)
	.loc 1 127 659 is_stmt 1
	.loc 1 127 676 is_stmt 0
	lw	a6,12(sp)
	.loc 1 127 740
	li	a3,8
	.loc 1 127 1249
	li	t5,1024
	.loc 1 127 676
	sw	zero,0(a6)
	.loc 1 127 723 is_stmt 1
	.loc 1 127 740 is_stmt 0
	lw	a7,104(sp)
	sw	a3,0(a7)
	.loc 1 127 769 is_stmt 1
	.loc 1 127 786 is_stmt 0
	sw	a2,0(s7)
	.loc 1 127 792 is_stmt 1
	.loc 1 127 809 is_stmt 0
	lw	t6,100(sp)
	sw	a4,0(t6)
	.loc 1 127 860 is_stmt 1
	.loc 1 127 877 is_stmt 0
	sw	zero,0(s6)
	.loc 1 127 906 is_stmt 1
	.loc 1 127 922 is_stmt 0
	lw	a1,88(sp)
	sw	t4,0(a1)
	.loc 1 127 933 is_stmt 1
	.loc 1 127 949 is_stmt 0
	sw	s0,0(s5)
	.loc 1 127 955 is_stmt 1
	.loc 1 127 972 is_stmt 0
	sw	s0,0(s4)
	.loc 1 127 1001 is_stmt 1
	.loc 1 127 1018 is_stmt 0
	sw	zero,0(s3)
	.loc 1 127 1027 is_stmt 1
.LVL84:
	.loc 1 127 1186
	.loc 1 127 1202 is_stmt 0
	sw	zero,0(s2)
	.loc 1 127 1231 is_stmt 1
	.loc 1 127 1232
	.loc 1 127 1249 is_stmt 0
	sw	s8,20(sp)
	sw	t5,0(s8)
	.loc 1 127 1288 is_stmt 1
	.loc 1 127 1305 is_stmt 0
	lw	t5,80(sp)
	lw	a4,72(sp)
	sw	a4,0(t5)
.LBE196:
.LBB197:
	.loc 1 127 1338 is_stmt 1
.LVL85:
	.loc 1 127 1383
	.loc 1 127 1400 is_stmt 0
	li	a4,4096
	sw	a4,0(a7)
	.loc 1 127 1412 is_stmt 1
	.loc 1 127 1429 is_stmt 0
	sw	a2,0(s7)
	.loc 1 127 1435 is_stmt 1
	.loc 1 127 1452 is_stmt 0
	lw	a6,16(sp)
	sw	a6,0(t6)
	.loc 1 127 1480 is_stmt 1
	.loc 1 127 1497 is_stmt 0
	sw	zero,0(s6)
	.loc 1 127 1509 is_stmt 1
	.loc 1 127 1526 is_stmt 0
	sw	a2,0(s10)
	.loc 1 127 1563 is_stmt 1
	.loc 1 127 1580 is_stmt 0
	sw	a0,0(t1)
	.loc 1 127 1620 is_stmt 1
	.loc 1 127 1637 is_stmt 0
	li	a0,255
	sw	a0,0(s9)
	.loc 1 127 1642 is_stmt 1
	.loc 1 127 1659 is_stmt 0
	lw	a6,12(sp)
	sw	zero,0(a6)
	.loc 1 127 1662 is_stmt 1
	.loc 1 127 1678 is_stmt 0
	sw	s0,0(s5)
	.loc 1 127 1715 is_stmt 1
	.loc 1 127 1731 is_stmt 0
	sw	a3,0(a1)
	.loc 1 127 1757 is_stmt 1
	.loc 1 127 1774 is_stmt 0
	sw	a0,0(s4)
	.loc 1 127 1779 is_stmt 1
	.loc 1 127 1796 is_stmt 0
	sw	zero,0(s3)
	.loc 1 127 1799 is_stmt 1
	.loc 1 127 1815 is_stmt 0
	sw	s0,0(t3)
	.loc 1 127 1853 is_stmt 1
	.loc 1 127 1869 is_stmt 0
	sw	t4,0(t0)
	.loc 1 127 1880 is_stmt 1
	.loc 1 127 1897 is_stmt 0
	sw	a0,0(t2)
	.loc 1 127 1902 is_stmt 1
	.loc 1 127 1938 is_stmt 0
	li	a6,524288
	.loc 1 127 1919
	sw	zero,0(a5)
	.loc 1 127 1922 is_stmt 1
	.loc 1 127 1938 is_stmt 0
	addi	a6,a6,1128
	.loc 1 127 2067
	li	a0,1032192
	.loc 1 127 1938
	sw	a6,0(s2)
	.loc 1 127 2050 is_stmt 1
	.loc 1 127 2067 is_stmt 0
	addi	a0,a0,1181
	sw	a0,0(t5)
.LBE197:
	.loc 1 127 2099 is_stmt 1
	.loc 1 127 2100
	.loc 1 127 2116 is_stmt 0
	lw	a6,44(sp)
	sw	s11,80(sp)
	sw	s11,0(a6)
.LBB198:
	.loc 1 127 2206 is_stmt 1
.LVL86:
	.loc 1 127 2329
	.loc 1 127 2363 is_stmt 0
	lw	t4,136(sp)
	.loc 1 127 2748
	li	a6,1036288
	addi	a6,a6,159
	.loc 1 127 2363
	lw	a0,44(t4)
	.loc 1 127 2346
	sw	a0,0(a7)
.LVL87:
	.loc 1 127 2368 is_stmt 1
	.loc 1 127 2385 is_stmt 0
	li	a0,31
	sw	a0,0(s7)
	.loc 1 127 2391 is_stmt 1
.LBE198:
	.loc 1 93 29 is_stmt 0 discriminator 2
	lw	s11,76(sp)
.LBB199:
	.loc 1 127 2422
	lw	a0,48(t4)
	.loc 1 127 2427
	lw	s8,44(t4)
.LBE199:
	.loc 1 93 29 discriminator 2
	addi	s11,s11,1
	sw	s11,76(sp)
.LBB200:
	.loc 1 127 2422
	lw	s11,96(sp)
	sub	a0,a0,s11
	.loc 1 127 2427
	mul	a0,a0,s8
.LBE200:
	.loc 1 93 20 discriminator 1
	lw	s11,40(sp)
	lw	s8,52(sp)
	add	s8,s11,s8
	sw	s8,40(sp)
.LBB201:
	.loc 1 127 2444
	addi	a0,a0,-1
	.loc 1 127 2408
	sw	a0,0(t6)
	.loc 1 127 2447 is_stmt 1
	.loc 1 127 2468 is_stmt 0
	lw	s8,96(sp)
	lw	a0,44(t4)
	mul	a0,s8,a0
	.loc 1 127 2464
	sw	a0,0(s6)
	.loc 1 127 2486 is_stmt 1
	.loc 1 127 2502 is_stmt 0
	li	a0,1
	sw	a0,0(a1)
	.loc 1 127 2513 is_stmt 1
	.loc 1 127 2529 is_stmt 0
	li	a0,31
	sw	a0,0(s5)
	.loc 1 127 2535 is_stmt 1
	.loc 1 127 2566 is_stmt 0
	lw	a0,44(t4)
	.loc 1 127 2568
	lw	s11,32(sp)
	.loc 1 127 2566
	addi	a0,a0,-1
	.loc 1 127 2568
	sub	a0,a0,s11
	.loc 1 127 2552
	sw	a0,0(s4)
	.loc 1 127 2574 is_stmt 1
	.loc 1 127 2591 is_stmt 0
	sw	s11,0(s3)
	.loc 1 127 2600 is_stmt 1
.LVL88:
	.loc 1 127 2640
	.loc 1 127 2612 is_stmt 0
	lw	a0,44(t4)
	.loc 1 127 2604
	sw	s11,32(sp)
	.loc 1 127 2612
	mul	a0,s8,a0
	.loc 1 127 2661
	lw	s8,152(sp)
.LVL89:
	.loc 1 127 2604
	add	a0,a0,s11
.LVL90:
	.loc 1 127 2661
	add	a0,a0,s8
.LVL91:
	.loc 1 127 2656
	sw	a0,0(s2)
	.loc 1 127 2688 is_stmt 1
	.loc 1 127 2689
	.loc 1 127 2706 is_stmt 0
	lw	s8,20(sp)
	li	a0,1024
	sw	a0,0(s8)
	.loc 1 127 2731 is_stmt 1
	.loc 1 127 2748 is_stmt 0
	sw	a6,0(t5)
.LBE201:
.LBB202:
	.loc 1 127 2781 is_stmt 1
.LVL92:
	.loc 1 127 2964
	.loc 1 127 2980 is_stmt 0
	li	a0,128
	sw	a0,0(t0)
	.loc 1 127 3047 is_stmt 1
	.loc 1 127 3063 is_stmt 0
	sw	s0,0(t3)
	.loc 1 127 3069 is_stmt 1
	.loc 1 127 3086 is_stmt 0
	li	a0,1023
	sw	a0,0(t2)
	.loc 1 127 3178 is_stmt 1
	.loc 1 127 3195 is_stmt 0
	sw	zero,0(a5)
	.loc 1 127 3262 is_stmt 1
	.loc 1 127 3279 is_stmt 0
	li	a6,32
	sw	a6,0(t1)
	.loc 1 127 3326 is_stmt 1
	.loc 1 127 3343 is_stmt 0
	sw	a2,0(s10)
	.loc 1 127 3349 is_stmt 1
	.loc 1 127 3366 is_stmt 0
	li	a6,127
	sw	a6,0(s9)
	.loc 1 127 3437 is_stmt 1
	.loc 1 127 3454 is_stmt 0
	lw	s11,12(sp)
	.loc 1 127 3587
	li	a0,31
	.loc 1 127 3454
	sw	zero,0(s11)
	.loc 1 127 3501 is_stmt 1
	.loc 1 127 3518 is_stmt 0
	sw	a3,0(a7)
	.loc 1 127 3547 is_stmt 1
	.loc 1 127 3564 is_stmt 0
	sw	a2,0(s7)
	.loc 1 127 3570 is_stmt 1
	.loc 1 127 3587 is_stmt 0
	sw	a0,0(t6)
	.loc 1 127 3638 is_stmt 1
	.loc 1 127 3655 is_stmt 0
	sw	zero,0(s6)
	.loc 1 127 3684 is_stmt 1
	.loc 1 127 3700 is_stmt 0
	li	a2,1
	sw	a2,0(a1)
	.loc 1 127 3711 is_stmt 1
	.loc 1 127 3727 is_stmt 0
	sw	s0,0(s5)
	.loc 1 127 3733 is_stmt 1
	.loc 1 127 3750 is_stmt 0
	sw	s0,0(s4)
	.loc 1 127 3779 is_stmt 1
	.loc 1 127 3796 is_stmt 0
	sw	zero,0(s3)
	.loc 1 127 3805 is_stmt 1
.LVL93:
	.loc 1 127 3964
	.loc 1 127 3980 is_stmt 0
	sw	zero,0(s2)
	.loc 1 127 4009 is_stmt 1
	.loc 1 127 4010
	.loc 1 127 4027 is_stmt 0
	lw	a2,84(sp)
	sw	a2,0(t5)
.LBE202:
	.loc 1 127 4059 is_stmt 1
	.loc 1 127 4060
	.loc 1 127 4076 is_stmt 0
	lw	s11,80(sp)
	lw	a6,44(sp)
	sw	s11,0(a6)
	.loc 1 93 29 is_stmt 1 discriminator 2
.LVL94:
	.loc 1 93 20 discriminator 1
	lw	s11,32(sp)
	lw	a0,52(sp)
	add	a0,s11,a0
	sw	a0,32(sp)
	lw	s11,76(sp)
	lw	a0,156(sp)
	bne	a0,s11,.L26
	lw	s0,220(sp)
	lw	s1,224(sp)
	j	.L8
.LVL95:
.L25:
	.loc 1 84 34 discriminator 2
	lw	a4,236(sp)
	.loc 1 84 16 is_stmt 0 discriminator 1
	lw	a5,12(t4)
	.loc 1 84 34 discriminator 2
	addi	a4,a4,1
	sw	a4,236(sp)
.LVL96:
	.loc 1 84 16 is_stmt 1 discriminator 1
	blt	a4,a5,.L12
.LVL97:
.L20:
	lw	s1,308(sp)
	.cfi_restore 9
	lw	s2,304(sp)
	.cfi_restore 18
	lw	s3,300(sp)
	.cfi_restore 19
	lw	s6,288(sp)
	.cfi_restore 22
	lw	s8,280(sp)
	.cfi_restore 24
	lw	s10,272(sp)
	.cfi_restore 26
	lw	s11,268(sp)
	.cfi_restore 27
.LVL98:
.L1:
	.loc 1 131 1 is_stmt 0
	lw	ra,316(sp)
	.cfi_restore 1
	lw	s0,312(sp)
	.cfi_restore 8
	lw	s4,296(sp)
	.cfi_restore 20
	lw	s5,292(sp)
	.cfi_restore 21
	lw	s7,284(sp)
	.cfi_restore 23
	lw	s9,276(sp)
	.cfi_restore 25
	addi	sp,sp,320
	.cfi_def_cfa_offset 0
	jr	ra
.LVL99:
.L23:
	.cfi_def_cfa_offset 320
	.cfi_offset 1, -4
	.cfi_offset 8, -8
	.cfi_offset 9, -12
	.cfi_offset 18, -16
	.cfi_offset 19, -20
	.cfi_offset 20, -24
	.cfi_offset 21, -28
	.cfi_offset 22, -32
	.cfi_offset 23, -36
	.cfi_offset 24, -40
	.cfi_offset 25, -44
	.cfi_offset 26, -48
	.cfi_offset 27, -52
	mv	s0,a5
.LBB203:
	.loc 1 106 1546
	lw	a5,252(sp)
.LVL100:
	sw	a5,200(sp)
.LBE203:
.LBB204:
	.loc 1 127 2210
	slli	a5,s0,5
	sw	a5,96(sp)
	lw	a5,208(sp)
	mv	s1,a5
	sw	a5,204(sp)
	j	.L13
.LVL101:
.L2:
	.cfi_restore 9
	.cfi_restore 18
	.cfi_restore 19
	.cfi_restore 22
	.cfi_restore 24
	.cfi_restore 26
	.cfi_restore 27
.LBE204:
	.loc 1 70 7 is_stmt 1
	.loc 1 70 9 is_stmt 0
	li	a5,32
	.loc 1 72 11
	srai	s7,a4,6
	.loc 1 70 9
	ble	s0,a5,.L1
	sw	s1,308(sp)
.LVL102:
	sw	s2,304(sp)
	sw	s3,300(sp)
	sw	s6,288(sp)
	sw	s8,280(sp)
	sw	s10,272(sp)
	sw	s11,268(sp)
	.cfi_offset 9, -12
	.cfi_offset 18, -16
	.cfi_offset 19, -20
	.cfi_offset 22, -32
	.cfi_offset 24, -40
	.cfi_offset 26, -48
	.cfi_offset 27, -52
	j	.L3
.LVL103:
.L22:
	.loc 1 68 26 discriminator 1
	srai	s4,a4,6
.LVL104:
	j	.L3
	.cfi_endproc
.LFE0:
	.size	iconv, .-iconv
	.align	2
	.globl	kernel_gaussian_exe
	.type	kernel_gaussian_exe, @function
kernel_gaussian_exe:
.LFB1:
	.loc 1 151 1 is_stmt 1
	.cfi_startproc
.LVL105:
	.loc 1 152 4
	.loc 1 154 4
	.loc 1 151 1 is_stmt 0
	addi	sp,sp,-112
	.cfi_def_cfa_offset 112
	sw	s0,104(sp)
	.cfi_offset 8, -8
	mv	s0,a0
	.loc 1 154 4
	lui	a0,%hi(.LANCHOR0)
.LVL106:
	addi	a0,a0,%lo(.LANCHOR0)
	.loc 1 151 1
	sw	ra,108(sp)
	sw	s1,100(sp)
	sw	s2,96(sp)
	sw	s3,92(sp)
	sw	s4,88(sp)
	sw	s5,84(sp)
	sw	s6,80(sp)
	sw	s7,76(sp)
	.cfi_offset 1, -4
	.cfi_offset 9, -12
	.cfi_offset 18, -16
	.cfi_offset 19, -20
	.cfi_offset 20, -24
	.cfi_offset 21, -28
	.cfi_offset 22, -32
	.cfi_offset 23, -36
	.loc 1 151 1
	mv	s6,a2
	mv	s5,a3
	mv	s4,a4
	mv	s2,a6
	mv	s1,a7
	mv	s7,a1
	mv	s3,a5
	.loc 1 154 4
	call	ztaInitPcore
.LVL107:
	.loc 1 156 4 is_stmt 1
	.loc 1 163 13 is_stmt 0
	lw	a5,112(sp)
	.loc 1 170 4
	lui	a0,%hi(iconv)
	addi	a1,sp,12
	.loc 1 163 13
	sw	a5,40(sp)
	.loc 1 164 13
	lw	a5,116(sp)
	.loc 1 170 4
	addi	a0,a0,%lo(iconv)
	.loc 1 156 13
	sw	s7,12(sp)
	.loc 1 157 4 is_stmt 1
	.loc 1 164 13 is_stmt 0
	sw	a5,44(sp)
	.loc 1 165 13
	lw	a5,120(sp)
	.loc 1 157 14
	sw	s6,16(sp)
	.loc 1 158 4 is_stmt 1
	.loc 1 158 14 is_stmt 0
	sw	s5,20(sp)
	.loc 1 159 4 is_stmt 1
	.loc 1 165 13 is_stmt 0
	sw	a5,48(sp)
	.loc 1 166 13
	lw	a5,124(sp)
	.loc 1 159 16
	sw	s4,24(sp)
	.loc 1 160 4 is_stmt 1
	.loc 1 160 11 is_stmt 0
	sw	s3,28(sp)
	.loc 1 161 4 is_stmt 1
	.loc 1 166 13 is_stmt 0
	sw	a5,52(sp)
	.loc 1 167 13
	lw	a5,128(sp)
	.loc 1 161 9
	sw	s2,32(sp)
	.loc 1 162 4 is_stmt 1
	.loc 1 162 9 is_stmt 0
	sw	s1,36(sp)
	.loc 1 163 4 is_stmt 1
	.loc 1 164 4
	.loc 1 165 4
	.loc 1 166 4
	.loc 1 167 4
	.loc 1 167 13 is_stmt 0
	sw	a5,56(sp)
	.loc 1 168 4 is_stmt 1
	.loc 1 168 13 is_stmt 0
	lw	a5,132(sp)
	sw	a5,60(sp)
	.loc 1 170 4 is_stmt 1
	call	ztaDualHartExecute
.LVL108:
	.loc 1 172 4
	mv	a0,s0
	call	ztaJobDone
.LVL109:
	.loc 1 173 1 is_stmt 0
	lw	ra,108(sp)
	.cfi_restore 1
	lw	s0,104(sp)
	.cfi_restore 8
.LVL110:
	lw	s1,100(sp)
	.cfi_restore 9
.LVL111:
	lw	s2,96(sp)
	.cfi_restore 18
.LVL112:
	lw	s3,92(sp)
	.cfi_restore 19
.LVL113:
	lw	s4,88(sp)
	.cfi_restore 20
.LVL114:
	lw	s5,84(sp)
	.cfi_restore 21
.LVL115:
	lw	s6,80(sp)
	.cfi_restore 22
.LVL116:
	lw	s7,76(sp)
	.cfi_restore 23
.LVL117:
	addi	sp,sp,112
	.cfi_def_cfa_offset 0
.LVL118:
	jr	ra
	.cfi_endproc
.LFE1:
	.size	kernel_gaussian_exe, .-kernel_gaussian_exe
	.data
	.align	2
	.set	.LANCHOR0,. + 0
	.type	zta_pcore_img, @object
	.size	zta_pcore_img, 1226
zta_pcore_img:
	.half	1216
	.half	72
	.half	4104
	.half	1044
	.half	36
	.half	3416
	.half	1034
	.half	0
	.half	28
	.half	72
	.half	8
	.half	0
	.half	0
	.half	3425
	.half	0
	.half	0
	.half	0
	.half	72
	.half	8
	.half	0
	.half	0
	.half	14681
	.half	0
	.half	0
	.half	-32740
	.half	72
	.half	8
	.half	0
	.half	0
	.half	10587
	.half	0
	.half	0
	.half	12
	.half	72
	.half	8
	.half	0
	.half	0
	.half	3571
	.half	0
	.half	0
	.half	-32736
	.half	72
	.half	8
	.half	0
	.half	0
	.half	5083
	.half	0
	.half	0
	.half	-32764
	.half	72
	.half	8
	.half	0
	.half	0
	.half	6971
	.half	0
	.half	0
	.half	-32768
	.half	72
	.half	8
	.half	0
	.half	0
	.half	2491
	.half	0
	.half	0
	.half	-32768
	.half	72
	.half	8
	.half	0
	.half	0
	.half	3514
	.half	0
	.half	0
	.half	16388
	.half	72
	.half	8
	.half	0
	.half	0
	.half	3474
	.half	0
	.half	2048
	.half	-15820
	.half	72
	.half	8
	.half	0
	.half	0
	.half	3417
	.half	0
	.half	16532
	.half	-32768
	.half	72
	.half	8
	.half	0
	.half	0
	.half	6619
	.half	0
	.half	0
	.half	112
	.half	72
	.half	3080
	.half	1045
	.half	32
	.half	2611
	.half	9
	.half	0
	.half	-32768
	.half	76
	.half	-13304
	.half	-21231
	.half	1580
	.half	3035
	.half	9
	.half	0
	.half	-32764
	.half	76
	.half	-13304
	.half	-21199
	.half	1580
	.half	3035
	.half	9
	.half	0
	.half	-32764
	.half	76
	.half	-13304
	.half	-21167
	.half	1580
	.half	3035
	.half	9
	.half	0
	.half	-32764
	.half	76
	.half	-13304
	.half	-21135
	.half	1580
	.half	3035
	.half	9
	.half	0
	.half	-32764
	.half	76
	.half	-13304
	.half	-21103
	.half	1580
	.half	3035
	.half	9
	.half	0
	.half	-32764
	.half	76
	.half	-13304
	.half	-21071
	.half	1580
	.half	3035
	.half	9
	.half	0
	.half	-32764
	.half	76
	.half	-13304
	.half	-21039
	.half	1580
	.half	3035
	.half	9
	.half	0
	.half	-32764
	.half	72
	.half	8
	.half	0
	.half	0
	.half	2947
	.half	0
	.half	0
	.half	-32768
	.half	76
	.half	-13304
	.half	-21007
	.half	1580
	.half	3035
	.half	9
	.half	0
	.half	-32764
	.half	76
	.half	-13304
	.half	-20975
	.half	1580
	.half	3035
	.half	9
	.half	0
	.half	-32764
	.half	76
	.half	-13304
	.half	-20943
	.half	1580
	.half	3035
	.half	9
	.half	0
	.half	-32764
	.half	76
	.half	-13304
	.half	-20911
	.half	1580
	.half	3035
	.half	9
	.half	0
	.half	-32764
	.half	76
	.half	-13304
	.half	-20879
	.half	1580
	.half	3035
	.half	9
	.half	0
	.half	-32764
	.half	76
	.half	-13304
	.half	-20847
	.half	1580
	.half	3035
	.half	9
	.half	0
	.half	-32764
	.half	76
	.half	-13304
	.half	-20815
	.half	1580
	.half	3035
	.half	9
	.half	0
	.half	-32764
	.half	72
	.half	8
	.half	0
	.half	0
	.half	2947
	.half	0
	.half	0
	.half	-32768
	.half	76
	.half	-13304
	.half	-20783
	.half	1580
	.half	3035
	.half	9
	.half	0
	.half	-32764
	.half	76
	.half	-13304
	.half	-20751
	.half	1580
	.half	3035
	.half	9
	.half	0
	.half	-32764
	.half	76
	.half	-13304
	.half	-20719
	.half	1580
	.half	3035
	.half	9
	.half	0
	.half	-32764
	.half	76
	.half	-13304
	.half	-20687
	.half	1580
	.half	3035
	.half	9
	.half	0
	.half	-32764
	.half	76
	.half	-13304
	.half	-20655
	.half	1580
	.half	3035
	.half	9
	.half	0
	.half	-32764
	.half	76
	.half	-13304
	.half	-20623
	.half	1580
	.half	3035
	.half	9
	.half	0
	.half	-32764
	.half	76
	.half	-13304
	.half	-20591
	.half	1580
	.half	3035
	.half	9
	.half	0
	.half	-32764
	.half	72
	.half	8
	.half	0
	.half	0
	.half	2947
	.half	0
	.half	0
	.half	-32768
	.half	76
	.half	-13304
	.half	-20559
	.half	1580
	.half	3035
	.half	9
	.half	0
	.half	-32764
	.half	76
	.half	-13304
	.half	-20527
	.half	1580
	.half	3035
	.half	9
	.half	0
	.half	-32764
	.half	76
	.half	-13304
	.half	-20495
	.half	1580
	.half	3035
	.half	9
	.half	0
	.half	-32764
	.half	76
	.half	-13304
	.half	-20463
	.half	1580
	.half	3035
	.half	9
	.half	0
	.half	-32764
	.half	76
	.half	-13304
	.half	-20431
	.half	1580
	.half	3035
	.half	9
	.half	0
	.half	-32764
	.half	76
	.half	-13304
	.half	-20399
	.half	1580
	.half	3035
	.half	9
	.half	0
	.half	-32764
	.half	76
	.half	-13304
	.half	-20367
	.half	1580
	.half	3035
	.half	9
	.half	0
	.half	-32764
	.half	72
	.half	8
	.half	0
	.half	0
	.half	2947
	.half	0
	.half	0
	.half	-32768
	.half	76
	.half	-13304
	.half	-20335
	.half	1580
	.half	3035
	.half	9
	.half	0
	.half	-32764
	.half	76
	.half	-13304
	.half	-20303
	.half	1580
	.half	3035
	.half	9
	.half	0
	.half	-32764
	.half	76
	.half	-13304
	.half	-20271
	.half	1580
	.half	3035
	.half	9
	.half	0
	.half	-32764
	.half	76
	.half	-13304
	.half	-20239
	.half	1580
	.half	3035
	.half	9
	.half	0
	.half	-32764
	.half	76
	.half	-13304
	.half	-20207
	.half	1580
	.half	3035
	.half	9
	.half	0
	.half	-32764
	.half	76
	.half	-13304
	.half	-20175
	.half	1580
	.half	3035
	.half	9
	.half	0
	.half	-32764
	.half	76
	.half	-13304
	.half	-20143
	.half	1580
	.half	3035
	.half	9
	.half	0
	.half	-32764
	.half	72
	.half	8
	.half	0
	.half	0
	.half	2947
	.half	0
	.half	0
	.half	-32768
	.half	76
	.half	-13304
	.half	-20111
	.half	1580
	.half	3035
	.half	9
	.half	0
	.half	-32764
	.half	76
	.half	-13304
	.half	-20079
	.half	1580
	.half	3035
	.half	9
	.half	0
	.half	-32764
	.half	76
	.half	-13304
	.half	-20047
	.half	1580
	.half	3035
	.half	9
	.half	0
	.half	-32764
	.half	76
	.half	-13304
	.half	-20015
	.half	1580
	.half	3035
	.half	9
	.half	0
	.half	-32764
	.half	76
	.half	-13304
	.half	-19983
	.half	1580
	.half	3035
	.half	9
	.half	0
	.half	-32764
	.half	76
	.half	-13304
	.half	-19951
	.half	1580
	.half	3035
	.half	9
	.half	0
	.half	-32764
	.half	76
	.half	-13304
	.half	-19919
	.half	1580
	.half	3035
	.half	9
	.half	0
	.half	-32764
	.half	72
	.half	8
	.half	0
	.half	0
	.half	2947
	.half	0
	.half	0
	.half	-32768
	.half	76
	.half	-13304
	.half	-19887
	.half	1580
	.half	3035
	.half	9
	.half	0
	.half	-32764
	.half	76
	.half	-13304
	.half	-19855
	.half	1580
	.half	3035
	.half	9
	.half	0
	.half	-32764
	.half	76
	.half	-13304
	.half	-19823
	.half	1580
	.half	3035
	.half	9
	.half	0
	.half	-32764
	.half	76
	.half	-13304
	.half	-19791
	.half	1580
	.half	3035
	.half	9
	.half	0
	.half	-32764
	.half	76
	.half	-13304
	.half	-19759
	.half	1580
	.half	3035
	.half	9
	.half	0
	.half	-32764
	.half	76
	.half	-13304
	.half	-19727
	.half	1580
	.half	3035
	.half	9
	.half	0
	.half	-32764
	.half	76
	.half	-13304
	.half	-19695
	.half	1580
	.half	3035
	.half	9
	.half	0
	.half	-32764
	.half	72
	.half	-19448
	.half	1045
	.half	96
	.half	2947
	.half	9
	.half	0
	.half	-32768
	.half	72
	.half	-19448
	.half	1045
	.half	96
	.half	0
	.half	9
	.half	0
	.half	0
	.half	72
	.half	-19448
	.half	1045
	.half	96
	.half	0
	.half	9
	.half	0
	.half	0
	.half	72
	.half	-13304
	.half	81
	.half	160
	.half	7579
	.half	9
	.half	0
	.half	64
	.half	72
	.half	8
	.half	0
	.half	0
	.half	2739
	.half	0
	.half	0
	.half	-32768
	.half	72
	.half	-20472
	.half	1045
	.half	160
	.half	2521
	.half	395
	.half	0
	.half	-32764
	.half	72
	.half	8
	.half	0
	.half	0
	.half	4573
	.half	0
	.half	4118
	.half	8
	.half	72
	.half	8
	.half	0
	.half	0
	.half	0
	.half	0
	.half	2048
	.half	0
	.half	6
	.half	0
	.half	3
	.half	1
	.text
.Letext0:
	.file 2 "/opt/riscv-xpack/riscv-none-elf/include/machine/_default_types.h"
	.file 3 "/opt/riscv-xpack/riscv-none-elf/include/sys/_stdint.h"
	.file 4 "apps/gaussian/kernels/../../../base/ztalib.h"
	.file 5 "apps/gaussian/kernels/gaussian.p.img"