	.file	"sdmm.c"
	.option nopic
	.attribute arch, "rv32i2p1_m2p0"
	.attribute unaligned_access, 0
	.attribute stack_align, 16
	.text
.Ltext0:
	.cfi_sections	.debug_frame
	.file 0 "/home/mahmoudsamy/grad/ZC702/SW" "src/sdmm.c"
	.align	2
	.type	rcvr_mmc.constprop.0, @function
rcvr_mmc.constprop.0:
.LFB17:
	.file 1 "src/sdmm.c"
	.loc 1 116 13
	.cfi_startproc
.LVL0:
	.loc 1 121 2
	.loc 1 123 2
	lui	a3,%hi(SPI)
	lw	a5,%lo(SPI)(a3)
	li	a7,-1073741824
	.loc 1 125 12 is_stmt 0
	li	a6,-1073741824
	.loc 1 123 2
	ori	a4,a5,64
	sw	a4,%lo(SPI)(a3)
	sw	a4,0(a7)
	andi	a2,a5,-33
	.loc 1 126 3
	ori	a1,a5,96
	ori	a4,a2,64
	.loc 1 125 12
	lw	a5,8(a6)
	.loc 1 126 3
	sw	a1,0(a7)
	.loc 1 126 10
	sw	a4,%lo(SPI)(a3)
	sw	a4,0(a7)
	.loc 1 128 3
	ori	a2,a2,96
	.loc 1 127 14
	lw	a1,8(a6)
	.loc 1 128 3
	sw	a2,0(a7)
	.loc 1 128 10
	sw	a4,%lo(SPI)(a3)
	.loc 1 129 14
	li	t1,-1073741824
	.loc 1 128 10
	sw	a4,0(a7)
	.loc 1 129 14
	lw	a7,8(t1)
	.loc 1 124 2 is_stmt 1
	.loc 1 125 3
.LVL1:
	.loc 1 125 9
	.loc 1 126 3
	.loc 1 126 10
	.loc 1 127 3
	.loc 1 127 11
	.loc 1 125 11 is_stmt 0
	srli	a5,a5,3
	.loc 1 127 14
	andi	a1,a1,16
	.loc 1 127 5
	andi	a5,a5,2
	.loc 1 127 23 discriminator 1
	snez	a1,a1
	add	a5,a5,a1
.LVL2:
	.loc 1 128 3 is_stmt 1
	.loc 1 128 10
	.loc 1 129 3
	.loc 1 129 14 is_stmt 0
	andi	a7,a7,16
	.loc 1 129 5
	slli	a5,a5,1
.LVL3:
	.loc 1 129 11 is_stmt 1
	.loc 1 129 13 is_stmt 0
	beq	a7,zero,.L3
	.loc 1 129 22 is_stmt 1 discriminator 1
	.loc 1 129 23 is_stmt 0 discriminator 1
	addi	a5,a5,1
.LVL4:
	andi	a5,a5,0xff
.LVL5:
.L3:
	.loc 1 130 3 is_stmt 1
	li	a1,-1073741824
	sw	a2,0(a1)
	.loc 1 130 10
	sw	a4,%lo(SPI)(a3)
	.loc 1 131 14 is_stmt 0
	li	a6,-1073741824
	.loc 1 130 10
	sw	a4,0(a1)
	.loc 1 131 3 is_stmt 1
	.loc 1 131 14 is_stmt 0
	lw	a1,8(a6)
	.loc 1 131 5
	slli	a5,a5,1
.LVL6:
	andi	a5,a5,0xff
.LVL7:
	.loc 1 131 11 is_stmt 1
	.loc 1 131 14 is_stmt 0
	andi	a1,a1,16
	.loc 1 131 13
	beq	a1,zero,.L4
	.loc 1 131 22 is_stmt 1 discriminator 1
	.loc 1 131 23 is_stmt 0 discriminator 1
	addi	a5,a5,1
.LVL8:
	andi	a5,a5,0xff
.LVL9:
.L4:
	.loc 1 132 3 is_stmt 1
	li	a1,-1073741824
	sw	a2,0(a1)
	.loc 1 132 10
	sw	a4,%lo(SPI)(a3)
	.loc 1 133 14 is_stmt 0
	li	a6,-1073741824
	.loc 1 132 10
	sw	a4,0(a1)
	.loc 1 133 3 is_stmt 1
	.loc 1 133 14 is_stmt 0
	lw	a1,8(a6)
	.loc 1 133 5
	slli	a5,a5,1
.LVL10:
	andi	a5,a5,0xff
.LVL11:
	.loc 1 133 11 is_stmt 1
	.loc 1 133 14 is_stmt 0
	andi	a1,a1,16
	.loc 1 133 13
	beq	a1,zero,.L5
	.loc 1 133 22 is_stmt 1 discriminator 1
	.loc 1 133 23 is_stmt 0 discriminator 1
	addi	a5,a5,1
.LVL12:
	andi	a5,a5,0xff
.LVL13:
.L5:
	.loc 1 134 3 is_stmt 1
	li	a1,-1073741824
	sw	a2,0(a1)
	.loc 1 134 10
	sw	a4,%lo(SPI)(a3)
	.loc 1 135 14 is_stmt 0
	li	a6,-1073741824
	.loc 1 134 10
	sw	a4,0(a1)
	.loc 1 135 3 is_stmt 1
	.loc 1 135 14 is_stmt 0
	lw	a1,8(a6)
	.loc 1 135 5
	slli	a5,a5,1
.LVL14:
	andi	a5,a5,0xff
.LVL15:
	.loc 1 135 11 is_stmt 1
	.loc 1 135 14 is_stmt 0
	andi	a1,a1,16
	.loc 1 135 13
	beq	a1,zero,.L6
	.loc 1 135 22 is_stmt 1 discriminator 1
	.loc 1 135 23 is_stmt 0 discriminator 1
	addi	a5,a5,1
.LVL16:
	andi	a5,a5,0xff
.LVL17:
.L6:
	.loc 1 136 3 is_stmt 1
	li	a1,-1073741824
	sw	a2,0(a1)
	.loc 1 136 10
	sw	a4,%lo(SPI)(a3)
	.loc 1 137 14 is_stmt 0
	li	a6,-1073741824
	.loc 1 136 10
	sw	a4,0(a1)
	.loc 1 137 3 is_stmt 1
	.loc 1 137 14 is_stmt 0
	lw	a1,8(a6)
	.loc 1 137 5
	slli	a5,a5,1
.LVL18:
	andi	a5,a5,0xff
.LVL19:
	.loc 1 137 11 is_stmt 1
	.loc 1 137 14 is_stmt 0
	andi	a1,a1,16
	.loc 1 137 13
	beq	a1,zero,.L7
	.loc 1 137 22 is_stmt 1 discriminator 1
	.loc 1 137 23 is_stmt 0 discriminator 1
	addi	a5,a5,1
.LVL20:
	andi	a5,a5,0xff
.LVL21:
.L7:
	.loc 1 138 3 is_stmt 1
	li	a1,-1073741824
	sw	a2,0(a1)
	.loc 1 138 10
	sw	a4,%lo(SPI)(a3)
	.loc 1 139 14 is_stmt 0
	li	a6,-1073741824
	.loc 1 138 10
	sw	a4,0(a1)
	.loc 1 139 3 is_stmt 1
	.loc 1 139 14 is_stmt 0
	lw	a1,8(a6)
	.loc 1 139 5
	slli	a5,a5,1
.LVL22:
	andi	a5,a5,0xff
.LVL23:
	.loc 1 139 11 is_stmt 1
	.loc 1 139 14 is_stmt 0
	andi	a1,a1,16
	.loc 1 139 13
	beq	a1,zero,.L8
	.loc 1 139 22 is_stmt 1 discriminator 1
	.loc 1 139 23 is_stmt 0 discriminator 1
	addi	a5,a5,1
.LVL24:
	andi	a5,a5,0xff
.LVL25:
.L8:
	.loc 1 140 3 is_stmt 1
	li	a1,-1073741824
	sw	a2,0(a1)
	.loc 1 140 10
	sw	a4,%lo(SPI)(a3)
	sw	a4,0(a1)
	.loc 1 141 3
.LVL26:
	.loc 1 141 11 is_stmt 0
	sb	a5,0(a0)
	.loc 1 142 11 is_stmt 1
.LVL27:
	.loc 1 143 1 is_stmt 0
	ret
	.cfi_endproc
.LFE17:
	.size	rcvr_mmc.constprop.0, .-rcvr_mmc.constprop.0
	.align	2
	.type	rcvr_mmc.constprop.1, @function
rcvr_mmc.constprop.1:
.LFB18:
	.loc 1 116 13 is_stmt 1
	.cfi_startproc
.LVL28:
	.loc 1 121 2
	.loc 1 123 2
	lui	a3,%hi(SPI)
	lw	a5,%lo(SPI)(a3)
	li	a7,-1073741824
	.loc 1 125 12 is_stmt 0
	li	a6,-1073741824
	.loc 1 123 2
	ori	a4,a5,64
	sw	a4,%lo(SPI)(a3)
	sw	a4,0(a7)
.LVL29:
	andi	a2,a5,-33
	.loc 1 126 3
	ori	a1,a5,96
	ori	a4,a2,64
	.loc 1 125 12
	lw	a5,8(a6)
	.loc 1 126 3
	sw	a1,0(a7)
	.loc 1 126 10
	sw	a4,%lo(SPI)(a3)
	sw	a4,0(a7)
	.loc 1 128 3
	ori	a2,a2,96
	.loc 1 127 14
	lw	a1,8(a6)
	.loc 1 128 3
	sw	a2,0(a7)
	.loc 1 128 10
	sw	a4,%lo(SPI)(a3)
	.loc 1 129 14
	li	t1,-1073741824
	.loc 1 128 10
	sw	a4,0(a7)
	.loc 1 129 14
	lw	a7,8(t1)
	.loc 1 124 2 is_stmt 1
	.loc 1 125 3
.LVL30:
	.loc 1 125 9
	.loc 1 126 3
	.loc 1 126 10
	.loc 1 127 3
	.loc 1 127 11
	.loc 1 125 11 is_stmt 0
	srli	a5,a5,3
	.loc 1 127 14
	andi	a1,a1,16
	.loc 1 127 5
	andi	a5,a5,2
	.loc 1 127 23 discriminator 1
	snez	a1,a1
	add	a5,a5,a1
.LVL31:
	.loc 1 128 3 is_stmt 1
	.loc 1 128 10
	.loc 1 129 3
	.loc 1 129 14 is_stmt 0
	andi	a7,a7,16
	.loc 1 129 5
	slli	a5,a5,1
.LVL32:
	.loc 1 129 11 is_stmt 1
	.loc 1 129 13 is_stmt 0
	beq	a7,zero,.L33
	.loc 1 129 22 is_stmt 1 discriminator 1
	.loc 1 129 23 is_stmt 0 discriminator 1
	addi	a5,a5,1
.LVL33:
	andi	a5,a5,0xff
.LVL34:
.L33:
	.loc 1 130 3 is_stmt 1
	li	a1,-1073741824
	sw	a2,0(a1)
	.loc 1 130 10
	sw	a4,%lo(SPI)(a3)
	.loc 1 131 14 is_stmt 0
	li	a6,-1073741824
	.loc 1 130 10
	sw	a4,0(a1)
	.loc 1 131 3 is_stmt 1
	.loc 1 131 14 is_stmt 0
	lw	a1,8(a6)
	.loc 1 131 5
	slli	a5,a5,1
.LVL35:
	andi	a5,a5,0xff
.LVL36:
	.loc 1 131 11 is_stmt 1
	.loc 1 131 14 is_stmt 0
	andi	a1,a1,16
	.loc 1 131 13
	beq	a1,zero,.L34
	.loc 1 131 22 is_stmt 1 discriminator 1
	.loc 1 131 23 is_stmt 0 discriminator 1
	addi	a5,a5,1
.LVL37:
	andi	a5,a5,0xff
.LVL38:
.L34:
	.loc 1 132 3 is_stmt 1
	li	a1,-1073741824
	sw	a2,0(a1)
	.loc 1 132 10
	sw	a4,%lo(SPI)(a3)
	.loc 1 133 14 is_stmt 0
	li	a6,-1073741824
	.loc 1 132 10
	sw	a4,0(a1)
	.loc 1 133 3 is_stmt 1
	.loc 1 133 14 is_stmt 0
	lw	a1,8(a6)
	.loc 1 133 5
	slli	a5,a5,1
.LVL39:
	andi	a5,a5,0xff
.LVL40:
	.loc 1 133 11 is_stmt 1
	.loc 1 133 14 is_stmt 0
	andi	a1,a1,16
	.loc 1 133 13
	beq	a1,zero,.L35
	.loc 1 133 22 is_stmt 1 discriminator 1
	.loc 1 133 23 is_stmt 0 discriminator 1
	addi	a5,a5,1
.LVL41:
	andi	a5,a5,0xff
.LVL42:
.L35:
	.loc 1 134 3 is_stmt 1
	li	a1,-1073741824
	sw	a2,0(a1)
	.loc 1 134 10
	sw	a4,%lo(SPI)(a3)
	.loc 1 135 14 is_stmt 0
	li	a6,-1073741824
	.loc 1 134 10
	sw	a4,0(a1)
	.loc 1 135 3 is_stmt 1
	.loc 1 135 14 is_stmt 0
	lw	a1,8(a6)
	.loc 1 135 5
	slli	a5,a5,1
.LVL43:
	andi	a5,a5,0xff
.LVL44:
	.loc 1 135 11 is_stmt 1
	.loc 1 135 14 is_stmt 0
	andi	a1,a1,16
	.loc 1 135 13
	beq	a1,zero,.L36
	.loc 1 135 22 is_stmt 1 discriminator 1
	.loc 1 135 23 is_stmt 0 discriminator 1
	addi	a5,a5,1
.LVL45:
	andi	a5,a5,0xff
.LVL46:
.L36:
	.loc 1 136 3 is_stmt 1
	li	a1,-1073741824
	sw	a2,0(a1)
	.loc 1 136 10
	sw	a4,%lo(SPI)(a3)
	.loc 1 137 14 is_stmt 0
	li	a6,-1073741824
	.loc 1 136 10
	sw	a4,0(a1)
	.loc 1 137 3 is_stmt 1
	.loc 1 137 14 is_stmt 0
	lw	a1,8(a6)
	.loc 1 137 5
	slli	a5,a5,1
.LVL47:
	andi	a5,a5,0xff
.LVL48:
	.loc 1 137 11 is_stmt 1
	.loc 1 137 14 is_stmt 0
	andi	a1,a1,16
	.loc 1 137 13
	beq	a1,zero,.L37
	.loc 1 137 22 is_stmt 1 discriminator 1
	.loc 1 137 23 is_stmt 0 discriminator 1
	addi	a5,a5,1
.LVL49:
	andi	a5,a5,0xff
.LVL50:
.L37:
	.loc 1 138 3 is_stmt 1
	li	a1,-1073741824
	sw	a2,0(a1)
	.loc 1 138 10
	sw	a4,%lo(SPI)(a3)
	.loc 1 139 14 is_stmt 0
	li	a6,-1073741824
	.loc 1 138 10
	sw	a4,0(a1)
	.loc 1 139 3 is_stmt 1
	.loc 1 139 14 is_stmt 0
	lw	a1,8(a6)
	.loc 1 139 5
	slli	a5,a5,1
.LVL51:
	andi	a5,a5,0xff
.LVL52:
	.loc 1 139 11 is_stmt 1
	.loc 1 139 14 is_stmt 0
	andi	a1,a1,16
	.loc 1 139 13
	beq	a1,zero,.L38
	.loc 1 139 22 is_stmt 1 discriminator 1
	.loc 1 139 23 is_stmt 0 discriminator 1
	addi	a5,a5,1
.LVL53:
	andi	a5,a5,0xff
.LVL54:
.L38:
	.loc 1 140 3 is_stmt 1
	li	a1,-1073741824
	sw	a2,0(a1)
	.loc 1 140 10
	sw	a4,%lo(SPI)(a3)
	sw	a4,0(a1)
	.loc 1 141 3
.LVL55:
	.loc 1 141 11 is_stmt 0
	sb	a5,0(a0)
	.loc 1 142 11 is_stmt 1
	.loc 1 124 2
	.loc 1 125 3
.LVL56:
	.loc 1 125 9
	.loc 1 125 12 is_stmt 0
	li	a6,-1073741824
	lw	a5,8(a6)
.LVL57:
	.loc 1 126 3 is_stmt 1
	sw	a2,0(a1)
	.loc 1 126 10
	sw	a4,%lo(SPI)(a3)
	sw	a4,0(a1)
	.loc 1 127 3
	.loc 1 128 3 is_stmt 0
	li	a7,-1073741824
	.loc 1 127 14
	lw	a1,8(a6)
	.loc 1 128 3
	sw	a2,0(a7)
	.loc 1 128 10
	sw	a4,%lo(SPI)(a3)
	.loc 1 129 14
	li	t1,-1073741824
	.loc 1 128 10
	sw	a4,0(a7)
	.loc 1 129 14
	lw	a7,8(t1)
	.loc 1 125 11
	srli	a5,a5,3
.LVL58:
	.loc 1 127 14
	andi	a1,a1,16
	.loc 1 127 23 discriminator 1
	snez	a1,a1
	.loc 1 127 5
	andi	a5,a5,2
.LVL59:
	.loc 1 127 11 is_stmt 1
	.loc 1 127 23 is_stmt 0 discriminator 1
	add	a5,a5,a1
.LVL60:
	.loc 1 128 3 is_stmt 1
	.loc 1 128 10
	.loc 1 129 3
	.loc 1 129 14 is_stmt 0
	andi	a1,a7,16
	.loc 1 129 5
	slli	a5,a5,1
.LVL61:
	.loc 1 129 11 is_stmt 1
	.loc 1 129 13 is_stmt 0
	beq	a1,zero,.L40
	.loc 1 129 22 is_stmt 1 discriminator 1
	.loc 1 129 23 is_stmt 0 discriminator 1
	addi	a5,a5,1
.LVL62:
	andi	a5,a5,0xff
.LVL63:
.L40:
	.loc 1 130 3 is_stmt 1
	li	a1,-1073741824
	sw	a2,0(a1)
	.loc 1 130 10
	sw	a4,%lo(SPI)(a3)
	.loc 1 131 14 is_stmt 0
	li	a6,-1073741824
	.loc 1 130 10
	sw	a4,0(a1)
	.loc 1 131 3 is_stmt 1
	.loc 1 131 14 is_stmt 0
	lw	a1,8(a6)
	.loc 1 131 5
	slli	a5,a5,1
.LVL64:
	andi	a5,a5,0xff
.LVL65:
	.loc 1 131 11 is_stmt 1
	.loc 1 131 14 is_stmt 0
	andi	a1,a1,16
	.loc 1 131 13
	beq	a1,zero,.L41
	.loc 1 131 22 is_stmt 1 discriminator 1
	.loc 1 131 23 is_stmt 0 discriminator 1
	addi	a5,a5,1
.LVL66:
	andi	a5,a5,0xff
.LVL67:
.L41:
	.loc 1 132 3 is_stmt 1
	li	a1,-1073741824
	sw	a2,0(a1)
	.loc 1 132 10
	sw	a4,%lo(SPI)(a3)
	.loc 1 133 14 is_stmt 0
	li	a6,-1073741824
	.loc 1 132 10
	sw	a4,0(a1)
	.loc 1 133 3 is_stmt 1
	.loc 1 133 14 is_stmt 0
	lw	a1,8(a6)
	.loc 1 133 5
	slli	a5,a5,1
.LVL68:
	andi	a5,a5,0xff
.LVL69:
	.loc 1 133 11 is_stmt 1
	.loc 1 133 14 is_stmt 0
	andi	a1,a1,16
	.loc 1 133 13
	beq	a1,zero,.L42
	.loc 1 133 22 is_stmt 1 discriminator 1
	.loc 1 133 23 is_stmt 0 discriminator 1
	addi	a5,a5,1
.LVL70:
	andi	a5,a5,0xff
.LVL71:
.L42:
	.loc 1 134 3 is_stmt 1
	li	a1,-1073741824
	sw	a2,0(a1)
	.loc 1 134 10
	sw	a4,%lo(SPI)(a3)
	.loc 1 135 14 is_stmt 0
	li	a6,-1073741824
	.loc 1 134 10
	sw	a4,0(a1)
	.loc 1 135 3 is_stmt 1
	.loc 1 135 14 is_stmt 0
	lw	a1,8(a6)
	.loc 1 135 5
	slli	a5,a5,1
.LVL72:
	andi	a5,a5,0xff
.LVL73:
	.loc 1 135 11 is_stmt 1
	.loc 1 135 14 is_stmt 0
	andi	a1,a1,16
	.loc 1 135 13
	beq	a1,zero,.L43
	.loc 1 135 22 is_stmt 1 discriminator 1
	.loc 1 135 23 is_stmt 0 discriminator 1
	addi	a5,a5,1
.LVL74:
	andi	a5,a5,0xff
.LVL75:
.L43:
	.loc 1 136 3 is_stmt 1
	li	a1,-1073741824
	sw	a2,0(a1)
	.loc 1 136 10
	sw	a4,%lo(SPI)(a3)
	.loc 1 137 14 is_stmt 0
	li	a6,-1073741824
	.loc 1 136 10
	sw	a4,0(a1)
	.loc 1 137 3 is_stmt 1
	.loc 1 137 14 is_stmt 0
	lw	a1,8(a6)
	.loc 1 137 5
	slli	a5,a5,1
.LVL76:
	andi	a5,a5,0xff
.LVL77:
	.loc 1 137 11 is_stmt 1
	.loc 1 137 14 is_stmt 0
	andi	a1,a1,16
	.loc 1 137 13
	beq	a1,zero,.L44
	.loc 1 137 22 is_stmt 1 discriminator 1
	.loc 1 137 23 is_stmt 0 discriminator 1
	addi	a5,a5,1
.LVL78:
	andi	a5,a5,0xff
.LVL79:
.L44:
	.loc 1 138 3 is_stmt 1
	li	a1,-1073741824
	sw	a2,0(a1)
	.loc 1 138 10
	sw	a4,%lo(SPI)(a3)
	.loc 1 139 14 is_stmt 0
	li	a6,-1073741824
	.loc 1 138 10
	sw	a4,0(a1)
	.loc 1 139 3 is_stmt 1
	.loc 1 139 14 is_stmt 0
	lw	a1,8(a6)
	.loc 1 139 5
	slli	a5,a5,1
.LVL80:
	andi	a5,a5,0xff
.LVL81:
	.loc 1 139 11 is_stmt 1
	.loc 1 139 14 is_stmt 0
	andi	a1,a1,16
	.loc 1 139 13
	beq	a1,zero,.L45
	.loc 1 139 22 is_stmt 1 discriminator 1
	.loc 1 139 23 is_stmt 0 discriminator 1
	addi	a5,a5,1
.LVL82:
	andi	a5,a5,0xff
.LVL83:
.L45:
	.loc 1 140 3 is_stmt 1
	li	a1,-1073741824
	sw	a2,0(a1)
	.loc 1 140 10
	sw	a4,%lo(SPI)(a3)
	sw	a4,0(a1)
	.loc 1 141 3
.LVL84:
	.loc 1 141 11 is_stmt 0
	sb	a5,1(a0)
	.loc 1 142 11 is_stmt 1
.LVL85:
	.loc 1 143 1 is_stmt 0
	ret
	.cfi_endproc
.LFE18:
	.size	rcvr_mmc.constprop.1, .-rcvr_mmc.constprop.1
	.align	2
	.type	xmit_datablock, @function
xmit_datablock:
.LFB9:
	.loc 1 245 3 is_stmt 1
	.cfi_startproc
.LVL86:
	.loc 1 246 2
	.loc 1 248 2
.LBB72:
.LBB73:
	.loc 1 180 2
	.loc 1 181 2
	.loc 1 183 2
	.loc 1 183 19 discriminator 1
.LBE73:
.LBE72:
	.loc 1 245 3 is_stmt 0
	addi	sp,sp,-48
	.cfi_def_cfa_offset 48
	sw	s0,40(sp)
	sw	s3,28(sp)
	sw	s5,20(sp)
	.cfi_offset 8, -8
	.cfi_offset 19, -20
	.cfi_offset 21, -28
.LBB83:
.LBB80:
	.loc 1 183 11
	li	s0,4096
.LBB74:
.LBB75:
	.loc 1 81 7
	li	s3,-1073479680
	.loc 1 84 5
	li	s5,12288
.LBE75:
.LBE74:
.LBE80:
.LBE83:
	.loc 1 245 3
	sw	s1,36(sp)
	sw	s2,32(sp)
	sw	s4,24(sp)
	sw	ra,44(sp)
	.cfi_offset 9, -12
	.cfi_offset 18, -16
	.cfi_offset 20, -24
	.cfi_offset 1, -4
	.loc 1 245 3
	mv	s1,a0
	mv	s2,a1
.LBB84:
.LBB81:
	.loc 1 183 11
	addi	s0,s0,904
	.loc 1 185 6
	li	s4,255
.LBB78:
.LBB76:
	.loc 1 81 7
	addi	s3,s3,4
	.loc 1 84 5
	addi	s5,s5,-289
.LVL87:
.L91:
.LBE76:
.LBE78:
	.loc 1 184 3 is_stmt 1
	addi	a0,sp,12
	call	rcvr_mmc.constprop.0
.LVL88:
	.loc 1 185 3
	.loc 1 185 6 is_stmt 0
	lbu	a5,12(sp)
	beq	a5,s4,.L89
	.loc 1 186 3 is_stmt 1
.LVL89:
.LBB79:
.LBB77:
	.loc 1 77 2
	.loc 1 78 2
	.loc 1 80 2
	.loc 1 81 2
	.loc 1 81 7 is_stmt 0
	lw	a5,0(s3)
.LVL90:
.L90:
	.loc 1 82 2 is_stmt 1
	.loc 1 83 3
	.loc 1 83 24 is_stmt 0
	lw	a4,0(s3)
.LVL91:
	.loc 1 84 3 is_stmt 1
	.loc 1 83 15 is_stmt 0
	sub	a4,a4,a5
.LVL92:
	.loc 1 84 5
	bleu	a4,s5,.L90
.LVL93:
.LBE77:
.LBE79:
	.loc 1 183 27 is_stmt 1 discriminator 2
	addi	s0,s0,-1
.LVL94:
	.loc 1 183 19 discriminator 1
	bne	s0,zero,.L91
	.loc 1 188 2
.LVL95:
.LBE81:
.LBE84:
	.loc 1 248 28 is_stmt 0 discriminator 1
	li	a0,0
	j	.L88
.LVL96:
.L89:
.LBB85:
.LBB82:
	.loc 1 188 2 is_stmt 1
.LBE82:
.LBE85:
	.loc 1 249 2
.LBB86:
.LBB87:
	.loc 1 101 3 is_stmt 0 discriminator 1
	lui	a6,%hi(SPI)
	lw	a1,%lo(SPI)(a6)
	.loc 1 101 3 discriminator 4
	li	a5,-1073741824
.LBE87:
.LBE86:
	.loc 1 249 7
	sb	s2,12(sp)
	.loc 1 250 2 is_stmt 1
.LVL97:
.LBB89:
.LBB88:
	.loc 1 98 2
	.loc 1 99 2
	.loc 1 100 3
	.loc 1 101 3
	.loc 1 101 3 is_stmt 0 discriminator 1
	ori	a4,a1,64
	.loc 1 101 3 discriminator 4
	sw	a4,0(a5)
	.loc 1 101 24 is_stmt 1 discriminator 4
	andi	a3,a1,-33
	ori	a4,a1,96
	sw	a4,0(a5)
	.loc 1 101 31 discriminator 4
	ori	a4,a3,64
	sw	a4,0(a5)
	.loc 1 102 3
	.loc 1 102 3 is_stmt 0 discriminator 4
	sw	a4,0(a5)
	.loc 1 102 24 is_stmt 1 discriminator 4
	ori	a3,a3,96
	sw	a3,0(a5)
	.loc 1 102 31 discriminator 4
	sw	a4,0(a5)
	.loc 1 103 3
	.loc 1 103 3 is_stmt 0 discriminator 4
	sw	a4,0(a5)
	.loc 1 103 24 is_stmt 1 discriminator 4
	sw	a3,0(a5)
	.loc 1 103 31 discriminator 4
	sw	a4,0(a5)
	.loc 1 104 3
	.loc 1 104 3 is_stmt 0 discriminator 4
	sw	a4,0(a5)
	.loc 1 104 24 is_stmt 1 discriminator 4
	sw	a3,0(a5)
	.loc 1 104 31 discriminator 4
	sw	a4,0(a5)
	.loc 1 105 3
	.loc 1 105 3 is_stmt 0 discriminator 4
	sw	a4,0(a5)
	.loc 1 105 24 is_stmt 1 discriminator 4
	sw	a3,0(a5)
	.loc 1 105 31 discriminator 4
	sw	a4,0(a5)
	.loc 1 106 3
	.loc 1 106 3 is_stmt 0 discriminator 4
	sw	a4,0(a5)
	.loc 1 106 24 is_stmt 1 discriminator 4
	sw	a3,0(a5)
	.loc 1 106 31 discriminator 4
	.loc 1 107 3 is_stmt 0
	srai	a2,s2,1
	.loc 1 106 31 discriminator 4
	sw	a4,0(a5)
	.loc 1 107 3 is_stmt 1
	andi	a5,a2,1
	bne	a5,zero,.L113
	andi	a4,a1,-97
	.loc 1 107 24 is_stmt 0 discriminator 4
	ori	a3,a4,32
.L113:
	.loc 1 107 3 discriminator 4
	li	a5,-1073741824
	sw	a4,0(a5)
	.loc 1 107 24 is_stmt 1 discriminator 4
	sw	a3,0(a5)
	.loc 1 107 31 discriminator 4
	sw	a4,0(a5)
	.loc 1 108 3
	andi	a3,s2,1
	.loc 1 108 3 is_stmt 0 discriminator 2
	andi	a5,a4,-65
	.loc 1 108 3
	beq	a3,zero,.L94
	.loc 1 108 3 discriminator 1
	ori	a5,a4,64
.L94:
	.loc 1 108 3 discriminator 4
	li	a4,-1073741824
	sw	a5,0(a4)
	.loc 1 108 24 is_stmt 1 discriminator 4
	ori	a3,a5,32
	sw	a3,0(a4)
	.loc 1 108 31 discriminator 4
	sw	a5,%lo(SPI)(a6)
	sw	a5,0(a4)
	.loc 1 109 11
.LVL98:
.LBE88:
.LBE89:
	.loc 1 251 2
	.loc 1 251 5 is_stmt 0
	li	a5,253
	.loc 1 258 9
	li	a0,1
	.loc 1 251 5
	bne	s2,a5,.L131
.LVL99:
.L88:
	.loc 1 259 1
	lw	ra,44(sp)
	.cfi_remember_state
	.cfi_restore 1
	lw	s0,40(sp)
	.cfi_restore 8
	lw	s1,36(sp)
	.cfi_restore 9
	lw	s2,32(sp)
	.cfi_restore 18
.LVL100:
	lw	s3,28(sp)
	.cfi_restore 19
	lw	s4,24(sp)
	.cfi_restore 20
	lw	s5,20(sp)
	.cfi_restore 21
	addi	sp,sp,48
	.cfi_def_cfa_offset 0
	jr	ra
.LVL101:
.L131:
	.cfi_restore_state
	addi	a0,s1,512
.LBB90:
.LBB91:
	.loc 1 101 3 discriminator 4
	li	a5,-1073741824
.LVL102:
.L112:
	.loc 1 98 2 is_stmt 1
	.loc 1 99 2
	.loc 1 100 3
	.loc 1 100 5 is_stmt 0
	lbu	a3,0(s1)
	.loc 1 101 3 discriminator 1
	lw	a2,%lo(SPI)(a6)
	.loc 1 100 12
	addi	s1,s1,1
.LVL103:
	.loc 1 101 3 is_stmt 1
	srli	a1,a3,7
	.loc 1 101 3 is_stmt 0 discriminator 2
	andi	a4,a2,-65
	.loc 1 101 3
	beq	a1,zero,.L97
	.loc 1 101 3 discriminator 1
	ori	a4,a2,64
.L97:
	.loc 1 101 3 discriminator 4
	sw	a4,0(a5)
	.loc 1 101 24 is_stmt 1 discriminator 4
	ori	a2,a4,32
	sw	a2,0(a5)
	.loc 1 101 31 discriminator 4
	andi	a1,a4,-33
	.loc 1 102 3 is_stmt 0
	srai	a2,a3,6
	.loc 1 101 31 discriminator 4
	sw	a1,0(a5)
	.loc 1 102 3 is_stmt 1
	andi	a2,a2,1
	.loc 1 102 3 is_stmt 0 discriminator 2
	andi	a4,a4,-97
	.loc 1 102 3
	beq	a2,zero,.L99
	.loc 1 102 3 discriminator 1
	ori	a4,a1,64
.L99:
	.loc 1 102 3 discriminator 4
	sw	a4,0(a5)
	.loc 1 102 24 is_stmt 1 discriminator 4
	ori	a2,a4,32
	sw	a2,0(a5)
	.loc 1 102 31 discriminator 4
	.loc 1 103 3 is_stmt 0
	srai	a2,a3,5
	.loc 1 102 31 discriminator 4
	sw	a4,0(a5)
	.loc 1 103 3 is_stmt 1
	andi	a2,a2,1
	.loc 1 103 3 is_stmt 0 discriminator 2
	andi	a1,a4,-65
	.loc 1 103 3
	beq	a2,zero,.L101
	.loc 1 103 3 discriminator 1
	ori	a1,a4,64
.L101:
	.loc 1 103 3 discriminator 4
	sw	a1,0(a5)
	.loc 1 103 24 is_stmt 1 discriminator 4
	ori	a4,a1,32
	sw	a4,0(a5)
	.loc 1 103 31 discriminator 4
	.loc 1 104 3 is_stmt 0
	srai	a4,a3,4
	.loc 1 103 31 discriminator 4
	sw	a1,0(a5)
	.loc 1 104 3 is_stmt 1
	andi	a4,a4,1
	.loc 1 104 3 is_stmt 0 discriminator 2
	andi	a2,a1,-65
	.loc 1 104 3
	beq	a4,zero,.L103
	.loc 1 104 3 discriminator 1
	ori	a2,a1,64
.L103:
	.loc 1 104 3 discriminator 4
	sw	a2,0(a5)
	.loc 1 104 24 is_stmt 1 discriminator 4
	ori	a4,a2,32
	sw	a4,0(a5)
	.loc 1 104 31 discriminator 4
	.loc 1 105 3 is_stmt 0
	srai	a1,a3,3
	.loc 1 104 31 discriminator 4
	sw	a2,0(a5)
	.loc 1 105 3 is_stmt 1
	andi	a1,a1,1
	.loc 1 105 3 is_stmt 0 discriminator 2
	andi	a4,a2,-65
	.loc 1 105 3
	beq	a1,zero,.L105
	.loc 1 105 3 discriminator 1
	ori	a4,a2,64
.L105:
	.loc 1 105 3 discriminator 4
	sw	a4,0(a5)
	.loc 1 105 24 is_stmt 1 discriminator 4
	ori	a2,a4,32
	sw	a2,0(a5)
	.loc 1 105 31 discriminator 4
	.loc 1 106 3 is_stmt 0
	srai	a1,a3,2
	.loc 1 105 31 discriminator 4
	sw	a4,0(a5)
	.loc 1 106 3 is_stmt 1
	andi	a1,a1,1
	.loc 1 106 3 is_stmt 0 discriminator 2
	andi	a2,a4,-65
	.loc 1 106 3
	beq	a1,zero,.L107
	.loc 1 106 3 discriminator 1
	ori	a2,a4,64
.L107:
	.loc 1 106 3 discriminator 4
	sw	a2,0(a5)
	.loc 1 106 24 is_stmt 1 discriminator 4
	ori	a4,a2,32
	sw	a4,0(a5)
	.loc 1 106 31 discriminator 4
	.loc 1 107 3 is_stmt 0
	srai	a1,a3,1
	.loc 1 106 31 discriminator 4
	sw	a2,0(a5)
	.loc 1 107 3 is_stmt 1
	andi	a1,a1,1
	.loc 1 107 3 is_stmt 0 discriminator 2
	andi	a4,a2,-65
	.loc 1 107 3
	beq	a1,zero,.L109
	.loc 1 107 3 discriminator 1
	ori	a4,a2,64
.L109:
	.loc 1 107 3 discriminator 4
	sw	a4,0(a5)
	.loc 1 107 24 is_stmt 1 discriminator 4
	ori	a2,a4,32
	sw	a2,0(a5)
	.loc 1 107 31 discriminator 4
	sw	a4,0(a5)
	.loc 1 108 3
	andi	a3,a3,1
.LVL104:
	.loc 1 108 3 is_stmt 0 discriminator 2
	andi	a2,a4,-65
	.loc 1 108 3
	beq	a3,zero,.L111
	.loc 1 108 3 discriminator 1
	ori	a2,a4,64
.L111:
	.loc 1 108 3 discriminator 4
	sw	a2,0(a5)
	.loc 1 108 24 is_stmt 1 discriminator 4
	ori	a4,a2,32
	sw	a4,0(a5)
	.loc 1 108 31 discriminator 4
	sw	a2,%lo(SPI)(a6)
	sw	a2,0(a5)
	.loc 1 109 11
	bne	s1,a0,.L112
.LVL105:
.LBE91:
.LBE90:
	.loc 1 253 3
	addi	a0,sp,12
.LVL106:
	call	rcvr_mmc.constprop.1
.LVL107:
	.loc 1 254 3
	addi	a0,sp,12
	call	rcvr_mmc.constprop.0
.LVL108:
	.loc 1 255 3
	.loc 1 255 6 is_stmt 0
	lbu	a0,12(sp)
	andi	a0,a0,31
	addi	a0,a0,-5
	seqz	a0,a0
	j	.L88
	.cfi_endproc
.LFE9:
	.size	xmit_datablock, .-xmit_datablock
	.align	2
	.type	send_cmd, @function
send_cmd:
.LFB10:
	.loc 1 268 3 is_stmt 1
	.cfi_startproc
.LVL109:
	.loc 1 269 2
	.loc 1 271 2
	.loc 1 268 3 is_stmt 0
	addi	sp,sp,-64
	.cfi_def_cfa_offset 64
	.loc 1 271 5
	slli	a5,a0,24
	.loc 1 268 3
	sw	s2,48(sp)
	sw	s6,32(sp)
	sw	ra,60(sp)
	.loc 1 271 5
	srai	a5,a5,24
	.cfi_offset 18, -16
	.cfi_offset 22, -32
	.cfi_offset 1, -4
	.loc 1 268 3
	mv	s2,a0
	mv	s6,a1
	.loc 1 271 5
	blt	a5,zero,.L184
	sw	s0,56(sp)
	sw	s3,44(sp)
	sw	s4,40(sp)
	sw	s7,28(sp)
.LVL110:
	.cfi_offset 8, -8
	.cfi_offset 19, -20
	.cfi_offset 20, -24
	.cfi_offset 23, -36
.L133:
	.loc 1 277 2 is_stmt 1
.LBB106:
.LBB107:
	.loc 1 196 2 is_stmt 0
	lui	s4,%hi(SPI)
.LBE107:
.LBE106:
	.loc 1 277 5
	li	a4,12
.LBB110:
.LBB108:
	.loc 1 196 2
	lw	a5,%lo(SPI)(s4)
.LBE108:
.LBE110:
	.loc 1 277 5
	bne	s2,a4,.L185
	.loc 1 283 2 is_stmt 1
	.loc 1 284 2
	.loc 1 285 22 is_stmt 0
	srli	a4,s6,16
	.loc 1 286 22
	srli	a3,s6,8
	.loc 1 284 11
	srli	a1,s6,24
	.loc 1 285 2 is_stmt 1
	.loc 1 285 11 is_stmt 0
	andi	a4,a4,0xff
	.loc 1 286 2 is_stmt 1
	.loc 1 286 11 is_stmt 0
	andi	a3,a3,0xff
	.loc 1 287 2 is_stmt 1
	.loc 1 287 11 is_stmt 0
	andi	s6,s6,0xff
.LVL111:
	.loc 1 288 2 is_stmt 1
	.loc 1 289 2
	.loc 1 287 11 is_stmt 0
	li	a5,76
	li	a2,1
	addi	s3,sp,7
	addi	s7,sp,8
.L140:
	.loc 1 283 9
	slli	a1,a1,8
	slli	a4,a4,16
	or	a5,a5,a1
	slli	a3,a3,24
	or	a5,a5,a4
	.loc 1 287 9
	slli	a2,a2,8
	.loc 1 283 9
	or	a5,a5,a3
	.loc 1 287 9
	or	s6,s6,a2
	.loc 1 283 9
	sw	a5,8(sp)
.LVL112:
	.loc 1 291 2 is_stmt 1
	.loc 1 287 9 is_stmt 0
	sh	s6,12(sp)
	.loc 1 292 2 is_stmt 1
.LVL113:
	.loc 1 287 9 is_stmt 0
	mv	a0,s7
	addi	a6,sp,14
.LBB111:
.LBB112:
	.loc 1 101 3 discriminator 4
	li	a5,-1073741824
.LVL114:
.L157:
	.loc 1 98 2 is_stmt 1
	.loc 1 99 2
	.loc 1 100 3
	.loc 1 100 5 is_stmt 0
	lbu	a3,0(a0)
	.loc 1 101 3 discriminator 1
	lw	a2,%lo(SPI)(s4)
	.loc 1 100 12
	addi	a0,a0,1
.LVL115:
	.loc 1 101 3 is_stmt 1
	srli	a1,a3,7
	.loc 1 101 3 is_stmt 0 discriminator 2
	andi	a4,a2,-65
	.loc 1 101 3
	beq	a1,zero,.L142
	.loc 1 101 3 discriminator 1
	ori	a4,a2,64
.L142:
	.loc 1 101 3 discriminator 4
	sw	a4,0(a5)
	.loc 1 101 24 is_stmt 1 discriminator 4
	ori	a2,a4,32
	sw	a2,0(a5)
	.loc 1 101 31 discriminator 4
	andi	a1,a4,-33
	.loc 1 102 3 is_stmt 0
	srai	a2,a3,6
	.loc 1 101 31 discriminator 4
	sw	a1,0(a5)
	.loc 1 102 3 is_stmt 1
	andi	a2,a2,1
	.loc 1 102 3 is_stmt 0 discriminator 2
	andi	a4,a4,-97
	.loc 1 102 3
	beq	a2,zero,.L144
	.loc 1 102 3 discriminator 1
	ori	a4,a1,64
.L144:
	.loc 1 102 3 discriminator 4
	sw	a4,0(a5)
	.loc 1 102 24 is_stmt 1 discriminator 4
	ori	a2,a4,32
	sw	a2,0(a5)
	.loc 1 102 31 discriminator 4
	.loc 1 103 3 is_stmt 0
	srai	a2,a3,5
	.loc 1 102 31 discriminator 4
	sw	a4,0(a5)
	.loc 1 103 3 is_stmt 1
	andi	a2,a2,1
	.loc 1 103 3 is_stmt 0 discriminator 2
	andi	a1,a4,-65
	.loc 1 103 3
	beq	a2,zero,.L146
	.loc 1 103 3 discriminator 1
	ori	a1,a4,64
.L146:
	.loc 1 103 3 discriminator 4
	sw	a1,0(a5)
	.loc 1 103 24 is_stmt 1 discriminator 4
	ori	a4,a1,32
	sw	a4,0(a5)
	.loc 1 103 31 discriminator 4
	.loc 1 104 3 is_stmt 0
	srai	a4,a3,4
	.loc 1 103 31 discriminator 4
	sw	a1,0(a5)
	.loc 1 104 3 is_stmt 1
	andi	a4,a4,1
	.loc 1 104 3 is_stmt 0 discriminator 2
	andi	a2,a1,-65
	.loc 1 104 3
	beq	a4,zero,.L148
	.loc 1 104 3 discriminator 1
	ori	a2,a1,64
.L148:
	.loc 1 104 3 discriminator 4
	sw	a2,0(a5)
	.loc 1 104 24 is_stmt 1 discriminator 4
	ori	a4,a2,32
	sw	a4,0(a5)
	.loc 1 104 31 discriminator 4
	.loc 1 105 3 is_stmt 0
	srai	a1,a3,3
	.loc 1 104 31 discriminator 4
	sw	a2,0(a5)
	.loc 1 105 3 is_stmt 1
	andi	a1,a1,1
	.loc 1 105 3 is_stmt 0 discriminator 2
	andi	a4,a2,-65
	.loc 1 105 3
	beq	a1,zero,.L150
	.loc 1 105 3 discriminator 1
	ori	a4,a2,64
.L150:
	.loc 1 105 3 discriminator 4
	sw	a4,0(a5)
	.loc 1 105 24 is_stmt 1 discriminator 4
	ori	a2,a4,32
	sw	a2,0(a5)
	.loc 1 105 31 discriminator 4
	.loc 1 106 3 is_stmt 0
	srai	a1,a3,2
	.loc 1 105 31 discriminator 4
	sw	a4,0(a5)
	.loc 1 106 3 is_stmt 1
	andi	a1,a1,1
	.loc 1 106 3 is_stmt 0 discriminator 2
	andi	a2,a4,-65
	.loc 1 106 3
	beq	a1,zero,.L152
	.loc 1 106 3 discriminator 1
	ori	a2,a4,64
.L152:
	.loc 1 106 3 discriminator 4
	sw	a2,0(a5)
	.loc 1 106 24 is_stmt 1 discriminator 4
	ori	a4,a2,32
	sw	a4,0(a5)
	.loc 1 106 31 discriminator 4
	.loc 1 107 3 is_stmt 0
	srai	a1,a3,1
	.loc 1 106 31 discriminator 4
	sw	a2,0(a5)
	.loc 1 107 3 is_stmt 1
	andi	a1,a1,1
	.loc 1 107 3 is_stmt 0 discriminator 2
	andi	a4,a2,-65
	.loc 1 107 3
	beq	a1,zero,.L154
	.loc 1 107 3 discriminator 1
	ori	a4,a2,64
.L154:
	.loc 1 107 3 discriminator 4
	sw	a4,0(a5)
	.loc 1 107 24 is_stmt 1 discriminator 4
	ori	a2,a4,32
	sw	a2,0(a5)
	.loc 1 107 31 discriminator 4
	sw	a4,0(a5)
	.loc 1 108 3
	andi	a3,a3,1
.LVL116:
	.loc 1 108 3 is_stmt 0 discriminator 2
	andi	a2,a4,-65
	.loc 1 108 3
	beq	a3,zero,.L156
	.loc 1 108 3 discriminator 1
	ori	a2,a4,64
.L156:
	.loc 1 108 3 discriminator 4
	sw	a2,0(a5)
	.loc 1 108 24 is_stmt 1 discriminator 4
	ori	a4,a2,32
	sw	a4,0(a5)
	.loc 1 108 31 discriminator 4
	sw	a2,%lo(SPI)(s4)
	sw	a2,0(a5)
	.loc 1 109 11
	bne	a0,a6,.L157
.LVL117:
.LBE112:
.LBE111:
	.loc 1 295 2
	.loc 1 295 5 is_stmt 0
	li	a5,12
	beq	s2,a5,.L186
.L158:
	.loc 1 287 9
	li	s0,10
.LVL118:
.L159:
	.loc 1 297 2 is_stmt 1
	.loc 1 298 3
	mv	a0,s3
	call	rcvr_mmc.constprop.0
.LVL119:
	.loc 1 299 20 discriminator 2
	.loc 1 299 9 is_stmt 0 discriminator 2
	lbu	a0,7(sp)
	.loc 1 299 20 discriminator 1
	addi	s0,s0,-1
	andi	s0,s0,0xff
	.loc 1 299 20 discriminator 2
	slli	a5,a0,24
	srai	a5,a5,24
	bge	a5,zero,.L182
	.loc 1 299 20 discriminator 1
	bne	s0,zero,.L159
.L182:
	lw	s0,56(sp)
	.cfi_restore 8
	lw	s3,44(sp)
	.cfi_restore 19
	lw	s4,40(sp)
	.cfi_restore 20
	lw	s7,28(sp)
	.cfi_restore 23
.LVL120:
.L163:
	.loc 1 302 1
	lw	ra,60(sp)
	.cfi_restore 1
	lw	s2,48(sp)
	.cfi_restore 18
	lw	s6,32(sp)
	.cfi_restore 22
	addi	sp,sp,64
	.cfi_def_cfa_offset 0
	jr	ra
.LVL121:
.L185:
	.cfi_def_cfa_offset 64
	.cfi_offset 1, -4
	.cfi_offset 8, -8
	.cfi_offset 18, -16
	.cfi_offset 19, -20
	.cfi_offset 20, -24
	.cfi_offset 22, -32
	.cfi_offset 23, -36
	sw	s1,52(sp)
	sw	s5,36(sp)
	sw	s8,24(sp)
	.loc 1 278 3 is_stmt 1
.LBB113:
.LBB109:
	.loc 1 196 2
	li	a4,-1073741824
	ori	a3,a5,128
	sw	a3,0(a4)
.LBE109:
.LBE113:
	.loc 1 279 3
.LBB114:
.LBB115:
	.loc 1 205 2
	.loc 1 207 2
	andi	a5,a5,-129
	sw	a5,%lo(SPI)(s4)
	.loc 1 208 2 is_stmt 0
	addi	s3,sp,7
	.loc 1 207 2
	sw	a5,0(a4)
	.loc 1 208 2 is_stmt 1
	mv	a0,s3
	.cfi_offset 9, -12
	.cfi_offset 21, -28
	.cfi_offset 24, -40
.LBB116:
.LBB117:
	.loc 1 183 11 is_stmt 0
	li	s5,4096
.LBB118:
.LBB119:
	.loc 1 81 7
	li	s0,-1073479680
	.loc 1 84 5
	li	s1,12288
.LBE119:
.LBE118:
.LBE117:
.LBE116:
	.loc 1 208 2
	call	rcvr_mmc.constprop.0
.LVL122:
	.loc 1 209 2 is_stmt 1
.LBB126:
.LBB124:
	.loc 1 180 2
	.loc 1 181 2
	.loc 1 183 2
	.loc 1 183 19 discriminator 1
	.loc 1 183 11 is_stmt 0
	addi	s5,s5,904
	addi	s7,sp,8
	.loc 1 185 6
	li	s8,255
.LBB122:
.LBB120:
	.loc 1 81 7
	addi	s0,s0,4
	.loc 1 84 5
	addi	s1,s1,-289
.LVL123:
.L138:
.LBE120:
.LBE122:
	.loc 1 184 3 is_stmt 1
	mv	a0,s7
	call	rcvr_mmc.constprop.0
.LVL124:
	.loc 1 185 3
	.loc 1 185 6 is_stmt 0
	lbu	a5,8(sp)
	beq	a5,s8,.L136
	.loc 1 186 3 is_stmt 1
.LVL125:
.LBB123:
.LBB121:
	.loc 1 77 2
	.loc 1 78 2
	.loc 1 80 2
	.loc 1 81 2
	.loc 1 81 7 is_stmt 0
	lw	a4,0(s0)
.LVL126:
.L137:
	.loc 1 82 2 is_stmt 1
	.loc 1 83 3
	.loc 1 83 24 is_stmt 0
	lw	a5,0(s0)
.LVL127:
	.loc 1 84 3 is_stmt 1
	.loc 1 83 15 is_stmt 0
	sub	a5,a5,a4
.LVL128:
	.loc 1 84 5
	bleu	a5,s1,.L137
.LVL129:
.LBE121:
.LBE123:
	.loc 1 183 27 is_stmt 1 discriminator 2
	addi	s5,s5,-1
.LVL130:
	.loc 1 183 19 discriminator 1
	bne	s5,zero,.L138
	.loc 1 188 2
.LVL131:
.LBE124:
.LBE126:
.LBB127:
.LBB128:
	.loc 1 210 2
.LBB129:
.LBB130:
	.loc 1 196 2
	lw	a5,%lo(SPI)(s4)
	li	a4,-1073741824
.LBE130:
.LBE129:
.LBE128:
.LBE127:
.LBE115:
.LBE114:
	.loc 1 279 25 is_stmt 0 discriminator 1
	li	a0,255
.LBB145:
.LBB142:
.LBB139:
.LBB137:
.LBB134:
.LBB131:
	.loc 1 196 2
	ori	a5,a5,128
	sw	a5,%lo(SPI)(s4)
	sw	a5,0(a4)
.LBE131:
.LBE134:
	.loc 1 211 2 is_stmt 1
.LBB135:
.LBB132:
	.loc 1 196 2 is_stmt 0
	lw	s0,56(sp)
	.cfi_remember_state
	.cfi_restore 8
.LBE132:
.LBE135:
.LBE137:
.LBE139:
.LBE142:
.LBE145:
	.loc 1 302 1
	lw	ra,60(sp)
	.cfi_restore 1
.LBB146:
.LBB143:
.LBB140:
.LBB138:
.LBB136:
.LBB133:
	.loc 1 196 2
	lw	s1,52(sp)
	.cfi_restore 9
	lw	s3,44(sp)
	.cfi_restore 19
	lw	s4,40(sp)
	.cfi_restore 20
	lw	s5,36(sp)
	.cfi_restore 21
	lw	s7,28(sp)
	.cfi_restore 23
	lw	s8,24(sp)
	.cfi_restore 24
.LBE133:
.LBE136:
.LBE138:
.LBE140:
.LBE143:
.LBE146:
	.loc 1 302 1
	lw	s2,48(sp)
	.cfi_restore 18
.LVL132:
	lw	s6,32(sp)
	.cfi_restore 22
.LVL133:
	addi	sp,sp,64
	.cfi_def_cfa_offset 0
	jr	ra
.LVL134:
.L136:
	.cfi_restore_state
.LBB147:
.LBB144:
.LBB141:
.LBB125:
	.loc 1 188 2 is_stmt 1
.LBE125:
.LBE141:
.LBE144:
.LBE147:
	.loc 1 283 2
	.loc 1 284 2
	.loc 1 285 22 is_stmt 0
	srli	a4,s6,16
	.loc 1 286 22
	srli	a3,s6,8
	.loc 1 284 11
	srli	a1,s6,24
	.loc 1 285 2 is_stmt 1
	.loc 1 285 11 is_stmt 0
	andi	a4,a4,0xff
	.loc 1 286 2 is_stmt 1
	.loc 1 286 11 is_stmt 0
	andi	a3,a3,0xff
	.loc 1 287 2 is_stmt 1
	.loc 1 287 11 is_stmt 0
	andi	s6,s6,0xff
.LVL135:
	.loc 1 288 2 is_stmt 1
	.loc 1 289 2
	li	a5,64
	.loc 1 289 21 is_stmt 0 discriminator 1
	li	a2,149
	.loc 1 289 5
	bne	s2,zero,.L187
.L183:
	lw	s1,52(sp)
	.cfi_restore 9
	lw	s5,36(sp)
	.cfi_restore 21
	lw	s8,24(sp)
	.cfi_restore 24
	j	.L140
.LVL136:
.L184:
	.cfi_restore 8
	.cfi_restore 19
	.cfi_restore 20
	.cfi_restore 23
	.loc 1 272 3 is_stmt 1
	.loc 1 273 3
	.loc 1 273 7 is_stmt 0
	li	a1,0
.LVL137:
	li	a0,55
	call	send_cmd
.LVL138:
	.loc 1 274 3 is_stmt 1
	.loc 1 274 6 is_stmt 0
	li	a5,1
	bgtu	a0,a5,.L163
	sw	s0,56(sp)
	sw	s3,44(sp)
	sw	s4,40(sp)
	sw	s7,28(sp)
	.cfi_offset 8, -8
	.cfi_offset 19, -20
	.cfi_offset 20, -24
	.cfi_offset 23, -36
	.loc 1 272 7
	andi	s2,s2,127
.LVL139:
	j	.L133
.LVL140:
.L186:
	.loc 1 295 20 is_stmt 1 discriminator 1
	mv	a0,s3
	call	rcvr_mmc.constprop.0
.LVL141:
	j	.L158
.LVL142:
.L187:
	.cfi_offset 9, -12
	.cfi_offset 21, -28
	.cfi_offset 24, -40
	.loc 1 290 2
	.loc 1 290 5 is_stmt 0
	li	a0,8
	li	a5,72
	.loc 1 290 21 discriminator 1
	li	a2,135
	.loc 1 290 5
	beq	s2,a0,.L183
	.loc 1 283 9
	lw	s1,52(sp)
	.cfi_restore 9
	lw	s5,36(sp)
	.cfi_restore 21
	lw	s8,24(sp)
	.cfi_restore 24
	ori	a5,s2,64
	li	a2,1
	j	.L140
	.cfi_endproc
.LFE10:
	.size	send_cmd, .-send_cmd
	.align	2
	.globl	disk_status
	.type	disk_status, @function
disk_status:
.LFB11:
	.loc 1 316 3 is_stmt 1
	.cfi_startproc
.LVL143:
	.loc 1 317 2
	.loc 1 317 5 is_stmt 0
	bne	a0,zero,.L190
	.loc 1 318 2 is_stmt 1
	.loc 1 318 9 is_stmt 0
	lui	a5,%hi(Stat)
	lbu	a0,%lo(Stat)(a5)
.LVL144:
	ret
.LVL145:
.L190:
	.loc 1 317 18 discriminator 1
	li	a0,1
.LVL146:
	.loc 1 319 1
	ret
	.cfi_endproc
.LFE11:
	.size	disk_status, .-disk_status
	.align	2
	.globl	disk_initialize
	.type	disk_initialize, @function
disk_initialize:
.LFB12:
	.loc 1 327 3 is_stmt 1
	.cfi_startproc
.LVL147:
	.loc 1 328 2
	.loc 1 329 2
	.loc 1 330 2
	.loc 1 332 2
	.loc 1 327 3 is_stmt 0
	addi	sp,sp,-48
	.cfi_def_cfa_offset 48
	sw	s0,40(sp)
	.cfi_offset 8, -8
	.loc 1 332 2
	lui	s0,%hi(SPI)
	lw	a1,%lo(SPI)(s0)
	.loc 1 327 3
	sw	ra,44(sp)
	.loc 1 332 2
	li	a5,-1073741824
	ori	a4,a1,256
	sw	a4,0(a5)
	.loc 1 333 2 is_stmt 1
	ori	a4,a1,384
	sw	a4,0(a5)
	.loc 1 334 2
	ori	a6,a1,448
	sw	a6,%lo(SPI)(s0)
	sw	a6,0(a5)
	.loc 1 336 2
	.cfi_offset 1, -4
	.loc 1 336 5 is_stmt 0
	bne	a0,zero,.L244
.LBB226:
.LBB227:
	.loc 1 81 7
	li	a4,-1073479680
	sw	s1,36(sp)
	sw	s4,24(sp)
.LBE227:
.LBE226:
	.loc 1 338 2 is_stmt 1
.LVL148:
.LBB229:
.LBB228:
	.loc 1 77 2
	.loc 1 78 2
	.loc 1 80 2
	.loc 1 81 2
	.loc 1 84 5 is_stmt 0
	li	a3,1200128
	.loc 1 81 7
	lw	a2,4(a4)
.LVL149:
	.loc 1 84 5
	addi	a3,a3,-129
	.loc 1 81 7
	addi	a4,a4,4
	.cfi_offset 9, -12
	.cfi_offset 20, -24
.L193:
	.loc 1 82 2 is_stmt 1
	.loc 1 83 3
	.loc 1 83 24 is_stmt 0
	lw	a5,0(a4)
.LVL150:
	.loc 1 84 3 is_stmt 1
	.loc 1 83 15 is_stmt 0
	sub	a5,a5,a2
.LVL151:
	.loc 1 84 5
	bleu	a5,a3,.L193
.LVL152:
.LBE228:
.LBE229:
	.loc 1 339 2 is_stmt 1
	li	a3,-1073741824
	.loc 1 340 2 is_stmt 0
	andi	a4,a1,-33
	ori	a4,a4,448
	.loc 1 339 2
	sw	a6,0(a3)
	.loc 1 340 2 is_stmt 1
	sw	a4,%lo(SPI)(s0)
.LBB230:
.LBB231:
	.loc 1 154 13 is_stmt 0
	li	a1,-1073741824
.LBB232:
.LBB233:
	.loc 1 81 7
	li	a5,-1073479680
.LBE233:
.LBE232:
.LBE231:
.LBE230:
	.loc 1 340 2
	sw	a4,0(a3)
	.loc 1 342 2 is_stmt 1
.LVL153:
	.loc 1 342 15 discriminator 2
	.loc 1 340 2 is_stmt 0
	li	s1,10
.LBB270:
.LBB268:
	.loc 1 151 2
	li	a2,-1073741824
	.loc 1 154 13
	addi	a1,a1,8
.LBB236:
.LBB234:
	.loc 1 81 7
	addi	a5,a5,4
	.loc 1 84 5
	li	a4,119
.LVL154:
.L210:
.LBE234:
.LBE236:
.LBE268:
.LBE270:
	.loc 1 342 23 is_stmt 1 discriminator 3
.LBB271:
.LBB269:
	.loc 1 149 2
	.loc 1 151 2
	lw	a6,%lo(SPI)(s0)
	ori	a3,a6,64
	sw	a3,%lo(SPI)(s0)
	sw	a3,0(a2)
	.loc 1 153 2
	.loc 1 154 3
.LVL155:
	.loc 1 154 9
	.loc 1 155 3 is_stmt 0
	ori	a3,a6,96
	.loc 1 154 13
	lw	a0,0(a1)
.LVL156:
	.loc 1 155 3 is_stmt 1
	sw	a3,%lo(SPI)(s0)
	sw	a3,0(a2)
	.loc 1 155 10
.LVL157:
.LBB237:
.LBB235:
	.loc 1 77 2
	.loc 1 78 2
	.loc 1 80 2
	.loc 1 81 2
	.loc 1 81 7 is_stmt 0
	lw	a0,0(a5)
.LVL158:
.L194:
	.loc 1 82 2 is_stmt 1
	.loc 1 83 3
	.loc 1 83 24 is_stmt 0
	lw	a3,0(a5)
.LVL159:
	.loc 1 84 3 is_stmt 1
	.loc 1 83 15 is_stmt 0
	sub	a3,a3,a0
.LVL160:
	.loc 1 84 5
	bleu	a3,a4,.L194
.LVL161:
.LBE235:
.LBE237:
	.loc 1 155 20 is_stmt 1 discriminator 1
	andi	a6,a6,-33
	ori	a0,a6,64
	sw	a0,%lo(SPI)(s0)
	sw	a0,0(a2)
	.loc 1 155 27 discriminator 1
.LVL162:
.LBB238:
.LBB239:
	.loc 1 77 2
	.loc 1 78 2
	.loc 1 80 2
	.loc 1 81 2
	.loc 1 81 7 is_stmt 0
	lw	a7,0(a5)
.LVL163:
.L195:
	.loc 1 82 2 is_stmt 1
	.loc 1 83 3
	.loc 1 83 24 is_stmt 0
	lw	a3,0(a5)
.LVL164:
	.loc 1 84 3 is_stmt 1
	.loc 1 83 15 is_stmt 0
	sub	a3,a3,a7
.LVL165:
	.loc 1 84 5
	bleu	a3,a4,.L195
.LVL166:
.LBE239:
.LBE238:
	.loc 1 156 3 is_stmt 1
	.loc 1 156 11
	.loc 1 157 3 is_stmt 0
	ori	a6,a6,96
	.loc 1 156 15
	lw	a3,0(a1)
	.loc 1 156 23 is_stmt 1 discriminator 1
.LVL167:
	.loc 1 157 3
	sw	a6,%lo(SPI)(s0)
	sw	a6,0(a2)
	.loc 1 157 10
.LVL168:
.LBB240:
.LBB241:
	.loc 1 77 2
	.loc 1 78 2
	.loc 1 80 2
	.loc 1 81 2
	.loc 1 81 7 is_stmt 0
	lw	a7,0(a5)
.LVL169:
.L196:
	.loc 1 82 2 is_stmt 1
	.loc 1 83 3
	.loc 1 83 24 is_stmt 0
	lw	a3,0(a5)
.LVL170:
	.loc 1 84 3 is_stmt 1
	.loc 1 83 15 is_stmt 0
	sub	a3,a3,a7
.LVL171:
	.loc 1 84 5
	bleu	a3,a4,.L196
.LVL172:
.LBE241:
.LBE240:
	.loc 1 157 20 is_stmt 1 discriminator 1
	sw	a0,%lo(SPI)(s0)
	sw	a0,0(a2)
	.loc 1 157 27 discriminator 1
.LVL173:
.LBB242:
.LBB243:
	.loc 1 77 2
	.loc 1 78 2
	.loc 1 80 2
	.loc 1 81 2
	.loc 1 81 7 is_stmt 0
	lw	a7,0(a5)
.LVL174:
.L197:
	.loc 1 82 2 is_stmt 1
	.loc 1 83 3
	.loc 1 83 24 is_stmt 0
	lw	a3,0(a5)
.LVL175:
	.loc 1 84 3 is_stmt 1
	.loc 1 83 15 is_stmt 0
	sub	a3,a3,a7
.LVL176:
	.loc 1 84 5
	bleu	a3,a4,.L197
.LVL177:
.LBE243:
.LBE242:
	.loc 1 158 3 is_stmt 1
	.loc 1 158 11
	.loc 1 158 15 is_stmt 0
	lw	a3,0(a1)
	.loc 1 158 23 is_stmt 1 discriminator 1
.LVL178:
	.loc 1 159 3
	sw	a6,%lo(SPI)(s0)
	sw	a6,0(a2)
	.loc 1 159 10
.LVL179:
.LBB244:
.LBB245:
	.loc 1 77 2
	.loc 1 78 2
	.loc 1 80 2
	.loc 1 81 2
	.loc 1 81 7 is_stmt 0
	lw	a7,0(a5)
.LVL180:
.L198:
	.loc 1 82 2 is_stmt 1
	.loc 1 83 3
	.loc 1 83 24 is_stmt 0
	lw	a3,0(a5)
.LVL181:
	.loc 1 84 3 is_stmt 1
	.loc 1 83 15 is_stmt 0
	sub	a3,a3,a7
.LVL182:
	.loc 1 84 5
	bleu	a3,a4,.L198
.LVL183:
.LBE245:
.LBE244:
	.loc 1 159 20 is_stmt 1 discriminator 1
	sw	a0,%lo(SPI)(s0)
	sw	a0,0(a2)
	.loc 1 159 27 discriminator 1
.LVL184:
.LBB246:
.LBB247:
	.loc 1 77 2
	.loc 1 78 2
	.loc 1 80 2
	.loc 1 81 2
	.loc 1 81 7 is_stmt 0
	lw	a7,0(a5)
.LVL185:
.L199:
	.loc 1 82 2 is_stmt 1
	.loc 1 83 3
	.loc 1 83 24 is_stmt 0
	lw	a3,0(a5)
.LVL186:
	.loc 1 84 3 is_stmt 1
	.loc 1 83 15 is_stmt 0
	sub	a3,a3,a7
.LVL187:
	.loc 1 84 5
	bleu	a3,a4,.L199
.LVL188:
.LBE247:
.LBE246:
	.loc 1 160 3 is_stmt 1
	.loc 1 160 11
	.loc 1 160 15 is_stmt 0
	lw	a3,0(a1)
	.loc 1 160 23 is_stmt 1 discriminator 1
.LVL189:
	.loc 1 161 3
	sw	a6,%lo(SPI)(s0)
	sw	a6,0(a2)
	.loc 1 161 10
.LVL190:
.LBB248:
.LBB249:
	.loc 1 77 2
	.loc 1 78 2
	.loc 1 80 2
	.loc 1 81 2
	.loc 1 81 7 is_stmt 0
	lw	a7,0(a5)
.LVL191:
.L200:
	.loc 1 82 2 is_stmt 1
	.loc 1 83 3
	.loc 1 83 24 is_stmt 0
	lw	a3,0(a5)
.LVL192:
	.loc 1 84 3 is_stmt 1
	.loc 1 83 15 is_stmt 0
	sub	a3,a3,a7
.LVL193:
	.loc 1 84 5
	bleu	a3,a4,.L200
.LVL194:
.LBE249:
.LBE248:
	.loc 1 161 20 is_stmt 1 discriminator 1
	sw	a0,%lo(SPI)(s0)
	sw	a0,0(a2)
	.loc 1 161 27 discriminator 1
.LVL195:
.LBB250:
.LBB251:
	.loc 1 77 2
	.loc 1 78 2
	.loc 1 80 2
	.loc 1 81 2
	.loc 1 81 7 is_stmt 0
	lw	a7,0(a5)
.LVL196:
.L201:
	.loc 1 82 2 is_stmt 1
	.loc 1 83 3
	.loc 1 83 24 is_stmt 0
	lw	a3,0(a5)
.LVL197:
	.loc 1 84 3 is_stmt 1
	.loc 1 83 15 is_stmt 0
	sub	a3,a3,a7
.LVL198:
	.loc 1 84 5
	bleu	a3,a4,.L201
.LVL199:
.LBE251:
.LBE250:
	.loc 1 162 3 is_stmt 1
	.loc 1 162 11
	.loc 1 162 15 is_stmt 0
	lw	a3,0(a1)
	.loc 1 162 23 is_stmt 1 discriminator 1
.LVL200:
	.loc 1 163 3
	sw	a6,%lo(SPI)(s0)
	sw	a6,0(a2)
	.loc 1 163 10
.LVL201:
.LBB252:
.LBB253:
	.loc 1 77 2
	.loc 1 78 2
	.loc 1 80 2
	.loc 1 81 2
	.loc 1 81 7 is_stmt 0
	lw	a7,0(a5)
.LVL202:
.L202:
	.loc 1 82 2 is_stmt 1
	.loc 1 83 3
	.loc 1 83 24 is_stmt 0
	lw	a3,0(a5)
.LVL203:
	.loc 1 84 3 is_stmt 1
	.loc 1 83 15 is_stmt 0
	sub	a3,a3,a7
.LVL204:
	.loc 1 84 5
	bleu	a3,a4,.L202
.LVL205:
.LBE253:
.LBE252:
	.loc 1 163 20 is_stmt 1 discriminator 1
	sw	a0,%lo(SPI)(s0)
	sw	a0,0(a2)
	.loc 1 163 27 discriminator 1
.LVL206:
.LBB254:
.LBB255:
	.loc 1 77 2
	.loc 1 78 2
	.loc 1 80 2
	.loc 1 81 2
	.loc 1 81 7 is_stmt 0
	lw	a7,0(a5)
.LVL207:
.L203:
	.loc 1 82 2 is_stmt 1
	.loc 1 83 3
	.loc 1 83 24 is_stmt 0
	lw	a3,0(a5)
.LVL208:
	.loc 1 84 3 is_stmt 1
	.loc 1 83 15 is_stmt 0
	sub	a3,a3,a7
.LVL209:
	.loc 1 84 5
	bleu	a3,a4,.L203
.LVL210:
.LBE255:
.LBE254:
	.loc 1 164 3 is_stmt 1
	.loc 1 164 11
	.loc 1 164 15 is_stmt 0
	lw	a3,0(a1)
	.loc 1 164 23 is_stmt 1 discriminator 1
.LVL211:
	.loc 1 165 3
	sw	a6,%lo(SPI)(s0)
	sw	a6,0(a2)
	.loc 1 165 10
.LVL212:
.LBB256:
.LBB257:
	.loc 1 77 2
	.loc 1 78 2
	.loc 1 80 2
	.loc 1 81 2
	.loc 1 81 7 is_stmt 0
	lw	a7,0(a5)
.LVL213:
.L204:
	.loc 1 82 2 is_stmt 1
	.loc 1 83 3
	.loc 1 83 24 is_stmt 0
	lw	a3,0(a5)
.LVL214:
	.loc 1 84 3 is_stmt 1
	.loc 1 83 15 is_stmt 0
	sub	a3,a3,a7
.LVL215:
	.loc 1 84 5
	bleu	a3,a4,.L204
.LVL216:
.LBE257:
.LBE256:
	.loc 1 165 20 is_stmt 1 discriminator 1
	sw	a0,%lo(SPI)(s0)
	sw	a0,0(a2)
	.loc 1 165 27 discriminator 1
.LVL217:
.LBB258:
.LBB259:
	.loc 1 77 2
	.loc 1 78 2
	.loc 1 80 2
	.loc 1 81 2
	.loc 1 81 7 is_stmt 0
	lw	a7,0(a5)
.LVL218:
.L205:
	.loc 1 82 2 is_stmt 1
	.loc 1 83 3
	.loc 1 83 24 is_stmt 0
	lw	a3,0(a5)
.LVL219:
	.loc 1 84 3 is_stmt 1
	.loc 1 83 15 is_stmt 0
	sub	a3,a3,a7
.LVL220:
	.loc 1 84 5
	bleu	a3,a4,.L205
.LVL221:
.LBE259:
.LBE258:
	.loc 1 166 3 is_stmt 1
	.loc 1 166 11
	.loc 1 166 15 is_stmt 0
	lw	a3,0(a1)
	.loc 1 166 23 is_stmt 1 discriminator 1
.LVL222:
	.loc 1 167 3
	sw	a6,%lo(SPI)(s0)
	sw	a6,0(a2)
	.loc 1 167 10
.LVL223:
.LBB260:
.LBB261:
	.loc 1 77 2
	.loc 1 78 2
	.loc 1 80 2
	.loc 1 81 2
	.loc 1 81 7 is_stmt 0
	lw	a7,0(a5)
.LVL224:
.L206:
	.loc 1 82 2 is_stmt 1
	.loc 1 83 3
	.loc 1 83 24 is_stmt 0
	lw	a3,0(a5)
.LVL225:
	.loc 1 84 3 is_stmt 1
	.loc 1 83 15 is_stmt 0
	sub	a3,a3,a7
.LVL226:
	.loc 1 84 5
	bleu	a3,a4,.L206
.LVL227:
.LBE261:
.LBE260:
	.loc 1 167 20 is_stmt 1 discriminator 1
	sw	a0,%lo(SPI)(s0)
	sw	a0,0(a2)
	.loc 1 167 27 discriminator 1
.LVL228:
.LBB262:
.LBB263:
	.loc 1 77 2
	.loc 1 78 2
	.loc 1 80 2
	.loc 1 81 2
	.loc 1 81 7 is_stmt 0
	lw	a7,0(a5)
.LVL229:
.L207:
	.loc 1 82 2 is_stmt 1
	.loc 1 83 3
	.loc 1 83 24 is_stmt 0
	lw	a3,0(a5)
.LVL230:
	.loc 1 84 3 is_stmt 1
	.loc 1 83 15 is_stmt 0
	sub	a3,a3,a7
.LVL231:
	.loc 1 84 5
	bleu	a3,a4,.L207
.LVL232:
.LBE263:
.LBE262:
	.loc 1 168 3 is_stmt 1
	.loc 1 168 11
	.loc 1 168 15 is_stmt 0
	lw	a3,0(a1)
	.loc 1 168 23 is_stmt 1 discriminator 1
.LVL233:
	.loc 1 169 3
	sw	a6,%lo(SPI)(s0)
	sw	a6,0(a2)
	.loc 1 169 10
.LVL234:
.LBB264:
.LBB265:
	.loc 1 77 2
	.loc 1 78 2
	.loc 1 80 2
	.loc 1 81 2
	.loc 1 81 7 is_stmt 0
	lw	a6,0(a5)
.LVL235:
.L208:
	.loc 1 82 2 is_stmt 1
	.loc 1 83 3
	.loc 1 83 24 is_stmt 0
	lw	a3,0(a5)
.LVL236:
	.loc 1 84 3 is_stmt 1
	.loc 1 83 15 is_stmt 0
	sub	a3,a3,a6
.LVL237:
	.loc 1 84 5
	bleu	a3,a4,.L208
.LVL238:
.LBE265:
.LBE264:
	.loc 1 169 20 is_stmt 1 discriminator 1
	sw	a0,%lo(SPI)(s0)
	sw	a0,0(a2)
	.loc 1 169 27 discriminator 1
.LVL239:
.LBB266:
.LBB267:
	.loc 1 77 2
	.loc 1 78 2
	.loc 1 80 2
	.loc 1 81 2
	.loc 1 81 7 is_stmt 0
	lw	a0,0(a5)
.LVL240:
.L209:
	.loc 1 82 2 is_stmt 1
	.loc 1 83 3
	.loc 1 83 24 is_stmt 0
	lw	a3,0(a5)
.LVL241:
	.loc 1 84 3 is_stmt 1
	.loc 1 83 15 is_stmt 0
	sub	a3,a3,a0
.LVL242:
	.loc 1 84 5
	bleu	a3,a4,.L209
.LVL243:
.LBE267:
.LBE266:
	.loc 1 170 3 is_stmt 1
	.loc 1 171 11
.LBE269:
.LBE271:
	.loc 1 342 19 discriminator 3
	.loc 1 342 15 discriminator 2
	addi	s1,s1,-1
	andi	s1,s1,0xff
	bne	s1,zero,.L210
	.loc 1 344 2
.LVL244:
	.loc 1 345 2
	.loc 1 345 6 is_stmt 0
	li	a1,0
	li	a0,0
	call	send_cmd
.LVL245:
	.loc 1 345 5 discriminator 1
	li	a5,1
	.loc 1 345 6
	mv	s4,a0
	.loc 1 345 5 discriminator 1
	beq	a0,a5,.L211
.LVL246:
.L228:
	.loc 1 364 13
	li	a0,1
.L212:
.LVL247:
	.loc 1 372 2 is_stmt 1
.LBB272:
.LBB273:
	.loc 1 196 2 is_stmt 0
	lw	a5,%lo(SPI)(s0)
.LBE273:
.LBE272:
	.loc 1 372 11
	lui	a4,%hi(CardType)
	sb	s1,%lo(CardType)(a4)
	.loc 1 373 2 is_stmt 1
.LVL248:
	.loc 1 374 2
.LBB276:
.LBB274:
	.loc 1 196 2 is_stmt 0
	ori	a5,a5,128
.LBE274:
.LBE276:
	.loc 1 374 7
	lui	a4,%hi(Stat)
	sb	a0,%lo(Stat)(a4)
	.loc 1 376 2 is_stmt 1
.LBB277:
.LBB275:
	.loc 1 196 2
	sw	a5,%lo(SPI)(s0)
	li	a4,-1073741824
	sw	a5,0(a4)
.LBE275:
.LBE277:
	.loc 1 377 2
	.loc 1 378 1 is_stmt 0
	lw	ra,44(sp)
	.cfi_restore 1
	lw	s0,40(sp)
	.cfi_restore 8
	.loc 1 377 9
	lw	s1,36(sp)
	.cfi_restore 9
	lw	s4,24(sp)
	.cfi_restore 20
	.loc 1 378 1
	addi	sp,sp,48
	.cfi_def_cfa_offset 0
	jr	ra
.LVL249:
.L244:
	.cfi_def_cfa_offset 48
	.cfi_offset 1, -4
	.cfi_offset 8, -8
	lw	ra,44(sp)
	.cfi_restore 1
	lw	s0,40(sp)
	.cfi_restore 8
	.loc 1 336 18 discriminator 1
	li	a0,3
.LVL250:
	.loc 1 378 1
	addi	sp,sp,48
	.cfi_def_cfa_offset 0
	jr	ra
.LVL251:
.L211:
	.cfi_def_cfa_offset 48
	.cfi_offset 1, -4
	.cfi_offset 8, -8
	.cfi_offset 9, -12
	.cfi_offset 20, -24
	.loc 1 346 3 is_stmt 1
	.loc 1 346 7 is_stmt 0
	li	a1,426
	li	a0,8
	call	send_cmd
.LVL252:
	.loc 1 346 6 discriminator 1
	beq	a0,s4,.L339
	.loc 1 359 4 is_stmt 1
	.loc 1 359 8 is_stmt 0
	li	a1,0
	li	a0,169
	sw	s6,16(sp)
	sw	s2,32(sp)
	sw	s3,28(sp)
	sw	s5,20(sp)
	.cfi_offset 22, -32
	.cfi_offset 18, -16
	.cfi_offset 19, -20
	.cfi_offset 21, -28
	call	send_cmd
.LVL253:
	.loc 1 362 23
	li	s6,1
	.loc 1 359 7 discriminator 1
	bgtu	a0,s4,.L239
	.loc 1 360 23
	li	s6,169
	.loc 1 360 8
	li	s4,8
.L239:
.LVL254:
	.loc 1 364 4 is_stmt 1
	.loc 1 364 21 discriminator 1
.LBB278:
.LBB279:
	.loc 1 81 7 is_stmt 0
	li	s2,-1073479680
	.loc 1 84 5
	li	s3,118784
.LBE279:
.LBE278:
	.loc 1 364 13
	li	s5,1000
.LBB282:
.LBB280:
	.loc 1 81 7
	addi	s2,s2,4
	.loc 1 84 5
	addi	s3,s3,1215
.LVL255:
.L242:
.LBE280:
.LBE282:
	.loc 1 365 5 is_stmt 1
	.loc 1 365 9 is_stmt 0
	li	a1,0
	mv	a0,s6
	call	send_cmd
.LVL256:
	.loc 1 365 8 discriminator 1
	beq	a0,zero,.L240
	.loc 1 366 5 is_stmt 1
.LVL257:
.LBB283:
.LBB281:
	.loc 1 77 2
	.loc 1 78 2
	.loc 1 80 2
	.loc 1 81 2
	.loc 1 81 7 is_stmt 0
	lw	a4,0(s2)
.LVL258:
.L241:
	.loc 1 82 2 is_stmt 1
	.loc 1 83 3
	.loc 1 83 24 is_stmt 0
	lw	a5,0(s2)
.LVL259:
	.loc 1 84 3 is_stmt 1
	.loc 1 83 15 is_stmt 0
	sub	a5,a5,a4
.LVL260:
	.loc 1 84 5
	bleu	a5,s3,.L241
.LVL261:
.LBE281:
.LBE283:
	.loc 1 364 29 is_stmt 1 discriminator 2
	addi	s5,s5,-1
.LVL262:
	.loc 1 364 21 discriminator 1
	bne	s5,zero,.L242
.L337:
	lw	s2,32(sp)
	.cfi_restore 18
	lw	s3,28(sp)
	.cfi_restore 19
	lw	s5,20(sp)
	.cfi_restore 21
.LVL263:
	lw	s6,16(sp)
	.cfi_restore 22
.LVL264:
	j	.L228
.LVL265:
.L339:
	.loc 1 347 4
.LBB284:
.LBB285:
	.loc 1 121 2
	.loc 1 123 2
	lw	a5,%lo(SPI)(s0)
	li	a2,-1073741824
	.loc 1 125 12 is_stmt 0
	li	a1,-1073741824
	.loc 1 123 2
	ori	a4,a5,64
	sw	a4,%lo(SPI)(s0)
	sw	a4,0(a2)
.LVL266:
	.loc 1 124 2 is_stmt 1
	.loc 1 125 3
	.loc 1 125 9
	andi	a3,a5,-33
	.loc 1 126 3 is_stmt 0
	ori	a4,a5,96
	.loc 1 125 12
	lw	a0,8(a1)
.LVL267:
	.loc 1 126 3 is_stmt 1
	ori	a5,a3,64
	sw	a4,0(a2)
	.loc 1 126 10
	sw	a5,%lo(SPI)(s0)
	sw	a5,0(a2)
	.loc 1 127 3
	.loc 1 127 11
	.loc 1 128 3 is_stmt 0
	ori	a3,a3,96
	.loc 1 127 14
	lw	a4,8(a1)
	.loc 1 127 22 is_stmt 1 discriminator 1
.LVL268:
	.loc 1 128 3
	sw	a3,0(a2)
	.loc 1 128 10
	sw	a5,%lo(SPI)(s0)
	sw	a5,0(a2)
	.loc 1 129 3
.LVL269:
	.loc 1 129 11
	.loc 1 129 14 is_stmt 0
	lw	a4,8(a1)
	.loc 1 129 22 is_stmt 1 discriminator 1
.LVL270:
	.loc 1 130 3
	sw	a3,0(a2)
	.loc 1 130 10
	sw	a5,%lo(SPI)(s0)
	sw	a5,0(a2)
	.loc 1 131 3
.LVL271:
	.loc 1 131 11
	.loc 1 131 14 is_stmt 0
	lw	a4,8(a1)
	.loc 1 131 22 is_stmt 1 discriminator 1
.LVL272:
	.loc 1 132 3
	sw	a3,0(a2)
	.loc 1 132 10
	sw	a5,%lo(SPI)(s0)
	sw	a5,0(a2)
	.loc 1 133 3
.LVL273:
	.loc 1 133 11
	.loc 1 133 14 is_stmt 0
	lw	a4,8(a1)
	.loc 1 133 22 is_stmt 1 discriminator 1
.LVL274:
	.loc 1 134 3
	sw	a3,0(a2)
	.loc 1 134 10
	sw	a5,%lo(SPI)(s0)
	sw	a5,0(a2)
	.loc 1 135 3
.LVL275:
	.loc 1 135 11
	.loc 1 135 14 is_stmt 0
	lw	a4,8(a1)
	.loc 1 135 22 is_stmt 1 discriminator 1
.LVL276:
	.loc 1 136 3
	sw	a3,0(a2)
	.loc 1 136 10
	sw	a5,%lo(SPI)(s0)
	sw	a5,0(a2)
	.loc 1 137 3
.LVL277:
	.loc 1 137 11
	.loc 1 137 14 is_stmt 0
	lw	a4,8(a1)
	.loc 1 137 22 is_stmt 1 discriminator 1
.LVL278:
	.loc 1 138 3
	sw	a3,0(a2)
	.loc 1 138 10
	sw	a5,%lo(SPI)(s0)
	sw	a5,0(a2)
	.loc 1 139 3
.LVL279:
	.loc 1 139 11
	.loc 1 139 14 is_stmt 0
	lw	a4,8(a1)
	.loc 1 139 22 is_stmt 1 discriminator 1
.LVL280:
	.loc 1 140 3
	sw	a3,0(a2)
	.loc 1 140 10
	sw	a5,%lo(SPI)(s0)
	sw	a5,0(a2)
	.loc 1 141 3
.LVL281:
	.loc 1 142 11
	.loc 1 124 2
	.loc 1 125 3
	.loc 1 125 9
	.loc 1 125 12 is_stmt 0
	lw	a4,8(a1)
.LVL282:
	.loc 1 126 3 is_stmt 1
	sw	a3,0(a2)
	.loc 1 126 10
	sw	a5,%lo(SPI)(s0)
	sw	a5,0(a2)
	.loc 1 127 3
	.loc 1 127 11
	.loc 1 127 14 is_stmt 0
	lw	a4,8(a1)
	.loc 1 127 22 is_stmt 1 discriminator 1
.LVL283:
	.loc 1 128 3
	sw	a3,0(a2)
	.loc 1 128 10
	sw	a5,%lo(SPI)(s0)
	sw	a5,0(a2)
	.loc 1 129 3
.LVL284:
	.loc 1 129 11
	.loc 1 129 14 is_stmt 0
	lw	a4,8(a1)
	.loc 1 129 22 is_stmt 1 discriminator 1
.LVL285:
	.loc 1 130 3
	sw	a3,0(a2)
	.loc 1 130 10
	sw	a5,%lo(SPI)(s0)
	sw	a5,0(a2)
	.loc 1 131 3
.LVL286:
	.loc 1 131 11
	.loc 1 131 14 is_stmt 0
	lw	a4,8(a1)
	.loc 1 131 22 is_stmt 1 discriminator 1
.LVL287:
	.loc 1 132 3
	sw	a3,0(a2)
	.loc 1 132 10
	sw	a5,%lo(SPI)(s0)
	sw	a5,0(a2)
	.loc 1 133 3
.LVL288:
	.loc 1 133 11
	.loc 1 133 14 is_stmt 0
	lw	a4,8(a1)
	.loc 1 133 22 is_stmt 1 discriminator 1
.LVL289:
	.loc 1 134 3
	sw	a3,0(a2)
	.loc 1 134 10
	sw	a5,%lo(SPI)(s0)
	sw	a5,0(a2)
	.loc 1 135 3
.LVL290:
	.loc 1 135 11
	.loc 1 135 14 is_stmt 0
	lw	a4,8(a1)
	.loc 1 135 22 is_stmt 1 discriminator 1
.LVL291:
	.loc 1 136 3
	sw	a3,0(a2)
	.loc 1 136 10
	sw	a5,%lo(SPI)(s0)
	sw	a5,0(a2)
	.loc 1 137 3
.LVL292:
	.loc 1 137 11
	.loc 1 137 14 is_stmt 0
	lw	a4,8(a1)
	.loc 1 137 22 is_stmt 1 discriminator 1
.LVL293:
	.loc 1 138 3
	sw	a3,0(a2)
	.loc 1 138 10
	sw	a5,%lo(SPI)(s0)
	sw	a5,0(a2)
	.loc 1 139 3
.LVL294:
	.loc 1 139 11
	.loc 1 139 14 is_stmt 0
	lw	a4,8(a1)
	.loc 1 139 22 is_stmt 1 discriminator 1
.LVL295:
	.loc 1 140 3
	sw	a3,0(a2)
	.loc 1 140 10
	sw	a5,%lo(SPI)(s0)
	sw	a5,0(a2)
	.loc 1 141 3
.LVL296:
	.loc 1 142 11
	.loc 1 124 2
	.loc 1 125 3
	.loc 1 125 9
	.loc 1 125 12 is_stmt 0
	lw	a4,8(a1)
.LVL297:
	.loc 1 126 3 is_stmt 1
	sw	a3,0(a2)
	.loc 1 126 10
	sw	a5,%lo(SPI)(s0)
	sw	a5,0(a2)
	.loc 1 127 3
	.loc 1 128 3 is_stmt 0
	li	a0,-1073741824
	.loc 1 127 14
	lw	a2,8(a1)
	.loc 1 128 3
	sw	a3,0(a0)
	.loc 1 128 10
	sw	a5,%lo(SPI)(s0)
	.loc 1 129 14
	li	a6,-1073741824
	.loc 1 128 10
	sw	a5,0(a0)
	.loc 1 129 14
	lw	a0,8(a6)
	.loc 1 125 11
	srli	a4,a4,3
.LVL298:
	.loc 1 127 14
	andi	a2,a2,16
	.loc 1 127 23 discriminator 1
	snez	a2,a2
	.loc 1 127 5
	andi	a4,a4,2
.LVL299:
	.loc 1 127 11 is_stmt 1
	.loc 1 127 23 is_stmt 0 discriminator 1
	add	a4,a4,a2
.LVL300:
	.loc 1 128 3 is_stmt 1
	.loc 1 128 10
	.loc 1 129 3
	.loc 1 129 14 is_stmt 0
	andi	a2,a0,16
	.loc 1 129 5
	slli	a4,a4,1
.LVL301:
	.loc 1 129 11 is_stmt 1
	.loc 1 129 13 is_stmt 0
	beq	a2,zero,.L215
	.loc 1 129 22 is_stmt 1 discriminator 1
	.loc 1 129 23 is_stmt 0 discriminator 1
	addi	a4,a4,1
.LVL302:
	andi	a4,a4,0xff
.LVL303:
.L215:
	.loc 1 130 3 is_stmt 1
	li	a2,-1073741824
	sw	a3,0(a2)
	.loc 1 130 10
	sw	a5,%lo(SPI)(s0)
	.loc 1 131 14 is_stmt 0
	li	a1,-1073741824
	.loc 1 130 10
	sw	a5,0(a2)
	.loc 1 131 3 is_stmt 1
	.loc 1 131 14 is_stmt 0
	lw	a2,8(a1)
	.loc 1 131 5
	slli	a4,a4,1
.LVL304:
	andi	a4,a4,0xff
.LVL305:
	.loc 1 131 11 is_stmt 1
	.loc 1 131 14 is_stmt 0
	andi	a2,a2,16
	.loc 1 131 13
	beq	a2,zero,.L216
	.loc 1 131 22 is_stmt 1 discriminator 1
	.loc 1 131 23 is_stmt 0 discriminator 1
	addi	a4,a4,1
.LVL306:
	andi	a4,a4,0xff
.LVL307:
.L216:
	.loc 1 132 3 is_stmt 1
	li	a2,-1073741824
	sw	a3,0(a2)
	.loc 1 132 10
	sw	a5,%lo(SPI)(s0)
	.loc 1 133 14 is_stmt 0
	li	a1,-1073741824
	.loc 1 132 10
	sw	a5,0(a2)
	.loc 1 133 3 is_stmt 1
	.loc 1 133 14 is_stmt 0
	lw	a2,8(a1)
	.loc 1 133 5
	slli	a4,a4,1
.LVL308:
	andi	a4,a4,0xff
.LVL309:
	.loc 1 133 11 is_stmt 1
	.loc 1 133 14 is_stmt 0
	andi	a2,a2,16
	.loc 1 133 13
	beq	a2,zero,.L217
	.loc 1 133 22 is_stmt 1 discriminator 1
	.loc 1 133 23 is_stmt 0 discriminator 1
	addi	a4,a4,1
.LVL310:
	andi	a4,a4,0xff
.LVL311:
.L217:
	.loc 1 134 3 is_stmt 1
	li	a2,-1073741824
	sw	a3,0(a2)
	.loc 1 134 10
	sw	a5,%lo(SPI)(s0)
	.loc 1 135 14 is_stmt 0
	li	a1,-1073741824
	.loc 1 134 10
	sw	a5,0(a2)
	.loc 1 135 3 is_stmt 1
	.loc 1 135 14 is_stmt 0
	lw	a2,8(a1)
	.loc 1 135 5
	slli	a4,a4,1
.LVL312:
	andi	a4,a4,0xff
.LVL313:
	.loc 1 135 11 is_stmt 1
	.loc 1 135 14 is_stmt 0
	andi	a2,a2,16
	.loc 1 135 13
	beq	a2,zero,.L218
	.loc 1 135 22 is_stmt 1 discriminator 1
	.loc 1 135 23 is_stmt 0 discriminator 1
	addi	a4,a4,1
.LVL314:
	andi	a4,a4,0xff
.LVL315:
.L218:
	.loc 1 136 3 is_stmt 1
	li	a2,-1073741824
	sw	a3,0(a2)
	.loc 1 136 10
	sw	a5,%lo(SPI)(s0)
	.loc 1 137 14 is_stmt 0
	li	a1,-1073741824
	.loc 1 136 10
	sw	a5,0(a2)
	.loc 1 137 3 is_stmt 1
	.loc 1 137 14 is_stmt 0
	lw	a2,8(a1)
	.loc 1 137 5
	slli	a4,a4,1
.LVL316:
	andi	a4,a4,0xff
.LVL317:
	.loc 1 137 11 is_stmt 1
	.loc 1 137 14 is_stmt 0
	andi	a2,a2,16
	.loc 1 137 13
	beq	a2,zero,.L219
	.loc 1 137 22 is_stmt 1 discriminator 1
	.loc 1 137 23 is_stmt 0 discriminator 1
	addi	a4,a4,1
.LVL318:
	andi	a4,a4,0xff
.LVL319:
.L219:
	.loc 1 138 3 is_stmt 1
	li	a2,-1073741824
	sw	a3,0(a2)
	.loc 1 138 10
	sw	a5,%lo(SPI)(s0)
	.loc 1 139 14 is_stmt 0
	li	a1,-1073741824
	.loc 1 138 10
	sw	a5,0(a2)
	.loc 1 139 3 is_stmt 1
	.loc 1 139 14 is_stmt 0
	lw	a2,8(a1)
	.loc 1 139 5
	slli	a4,a4,1
.LVL320:
	andi	a4,a4,0xff
.LVL321:
	.loc 1 139 11 is_stmt 1
	.loc 1 139 14 is_stmt 0
	andi	a2,a2,16
	.loc 1 139 13
	beq	a2,zero,.L220
	.loc 1 139 22 is_stmt 1 discriminator 1
	.loc 1 139 23 is_stmt 0 discriminator 1
	addi	a4,a4,1
.LVL322:
	andi	a4,a4,0xff
.LVL323:
.L220:
	.loc 1 140 3 is_stmt 1
	li	a2,-1073741824
	sw	a3,0(a2)
	.loc 1 140 10
	sw	a5,%lo(SPI)(s0)
	sw	a5,0(a2)
	.loc 1 141 3
.LVL324:
	.loc 1 141 11 is_stmt 0
	sb	a4,14(sp)
	.loc 1 142 11 is_stmt 1
	.loc 1 124 2
	.loc 1 125 3
.LVL325:
	.loc 1 125 9
	.loc 1 125 12 is_stmt 0
	li	a1,-1073741824
	lw	a4,8(a1)
.LVL326:
	.loc 1 126 3 is_stmt 1
	sw	a3,0(a2)
	.loc 1 126 10
	sw	a5,%lo(SPI)(s0)
	sw	a5,0(a2)
	.loc 1 127 3
	.loc 1 128 3 is_stmt 0
	li	a0,-1073741824
	.loc 1 127 14
	lw	a2,8(a1)
	.loc 1 128 3
	sw	a3,0(a0)
	.loc 1 128 10
	sw	a5,%lo(SPI)(s0)
	.loc 1 129 14
	li	a6,-1073741824
	.loc 1 128 10
	sw	a5,0(a0)
	.loc 1 129 14
	lw	a0,8(a6)
	.loc 1 125 11
	srli	a4,a4,3
.LVL327:
	.loc 1 127 14
	andi	a2,a2,16
	.loc 1 127 23 discriminator 1
	snez	a2,a2
	.loc 1 127 5
	andi	a4,a4,2
.LVL328:
	.loc 1 127 11 is_stmt 1
	.loc 1 127 23 is_stmt 0 discriminator 1
	add	a4,a4,a2
.LVL329:
	.loc 1 128 3 is_stmt 1
	.loc 1 128 10
	.loc 1 129 3
	.loc 1 129 14 is_stmt 0
	andi	a2,a0,16
	.loc 1 129 5
	slli	a4,a4,1
.LVL330:
	.loc 1 129 11 is_stmt 1
	.loc 1 129 13 is_stmt 0
	beq	a2,zero,.L222
	.loc 1 129 22 is_stmt 1 discriminator 1
	.loc 1 129 23 is_stmt 0 discriminator 1
	addi	a4,a4,1
.LVL331:
	andi	a4,a4,0xff
.LVL332:
.L222:
	.loc 1 130 3 is_stmt 1
	li	a2,-1073741824
	sw	a3,0(a2)
	.loc 1 130 10
	sw	a5,%lo(SPI)(s0)
	.loc 1 131 14 is_stmt 0
	li	a1,-1073741824
	.loc 1 130 10
	sw	a5,0(a2)
	.loc 1 131 3 is_stmt 1
	.loc 1 131 14 is_stmt 0
	lw	a2,8(a1)
	.loc 1 131 5
	slli	a4,a4,1
.LVL333:
	andi	a4,a4,0xff
.LVL334:
	.loc 1 131 11 is_stmt 1
	.loc 1 131 14 is_stmt 0
	andi	a2,a2,16
	.loc 1 131 13
	beq	a2,zero,.L223
	.loc 1 131 22 is_stmt 1 discriminator 1
	.loc 1 131 23 is_stmt 0 discriminator 1
	addi	a4,a4,1
.LVL335:
	andi	a4,a4,0xff
.LVL336:
.L223:
	.loc 1 132 3 is_stmt 1
	li	a2,-1073741824
	sw	a3,0(a2)
	.loc 1 132 10
	sw	a5,%lo(SPI)(s0)
	.loc 1 133 14 is_stmt 0
	li	a1,-1073741824
	.loc 1 132 10
	sw	a5,0(a2)
	.loc 1 133 3 is_stmt 1
	.loc 1 133 14 is_stmt 0
	lw	a2,8(a1)
	.loc 1 133 5
	slli	a4,a4,1
.LVL337:
	andi	a4,a4,0xff
.LVL338:
	.loc 1 133 11 is_stmt 1
	.loc 1 133 14 is_stmt 0
	andi	a2,a2,16
	.loc 1 133 13
	beq	a2,zero,.L224
	.loc 1 133 22 is_stmt 1 discriminator 1
	.loc 1 133 23 is_stmt 0 discriminator 1
	addi	a4,a4,1
.LVL339:
	andi	a4,a4,0xff
.LVL340:
.L224:
	.loc 1 134 3 is_stmt 1
	li	a2,-1073741824
	sw	a3,0(a2)
	.loc 1 134 10
	sw	a5,%lo(SPI)(s0)
	.loc 1 135 14 is_stmt 0
	li	a1,-1073741824
	.loc 1 134 10
	sw	a5,0(a2)
	.loc 1 135 3 is_stmt 1
	.loc 1 135 14 is_stmt 0
	lw	a2,8(a1)
	.loc 1 135 5
	slli	a4,a4,1
.LVL341:
	andi	a4,a4,0xff
.LVL342:
	.loc 1 135 11 is_stmt 1
	.loc 1 135 14 is_stmt 0
	andi	a2,a2,16
	.loc 1 135 13
	beq	a2,zero,.L225
	.loc 1 135 22 is_stmt 1 discriminator 1
	.loc 1 135 23 is_stmt 0 discriminator 1
	addi	a4,a4,1
.LVL343:
	andi	a4,a4,0xff
.LVL344:
.L225:
	.loc 1 136 3 is_stmt 1
	li	a2,-1073741824
	sw	a3,0(a2)
	.loc 1 136 10
	sw	a5,%lo(SPI)(s0)
	.loc 1 137 14 is_stmt 0
	li	a1,-1073741824
	.loc 1 136 10
	sw	a5,0(a2)
	.loc 1 137 3 is_stmt 1
	.loc 1 137 14 is_stmt 0
	lw	a2,8(a1)
	.loc 1 137 5
	slli	a4,a4,1
.LVL345:
	andi	a4,a4,0xff
.LVL346:
	.loc 1 137 11 is_stmt 1
	.loc 1 137 14 is_stmt 0
	andi	a2,a2,16
	.loc 1 137 13
	beq	a2,zero,.L226
	.loc 1 137 22 is_stmt 1 discriminator 1
	.loc 1 137 23 is_stmt 0 discriminator 1
	addi	a4,a4,1
.LVL347:
	andi	a4,a4,0xff
.LVL348:
.L226:
	.loc 1 138 3 is_stmt 1
	li	a2,-1073741824
	sw	a3,0(a2)
	.loc 1 138 10
	sw	a5,%lo(SPI)(s0)
	.loc 1 139 14 is_stmt 0
	li	a1,-1073741824
	.loc 1 138 10
	sw	a5,0(a2)
	.loc 1 139 3 is_stmt 1
	.loc 1 139 14 is_stmt 0
	lw	a2,8(a1)
	.loc 1 139 5
	slli	a4,a4,1
.LVL349:
	andi	a4,a4,0xff
.LVL350:
	.loc 1 139 11 is_stmt 1
	.loc 1 139 14 is_stmt 0
	andi	a2,a2,16
	.loc 1 139 13
	beq	a2,zero,.L227
	.loc 1 139 22 is_stmt 1 discriminator 1
	.loc 1 139 23 is_stmt 0 discriminator 1
	addi	a4,a4,1
.LVL351:
	andi	a4,a4,0xff
.LVL352:
.L227:
	.loc 1 140 3 is_stmt 1
	li	a2,-1073741824
	sw	a3,0(a2)
	.loc 1 140 10
	sw	a5,%lo(SPI)(s0)
	sw	a5,0(a2)
	.loc 1 141 3
.LVL353:
	.loc 1 142 11
.LBE285:
.LBE284:
	.loc 1 348 4
	.loc 1 348 7 is_stmt 0
	lbu	a3,14(sp)
	li	a5,1
	bne	a3,a5,.L228
	.loc 1 348 23 discriminator 1
	li	a5,170
	bne	a4,a5,.L228
	sw	s2,32(sp)
	sw	s3,28(sp)
	.cfi_offset 18, -16
	.cfi_offset 19, -20
.LBB286:
.LBB287:
	.loc 1 81 7
	li	s2,-1073479680
	.loc 1 84 5
	li	s3,118784
.LBE287:
.LBE286:
	.loc 1 349 14
	li	s4,1000
.LBB290:
.LBB288:
	.loc 1 81 7
	addi	s2,s2,4
	.loc 1 84 5
	addi	s3,s3,1215
.L231:
.LVL354:
.LBE288:
.LBE290:
	.loc 1 350 6 is_stmt 1
	.loc 1 350 10 is_stmt 0
	li	a1,1073741824
	li	a0,169
	call	send_cmd
.LVL355:
	.loc 1 350 9 discriminator 1
	beq	a0,zero,.L229
	.loc 1 351 6 is_stmt 1
.LVL356:
.LBB291:
.LBB289:
	.loc 1 77 2
	.loc 1 78 2
	.loc 1 80 2
	.loc 1 81 2
	.loc 1 81 7 is_stmt 0
	lw	a4,0(s2)
.LVL357:
.L230:
	.loc 1 82 2 is_stmt 1
	.loc 1 83 3
	.loc 1 83 24 is_stmt 0
	lw	a5,0(s2)
.LVL358:
	.loc 1 84 3 is_stmt 1
	.loc 1 83 15 is_stmt 0
	sub	a5,a5,a4
.LVL359:
	.loc 1 84 5
	bleu	a5,s3,.L230
.LVL360:
.LBE289:
.LBE291:
	.loc 1 349 30 is_stmt 1 discriminator 2
	addi	s4,s4,-1
.LVL361:
	.loc 1 349 22 discriminator 1
	bne	s4,zero,.L231
.L338:
	lw	s2,32(sp)
	.cfi_restore 18
	lw	s3,28(sp)
	.cfi_restore 19
	j	.L228
.LVL362:
.L240:
	.cfi_offset 18, -16
	.cfi_offset 19, -20
	.cfi_offset 21, -28
	.cfi_offset 22, -32
	.loc 1 368 4
	.loc 1 368 16 is_stmt 0 discriminator 1
	li	a1,512
	li	a0,16
	call	send_cmd
.LVL363:
	.loc 1 368 13 discriminator 1
	bne	a0,zero,.L337
	lw	s2,32(sp)
	.cfi_restore 18
	lw	s3,28(sp)
	.cfi_restore 19
	lw	s5,20(sp)
	.cfi_restore 21
.LVL364:
	lw	s6,16(sp)
	.cfi_restore 22
.LVL365:
	mv	s1,s4
	j	.L212
.LVL366:
.L229:
	.cfi_offset 18, -16
	.cfi_offset 19, -20
	.loc 1 353 5 is_stmt 1
	.loc 1 353 16 is_stmt 0 discriminator 1
	li	a1,0
	li	a0,58
	call	send_cmd
.LVL367:
	.loc 1 353 13 discriminator 1
	bne	a0,zero,.L338
	.loc 1 354 6 is_stmt 1
.LVL368:
.LBB292:
.LBB293:
	.loc 1 121 2
	.loc 1 123 2
	lw	a5,%lo(SPI)(s0)
	li	a1,-1073741824
	.loc 1 125 12 is_stmt 0
	li	a3,-1073741824
	.loc 1 123 2
	ori	a4,a5,64
	sw	a4,%lo(SPI)(s0)
	sw	a4,0(a1)
.LVL369:
	.loc 1 124 2 is_stmt 1
	.loc 1 125 3
	.loc 1 125 9
	.loc 1 126 3 is_stmt 0
	ori	a0,a5,96
	andi	a2,a5,-33
	.loc 1 125 12
	lw	a4,8(a3)
.LVL370:
	.loc 1 126 3 is_stmt 1
	ori	a5,a2,64
	sw	a0,0(a1)
	.loc 1 126 10
	sw	a5,%lo(SPI)(s0)
	sw	a5,0(a1)
	.loc 1 127 3
	.loc 1 127 14 is_stmt 0
	lw	a1,8(a3)
	.loc 1 125 11
	srli	a4,a4,3
.LVL371:
	.loc 1 127 5
	andi	a4,a4,2
.LVL372:
	.loc 1 127 11 is_stmt 1
	.loc 1 127 14 is_stmt 0
	andi	a3,a1,16
	.loc 1 127 13
	beq	a3,zero,.L232
	.loc 1 127 22 is_stmt 1 discriminator 1
	.loc 1 127 23 is_stmt 0 discriminator 1
	addi	a4,a4,1
.LVL373:
.L232:
	.loc 1 128 3 is_stmt 1
	li	a3,-1073741824
	ori	a2,a2,96
	sw	a2,0(a3)
	.loc 1 128 10
	sw	a5,%lo(SPI)(s0)
	.loc 1 129 14 is_stmt 0
	li	a1,-1073741824
	.loc 1 128 10
	sw	a5,0(a3)
	.loc 1 129 3 is_stmt 1
	.loc 1 129 14 is_stmt 0
	lw	a3,8(a1)
	.loc 1 129 5
	slli	a4,a4,1
.LVL374:
	.loc 1 129 11 is_stmt 1
	.loc 1 129 14 is_stmt 0
	andi	a3,a3,16
	.loc 1 129 13
	beq	a3,zero,.L233
	.loc 1 129 22 is_stmt 1 discriminator 1
	.loc 1 129 23 is_stmt 0 discriminator 1
	addi	a4,a4,1
.LVL375:
	andi	a4,a4,0xff
.LVL376:
.L233:
	.loc 1 130 3 is_stmt 1
	li	a3,-1073741824
	sw	a2,0(a3)
	.loc 1 130 10
	sw	a5,%lo(SPI)(s0)
	.loc 1 131 14 is_stmt 0
	li	a1,-1073741824
	.loc 1 130 10
	sw	a5,0(a3)
	.loc 1 131 3 is_stmt 1
	.loc 1 131 14 is_stmt 0
	lw	a3,8(a1)
	.loc 1 131 5
	slli	a4,a4,1
.LVL377:
	andi	a4,a4,0xff
.LVL378:
	.loc 1 131 11 is_stmt 1
	.loc 1 131 14 is_stmt 0
	andi	a3,a3,16
	.loc 1 131 13
	beq	a3,zero,.L234
	.loc 1 131 22 is_stmt 1 discriminator 1
	.loc 1 131 23 is_stmt 0 discriminator 1
	addi	a4,a4,1
.LVL379:
	andi	a4,a4,0xff
.LVL380:
.L234:
	.loc 1 132 3 is_stmt 1
	li	a3,-1073741824
	sw	a2,0(a3)
	.loc 1 132 10
	sw	a5,%lo(SPI)(s0)
	.loc 1 133 14 is_stmt 0
	li	a1,-1073741824
	.loc 1 132 10
	sw	a5,0(a3)
	.loc 1 133 3 is_stmt 1
	.loc 1 133 14 is_stmt 0
	lw	a3,8(a1)
	.loc 1 133 5
	slli	a4,a4,1
.LVL381:
	andi	a4,a4,0xff
.LVL382:
	.loc 1 133 11 is_stmt 1
	.loc 1 133 14 is_stmt 0
	andi	a3,a3,16
	.loc 1 133 13
	beq	a3,zero,.L235
	.loc 1 133 22 is_stmt 1 discriminator 1
	.loc 1 133 23 is_stmt 0 discriminator 1
	addi	a4,a4,1
.LVL383:
	andi	a4,a4,0xff
.LVL384:
.L235:
	.loc 1 134 3 is_stmt 1
	li	a3,-1073741824
	sw	a2,0(a3)
	.loc 1 134 10
	sw	a5,%lo(SPI)(s0)
	.loc 1 135 14 is_stmt 0
	li	a1,-1073741824
	.loc 1 134 10
	sw	a5,0(a3)
	.loc 1 135 3 is_stmt 1
	.loc 1 135 14 is_stmt 0
	lw	a3,8(a1)
	.loc 1 135 5
	slli	a4,a4,1
.LVL385:
	andi	a4,a4,0xff
.LVL386:
	.loc 1 135 11 is_stmt 1
	.loc 1 135 14 is_stmt 0
	andi	a3,a3,16
	.loc 1 135 13
	beq	a3,zero,.L236
	.loc 1 135 22 is_stmt 1 discriminator 1
	.loc 1 135 23 is_stmt 0 discriminator 1
	addi	a4,a4,1
.LVL387:
	andi	a4,a4,0xff
.LVL388:
.L236:
	.loc 1 136 3 is_stmt 1
	li	a3,-1073741824
	sw	a2,0(a3)
	.loc 1 136 10
	sw	a5,%lo(SPI)(s0)
	.loc 1 137 14 is_stmt 0
	li	a1,-1073741824
	.loc 1 136 10
	sw	a5,0(a3)
	.loc 1 137 3 is_stmt 1
	.loc 1 137 14 is_stmt 0
	lw	a3,8(a1)
	.loc 1 137 5
	slli	a4,a4,1
.LVL389:
	andi	a4,a4,0xff
.LVL390:
	.loc 1 137 11 is_stmt 1
	.loc 1 137 14 is_stmt 0
	andi	a3,a3,16
	.loc 1 137 13
	beq	a3,zero,.L237
	.loc 1 137 22 is_stmt 1 discriminator 1
	.loc 1 137 23 is_stmt 0 discriminator 1
	addi	a4,a4,1
.LVL391:
	andi	a4,a4,0xff
.LVL392:
.L237:
	.loc 1 138 3 is_stmt 1
	li	a3,-1073741824
	sw	a2,0(a3)
	.loc 1 138 10
	sw	a5,%lo(SPI)(s0)
	.loc 1 139 14 is_stmt 0
	li	a1,-1073741824
	.loc 1 138 10
	sw	a5,0(a3)
	.loc 1 139 3 is_stmt 1
	.loc 1 139 14 is_stmt 0
	lw	a3,8(a1)
	.loc 1 139 5
	slli	a4,a4,1
.LVL393:
	andi	a4,a4,0xff
.LVL394:
	.loc 1 139 11 is_stmt 1
	.loc 1 139 14 is_stmt 0
	andi	a3,a3,16
	.loc 1 139 13
	beq	a3,zero,.L238
	.loc 1 139 22 is_stmt 1 discriminator 1
	.loc 1 139 23 is_stmt 0 discriminator 1
	addi	a4,a4,1
.LVL395:
	andi	a4,a4,0xff
.LVL396:
.L238:
	.loc 1 140 3 is_stmt 1
	li	a3,-1073741824
	sw	a2,0(a3)
	.loc 1 140 10
	sw	a5,%lo(SPI)(s0)
	sw	a5,0(a3)
	.loc 1 141 3
.LVL397:
	.loc 1 125 12 is_stmt 0
	li	a1,-1073741824
	addi	a1,a1,8
	.loc 1 141 11
	sb	a4,12(sp)
	.loc 1 142 11 is_stmt 1
	.loc 1 124 2
	.loc 1 125 3
.LVL398:
	.loc 1 125 9
	.loc 1 125 12 is_stmt 0
	lw	a4,0(a1)
.LVL399:
	.loc 1 126 3 is_stmt 1
	sw	a2,0(a3)
	.loc 1 126 10
	sw	a5,%lo(SPI)(s0)
	sw	a5,0(a3)
	.loc 1 127 3
	.loc 1 127 11
	.loc 1 127 14 is_stmt 0
	lw	a4,0(a1)
	.loc 1 127 22 is_stmt 1 discriminator 1
.LVL400:
	.loc 1 128 3
	sw	a2,0(a3)
	.loc 1 128 10
	sw	a5,%lo(SPI)(s0)
	sw	a5,0(a3)
	.loc 1 129 3
.LVL401:
	.loc 1 129 11
	.loc 1 129 14 is_stmt 0
	lw	a4,0(a1)
	.loc 1 129 22 is_stmt 1 discriminator 1
.LVL402:
	.loc 1 130 3
	sw	a2,0(a3)
	.loc 1 130 10
	sw	a5,%lo(SPI)(s0)
	sw	a5,0(a3)
	.loc 1 131 3
.LVL403:
	.loc 1 131 11
	.loc 1 131 14 is_stmt 0
	lw	a4,0(a1)
	.loc 1 131 22 is_stmt 1 discriminator 1
.LVL404:
	.loc 1 132 3
	sw	a2,0(a3)
	.loc 1 132 10
	sw	a5,%lo(SPI)(s0)
	sw	a5,0(a3)
	.loc 1 133 3
.LVL405:
	.loc 1 133 11
	.loc 1 133 14 is_stmt 0
	lw	a4,0(a1)
	.loc 1 133 22 is_stmt 1 discriminator 1
.LVL406:
	.loc 1 134 3
	sw	a2,0(a3)
	.loc 1 134 10
	sw	a5,%lo(SPI)(s0)
	sw	a5,0(a3)
	.loc 1 135 3
.LVL407:
	.loc 1 135 11
	.loc 1 135 14 is_stmt 0
	lw	a4,0(a1)
	.loc 1 135 22 is_stmt 1 discriminator 1
.LVL408:
	.loc 1 136 3
	sw	a2,0(a3)
	.loc 1 136 10
	sw	a5,%lo(SPI)(s0)
	sw	a5,0(a3)
	.loc 1 137 3
.LVL409:
	.loc 1 137 11
	.loc 1 137 14 is_stmt 0
	lw	a4,0(a1)
	.loc 1 137 22 is_stmt 1 discriminator 1
.LVL410:
	.loc 1 138 3
	sw	a2,0(a3)
	.loc 1 138 10
	sw	a5,%lo(SPI)(s0)
	sw	a5,0(a3)
	.loc 1 139 3
.LVL411:
	.loc 1 139 11
	.loc 1 139 14 is_stmt 0
	lw	a4,0(a1)
	.loc 1 139 22 is_stmt 1 discriminator 1
.LVL412:
	.loc 1 140 3
	sw	a2,0(a3)
	.loc 1 140 10
	sw	a5,%lo(SPI)(s0)
	sw	a5,0(a3)
	.loc 1 141 3
.LVL413:
	.loc 1 142 11
	.loc 1 124 2
	.loc 1 125 3
	.loc 1 125 9
	.loc 1 125 12 is_stmt 0
	lw	a4,0(a1)
.LVL414:
	.loc 1 126 3 is_stmt 1
	sw	a2,0(a3)
	.loc 1 126 10
	sw	a5,%lo(SPI)(s0)
	sw	a5,0(a3)
	.loc 1 127 3
	.loc 1 127 11
	.loc 1 127 14 is_stmt 0
	lw	a4,0(a1)
	.loc 1 127 22 is_stmt 1 discriminator 1
.LVL415:
	.loc 1 128 3
	sw	a2,0(a3)
	.loc 1 128 10
	sw	a5,%lo(SPI)(s0)
	sw	a5,0(a3)
	.loc 1 129 3
.LVL416:
	.loc 1 129 11
	.loc 1 129 14 is_stmt 0
	lw	a4,0(a1)
	.loc 1 129 22 is_stmt 1 discriminator 1
.LVL417:
	.loc 1 130 3
	sw	a2,0(a3)
	.loc 1 130 10
	sw	a5,%lo(SPI)(s0)
	sw	a5,0(a3)
	.loc 1 131 3
.LVL418:
	.loc 1 131 11
	.loc 1 131 14 is_stmt 0
	lw	a4,0(a1)
	.loc 1 131 22 is_stmt 1 discriminator 1
.LVL419:
	.loc 1 132 3
	sw	a2,0(a3)
	.loc 1 132 10
	sw	a5,%lo(SPI)(s0)
	sw	a5,0(a3)
	.loc 1 133 3
.LVL420:
	.loc 1 133 11
	.loc 1 133 14 is_stmt 0
	lw	a4,0(a1)
	.loc 1 133 22 is_stmt 1 discriminator 1
.LVL421:
	.loc 1 134 3
	sw	a2,0(a3)
	.loc 1 134 10
	sw	a5,%lo(SPI)(s0)
	sw	a5,0(a3)
	.loc 1 135 3
.LVL422:
	.loc 1 135 11
	.loc 1 135 14 is_stmt 0
	lw	a4,0(a1)
	.loc 1 135 22 is_stmt 1 discriminator 1
.LVL423:
	.loc 1 136 3
	sw	a2,0(a3)
	.loc 1 136 10
	sw	a5,%lo(SPI)(s0)
	sw	a5,0(a3)
	.loc 1 137 3
.LVL424:
	.loc 1 137 11
	.loc 1 137 14 is_stmt 0
	lw	a4,0(a1)
	.loc 1 137 22 is_stmt 1 discriminator 1
.LVL425:
	.loc 1 138 3
	sw	a2,0(a3)
	.loc 1 138 10
	sw	a5,%lo(SPI)(s0)
	sw	a5,0(a3)
	.loc 1 139 3
.LVL426:
	.loc 1 139 11
	.loc 1 139 14 is_stmt 0
	lw	a4,0(a1)
	.loc 1 139 22 is_stmt 1 discriminator 1
.LVL427:
	.loc 1 140 3
	sw	a2,0(a3)
	.loc 1 140 10
	sw	a5,%lo(SPI)(s0)
	sw	a5,0(a3)
	.loc 1 141 3
.LVL428:
	.loc 1 142 11
	.loc 1 124 2
	.loc 1 125 3
	.loc 1 125 9
	.loc 1 125 12 is_stmt 0
	lw	a4,0(a1)
.LVL429:
	.loc 1 126 3 is_stmt 1
	sw	a2,0(a3)
	.loc 1 126 10
	sw	a5,%lo(SPI)(s0)
	sw	a5,0(a3)
	.loc 1 127 3
	.loc 1 127 11
	.loc 1 127 14 is_stmt 0
	lw	a4,0(a1)
	.loc 1 127 22 is_stmt 1 discriminator 1
.LVL430:
	.loc 1 128 3
	sw	a2,0(a3)
	.loc 1 128 10
	sw	a5,%lo(SPI)(s0)
	sw	a5,0(a3)
	.loc 1 129 3
.LVL431:
	.loc 1 129 11
	.loc 1 129 14 is_stmt 0
	lw	a4,0(a1)
	.loc 1 129 22 is_stmt 1 discriminator 1
.LVL432:
	.loc 1 130 3
	sw	a2,0(a3)
	.loc 1 130 10
	sw	a5,%lo(SPI)(s0)
	sw	a5,0(a3)
	.loc 1 131 3
.LVL433:
	.loc 1 131 11
	.loc 1 131 14 is_stmt 0
	lw	a4,0(a1)
	.loc 1 131 22 is_stmt 1 discriminator 1
.LVL434:
	.loc 1 132 3
	sw	a2,0(a3)
	.loc 1 132 10
	sw	a5,%lo(SPI)(s0)
	sw	a5,0(a3)
	.loc 1 133 3
.LVL435:
	.loc 1 133 11
	.loc 1 133 14 is_stmt 0
	lw	a4,0(a1)
	.loc 1 133 22 is_stmt 1 discriminator 1
.LVL436:
	.loc 1 134 3
	sw	a2,0(a3)
	.loc 1 134 10
	sw	a5,%lo(SPI)(s0)
	sw	a5,0(a3)
	.loc 1 135 3
.LVL437:
	.loc 1 135 11
	.loc 1 135 14 is_stmt 0
	lw	a4,0(a1)
	.loc 1 135 22 is_stmt 1 discriminator 1
.LVL438:
	.loc 1 136 3
	sw	a2,0(a3)
	.loc 1 136 10
	sw	a5,%lo(SPI)(s0)
	sw	a5,0(a3)
	.loc 1 137 3
.LVL439:
	.loc 1 137 11
	.loc 1 137 14 is_stmt 0
	lw	a4,0(a1)
	.loc 1 137 22 is_stmt 1 discriminator 1
.LVL440:
	.loc 1 138 3
	sw	a2,0(a3)
	.loc 1 138 10
	sw	a5,%lo(SPI)(s0)
	sw	a5,0(a3)
	.loc 1 139 3
.LVL441:
	.loc 1 139 11
	.loc 1 139 14 is_stmt 0
	lw	a4,0(a1)
	.loc 1 139 22 is_stmt 1 discriminator 1
.LVL442:
	.loc 1 140 3
	sw	a2,0(a3)
	.loc 1 140 10
	sw	a5,%lo(SPI)(s0)
	sw	a5,0(a3)
	.loc 1 141 3
.LVL443:
	.loc 1 142 11
.LBE293:
.LBE292:
	.loc 1 355 6
	lbu	a0,12(sp)
	.loc 1 355 9 is_stmt 0 discriminator 2
	li	s1,8
	andi	a0,a0,64
	.loc 1 355 9
	beq	a0,zero,.L335
	lw	s2,32(sp)
	.cfi_remember_state
	.cfi_restore 18
	lw	s3,28(sp)
	.cfi_restore 19
	li	a0,0
	.loc 1 355 9 discriminator 1
	li	s1,24
	j	.L212
.L335:
	.cfi_restore_state
	lw	s2,32(sp)
	.cfi_restore 18
	lw	s3,28(sp)
	.cfi_restore 19
	j	.L212
	.cfi_endproc
.LFE12:
	.size	disk_initialize, .-disk_initialize
	.align	2
	.globl	disk_read
	.type	disk_read, @function
disk_read:
.LFB13:
	.loc 1 389 3 is_stmt 1
	.cfi_startproc
.LVL444:
	.loc 1 390 2
	.loc 1 391 2
.LBB306:
.LBB307:
	.loc 1 318 9 is_stmt 0
	lui	a5,%hi(Stat)
.LBE307:
.LBE306:
	.loc 1 393 5 discriminator 1
	lbu	a5,%lo(Stat)(a5)
	andi	a5,a5,1
	or	a0,a0,a5
.LVL445:
	.loc 1 393 2 is_stmt 1
.LBB309:
.LBB308:
	.loc 1 317 2
	.loc 1 318 2
.LBE308:
.LBE309:
	.loc 1 393 5 is_stmt 0 discriminator 1
	bne	a0,zero,.L360
	.loc 1 394 2 is_stmt 1
	.loc 1 394 17 is_stmt 0
	lui	a5,%hi(CardType)
	.loc 1 394 5
	lbu	a5,%lo(CardType)(a5)
	.loc 1 389 3
	addi	sp,sp,-64
	.cfi_def_cfa_offset 64
	sw	s3,44(sp)
	sw	s7,28(sp)
	sw	ra,60(sp)
	sw	s0,56(sp)
	sw	s5,36(sp)
	.loc 1 394 5
	andi	a5,a5,16
	.cfi_offset 19, -20
	.cfi_offset 23, -36
	.cfi_offset 1, -4
	.cfi_offset 8, -8
	.cfi_offset 21, -28
	mv	s7,a1
	mv	s3,a3
	mv	a1,a2
.LVL446:
	bne	a5,zero,.L342
	.loc 1 394 30 is_stmt 1 discriminator 1
	.loc 1 394 35 is_stmt 0 discriminator 1
	slli	a1,a2,9
.LVL447:
.L342:
	.loc 1 396 2 is_stmt 1
	.loc 1 396 6 is_stmt 0
	li	s5,1
	.loc 1 396 6 discriminator 1
	sgtu	s5,s3,s5
	addi	s5,s5,17
.LVL448:
	.loc 1 397 2 is_stmt 1
	.loc 1 397 6 is_stmt 0
	mv	a0,s5
	call	send_cmd
.LVL449:
	.loc 1 397 5 discriminator 1
	bne	a0,zero,.L388
	sw	s1,52(sp)
	sw	s2,48(sp)
	sw	s4,40(sp)
	.cfi_offset 9, -12
	.cfi_offset 18, -16
	.cfi_offset 20, -24
.LBB310:
.LBB311:
.LBB312:
.LBB313:
	.loc 1 81 7
	li	s2,-1073479680
	.loc 1 84 5
	li	s4,12288
.LBE313:
.LBE312:
.LBB316:
.LBB317:
	.loc 1 125 12
	li	s1,-1073741824
	sw	s6,32(sp)
	sw	s8,24(sp)
	sw	s9,20(sp)
	.cfi_offset 22, -32
	.cfi_offset 24, -40
	.cfi_offset 25, -44
	lui	s0,%hi(SPI)
.LBE317:
.LBE316:
.LBB321:
.LBB314:
	.loc 1 81 7
	addi	s2,s2,4
	.loc 1 84 5
	addi	s4,s4,-289
.LBE314:
.LBE321:
.LBB322:
.LBB318:
	.loc 1 123 2
	li	s6,-1073741824
	.loc 1 125 12
	addi	s1,s1,8
.LVL450:
.L344:
.LBE318:
.LBE322:
.LBE311:
.LBE310:
	.loc 1 398 3 is_stmt 1
	.loc 1 399 4
.LBB331:
.LBB326:
	.loc 1 222 2
	.loc 1 223 2
	.loc 1 225 2
	.loc 1 225 19 discriminator 1
.LBE326:
.LBE331:
	.loc 1 396 6 is_stmt 0 discriminator 2
	li	s8,1000
.LBB332:
.LBB327:
	.loc 1 227 6
	li	s9,255
.LVL451:
.L348:
	.loc 1 226 3 is_stmt 1
	addi	a0,sp,12
	call	rcvr_mmc.constprop.0
.LVL452:
	.loc 1 227 3
	.loc 1 227 8 is_stmt 0
	lbu	a5,12(sp)
	.loc 1 227 6
	bne	a5,s9,.L346
	.loc 1 228 3 is_stmt 1
.LVL453:
.LBB323:
.LBB315:
	.loc 1 77 2
	.loc 1 78 2
	.loc 1 80 2
	.loc 1 81 2
	.loc 1 81 7 is_stmt 0
	lw	a5,0(s2)
.LVL454:
.L347:
	.loc 1 82 2 is_stmt 1
	.loc 1 83 3
	.loc 1 83 24 is_stmt 0
	lw	a4,0(s2)
.LVL455:
	.loc 1 84 3 is_stmt 1
	.loc 1 83 15 is_stmt 0
	sub	a4,a4,a5
.LVL456:
	.loc 1 84 5
	bleu	a4,s4,.L347
.LVL457:
.LBE315:
.LBE323:
	.loc 1 225 27 is_stmt 1 discriminator 2
	.loc 1 225 19 discriminator 1
	addi	s8,s8,-1
	bne	s8,zero,.L348
.L349:
.LVL458:
.LBE327:
.LBE332:
	.loc 1 406 27 is_stmt 0
	snez	s3,s3
.LVL459:
.L358:
	.loc 1 402 3 is_stmt 1
	.loc 1 402 6 is_stmt 0
	li	a5,18
	beq	s5,a5,.L393
.L359:
.LBB333:
.LBB328:
.LBB324:
.LBB319:
	.loc 1 123 2
	lw	s1,52(sp)
	.cfi_restore 9
	lw	s2,48(sp)
	.cfi_restore 18
	lw	s4,40(sp)
	.cfi_restore 20
	lw	s6,32(sp)
	.cfi_restore 22
	lw	s8,24(sp)
	.cfi_restore 24
	lw	s9,20(sp)
	.cfi_restore 25
	mv	a0,s3
	j	.L345
.LVL460:
.L388:
.LBE319:
.LBE324:
.LBE328:
.LBE333:
	.loc 1 406 27
	snez	a0,s3
	lui	s0,%hi(SPI)
.LVL461:
.L345:
	.loc 1 404 2 is_stmt 1
.LBB334:
.LBB335:
	.loc 1 196 2
	lw	a5,%lo(SPI)(s0)
	li	a4,-1073741824
	ori	a5,a5,128
	sw	a5,%lo(SPI)(s0)
	sw	a5,0(a4)
.LBE335:
.LBE334:
	.loc 1 406 2
	.loc 1 407 1 is_stmt 0
	lw	ra,60(sp)
	.cfi_restore 1
	lw	s0,56(sp)
	.cfi_restore 8
	lw	s3,44(sp)
	.cfi_restore 19
	lw	s5,36(sp)
	.cfi_restore 21
.LVL462:
	lw	s7,28(sp)
	.cfi_restore 23
	addi	sp,sp,64
	.cfi_def_cfa_offset 0
	jr	ra
.LVL463:
.L346:
	.cfi_def_cfa_offset 64
	.cfi_offset 1, -4
	.cfi_offset 8, -8
	.cfi_offset 9, -12
	.cfi_offset 18, -16
	.cfi_offset 19, -20
	.cfi_offset 20, -24
	.cfi_offset 21, -28
	.cfi_offset 22, -32
	.cfi_offset 23, -36
	.cfi_offset 24, -40
	.cfi_offset 25, -44
.LBB336:
.LBB329:
	.loc 1 230 2 is_stmt 1
	.loc 1 230 5 is_stmt 0
	li	a4,254
	bne	a5,a4,.L349
	.loc 1 232 2 is_stmt 1
.LVL464:
.LBB325:
.LBB320:
	.loc 1 121 2
	.loc 1 123 2
	lw	a5,%lo(SPI)(s0)
	addi	a2,s7,512
	ori	a5,a5,64
	sw	a5,%lo(SPI)(s0)
	sw	a5,0(s6)
.LVL465:
.L357:
	.loc 1 124 2
	.loc 1 125 3
	.loc 1 125 9
	.loc 1 126 3 is_stmt 0
	lw	a4,%lo(SPI)(s0)
	.loc 1 125 12
	lw	a5,0(s1)
.LVL466:
	.loc 1 126 3 is_stmt 1
	ori	a3,a4,32
	sw	a3,0(s6)
	.loc 1 126 10
	andi	a4,a4,-33
	sw	a4,%lo(SPI)(s0)
	sw	a4,0(s6)
	.loc 1 127 3
	.loc 1 128 3 is_stmt 0
	ori	a3,a4,32
	.loc 1 127 14
	lw	a1,0(s1)
	.loc 1 128 3
	sw	a3,0(s6)
	.loc 1 128 10
	sw	a4,%lo(SPI)(s0)
	sw	a4,0(s6)
	.loc 1 129 14
	lw	a0,0(s1)
	.loc 1 125 11
	srli	a5,a5,3
.LVL467:
	.loc 1 127 14
	andi	a1,a1,16
	.loc 1 127 23 discriminator 1
	snez	a1,a1
	.loc 1 127 5
	andi	a5,a5,2
.LVL468:
	.loc 1 127 11 is_stmt 1
	.loc 1 127 23 is_stmt 0 discriminator 1
	add	a5,a5,a1
.LVL469:
	.loc 1 128 3 is_stmt 1
	.loc 1 128 10
	.loc 1 129 3
	.loc 1 129 14 is_stmt 0
	andi	a1,a0,16
	.loc 1 129 5
	slli	a5,a5,1
.LVL470:
	.loc 1 129 11 is_stmt 1
	.loc 1 129 13 is_stmt 0
	beq	a1,zero,.L351
	.loc 1 129 22 is_stmt 1 discriminator 1
	.loc 1 129 23 is_stmt 0 discriminator 1
	addi	a5,a5,1
.LVL471:
	andi	a5,a5,0xff
.LVL472:
.L351:
	.loc 1 130 3 is_stmt 1
	sw	a3,0(s6)
	.loc 1 130 10
	sw	a4,%lo(SPI)(s0)
	sw	a4,0(s6)
	.loc 1 131 3
	.loc 1 131 14 is_stmt 0
	lw	a1,0(s1)
	.loc 1 131 5
	slli	a5,a5,1
.LVL473:
	andi	a5,a5,0xff
.LVL474:
	.loc 1 131 11 is_stmt 1
	.loc 1 131 14 is_stmt 0
	andi	a1,a1,16
	.loc 1 131 13
	beq	a1,zero,.L352
	.loc 1 131 22 is_stmt 1 discriminator 1
	.loc 1 131 23 is_stmt 0 discriminator 1
	addi	a5,a5,1
.LVL475:
	andi	a5,a5,0xff
.LVL476:
.L352:
	.loc 1 132 3 is_stmt 1
	sw	a3,0(s6)
	.loc 1 132 10
	sw	a4,%lo(SPI)(s0)
	sw	a4,0(s6)
	.loc 1 133 3
	.loc 1 133 14 is_stmt 0
	lw	a1,0(s1)
	.loc 1 133 5
	slli	a5,a5,1
.LVL477:
	andi	a5,a5,0xff
.LVL478:
	.loc 1 133 11 is_stmt 1
	.loc 1 133 14 is_stmt 0
	andi	a1,a1,16
	.loc 1 133 13
	beq	a1,zero,.L353
	.loc 1 133 22 is_stmt 1 discriminator 1
	.loc 1 133 23 is_stmt 0 discriminator 1
	addi	a5,a5,1
.LVL479:
	andi	a5,a5,0xff
.LVL480:
.L353:
	.loc 1 134 3 is_stmt 1
	sw	a3,0(s6)
	.loc 1 134 10
	sw	a4,%lo(SPI)(s0)
	sw	a4,0(s6)
	.loc 1 135 3
	.loc 1 135 14 is_stmt 0
	lw	a1,0(s1)
	.loc 1 135 5
	slli	a5,a5,1
.LVL481:
	andi	a5,a5,0xff
.LVL482:
	.loc 1 135 11 is_stmt 1
	.loc 1 135 14 is_stmt 0
	andi	a1,a1,16
	.loc 1 135 13
	beq	a1,zero,.L354
	.loc 1 135 22 is_stmt 1 discriminator 1
	.loc 1 135 23 is_stmt 0 discriminator 1
	addi	a5,a5,1
.LVL483:
	andi	a5,a5,0xff
.LVL484:
.L354:
	.loc 1 136 3 is_stmt 1
	sw	a3,0(s6)
	.loc 1 136 10
	sw	a4,%lo(SPI)(s0)
	sw	a4,0(s6)
	.loc 1 137 3
	.loc 1 137 14 is_stmt 0
	lw	a1,0(s1)
	.loc 1 137 5
	slli	a5,a5,1
.LVL485:
	andi	a5,a5,0xff
.LVL486:
	.loc 1 137 11 is_stmt 1
	.loc 1 137 14 is_stmt 0
	andi	a1,a1,16
	.loc 1 137 13
	beq	a1,zero,.L355
	.loc 1 137 22 is_stmt 1 discriminator 1
	.loc 1 137 23 is_stmt 0 discriminator 1
	addi	a5,a5,1
.LVL487:
	andi	a5,a5,0xff
.LVL488:
.L355:
	.loc 1 138 3 is_stmt 1
	sw	a3,0(s6)
	.loc 1 138 10
	sw	a4,%lo(SPI)(s0)
	sw	a4,0(s6)
	.loc 1 139 3
	.loc 1 139 14 is_stmt 0
	lw	a1,0(s1)
	.loc 1 139 5
	slli	a5,a5,1
.LVL489:
	andi	a5,a5,0xff
.LVL490:
	.loc 1 139 11 is_stmt 1
	.loc 1 139 14 is_stmt 0
	andi	a1,a1,16
	.loc 1 139 13
	beq	a1,zero,.L356
	.loc 1 139 22 is_stmt 1 discriminator 1
	.loc 1 139 23 is_stmt 0 discriminator 1
	addi	a5,a5,1
.LVL491:
	andi	a5,a5,0xff
.LVL492:
.L356:
	.loc 1 140 3 is_stmt 1
	sw	a3,0(s6)
	.loc 1 140 10
	sw	a4,%lo(SPI)(s0)
	sw	a4,0(s6)
	.loc 1 141 3
.LVL493:
	.loc 1 141 8 is_stmt 0
	addi	s7,s7,1
.LVL494:
	.loc 1 141 11
	sb	a5,-1(s7)
	.loc 1 142 11 is_stmt 1
	bne	s7,a2,.L357
.LVL495:
.LBE320:
.LBE325:
	.loc 1 233 2
	addi	a0,sp,12
.LBE329:
.LBE336:
	.loc 1 401 12 is_stmt 0
	addi	s3,s3,-1
.LVL496:
.LBB337:
.LBB330:
	.loc 1 233 2
	call	rcvr_mmc.constprop.1
.LVL497:
	.loc 1 235 2 is_stmt 1
.LBE330:
.LBE337:
	.loc 1 400 4
	.loc 1 401 12
	bne	s3,zero,.L344
	j	.L358
.LVL498:
.L393:
	.loc 1 402 21 discriminator 1
	li	a1,0
	li	a0,12
	call	send_cmd
.LVL499:
	j	.L359
.LVL500:
.L360:
	.cfi_def_cfa_offset 0
	.cfi_restore 1
	.cfi_restore 8
	.cfi_restore 9
	.cfi_restore 18
	.cfi_restore 19
	.cfi_restore 20
	.cfi_restore 21
	.cfi_restore 22
	.cfi_restore 23
	.cfi_restore 24
	.cfi_restore 25
	.loc 1 393 44 is_stmt 0 discriminator 1
	li	a0,3
	.loc 1 407 1
	ret
	.cfi_endproc
.LFE13:
	.size	disk_read, .-disk_read
	.align	2
	.globl	disk_write
	.type	disk_write, @function
disk_write:
.LFB14:
	.loc 1 418 3 is_stmt 1
	.cfi_startproc
.LVL501:
	.loc 1 419 2
.LBB338:
.LBB339:
	.loc 1 318 9 is_stmt 0
	lui	a5,%hi(Stat)
.LBE339:
.LBE338:
	.loc 1 421 5 discriminator 1
	lbu	a5,%lo(Stat)(a5)
	andi	a5,a5,1
	or	a0,a0,a5
.LVL502:
	.loc 1 421 2 is_stmt 1
.LBB341:
.LBB340:
	.loc 1 317 2
	.loc 1 318 2
.LBE340:
.LBE341:
	.loc 1 421 5 is_stmt 0 discriminator 1
	bne	a0,zero,.L404
	.loc 1 422 2 is_stmt 1
	.loc 1 422 17 is_stmt 0
	lui	a5,%hi(CardType)
	lbu	a5,%lo(CardType)(a5)
	.loc 1 418 3
	addi	sp,sp,-16
	.cfi_def_cfa_offset 16
	sw	s0,8(sp)
	sw	s1,4(sp)
	sw	s2,0(sp)
	sw	ra,12(sp)
	.cfi_offset 8, -8
	.cfi_offset 9, -12
	.cfi_offset 18, -16
	.cfi_offset 1, -4
	.loc 1 422 5
	andi	a4,a5,16
	mv	s1,a1
	mv	s2,a2
	mv	s0,a3
	beq	a4,zero,.L422
	.loc 1 424 2 is_stmt 1
	.loc 1 424 5 is_stmt 0
	li	a4,1
	beq	s0,a4,.L423
.LVL503:
.L397:
	.loc 1 430 3 is_stmt 1
	.loc 1 430 6 is_stmt 0
	andi	a5,a5,12
	bne	a5,zero,.L424
	.loc 1 431 3 is_stmt 1
	.loc 1 431 7 is_stmt 0
	mv	a1,s2
.LVL504:
	li	a0,25
	call	send_cmd
.LVL505:
	.loc 1 431 6 discriminator 1
	beq	a0,zero,.L401
.L421:
	.loc 1 442 27
	snez	a0,s0
.L399:
.LVL506:
	.loc 1 440 2 is_stmt 1
.LBB342:
.LBB343:
	.loc 1 196 2
	lui	a4,%hi(SPI)
	lw	a5,%lo(SPI)(a4)
	ori	a5,a5,128
	sw	a5,%lo(SPI)(a4)
	li	a4,-1073741824
	sw	a5,0(a4)
.LBE343:
.LBE342:
	.loc 1 442 2
	.loc 1 443 1 is_stmt 0
	lw	ra,12(sp)
	.cfi_remember_state
	.cfi_restore 1
	lw	s0,8(sp)
	.cfi_restore 8
	lw	s1,4(sp)
	.cfi_restore 9
.LVL507:
	lw	s2,0(sp)
	.cfi_restore 18
.LVL508:
	addi	sp,sp,16
	.cfi_def_cfa_offset 0
	jr	ra
.LVL509:
.L425:
	.cfi_restore_state
	.loc 1 435 13
	addi	s0,s0,-1
.LVL510:
	.loc 1 434 10
	addi	s1,s1,512
.LVL511:
	.loc 1 435 13 is_stmt 1
	beq	s0,zero,.L402
.L401:
	.loc 1 432 4
	.loc 1 433 5
	.loc 1 433 10 is_stmt 0
	li	a1,252
	mv	a0,s1
	call	xmit_datablock
.LVL512:
	.loc 1 434 5 is_stmt 1
	.loc 1 433 8 is_stmt 0 discriminator 1
	bne	a0,zero,.L425
.L402:
	.loc 1 436 4 is_stmt 1
	.loc 1 436 9 is_stmt 0
	li	a1,253
	li	a0,0
	call	xmit_datablock
.LVL513:
	.loc 1 436 7 discriminator 1
	bne	a0,zero,.L421
.L403:
	.loc 1 418 3
	li	a0,1
	j	.L399
.LVL514:
.L422:
	.loc 1 422 30 is_stmt 1 discriminator 1
	.loc 1 424 5 is_stmt 0
	li	a4,1
	.loc 1 422 35 discriminator 1
	slli	s2,a2,9
.LVL515:
	.loc 1 424 2 is_stmt 1
	.loc 1 424 5 is_stmt 0
	bne	s0,a4,.L397
.L423:
	.loc 1 425 3 is_stmt 1
	.loc 1 425 8 is_stmt 0
	mv	a1,s2
	li	a0,24
	call	send_cmd
.LVL516:
	.loc 1 425 6 discriminator 1
	bne	a0,zero,.L403
	.loc 1 426 7
	li	a1,254
	mv	a0,s1
	call	xmit_datablock
.LVL517:
	.loc 1 426 4 discriminator 1
	seqz	a0,a0
	j	.L399
.LVL518:
.L424:
	.loc 1 430 26 is_stmt 1 discriminator 1
	mv	a1,s0
	li	a0,151
	call	send_cmd
.LVL519:
	.loc 1 431 3
	.loc 1 431 7 is_stmt 0
	mv	a1,s2
	li	a0,25
	call	send_cmd
.LVL520:
	.loc 1 431 6 discriminator 1
	beq	a0,zero,.L401
	j	.L421
.LVL521:
.L404:
	.cfi_def_cfa_offset 0
	.cfi_restore 1
	.cfi_restore 8
	.cfi_restore 9
	.cfi_restore 18
	.loc 1 421 44 discriminator 1
	li	a0,3
	.loc 1 443 1
	ret
	.cfi_endproc
.LFE14:
	.size	disk_write, .-disk_write
	.align	2
	.globl	disk_ioctl
	.type	disk_ioctl, @function
disk_ioctl:
.LFB15:
	.loc 1 453 3 is_stmt 1
	.cfi_startproc
.LVL522:
	.loc 1 454 2
	.loc 1 455 2
	.loc 1 456 2
	.loc 1 458 2
.LBB364:
.LBB365:
	.loc 1 318 9 is_stmt 0
	lui	a5,%hi(Stat)
.LBE365:
.LBE364:
	.loc 1 458 5 discriminator 1
	lbu	a5,%lo(Stat)(a5)
.LVL523:
.LBB367:
.LBB366:
	.loc 1 317 2 is_stmt 1
	.loc 1 318 2
.LBE366:
.LBE367:
	.loc 1 458 5 is_stmt 0 discriminator 1
	andi	a5,a5,1
	or	a0,a0,a5
.LVL524:
	bne	a0,zero,.L451
	.loc 1 453 3
	addi	sp,sp,-64
	.cfi_def_cfa_offset 64
	sw	s2,48(sp)
	sw	ra,60(sp)
	sw	s3,44(sp)
	.loc 1 461 2
	li	a5,1
	.cfi_offset 18, -16
	.cfi_offset 1, -4
	.cfi_offset 19, -20
	mv	s2,a2
	.loc 1 460 2 is_stmt 1
.LVL525:
	.loc 1 461 2
	beq	a1,a5,.L428
	li	a5,3
	beq	a1,a5,.L429
	bne	a1,zero,.L452
	.loc 1 463 4
.LBB368:
.LBB369:
	.loc 1 205 2
	.loc 1 207 2
	lui	s3,%hi(SPI)
	lw	a5,%lo(SPI)(s3)
	sw	s0,56(sp)
	sw	s1,52(sp)
	andi	a5,a5,-129
	sw	s4,40(sp)
	sw	a5,%lo(SPI)(s3)
	li	a4,-1073741824
	.loc 1 208 2 is_stmt 0
	addi	a0,sp,12
	.loc 1 207 2
	sw	a5,0(a4)
	.loc 1 208 2 is_stmt 1
.LBB370:
.LBB371:
	.loc 1 183 11 is_stmt 0
	li	s2,4096
	.cfi_offset 8, -8
	.cfi_offset 9, -12
	.cfi_offset 20, -24
.LBB372:
.LBB373:
	.loc 1 81 7
	li	s0,-1073479680
	.loc 1 84 5
	li	s1,12288
.LBE373:
.LBE372:
.LBE371:
.LBE370:
	.loc 1 208 2
	call	rcvr_mmc.constprop.0
.LVL526:
	.loc 1 209 2 is_stmt 1
.LBB379:
.LBB378:
	.loc 1 180 2
	.loc 1 181 2
	.loc 1 183 2
	.loc 1 183 19 discriminator 1
	.loc 1 183 11 is_stmt 0
	addi	s2,s2,904
	.loc 1 185 6
	li	s4,255
.LBB376:
.LBB374:
	.loc 1 81 7
	addi	s0,s0,4
	.loc 1 84 5
	addi	s1,s1,-289
.LVL527:
.L433:
.LBE374:
.LBE376:
	.loc 1 184 3 is_stmt 1
	addi	a0,sp,16
	call	rcvr_mmc.constprop.0
.LVL528:
	.loc 1 185 3
	.loc 1 185 6 is_stmt 0
	lbu	a5,16(sp)
	beq	a5,s4,.L487
	.loc 1 186 3 is_stmt 1
.LVL529:
.LBB377:
.LBB375:
	.loc 1 77 2
	.loc 1 78 2
	.loc 1 80 2
	.loc 1 81 2
	.loc 1 81 7 is_stmt 0
	lw	a4,0(s0)
.LVL530:
.L432:
	.loc 1 82 2 is_stmt 1
	.loc 1 83 3
	.loc 1 83 24 is_stmt 0
	lw	a5,0(s0)
.LVL531:
	.loc 1 84 3 is_stmt 1
	.loc 1 83 15 is_stmt 0
	sub	a5,a5,a4
.LVL532:
	.loc 1 84 5
	bleu	a5,s1,.L432
.LVL533:
.LBE375:
.LBE377:
	.loc 1 183 27 is_stmt 1 discriminator 2
	addi	s2,s2,-1
.LVL534:
	.loc 1 183 19 discriminator 1
	bne	s2,zero,.L433
	.loc 1 188 2
.LVL535:
.LBE378:
.LBE379:
.LBB380:
.LBB381:
.LBB382:
.LBB383:
	.loc 1 196 2 is_stmt 0
	lw	a5,%lo(SPI)(s3)
	li	a4,-1073741824
	ori	a5,a5,128
.LBE383:
.LBE382:
	.loc 1 210 2 is_stmt 1
.LBB385:
.LBB384:
	.loc 1 196 2
	sw	a5,%lo(SPI)(s3)
	sw	a5,0(a4)
.LBE384:
.LBE385:
	.loc 1 211 2
	lw	s0,56(sp)
	.cfi_restore 8
	lw	s1,52(sp)
	.cfi_restore 9
	lw	s4,40(sp)
	.cfi_restore 20
.L435:
.LBE381:
.LBE380:
.LBE369:
.LBE368:
	.loc 1 460 6 is_stmt 0
	li	a0,1
	j	.L430
.LVL536:
.L452:
	.loc 1 461 2
	li	a0,4
	lui	s3,%hi(SPI)
.LVL537:
.L430:
	.loc 1 488 2 is_stmt 1
.LBB386:
.LBB387:
	.loc 1 196 2
	lw	a5,%lo(SPI)(s3)
	li	a4,-1073741824
	ori	a5,a5,128
	sw	a5,%lo(SPI)(s3)
	sw	a5,0(a4)
.LBE387:
.LBE386:
	.loc 1 489 2
	.loc 1 490 1 is_stmt 0
	lw	ra,60(sp)
	.cfi_remember_state
	.cfi_restore 1
	lw	s2,48(sp)
	.cfi_restore 18
	lw	s3,44(sp)
	.cfi_restore 19
	addi	sp,sp,64
	.cfi_def_cfa_offset 0
	jr	ra
.LVL538:
.L429:
	.cfi_restore_state
	.loc 1 481 4 is_stmt 1
	.loc 1 481 18 is_stmt 0
	li	a5,128
	sw	a5,0(a2)
	.loc 1 482 4 is_stmt 1
.LVL539:
	.loc 1 483 4
	lui	s3,%hi(SPI)
	.loc 1 463 22 is_stmt 0 discriminator 1
	li	a0,0
	j	.L430
.LVL540:
.L428:
	.loc 1 467 4 is_stmt 1
	.loc 1 467 9 is_stmt 0
	li	a1,0
.LVL541:
	li	a0,9
	call	send_cmd
.LVL542:
	lui	s3,%hi(SPI)
	.loc 1 467 7 discriminator 1
	bne	a0,zero,.L435
	sw	s0,56(sp)
	sw	s1,52(sp)
	.cfi_offset 8, -8
	.cfi_offset 9, -12
.LBB388:
.LBB389:
.LBB390:
.LBB391:
	.loc 1 81 7
	li	s0,-1073479680
	.loc 1 84 5
	li	s1,12288
	sw	s4,40(sp)
	.cfi_offset 20, -24
.LBE391:
.LBE390:
.LBE389:
.LBE388:
	li	s3,1000
.LBB401:
.LBB398:
	.loc 1 227 6
	li	s4,255
.LBB394:
.LBB392:
	.loc 1 81 7
	addi	s0,s0,4
	.loc 1 84 5
	addi	s1,s1,-289
.L438:
.LBE392:
.LBE394:
	.loc 1 226 3 is_stmt 1
	addi	a0,sp,12
	call	rcvr_mmc.constprop.0
.LVL543:
	.loc 1 227 3
	.loc 1 227 8 is_stmt 0
	lbu	a5,12(sp)
	.loc 1 227 6
	bne	a5,s4,.L436
	.loc 1 228 3 is_stmt 1
.LVL544:
.LBB395:
.LBB393:
	.loc 1 77 2
	.loc 1 78 2
	.loc 1 80 2
	.loc 1 81 2
	.loc 1 81 7 is_stmt 0
	lw	a4,0(s0)
.LVL545:
.L437:
	.loc 1 82 2 is_stmt 1
	.loc 1 83 3
	.loc 1 83 24 is_stmt 0
	lw	a5,0(s0)
.LVL546:
	.loc 1 84 3 is_stmt 1
	.loc 1 83 15 is_stmt 0
	sub	a5,a5,a4
.LVL547:
	.loc 1 84 5
	bleu	a5,s1,.L437
.LVL548:
.LBE393:
.LBE395:
	.loc 1 225 27 is_stmt 1 discriminator 2
	.loc 1 225 19 discriminator 1
	addi	s3,s3,-1
	bne	s3,zero,.L438
	lw	s0,56(sp)
	.cfi_remember_state
	.cfi_restore 8
	lw	s1,52(sp)
	.cfi_restore 9
	lw	s4,40(sp)
	.cfi_restore 20
	lui	s3,%hi(SPI)
.LBE398:
.LBE401:
	.loc 1 460 6 is_stmt 0
	li	a0,1
	j	.L430
.LVL549:
.L487:
	.cfi_restore_state
	lw	s0,56(sp)
	.cfi_restore 8
	lw	s1,52(sp)
	.cfi_restore 9
	lw	s4,40(sp)
	.cfi_restore 20
	.loc 1 463 22 discriminator 1
	li	a0,0
	j	.L430
.LVL550:
.L451:
	.cfi_def_cfa_offset 0
	.cfi_restore 1
	.cfi_restore 18
	.cfi_restore 19
	.loc 1 458 44 discriminator 1
	li	a0,3
	.loc 1 490 1
	ret
.LVL551:
.L436:
	.cfi_def_cfa_offset 64
	.cfi_offset 1, -4
	.cfi_offset 8, -8
	.cfi_offset 9, -12
	.cfi_offset 18, -16
	.cfi_offset 19, -20
	.cfi_offset 20, -24
.LBB402:
.LBB399:
	.loc 1 230 2 is_stmt 1
	.loc 1 230 5 is_stmt 0
	li	a4,254
	lui	s3,%hi(SPI)
	beq	a5,a4,.L489
	lw	s0,56(sp)
	.cfi_remember_state
	.cfi_restore 8
	lw	s1,52(sp)
	.cfi_restore 9
	lw	s4,40(sp)
	.cfi_restore 20
.LBE399:
.LBE402:
	.loc 1 460 6
	li	a0,1
	j	.L430
.L489:
	.cfi_restore_state
.LBB403:
.LBB400:
	.loc 1 232 2 is_stmt 1
.LVL552:
.LBB396:
.LBB397:
	.loc 1 121 2
	.loc 1 123 2
	lw	a5,%lo(SPI)(s3)
	.loc 1 125 12 is_stmt 0
	li	a2,-1073741824
	.loc 1 123 2
	li	a4,-1073741824
	ori	a5,a5,64
	sw	a5,%lo(SPI)(s3)
	sw	a5,0(a4)
	addi	a6,sp,16
.LVL553:
	.loc 1 125 12
	li	a3,-1073741824
	addi	a2,a2,8
.LVL554:
.L447:
	.loc 1 124 2 is_stmt 1
	.loc 1 125 3
	.loc 1 125 9
	.loc 1 126 3 is_stmt 0
	lw	a4,%lo(SPI)(s3)
	.loc 1 125 12
	lw	a5,0(a2)
.LVL555:
	.loc 1 126 3 is_stmt 1
	ori	a1,a4,32
	sw	a1,0(a3)
	.loc 1 126 10
	andi	a4,a4,-33
	sw	a4,%lo(SPI)(s3)
	sw	a4,0(a3)
	.loc 1 127 3
	.loc 1 128 3 is_stmt 0
	ori	a1,a4,32
	.loc 1 127 14
	lw	a0,0(a2)
	.loc 1 128 3
	sw	a1,0(a3)
	.loc 1 128 10
	sw	a4,%lo(SPI)(s3)
	sw	a4,0(a3)
	.loc 1 129 14
	lw	a7,0(a2)
	.loc 1 125 11
	srli	a5,a5,3
.LVL556:
	.loc 1 127 14
	andi	a0,a0,16
	.loc 1 127 23 discriminator 1
	snez	a0,a0
	.loc 1 127 5
	andi	a5,a5,2
.LVL557:
	.loc 1 127 11 is_stmt 1
	.loc 1 127 23 is_stmt 0 discriminator 1
	add	a5,a5,a0
.LVL558:
	.loc 1 128 3 is_stmt 1
	.loc 1 128 10
	.loc 1 129 3
	.loc 1 129 14 is_stmt 0
	andi	a0,a7,16
	.loc 1 129 5
	slli	a5,a5,1
.LVL559:
	.loc 1 129 11 is_stmt 1
	.loc 1 129 13 is_stmt 0
	beq	a0,zero,.L441
	.loc 1 129 22 is_stmt 1 discriminator 1
	.loc 1 129 23 is_stmt 0 discriminator 1
	addi	a5,a5,1
.LVL560:
	andi	a5,a5,0xff
.LVL561:
.L441:
	.loc 1 130 3 is_stmt 1
	sw	a1,0(a3)
	.loc 1 130 10
	sw	a4,%lo(SPI)(s3)
	sw	a4,0(a3)
	.loc 1 131 3
	.loc 1 131 14 is_stmt 0
	lw	a0,0(a2)
	.loc 1 131 5
	slli	a5,a5,1
.LVL562:
	andi	a5,a5,0xff
.LVL563:
	.loc 1 131 11 is_stmt 1
	.loc 1 131 14 is_stmt 0
	andi	a0,a0,16
	.loc 1 131 13
	beq	a0,zero,.L442
	.loc 1 131 22 is_stmt 1 discriminator 1
	.loc 1 131 23 is_stmt 0 discriminator 1
	addi	a5,a5,1
.LVL564:
	andi	a5,a5,0xff
.LVL565:
.L442:
	.loc 1 132 3 is_stmt 1
	sw	a1,0(a3)
	.loc 1 132 10
	sw	a4,%lo(SPI)(s3)
	sw	a4,0(a3)
	.loc 1 133 3
	.loc 1 133 14 is_stmt 0
	lw	a0,0(a2)
	.loc 1 133 5
	slli	a5,a5,1
.LVL566:
	andi	a5,a5,0xff
.LVL567:
	.loc 1 133 11 is_stmt 1
	.loc 1 133 14 is_stmt 0
	andi	a0,a0,16
	.loc 1 133 13
	beq	a0,zero,.L443
	.loc 1 133 22 is_stmt 1 discriminator 1
	.loc 1 133 23 is_stmt 0 discriminator 1
	addi	a5,a5,1
.LVL568:
	andi	a5,a5,0xff
.LVL569:
.L443:
	.loc 1 134 3 is_stmt 1
	sw	a1,0(a3)
	.loc 1 134 10
	sw	a4,%lo(SPI)(s3)
	sw	a4,0(a3)
	.loc 1 135 3
	.loc 1 135 14 is_stmt 0
	lw	a0,0(a2)
	.loc 1 135 5
	slli	a5,a5,1
.LVL570:
	andi	a5,a5,0xff
.LVL571:
	.loc 1 135 11 is_stmt 1
	.loc 1 135 14 is_stmt 0
	andi	a0,a0,16
	.loc 1 135 13
	beq	a0,zero,.L444
	.loc 1 135 22 is_stmt 1 discriminator 1
	.loc 1 135 23 is_stmt 0 discriminator 1
	addi	a5,a5,1
.LVL572:
	andi	a5,a5,0xff
.LVL573:
.L444:
	.loc 1 136 3 is_stmt 1
	sw	a1,0(a3)
	.loc 1 136 10
	sw	a4,%lo(SPI)(s3)
	sw	a4,0(a3)
	.loc 1 137 3
	.loc 1 137 14 is_stmt 0
	lw	a0,0(a2)
	.loc 1 137 5
	slli	a5,a5,1
.LVL574:
	andi	a5,a5,0xff
.LVL575:
	.loc 1 137 11 is_stmt 1
	.loc 1 137 14 is_stmt 0
	andi	a0,a0,16
	.loc 1 137 13
	beq	a0,zero,.L445
	.loc 1 137 22 is_stmt 1 discriminator 1
	.loc 1 137 23 is_stmt 0 discriminator 1
	addi	a5,a5,1
.LVL576:
	andi	a5,a5,0xff
.LVL577:
.L445:
	.loc 1 138 3 is_stmt 1
	sw	a1,0(a3)
	.loc 1 138 10
	sw	a4,%lo(SPI)(s3)
	sw	a4,0(a3)
	.loc 1 139 3
	.loc 1 139 14 is_stmt 0
	lw	a0,0(a2)
	.loc 1 139 5
	slli	a5,a5,1
.LVL578:
	andi	a5,a5,0xff
.LVL579:
	.loc 1 139 11 is_stmt 1
	.loc 1 139 14 is_stmt 0
	andi	a0,a0,16
	.loc 1 139 13
	beq	a0,zero,.L446
	.loc 1 139 22 is_stmt 1 discriminator 1
	.loc 1 139 23 is_stmt 0 discriminator 1
	addi	a5,a5,1
.LVL580:
	andi	a5,a5,0xff
.LVL581:
.L446:
	.loc 1 140 3 is_stmt 1
	sw	a1,0(a3)
	.loc 1 140 10
	sw	a4,%lo(SPI)(s3)
	sw	a4,0(a3)
	.loc 1 141 3
	.loc 1 141 8 is_stmt 0
	addi	a6,a6,1
.LVL582:
	.loc 1 141 11
	sb	a5,-1(a6)
	.loc 1 142 11 is_stmt 1
	addi	a5,sp,32
.LVL583:
	bne	a6,a5,.L447
.LVL584:
.LBE397:
.LBE396:
	.loc 1 233 2
	addi	a0,sp,12
	call	rcvr_mmc.constprop.1
.LVL585:
	.loc 1 235 2
.LBE400:
.LBE403:
	.loc 1 468 5
	.loc 1 468 23 is_stmt 0
	lbu	a4,16(sp)
	.loc 1 468 8
	li	a1,1
	.loc 1 469 14
	lbu	a2,25(sp)
	.loc 1 468 8
	srli	a4,a4,6
	.loc 1 469 30
	lbu	a5,24(sp)
	.loc 1 469 54
	lbu	a3,23(sp)
	.loc 1 468 8
	beq	a4,a1,.L490
	.loc 1 472 6 is_stmt 1
.LVL586:
	.loc 1 473 6
	.loc 1 474 6
	.loc 1 473 50 is_stmt 0
	lbu	a1,22(sp)
	.loc 1 472 18
	lbu	a4,21(sp)
	.loc 1 472 43
	lbu	a0,26(sp)
	.loc 1 473 69
	li	a6,4096
	.loc 1 473 41
	slli	a3,a3,2
.LVL587:
	.loc 1 472 43
	srli	a0,a0,7
	.loc 1 473 19
	srli	a5,a5,6
	.loc 1 473 69
	slli	a1,a1,10
.LVL588:
	addi	a6,a6,-1024
	.loc 1 472 18
	andi	a4,a4,15
	.loc 1 472 65
	slli	a2,a2,1
	.loc 1 473 25
	add	a5,a5,a3
	.loc 1 472 24
	add	a4,a4,a0
	.loc 1 473 69
	and	a1,a1,a6
.LVL589:
	.loc 1 472 65
	andi	a3,a2,6
	.loc 1 473 47
	add	a5,a5,a1
	.loc 1 474 31
	add	a4,a4,a3
	.loc 1 473 76
	addi	a5,a5,1
	.loc 1 474 31
	addi	a4,a4,-7
	.loc 1 474 25
	sll	a5,a5,a4
	.loc 1 474 20
	sw	a5,0(s2)
	lw	s0,56(sp)
	.cfi_remember_state
	.cfi_restore 8
	lw	s1,52(sp)
	.cfi_restore 9
	lw	s4,40(sp)
	.cfi_restore 20
	.loc 1 463 22 discriminator 1
	li	a0,0
	j	.L430
.LVL590:
.L490:
	.cfi_restore_state
	.loc 1 469 6 is_stmt 1
	.loc 1 470 6
	.loc 1 469 18 is_stmt 0
	lhu	a2,24(sp)
	.loc 1 469 64
	slli	a4,a3,16
	li	a3,4128768
.LVL591:
	.loc 1 469 18
	slli	a5,a2,8
	srli	a2,a2,8
	or	a5,a5,a2
	slli	a5,a5,16
	srli	a5,a5,16
	.loc 1 469 64
	and	a4,a4,a3
	.loc 1 469 9
	add	a5,a5,a4
	addi	a5,a5,1
	.loc 1 470 25
	slli	a5,a5,10
	.loc 1 470 20
	sw	a5,0(s2)
	lw	s0,56(sp)
	.cfi_restore 8
	lw	s1,52(sp)
	.cfi_restore 9
	lw	s4,40(sp)
	.cfi_restore 20
	.loc 1 463 22 discriminator 1
	li	a0,0
	j	.L430
	.cfi_endproc
.LFE15:
	.size	disk_ioctl, .-disk_ioctl
	.section	.sbss,"aw",@nobits
	.align	2
	.type	CardType, @object
	.size	CardType, 1
CardType:
	.zero	1
	.zero	3
	.type	SPI, @object
	.size	SPI, 4
SPI:
	.zero	4
	.section	.sdata,"aw"
	.type	Stat, @object
	.size	Stat, 1
Stat:
	.byte	1
	.text
.Letext0:
	.file 2 "/opt/riscv-xpack/riscv-none-elf/include/machine/_default_types.h"
	.file 3 "/opt/riscv-xpack/riscv-none-elf/include/sys/_stdint.h"
	.file 4 "src/../thirdparty/FatFs/ff.h"
	.file 5 "src/../thirdparty/FatFs/diskio.h"