	.file	"harris.m.c"
	.option nopic
	.attribute arch, "rv32i2p1_m2p0"
	.attribute unaligned_access, 0
	.attribute stack_align, 16
	.text
.Ltext0:
	.cfi_sections	.debug_frame
	.file 0 "/home/mahmoudsamy/grad/ZC702/SW" "apps/harris/kernels/harris.m.c"
	.align	2
	.type	harris_phase_2, @function
harris_phase_2:
.LFB2:
	.file 1 "apps/harris/kernels/harris.m.c"
	.loc 1 248 46
	.cfi_startproc
.LVL0:
	.loc 1 249 4
	.loc 1 248 46 is_stmt 0
	addi	sp,sp,-208
	.cfi_def_cfa_offset 208
	sw	ra,204(sp)
	sw	s0,200(sp)
	sw	s1,196(sp)
	sw	s3,188(sp)
	sw	s4,184(sp)
	.cfi_offset 1, -4
	.cfi_offset 8, -8
	.cfi_offset 9, -12
	.cfi_offset 19, -20
	.cfi_offset 20, -24
	.loc 1 261 5
	lw	s3,20(a0)
	.loc 1 262 5
	lw	s0,24(a0)
	.loc 1 248 46
	sw	a0,112(sp)
.LVL1:
	.loc 1 250 4 is_stmt 1
	.loc 1 251 4
	.loc 1 252 4
	.loc 1 253 4
	.loc 1 254 4
	.loc 1 255 4
	.loc 1 256 4
	.loc 1 257 4
	.loc 1 258 4
	.loc 1 260 4
	.loc 1 261 4
	.loc 1 261 5 is_stmt 0
	sw	s3,52(sp)
.LVL2:
	.loc 1 262 4 is_stmt 1
	.loc 1 263 4
	.loc 1 264 4
	.loc 1 265 4
	.loc 1 266 4
	.loc 1 267 4
	.loc 1 267 15 is_stmt 0
	addi	a4,s0,31
.LVL3:
	.loc 1 268 4 is_stmt 1
	.loc 1 269 4
	.loc 1 269 6 is_stmt 0
	bne	a1,zero,.L2
	.loc 1 271 26
	li	a5,63
	mv	s1,a1
	.loc 1 270 7 is_stmt 1
.LVL4:
	.loc 1 271 7
	.loc 1 271 26 is_stmt 0
	ble	a4,a5,.L3
	.loc 1 280 18
	li	a2,1015840768
	sw	s2,192(sp)
	li	a3,-2147483648
	addi	a2,a2,-1788
	.loc 1 281 4
	li	a5,-2147483648
	.loc 1 280 18
	sw	a2,20(a3)
	.loc 1 281 4
	sw	zero,36(a5)
	.cfi_offset 18, -16
	mv	s2,a0
	.loc 1 271 26 discriminator 1
	srai	s4,a4,6
.LVL5:
	.loc 1 280 1 is_stmt 1
	.loc 1 280 2
	.loc 1 281 4
	.loc 1 281 4
	call	_taskYield
.LVL6:
	.loc 1 281 18 discriminator 1
	.loc 1 283 4
	.loc 1 284 4
	.loc 1 283 14 is_stmt 0
	mul	a4,s3,s0
	.loc 1 284 9
	lw	a3,12(s2)
.LVL7:
	.loc 1 285 4 is_stmt 1
	lw	s2,192(sp)
	.cfi_restore 18
.LVL8:
	.loc 1 285 16 is_stmt 0
	slli	a5,s3,1
	.loc 1 285 9
	sub	a3,a3,a5
.LVL9:
	.loc 1 286 4 is_stmt 1
	.loc 1 283 16 is_stmt 0
	slli	a4,a4,1
.LVL10:
	.loc 1 286 12
	add	a4,a4,a5
.LVL11:
	.loc 1 288 4 is_stmt 1
	.loc 1 288 17 discriminator 1
.L4:
	.loc 1 268 21 is_stmt 0
	addi	a2,s0,3
	.loc 1 266 15
	lw	a0,52(sp)
	.loc 1 268 6
	srai	a5,a2,31
	andi	a5,a5,3
	add	a5,a5,a2
	.loc 1 266 15
	addi	a1,a0,14
	.loc 1 266 9
	li	a2,15
	div	a2,a1,a2
	.loc 1 268 6
	srai	a5,a5,2
.LBB2:
	.loc 1 305 2190
	srai	a4,a4,1
.LVL12:
.LBE2:
	.loc 1 266 9
	sw	a2,120(sp)
.LBB3:
	.loc 1 305 1761
	slli	a2,a0,2
	sw	a2,116(sp)
	.loc 1 305 2244
	srli	a2,a3,1
	ble	a0,zero,.L1
	slli	a3,s1,3
.LVL13:
	sub	a5,a5,a3
	mul	a5,a5,a0
	slli	a3,s1,5
	sub	a3,s0,a3
	neg	a1,a0
	slli	s0,a1,5
.LVL14:
	.loc 1 305 2069
	addi	a1,a0,-1
	sw	a1,100(sp)
	sw	s2,192(sp)
	sub	a4,a4,a0
	add	a2,a2,a0
	slli	a5,a5,2
	addi	a5,a5,-1
	sw	a5,92(sp)
	mul	a5,a3,a0
	sw	s5,180(sp)
	sw	s6,176(sp)
	sw	s7,172(sp)
	sw	s8,168(sp)
	sw	s9,164(sp)
	sw	s10,160(sp)
	sw	s11,156(sp)
	.cfi_offset 18, -16
	.cfi_offset 21, -28
	.cfi_offset 22, -32
	.cfi_offset 23, -36
	.cfi_offset 24, -40
	.cfi_offset 25, -44
	.cfi_offset 26, -48
	.cfi_offset 27, -52
	mul	a1,a0,s1
	addi	a5,a5,-1
	sw	a5,96(sp)
.LVL15:
.LBE3:
	.loc 1 289 17 is_stmt 1 discriminator 1
	slli	a3,a1,5
	sub	s2,a4,a3
	add	s3,a2,a3
.LVL16:
	bne	s1,zero,.L20
.LBB4:
	.loc 1 298 54 is_stmt 0
	li	a5,-2147483648
	addi	a5,a5,800
	.loc 1 298 82
	li	a4,-2147483648
	lw	a1,100(sp)
	.loc 1 298 54
	sw	a5,12(sp)
	.loc 1 298 82
	addi	a5,a4,928
	sw	a5,4(sp)
	.loc 1 298 105
	li	a5,16384
	addi	a5,a5,-1
	.loc 1 298 601
	li	a3,524288
	.loc 1 298 435
	li	a6,-2147479552
	.loc 1 298 601
	li	t5,-2147483648
	.loc 1 298 871
	li	t4,-2147479552
.LBE4:
	.loc 1 298 944
	li	a2,1036288
	sw	a1,24(sp)
.LBB5:
	.loc 1 298 105
	sw	a5,28(sp)
	addi	a1,s2,1
	.loc 1 298 601
	addi	a5,a3,8
	sw	a1,108(sp)
	.loc 1 298 435
	addi	a6,a6,-1760
	addi	a1,s3,-1
	.loc 1 298 601
	addi	t5,t5,544
	sw	a5,44(sp)
	.loc 1 298 871
	addi	t4,t4,-1632
.LBE5:
	.loc 1 298 944
	addi	a5,a2,-1923
	sw	s1,88(sp)
.LBB6:
	.loc 1 305 2069
	sw	zero,32(sp)
	sw	a1,104(sp)
.LBE6:
	.loc 1 298 944
	sw	a5,40(sp)
	sw	s2,76(sp)
	sw	s4,80(sp)
	sw	s3,84(sp)
	sw	s0,124(sp)
	mv	s10,a6
	mv	s11,t5
	mv	s1,t4
.LVL17:
	j	.L14
.LVL18:
.L22:
.LBB7:
	.loc 1 295 3 is_stmt 1
	.loc 1 295 38
	.loc 1 295 54 is_stmt 0
	lw	s7,12(sp)
	li	a4,4096
	.loc 1 295 105
	li	t4,-2147483648
	.loc 1 295 54
	sw	a4,0(s7)
	.loc 1 295 66 is_stmt 1
	.loc 1 295 82 is_stmt 0
	lw	s8,4(sp)
	.loc 1 295 150
	li	t3,-2147479552
	.loc 1 295 179
	li	t2,-2147483648
	.loc 1 295 82
	sw	zero,0(s8)
	.loc 1 295 88 is_stmt 1
	.loc 1 295 105 is_stmt 0
	lw	a5,28(sp)
.LVL19:
	.loc 1 295 179
	li	s6,5
	.loc 1 295 241
	li	s0,48
	.loc 1 295 105
	sw	a5,1440(t4)
	.loc 1 295 133 is_stmt 1
	.loc 1 295 150 is_stmt 0
	sw	zero,-1248(t3)
	.loc 1 295 162 is_stmt 1
	.loc 1 295 179 is_stmt 0
	sw	s6,1824(t2)
	.loc 1 295 224 is_stmt 1
	.loc 1 295 241 is_stmt 0
	li	t1,-2147483648
	sw	s0,1696(t1)
	.loc 1 295 287 is_stmt 1
	.loc 1 295 304 is_stmt 0
	li	a5,287
	li	a7,-2147483648
	sw	a5,1952(a7)
	.loc 1 295 309 is_stmt 1
	.loc 1 295 326 is_stmt 0
	li	a6,-2147479552
	sw	zero,-1120(a6)
	.loc 1 295 329 is_stmt 1
	.loc 1 295 346 is_stmt 0
	li	a0,-2147479552
	sw	zero,-1888(a0)
	.loc 1 295 375 is_stmt 1
	.loc 1 295 392 is_stmt 0
	li	t0,-2147479552
	li	s5,8
	sw	s5,-2016(t0)
	.loc 1 295 418 is_stmt 1
	.loc 1 295 435 is_stmt 0
	sw	a5,0(s10)
	.loc 1 295 440 is_stmt 1
	.loc 1 295 457 is_stmt 0
	li	a1,-2147479552
	sw	zero,-992(a1)
	.loc 1 295 460 is_stmt 1
	.loc 1 295 476 is_stmt 0
	li	t6,-2147483648
	li	s4,7
	sw	s4,672(t6)
	.loc 1 295 516 is_stmt 1
	.loc 1 295 532 is_stmt 0
	li	t5,-2147483648
	li	s3,1
	sw	s3,1056(t5)
	.loc 1 295 543 is_stmt 1
	.loc 1 295 560 is_stmt 0
	li	a2,-2147483648
	sw	a5,1568(a2)
	.loc 1 295 565 is_stmt 1
	.loc 1 295 582 is_stmt 0
	li	a3,-2147479552
	sw	zero,-864(a3)
	.loc 1 295 585 is_stmt 1
	.loc 1 295 601 is_stmt 0
	lw	s2,44(sp)
	.loc 1 295 733
	li	ra,-2147479552
	.loc 1 295 601
	sw	s2,0(s11)
	.loc 1 295 716 is_stmt 1
	.loc 1 295 871 is_stmt 0
	li	s2,1032192
	.loc 1 295 733
	sw	s0,-736(ra)
	.loc 1 295 854 is_stmt 1
	.loc 1 295 871 is_stmt 0
	addi	s2,s2,127
	sw	s2,0(s1)
.LBE7:
.LBB8:
	.loc 1 295 904 is_stmt 1
.LVL20:
	.loc 1 295 953
	.loc 1 295 969 is_stmt 0
	sw	a4,0(s7)
	.loc 1 295 981 is_stmt 1
	.loc 1 295 997 is_stmt 0
	sw	zero,0(s8)
	.loc 1 295 1003 is_stmt 1
	.loc 1 295 1020 is_stmt 0
	addi	a4,a4,-1
	sw	a4,1440(t4)
	.loc 1 295 1048 is_stmt 1
	.loc 1 295 1065 is_stmt 0
	li	a4,12288
	sw	a4,-1248(t3)
	.loc 1 295 1077 is_stmt 1
	.loc 1 295 1094 is_stmt 0
	sw	s6,1824(t2)
	.loc 1 295 1139 is_stmt 1
	.loc 1 295 1156 is_stmt 0
	sw	s0,1696(t1)
	.loc 1 295 1202 is_stmt 1
	.loc 1 295 1219 is_stmt 0
	sw	a5,1952(a7)
	.loc 1 295 1224 is_stmt 1
	.loc 1 295 1241 is_stmt 0
	sw	zero,-1120(a6)
	.loc 1 295 1244 is_stmt 1
	.loc 1 295 1261 is_stmt 0
	sw	zero,-1888(a0)
	.loc 1 295 1320 is_stmt 1
	.loc 1 295 1337 is_stmt 0
	sw	s5,-2016(t0)
	.loc 1 295 1363 is_stmt 1
	.loc 1 295 1380 is_stmt 0
	sw	a5,0(s10)
	.loc 1 295 1385 is_stmt 1
	.loc 1 295 1402 is_stmt 0
	sw	zero,-992(a1)
	.loc 1 295 1405 is_stmt 1
	.loc 1 295 1421 is_stmt 0
	sw	s4,672(t6)
	.loc 1 295 1461 is_stmt 1
	.loc 1 295 1477 is_stmt 0
	sw	s3,1056(t5)
	.loc 1 295 1488 is_stmt 1
	.loc 1 295 1505 is_stmt 0
	sw	a5,1568(a2)
	.loc 1 295 1510 is_stmt 1
	.loc 1 295 1546 is_stmt 0
	li	a4,536576
	.loc 1 295 1527
	sw	zero,-864(a3)
	.loc 1 295 1530 is_stmt 1
	.loc 1 295 1546 is_stmt 0
	addi	a4,a4,32
	.loc 1 295 1692
	li	t5,1032192
	.loc 1 295 1546
	sw	a4,0(s11)
	.loc 1 295 1675 is_stmt 1
	.loc 1 295 1692 is_stmt 0
	addi	t5,t5,125
.LBE8:
	.loc 1 295 1741
	li	a4,393216
	li	a5,-2147483648
.LBB9:
	.loc 1 295 1692
	sw	t5,0(s1)
.LBE9:
	.loc 1 295 1724 is_stmt 1
	.loc 1 295 1725
	.loc 1 295 1741 is_stmt 0
	addi	a4,a4,1
	sw	a4,20(a5)
.LVL21:
.L13:
	.loc 1 301 1 is_stmt 1
	.loc 1 301 2
	.loc 1 301 18 is_stmt 0
	li	a5,-2147483648
	addi	a5,a5,20
	mv	t5,a5
	sw	t5,16(sp)
	li	a5,88
	sw	a5,0(t5)
.LBB10:
	.loc 1 305 3 is_stmt 1
.LVL22:
	.loc 1 305 204
	.loc 1 305 220 is_stmt 0
	lw	t2,12(sp)
	li	t0,96
	.loc 1 305 321
	li	t4,7
	.loc 1 305 220
	sw	t0,0(t2)
	.loc 1 305 305 is_stmt 1
	.loc 1 305 321 is_stmt 0
	lw	a3,4(sp)
	.loc 1 305 344
	li	a2,-2147483648
	li	ra,767
	.loc 1 305 321
	sw	t4,0(a3)
	.loc 1 305 327 is_stmt 1
	.loc 1 305 344 is_stmt 0
	sw	ra,1440(a2)
	.loc 1 305 454 is_stmt 1
	.loc 1 305 471 is_stmt 0
	li	a5,-2147479552
	sw	a5,8(sp)
	sw	zero,-1248(a5)
	.loc 1 305 556 is_stmt 1
	.loc 1 305 573 is_stmt 0
	li	a0,-2147483648
	li	a4,16
	sw	a4,1696(a0)
	.loc 1 305 632 is_stmt 1
	.loc 1 305 649 is_stmt 0
	li	a1,-2147483648
	li	a7,5
	sw	a7,1824(a1)
	.loc 1 305 655 is_stmt 1
	.loc 1 305 672 is_stmt 0
	li	t6,-2147483648
	li	t5,95
	sw	t5,1952(t6)
	.loc 1 305 761 is_stmt 1
	.loc 1 305 778 is_stmt 0
	li	s9,-2147479552
	sw	zero,-1120(s9)
	.loc 1 305 837 is_stmt 1
	.loc 1 305 854 is_stmt 0
	li	s8,-2147479552
	li	a6,4
	sw	a6,-2016(s8)
	.loc 1 305 895 is_stmt 1
	.loc 1 305 912 is_stmt 0
	li	s0,3
	li	s7,-2147479552
	sw	s0,-1888(s7)
	.loc 1 305 918 is_stmt 1
	.loc 1 305 935 is_stmt 0
	li	t1,15
	sw	t1,0(s10)
	.loc 1 305 998 is_stmt 1
	.loc 1 305 1015 is_stmt 0
	li	s6,-2147479552
	sw	zero,-992(s6)
	.loc 1 305 1056 is_stmt 1
	.loc 1 305 1072 is_stmt 0
	li	s5,-2147483648
	li	a4,1
	sw	a4,1056(s5)
	.loc 1 305 1083 is_stmt 1
	.loc 1 305 1099 is_stmt 0
	li	s4,-2147483648
	sw	s0,672(s4)
	.loc 1 305 1105 is_stmt 1
	.loc 1 305 1122 is_stmt 0
	li	s3,-2147483648
	.loc 1 305 1180
	li	s2,-2147479552
	.loc 1 305 1122
	sw	s0,1568(s3)
	.loc 1 305 1163 is_stmt 1
	.loc 1 305 1180 is_stmt 0
	sw	zero,-864(s2)
	.loc 1 305 1189 is_stmt 1
.LVL23:
	.loc 1 305 1390
	.loc 1 305 1453 is_stmt 0
	li	t3,-2147479552
	.loc 1 305 1406
	sw	zero,0(s11)
	.loc 1 305 1435 is_stmt 1
	.loc 1 305 1436
	.loc 1 305 1453 is_stmt 0
	addi	a6,t3,-736
	sw	a6,20(sp)
	li	t2,768
	.loc 1 305 1509
	li	t3,1036288
	.loc 1 305 1453
	sw	t2,0(a6)
	.loc 1 305 1492 is_stmt 1
	.loc 1 305 1509 is_stmt 0
	addi	t3,t3,-1921
	sw	t3,48(sp)
	sw	t3,0(s1)
.LBE10:
.LBB11:
	.loc 1 305 1542 is_stmt 1
.LVL24:
	.loc 1 305 1722
	.loc 1 305 1739 is_stmt 0
	lw	a5,116(sp)
	.loc 1 305 2177
	li	a6,-2147479552
.LBE11:
.LBB12:
	.loc 1 305 344
	addi	a2,a2,1440
.LBE12:
.LBB13:
	.loc 1 305 1739
	sw	a5,1696(a0)
.LVL25:
	.loc 1 305 1766 is_stmt 1
	.loc 1 305 1783 is_stmt 0
	sw	t4,1824(a1)
	.loc 1 305 1789 is_stmt 1
	.loc 1 305 1806 is_stmt 0
	lw	a5,92(sp)
.LBE13:
.LBB14:
	.loc 1 305 573
	addi	a0,a0,1696
	.loc 1 305 649
	addi	a1,a1,1824
.LBE14:
.LBB15:
	.loc 1 305 1806
	sw	a5,1952(t6)
	.loc 1 305 1842 is_stmt 1
	.loc 1 305 1859 is_stmt 0
	sw	zero,-1120(s9)
	.loc 1 305 1886 is_stmt 1
	.loc 1 305 1903 is_stmt 0
	lw	a5,52(sp)
.LBE15:
.LBB16:
	.loc 1 305 672
	addi	t6,t6,1952
.LBE16:
.LBB17:
	.loc 1 305 1903
	sw	a5,-2016(s8)
	.loc 1 305 1916 is_stmt 1
	.loc 1 305 1956 is_stmt 0
	li	a5,67108864
	.loc 1 305 1933
	sw	a7,-1888(s7)
	.loc 1 305 1939 is_stmt 1
	.loc 1 305 1956 is_stmt 0
	addi	a5,a5,-1
	sw	a5,0(s10)
	.loc 1 305 1968 is_stmt 1
	.loc 1 305 1985 is_stmt 0
	sw	zero,-992(s6)
	.loc 1 305 1998 is_stmt 1
	.loc 1 305 2014 is_stmt 0
	sw	a4,1056(s5)
	.loc 1 305 2025 is_stmt 1
	.loc 1 305 2041 is_stmt 0
	sw	t1,672(s4)
	.loc 1 305 2047 is_stmt 1
	lw	t1,32(sp)
	.loc 1 305 2064 is_stmt 0
	lw	t3,24(sp)
	slli	a5,t1,4
	sw	t3,1568(s3)
	.loc 1 305 2077 is_stmt 1
	sw	t1,32(sp)
	sub	a3,a5,t1
	lw	t1,108(sp)
	mv	a5,t3
	.loc 1 305 2235 is_stmt 0
	sw	a5,24(sp)
	add	t3,t1,t3
	lw	t1,104(sp)
	.loc 1 305 2094
	sw	a3,56(sp)
	sw	a3,-864(s2)
	.loc 1 305 2103 is_stmt 1
.LVL26:
	.loc 1 305 2160
	.loc 1 305 2177 is_stmt 0
	sw	t3,-96(a6)
	.loc 1 305 2213 is_stmt 1
	.loc 1 305 2214
	.loc 1 305 2235 is_stmt 0
	sub	t1,t1,a5
	.loc 1 305 2279
	li	a5,1036288
	.loc 1 305 2230
	sw	t1,0(s11)
	.loc 1 305 2261 is_stmt 1
	.loc 1 305 2262
	.loc 1 305 2279 is_stmt 0
	addi	a5,a5,125
	sw	a5,0(s1)
.LBE17:
	.loc 1 305 2311 is_stmt 1
	.loc 1 305 2312
	.loc 1 305 2328 is_stmt 0
	lw	a5,16(sp)
	li	t3,393216
	addi	t3,t3,17
	sw	t3,36(sp)
	sw	t3,0(a5)
.LBB18:
	.loc 1 305 2418 is_stmt 1
.LVL27:
	.loc 1 305 2463
	.loc 1 305 2480 is_stmt 0
	li	a6,4096
	sw	a6,-2016(s8)
	.loc 1 305 2492 is_stmt 1
	.loc 1 305 2509 is_stmt 0
	sw	s0,-1888(s7)
	.loc 1 305 2515 is_stmt 1
	.loc 1 305 2532 is_stmt 0
	lw	t3,28(sp)
	.loc 1 305 2729
	li	a5,287
	.loc 1 305 2829
	li	t1,8
	.loc 1 305 2532
	sw	t3,0(s10)
	.loc 1 305 2560 is_stmt 1
	.loc 1 305 2577 is_stmt 0
	sw	zero,-992(s6)
	.loc 1 305 2589 is_stmt 1
	.loc 1 305 2606 is_stmt 0
	sw	a7,0(a1)
	.loc 1 305 2649 is_stmt 1
	.loc 1 305 2666 is_stmt 0
	li	t3,48
	sw	t3,0(a0)
	.loc 1 305 2712 is_stmt 1
	.loc 1 305 2729 is_stmt 0
	sw	a5,0(t6)
	.loc 1 305 2734 is_stmt 1
	.loc 1 305 2751 is_stmt 0
	sw	zero,-1120(s9)
	.loc 1 305 2754 is_stmt 1
	.loc 1 305 2770 is_stmt 0
	sw	s0,672(s4)
	.loc 1 305 2813 is_stmt 1
	.loc 1 305 2829 is_stmt 0
	sw	t1,1056(s5)
	.loc 1 305 2855 is_stmt 1
	.loc 1 305 2872 is_stmt 0
	sw	a5,1568(s3)
	.loc 1 305 2877 is_stmt 1
	.loc 1 305 2894 is_stmt 0
	sw	zero,-864(s2)
	.loc 1 305 2897 is_stmt 1
	.loc 1 305 2913 is_stmt 0
	lw	a3,4(sp)
	sw	t4,0(a3)
	.loc 1 305 2951 is_stmt 1
	.loc 1 305 2967 is_stmt 0
	lw	t4,12(sp)
	sw	a4,0(t4)
	.loc 1 305 2978 is_stmt 1
	.loc 1 305 2995 is_stmt 0
	sw	a5,0(a2)
	.loc 1 305 3000 is_stmt 1
	.loc 1 305 3017 is_stmt 0
	lw	a3,8(sp)
	.loc 1 305 3036
	li	t4,524288
	addi	t4,t4,16
	.loc 1 305 3017
	sw	zero,-1248(a3)
	.loc 1 305 3020 is_stmt 1
	.loc 1 305 3036 is_stmt 0
	sw	t4,0(s11)
	.loc 1 305 3153 is_stmt 1
	.loc 1 305 3170 is_stmt 0
	lw	a3,20(sp)
	.loc 1 305 3318
	li	t4,1032192
	addi	t4,t4,1151
	.loc 1 305 3170
	sw	t2,0(a3)
	.loc 1 305 3301 is_stmt 1
	.loc 1 305 3318 is_stmt 0
	sw	t4,0(s1)
.LBE18:
.LBB19:
	.loc 1 305 3351 is_stmt 1
.LVL28:
	.loc 1 305 3552
	.loc 1 305 3568 is_stmt 0
	lw	t2,12(sp)
	.loc 1 305 3669
	li	t4,7
	.loc 1 305 3568
	sw	t0,0(t2)
	.loc 1 305 3653 is_stmt 1
	.loc 1 305 3669 is_stmt 0
	lw	a3,4(sp)
	sw	t4,0(a3)
	.loc 1 305 3675 is_stmt 1
	.loc 1 305 3692 is_stmt 0
	sw	ra,0(a2)
	.loc 1 305 3802 is_stmt 1
	.loc 1 305 3819 is_stmt 0
	lw	t0,8(sp)
	.loc 1 305 0
	li	ra,4
	.loc 1 305 3819
	sw	zero,-1248(t0)
	.loc 1 305 3904 is_stmt 1
	.loc 1 305 3921 is_stmt 0
	li	t0,16
	sw	t0,0(a0)
	.loc 1 305 3980 is_stmt 1
	.loc 1 305 3997 is_stmt 0
	sw	a7,0(a1)
	.loc 1 305 4003 is_stmt 1
	.loc 1 305 4020 is_stmt 0
	sw	t5,0(t6)
	.loc 1 305 0 is_stmt 1
	sw	zero,-1120(s9)
	.loc 1 305 0
	sw	ra,-2016(s8)
	.loc 1 305 0
	sw	s0,-1888(s7)
	.loc 1 305 0
	li	t0,15
	sw	t0,0(s10)
	.loc 1 305 0
	sw	zero,-992(s6)
	.loc 1 305 0
	sw	a4,1056(s5)
	.loc 1 305 0
	sw	s0,672(s4)
	.loc 1 305 0
	sw	s0,1568(s3)
	.loc 1 305 0
	sw	zero,-864(s2)
	.loc 1 305 0
.LVL29:
	.loc 1 305 0
	sw	zero,0(s11)
	.loc 1 305 0
	.loc 1 305 0
	lw	ra,40(sp)
	sw	ra,0(s1)
.LBE19:
	.loc 1 305 0
	.loc 1 305 0
	lw	t5,16(sp)
	lw	t0,36(sp)
	sw	t0,0(t5)
.LBB20:
	.loc 1 311 3
.LVL30:
	.loc 1 311 42
	.loc 1 311 58 is_stmt 0
	sw	a6,0(t2)
	.loc 1 311 70 is_stmt 1
	.loc 1 311 86 is_stmt 0
	sw	a3,4(sp)
	li	t5,2
	sw	t5,0(a3)
	.loc 1 311 92 is_stmt 1
	.loc 1 311 109 is_stmt 0
	lw	ra,28(sp)
	.loc 1 311 58
	mv	t0,t2
	.loc 1 311 508
	mv	t2,t4
	.loc 1 311 109
	sw	ra,0(a2)
	.loc 1 311 137 is_stmt 1
	.loc 1 311 154 is_stmt 0
	lw	a3,8(sp)
	.loc 1 311 945
	li	ra,1032192
	addi	ra,ra,127
	.loc 1 311 154
	sw	zero,-1248(a3)
	.loc 1 311 166 is_stmt 1
	.loc 1 311 183 is_stmt 0
	sw	a7,0(a1)
	.loc 1 311 228 is_stmt 1
	.loc 1 311 245 is_stmt 0
	sw	t3,0(a0)
	.loc 1 311 291 is_stmt 1
	.loc 1 311 308 is_stmt 0
	sw	a5,0(t6)
	.loc 1 311 313 is_stmt 1
	.loc 1 311 330 is_stmt 0
	sw	zero,-1120(s9)
	.loc 1 311 333 is_stmt 1
	.loc 1 311 350 is_stmt 0
	sw	zero,-1888(s7)
	.loc 1 311 407 is_stmt 1
	.loc 1 311 424 is_stmt 0
	sw	t1,-2016(s8)
	.loc 1 311 450 is_stmt 1
	.loc 1 311 467 is_stmt 0
	sw	a5,0(s10)
	.loc 1 311 472 is_stmt 1
	.loc 1 311 489 is_stmt 0
	sw	zero,-992(s6)
	.loc 1 311 492 is_stmt 1
	.loc 1 311 508 is_stmt 0
	sw	t4,672(s4)
	.loc 1 311 548 is_stmt 1
	.loc 1 311 564 is_stmt 0
	sw	a4,1056(s5)
	.loc 1 311 575 is_stmt 1
	.loc 1 311 592 is_stmt 0
	sw	a5,1568(s3)
	.loc 1 311 597 is_stmt 1
	.loc 1 311 633 is_stmt 0
	li	t4,524288
	.loc 1 311 614
	sw	zero,-864(s2)
	.loc 1 311 617 is_stmt 1
	.loc 1 311 633 is_stmt 0
	addi	t4,t4,48
	sw	t4,0(s11)
	.loc 1 311 762 is_stmt 1
	.loc 1 311 779 is_stmt 0
	lw	t4,20(sp)
	li	a3,144
	sw	a3,0(t4)
	.loc 1 311 928 is_stmt 1
	.loc 1 311 945 is_stmt 0
	sw	ra,0(s1)
.LBE20:
.LBB21:
	.loc 1 311 978 is_stmt 1
.LVL31:
	.loc 1 311 1023
	.loc 1 311 1039 is_stmt 0
	sw	t0,12(sp)
	sw	a6,0(t0)
	.loc 1 311 1051 is_stmt 1
	.loc 1 311 1067 is_stmt 0
	lw	a3,4(sp)
	.loc 1 311 1090
	li	t0,12288
	addi	t0,t0,-1
	.loc 1 311 1067
	sw	t5,0(a3)
	.loc 1 311 1073 is_stmt 1
	.loc 1 311 1090 is_stmt 0
	sw	t0,0(a2)
	.loc 1 311 1118 is_stmt 1
	.loc 1 311 1135 is_stmt 0
	lw	a3,8(sp)
	.loc 1 311 1724
	li	t4,1032192
	addi	t4,t4,125
	.loc 1 311 1135
	sw	a6,-1248(a3)
	.loc 1 311 1147 is_stmt 1
	.loc 1 311 1164 is_stmt 0
	sw	a7,0(a1)
	.loc 1 311 1209 is_stmt 1
	.loc 1 311 1226 is_stmt 0
	sw	t3,0(a0)
	.loc 1 311 1272 is_stmt 1
	.loc 1 311 1289 is_stmt 0
	sw	a5,0(t6)
	.loc 1 311 1294 is_stmt 1
	.loc 1 311 1311 is_stmt 0
	sw	zero,-1120(s9)
	.loc 1 311 1314 is_stmt 1
	.loc 1 311 1331 is_stmt 0
	sw	zero,-1888(s7)
	.loc 1 311 1364 is_stmt 1
	.loc 1 311 1381 is_stmt 0
	sw	t1,-2016(s8)
	.loc 1 311 1407 is_stmt 1
	.loc 1 311 1424 is_stmt 0
	sw	a5,0(s10)
	.loc 1 311 1429 is_stmt 1
	.loc 1 311 1446 is_stmt 0
	sw	zero,-992(s6)
	.loc 1 311 1449 is_stmt 1
	.loc 1 311 1465 is_stmt 0
	sw	t2,672(s4)
	.loc 1 311 1505 is_stmt 1
	.loc 1 311 1521 is_stmt 0
	sw	a4,1056(s5)
	.loc 1 311 1532 is_stmt 1
	.loc 1 311 1549 is_stmt 0
	sw	a5,1568(s3)
	.loc 1 311 1554 is_stmt 1
	.loc 1 311 1590 is_stmt 0
	li	t2,528384
	.loc 1 311 1571
	sw	zero,-864(s2)
	.loc 1 311 1574 is_stmt 1
	.loc 1 311 1590 is_stmt 0
	addi	t2,t2,16
	sw	t2,0(s11)
	.loc 1 311 1707 is_stmt 1
	.loc 1 311 1724 is_stmt 0
	sw	t4,0(s1)
.LBE21:
	.loc 1 311 1756 is_stmt 1
	.loc 1 311 1757
	.loc 1 311 1773 is_stmt 0
	lw	a3,16(sp)
	li	t2,393216
	addi	t2,t2,9
	sw	t2,0(a3)
.LBB22:
	.loc 1 315 3 is_stmt 1
.LVL32:
	.loc 1 315 48
	.loc 1 315 64 is_stmt 0
	lw	t2,12(sp)
	sw	a6,0(t2)
	.loc 1 315 76 is_stmt 1
	.loc 1 315 92 is_stmt 0
	lw	a3,4(sp)
	.loc 1 315 486
	li	t2,7
	.loc 1 315 92
	sw	t5,0(a3)
	.loc 1 315 98 is_stmt 1
	.loc 1 315 115 is_stmt 0
	sw	t0,0(a2)
	.loc 1 315 143 is_stmt 1
	.loc 1 315 160 is_stmt 0
	lw	a3,8(sp)
	.loc 1 315 611
	li	t0,528384
	addi	t0,t0,8
	.loc 1 315 160
	sw	a6,-1248(a3)
	.loc 1 315 172 is_stmt 1
	.loc 1 315 189 is_stmt 0
	sw	a7,0(a1)
	.loc 1 315 234 is_stmt 1
	.loc 1 315 251 is_stmt 0
	sw	t3,0(a0)
	.loc 1 315 297 is_stmt 1
	.loc 1 315 314 is_stmt 0
	sw	a5,0(t6)
	.loc 1 315 319 is_stmt 1
	.loc 1 315 336 is_stmt 0
	sw	zero,-1120(s9)
	.loc 1 315 339 is_stmt 1
	.loc 1 315 356 is_stmt 0
	sw	zero,-1888(s7)
	.loc 1 315 385 is_stmt 1
	.loc 1 315 402 is_stmt 0
	sw	t1,-2016(s8)
	.loc 1 315 428 is_stmt 1
	.loc 1 315 445 is_stmt 0
	sw	a5,0(s10)
	.loc 1 315 450 is_stmt 1
	.loc 1 315 467 is_stmt 0
	sw	zero,-992(s6)
	.loc 1 315 470 is_stmt 1
	.loc 1 315 486 is_stmt 0
	sw	t2,672(s4)
	.loc 1 315 526 is_stmt 1
	.loc 1 315 542 is_stmt 0
	sw	a4,1056(s5)
	.loc 1 315 553 is_stmt 1
	.loc 1 315 570 is_stmt 0
	sw	a5,1568(s3)
	.loc 1 315 575 is_stmt 1
	.loc 1 315 592 is_stmt 0
	sw	zero,-864(s2)
	.loc 1 315 595 is_stmt 1
	.loc 1 315 611 is_stmt 0
	sw	t0,0(s11)
	.loc 1 315 726 is_stmt 1
	.loc 1 315 743 is_stmt 0
	lw	t0,20(sp)
	li	a3,144
	sw	a3,0(t0)
	.loc 1 315 864 is_stmt 1
	.loc 1 315 881 is_stmt 0
	sw	ra,0(s1)
.LBE22:
.LBB23:
	.loc 1 315 914 is_stmt 1
.LVL33:
	.loc 1 315 953
	.loc 1 315 969 is_stmt 0
	lw	t0,12(sp)
	sw	a6,0(t0)
	.loc 1 315 981 is_stmt 1
	.loc 1 315 997 is_stmt 0
	lw	a3,4(sp)
	sw	t5,0(a3)
	.loc 1 315 1003 is_stmt 1
	.loc 1 315 1020 is_stmt 0
	lw	ra,28(sp)
	.loc 1 315 1538
	li	t5,524288
	addi	t5,t5,40
	.loc 1 315 1020
	sw	ra,0(a2)
	.loc 1 315 1065
	lw	a3,8(sp)
	.loc 1 315 1020
	sw	a2,72(sp)
	.loc 1 315 1048 is_stmt 1
	.loc 1 315 1065 is_stmt 0
	sw	zero,-1248(a3)
	.loc 1 315 1077 is_stmt 1
	.loc 1 315 1094 is_stmt 0
	sw	a7,0(a1)
	.loc 1 315 1139 is_stmt 1
	.loc 1 315 1156 is_stmt 0
	sw	t3,0(a0)
	.loc 1 315 1202 is_stmt 1
	.loc 1 315 1219 is_stmt 0
	sw	a5,0(t6)
	.loc 1 315 1224 is_stmt 1
	.loc 1 315 1241 is_stmt 0
	sw	zero,-1120(s9)
	.loc 1 315 1244 is_stmt 1
	.loc 1 315 1261 is_stmt 0
	sw	zero,-1888(s7)
	.loc 1 315 1312 is_stmt 1
	.loc 1 315 1329 is_stmt 0
	sw	t1,-2016(s8)
	.loc 1 315 1355 is_stmt 1
	.loc 1 315 1372 is_stmt 0
	sw	a5,0(s10)
	.loc 1 315 1377 is_stmt 1
	.loc 1 315 1394 is_stmt 0
	sw	zero,-992(s6)
	.loc 1 315 1397 is_stmt 1
	.loc 1 315 1413 is_stmt 0
	sw	t2,672(s4)
	.loc 1 315 1453 is_stmt 1
	.loc 1 315 1480
	.loc 1 315 1469 is_stmt 0
	sw	a4,1056(s5)
	.loc 1 315 1497
	sw	a5,1568(s3)
	.loc 1 315 1502 is_stmt 1
	.loc 1 315 1519 is_stmt 0
	sw	zero,-864(s2)
	.loc 1 315 1522 is_stmt 1
	.loc 1 315 1538 is_stmt 0
	sw	t5,0(s11)
	.loc 1 315 1663 is_stmt 1
	.loc 1 315 1680 is_stmt 0
	sw	t4,0(s1)
.LBE23:
	.loc 1 315 1712 is_stmt 1
	.loc 1 315 1713
	.loc 1 315 1729 is_stmt 0
	lw	a4,16(sp)
	li	t5,393216
	addi	t5,t5,1
	sw	t5,0(a4)
	.loc 1 317 10 is_stmt 1
.LBB24:
	.loc 1 318 3
.LVL34:
	.loc 1 318 38
	.loc 1 318 55 is_stmt 0
	sw	a6,0(a0)
	sw	a0,68(sp)
	.loc 1 318 67 is_stmt 1
	.loc 1 318 84 is_stmt 0
	sw	zero,0(a1)
	sw	a1,64(sp)
	.loc 1 318 90 is_stmt 1
	.loc 1 318 107 is_stmt 0
	sw	ra,28(sp)
	sw	ra,0(t6)
	sw	t6,60(sp)
	.loc 1 318 135 is_stmt 1
	.loc 1 318 152 is_stmt 0
	sw	zero,-1120(s9)
	.loc 1 318 164 is_stmt 1
	.loc 1 318 181 is_stmt 0
	sw	zero,-1888(s7)
	.loc 1 318 210 is_stmt 1
	.loc 1 318 227 is_stmt 0
	sw	t3,-2016(s8)
	.loc 1 318 273 is_stmt 1
	.loc 1 318 290 is_stmt 0
	sw	a5,0(s10)
	.loc 1 318 295 is_stmt 1
	.loc 1 318 312 is_stmt 0
	sw	zero,-992(s6)
	.loc 1 318 315 is_stmt 1
	.loc 1 318 331 is_stmt 0
	sw	a7,672(s4)
	.loc 1 318 376 is_stmt 1
	.loc 1 318 418
	.loc 1 318 392 is_stmt 0
	sw	t1,1056(s5)
	.loc 1 318 435
	sw	a5,1568(s3)
	.loc 1 318 440 is_stmt 1
	.loc 1 318 457 is_stmt 0
	sw	zero,-864(s2)
	.loc 1 318 460 is_stmt 1
	.loc 1 318 476 is_stmt 0
	lw	a0,44(sp)
	.loc 1 318 608
	li	t3,6
	.loc 1 318 711
	li	a7,524288
	.loc 1 318 476
	sw	a0,0(s11)
	.loc 1 318 591 is_stmt 1
	.loc 1 318 608 is_stmt 0
	lw	t4,20(sp)
	.loc 1 318 711
	addi	a7,a7,127
.LBE24:
	.loc 1 318 819
	li	a5,-2147479552
.LBB25:
	.loc 1 318 608
	sw	t3,0(t4)
	.loc 1 318 694 is_stmt 1
	.loc 1 318 711 is_stmt 0
	sw	a7,0(s1)
.LBE25:
	.loc 1 318 801 is_stmt 1
	.loc 1 318 802
	.loc 1 318 819 is_stmt 0
	sw	zero,-480(a5)
	.loc 1 318 824 is_stmt 1
	.loc 1 318 841 is_stmt 0
	lw	a2,40(sp)
	.loc 1 321 18
	li	a5,1015840768
	addi	a5,a5,260
	.loc 1 318 841
	sw	a2,0(s1)
	.loc 1 318 873 is_stmt 1
	.loc 1 318 874
	.loc 1 318 890 is_stmt 0
	sw	t5,0(a4)
	.loc 1 321 1 is_stmt 1
	.loc 1 321 2
	.loc 1 321 18 is_stmt 0
	sw	a4,16(sp)
	sw	a5,0(a4)
	.loc 1 323 10 is_stmt 1
	li	a7,-2147483648
.LBB26:
	.loc 1 305 471 is_stmt 0
	addi	a5,a3,-1248
.LBE26:
	.loc 1 323 10
	sw	zero,36(a7)
	.loc 1 323 10 is_stmt 1
.LBB27:
	.loc 1 305 471 is_stmt 0
	sw	a5,8(sp)
.LBE27:
	.loc 1 323 10
	call	_taskYield
.LVL35:
	.loc 1 323 24 is_stmt 1 discriminator 1
.LBB28:
	.loc 1 327 3
	.loc 1 327 186
	.loc 1 327 202 is_stmt 0
	lw	t2,12(sp)
	li	t4,64
	.loc 1 327 285
	li	t0,7
	.loc 1 327 202
	sw	t4,0(t2)
	.loc 1 327 269 is_stmt 1
	.loc 1 327 285 is_stmt 0
	lw	a5,4(sp)
	.loc 1 327 308
	li	t3,511
	.loc 1 327 501
	li	a1,16
	.loc 1 327 285
	sw	t0,0(a5)
	.loc 1 327 291 is_stmt 1
	.loc 1 327 308 is_stmt 0
	lw	a2,72(sp)
	.loc 1 327 588
	li	a7,63
	.loc 1 327 740
	li	t5,4
	.loc 1 327 308
	sw	t3,0(a2)
	.loc 1 327 400 is_stmt 1
	.loc 1 327 417 is_stmt 0
	lw	a5,8(sp)
	.loc 1 327 809
	li	t1,15
	.loc 1 327 922
	li	a4,1
	.loc 1 327 417
	sw	zero,0(a5)
	.loc 1 327 484 is_stmt 1
	.loc 1 327 501 is_stmt 0
	lw	a0,68(sp)
.LBE28:
.LBB29:
	.loc 1 327 1580
	li	a5,32
.LBE29:
.LBB30:
	.loc 1 327 501
	sw	a1,0(a0)
	.loc 1 327 548 is_stmt 1
	.loc 1 327 565 is_stmt 0
	lw	a1,64(sp)
	sw	s0,0(a1)
	.loc 1 327 571 is_stmt 1
	.loc 1 327 588 is_stmt 0
	lw	t6,60(sp)
	sw	a7,0(t6)
	.loc 1 327 659 is_stmt 1
	.loc 1 327 676 is_stmt 0
	sw	zero,-1120(s9)
	.loc 1 327 723 is_stmt 1
	.loc 1 327 740 is_stmt 0
	sw	t5,-2016(s8)
	.loc 1 327 769 is_stmt 1
	.loc 1 327 786 is_stmt 0
	sw	s0,-1888(s7)
	.loc 1 327 792 is_stmt 1
	.loc 1 327 809 is_stmt 0
	sw	t1,0(s10)
	.loc 1 327 860 is_stmt 1
	.loc 1 327 877 is_stmt 0
	sw	zero,-992(s6)
	.loc 1 327 906 is_stmt 1
	.loc 1 327 922 is_stmt 0
	sw	a4,1056(s5)
	.loc 1 327 933 is_stmt 1
	.loc 1 327 949 is_stmt 0
	sw	s0,672(s4)
	.loc 1 327 955 is_stmt 1
	.loc 1 327 972 is_stmt 0
	sw	s0,1568(s3)
	.loc 1 327 1001 is_stmt 1
	.loc 1 327 1018 is_stmt 0
	sw	zero,-864(s2)
	.loc 1 327 1027 is_stmt 1
.LVL36:
	.loc 1 327 1186
	.loc 1 327 1202 is_stmt 0
	sw	zero,0(s11)
	.loc 1 327 1231 is_stmt 1
	.loc 1 327 1232
	.loc 1 327 1249 is_stmt 0
	lw	t1,20(sp)
	li	t5,512
	sw	t5,0(t1)
	.loc 1 327 1288 is_stmt 1
	.loc 1 327 1305 is_stmt 0
	lw	a6,48(sp)
.LBE30:
.LBB31:
	.loc 1 327 1731
	li	t1,8
.LBE31:
.LBB32:
	.loc 1 327 1305
	sw	a6,0(s1)
.LBE32:
.LBB33:
	.loc 1 327 1338 is_stmt 1
.LVL37:
	.loc 1 327 1383
	.loc 1 327 1400 is_stmt 0
	li	a6,4096
	sw	a6,-2016(s8)
	.loc 1 327 1412 is_stmt 1
	.loc 1 327 1429 is_stmt 0
	sw	s0,-1888(s7)
	.loc 1 327 1435 is_stmt 1
	.loc 1 327 1452 is_stmt 0
	lw	a3,28(sp)
	.loc 1 327 1938
	li	a6,524288
	addi	a6,a6,296
	.loc 1 327 1452
	sw	a3,0(s10)
	.loc 1 327 1480 is_stmt 1
	.loc 1 327 1497 is_stmt 0
	sw	zero,-992(s6)
	.loc 1 327 1509 is_stmt 1
	.loc 1 327 1526 is_stmt 0
	sw	s0,0(a1)
	.loc 1 327 1563 is_stmt 1
	.loc 1 327 1580 is_stmt 0
	sw	a5,0(a0)
	.loc 1 327 1620 is_stmt 1
	.loc 1 327 1637 is_stmt 0
	li	a5,127
	sw	a5,0(t6)
	.loc 1 327 1642 is_stmt 1
	.loc 1 327 1659 is_stmt 0
	sw	zero,-1120(s9)
	.loc 1 327 1662 is_stmt 1
	.loc 1 327 1678 is_stmt 0
	sw	s0,672(s4)
	.loc 1 327 1715 is_stmt 1
	.loc 1 327 1731 is_stmt 0
	sw	t1,1056(s5)
	.loc 1 327 1757 is_stmt 1
	.loc 1 327 1774 is_stmt 0
	sw	a5,1568(s3)
	.loc 1 327 1779 is_stmt 1
	.loc 1 327 1796 is_stmt 0
	sw	zero,-864(s2)
	.loc 1 327 1799 is_stmt 1
	.loc 1 327 1815 is_stmt 0
	lw	a3,4(sp)
	sw	t0,0(a3)
	.loc 1 327 1853 is_stmt 1
	.loc 1 327 1869 is_stmt 0
	sw	a4,0(t2)
	.loc 1 327 1880 is_stmt 1
	.loc 1 327 1897 is_stmt 0
	sw	a5,0(a2)
	.loc 1 327 1902 is_stmt 1
	.loc 1 327 1919 is_stmt 0
	lw	a5,8(sp)
	sw	zero,0(a5)
	.loc 1 327 1922 is_stmt 1
	.loc 1 327 2066 is_stmt 0
	li	a5,1032192
	.loc 1 327 1938
	sw	a6,0(s11)
	.loc 1 327 2049 is_stmt 1
	.loc 1 327 2066 is_stmt 0
	addi	a5,a5,1149
	sw	a5,0(s1)
.LBE33:
	.loc 1 327 2098 is_stmt 1
	.loc 1 327 2099
	.loc 1 327 2115 is_stmt 0
	lw	a6,16(sp)
	lw	t1,36(sp)
	sw	t1,0(a6)
.LBB34:
	.loc 1 327 2205 is_stmt 1
.LVL38:
	.loc 1 327 2328
	.loc 1 327 2345 is_stmt 0
	lw	a5,52(sp)
	sw	a5,-2016(s8)
	.loc 1 327 2358 is_stmt 1
	.loc 1 327 2375 is_stmt 0
	li	a5,31
	sw	a5,-1888(s7)
	.loc 1 327 2381 is_stmt 1
	.loc 1 327 2398 is_stmt 0
	lw	a6,96(sp)
	.loc 1 327 2492
	li	a5,15
	.loc 1 327 2398
	sw	a6,0(s10)
	.loc 1 327 2419 is_stmt 1
	.loc 1 327 2436 is_stmt 0
	sw	zero,-992(s6)
	.loc 1 327 2449 is_stmt 1
	.loc 1 327 2465 is_stmt 0
	sw	a4,1056(s5)
	.loc 1 327 2476 is_stmt 1
	.loc 1 327 2492 is_stmt 0
	sw	a5,672(s4)
	.loc 1 327 2498 is_stmt 1
	.loc 1 327 2515 is_stmt 0
	lw	a6,24(sp)
	sw	a6,1568(s3)
	.loc 1 327 2528 is_stmt 1
	.loc 1 327 2545 is_stmt 0
	lw	a3,56(sp)
	sw	a3,-864(s2)
	.loc 1 327 2554 is_stmt 1
.LVL39:
	.loc 1 327 2585
	.loc 1 327 2621 is_stmt 0
	lw	a5,112(sp)
	lw	a5,16(a5)
	.loc 1 327 2606
	lw	a3,100(sp)
	sw	a6,24(sp)
	.loc 1 327 2621
	srli	a5,a5,1
	.loc 1 327 2606
	sub	t1,a3,a6
	add	a5,a5,t1
	.loc 1 327 2601
	sw	a5,0(s11)
	.loc 1 327 2638 is_stmt 1
	.loc 1 327 2639
	.loc 1 327 2656 is_stmt 0
	lw	t1,20(sp)
	.loc 1 327 2698
	li	a6,1036288
	addi	a6,a6,127
	.loc 1 327 2656
	sw	t5,0(t1)
	.loc 1 327 2681 is_stmt 1
	.loc 1 327 2698 is_stmt 0
	sw	a6,0(s1)
.LBE34:
.LBB35:
	.loc 1 327 2731 is_stmt 1
.LVL40:
	.loc 1 327 2914
	.loc 1 327 2930 is_stmt 0
	sw	t4,0(t2)
	.loc 1 327 2997 is_stmt 1
	.loc 1 327 3013 is_stmt 0
	lw	a3,4(sp)
	.loc 1 327 3468
	li	t5,4
	.loc 1 327 3013
	sw	t0,0(a3)
	.loc 1 327 3019 is_stmt 1
	.loc 1 327 3036 is_stmt 0
	sw	t3,0(a2)
	.loc 1 327 3128 is_stmt 1
	.loc 1 327 3145 is_stmt 0
	lw	a5,8(sp)
	.loc 1 327 3229
	li	a3,16
	.loc 1 327 3145
	sw	zero,0(a5)
	.loc 1 327 3212 is_stmt 1
	.loc 1 327 3229 is_stmt 0
	sw	a3,0(a0)
	.loc 1 327 3276 is_stmt 1
	.loc 1 327 3293 is_stmt 0
	sw	s0,0(a1)
	.loc 1 327 3299 is_stmt 1
	.loc 1 327 3316 is_stmt 0
	sw	a7,0(t6)
	.loc 1 327 3387 is_stmt 1
	.loc 1 327 3404 is_stmt 0
	sw	zero,-1120(s9)
	.loc 1 327 3451 is_stmt 1
	.loc 1 327 3468 is_stmt 0
	sw	t5,-2016(s8)
	.loc 1 327 3497 is_stmt 1
	.loc 1 327 3514 is_stmt 0
	sw	s0,-1888(s7)
	.loc 1 327 3520 is_stmt 1
	.loc 1 327 3537 is_stmt 0
	li	a5,15
	sw	a5,0(s10)
	.loc 1 327 3588 is_stmt 1
	.loc 1 327 3605 is_stmt 0
	sw	zero,-992(s6)
	.loc 1 327 3634 is_stmt 1
	.loc 1 327 3650 is_stmt 0
	sw	a4,1056(s5)
	.loc 1 327 3661 is_stmt 1
	.loc 1 327 3677 is_stmt 0
	sw	s0,672(s4)
	.loc 1 327 3683 is_stmt 1
	.loc 1 327 3700 is_stmt 0
	sw	s0,1568(s3)
	.loc 1 327 3729 is_stmt 1
	.loc 1 327 3746 is_stmt 0
	sw	zero,-864(s2)
	.loc 1 327 3755 is_stmt 1
.LVL41:
	.loc 1 327 3914
	.loc 1 327 3930 is_stmt 0
	sw	zero,0(s11)
	.loc 1 327 3959 is_stmt 1
	.loc 1 327 3960
	.loc 1 327 3977 is_stmt 0
	lw	a2,40(sp)
	sw	a2,0(s1)
.LBE35:
	.loc 1 327 4009 is_stmt 1
	.loc 1 327 4010
	.loc 1 327 4026 is_stmt 0
	lw	a6,16(sp)
	lw	t1,36(sp)
	sw	t1,0(a6)
	.loc 1 289 26 is_stmt 1 discriminator 2
	.loc 1 289 17 discriminator 1
	lw	t1,32(sp)
	addi	a5,t1,1
	sw	a5,32(sp)
	lw	a6,24(sp)
	addi	a4,a6,-15
	sw	a4,24(sp)
	lw	a4,120(sp)
	ble	a4,a5,.L21
.LVL42:
.L14:
	.loc 1 290 10
	.loc 1 293 10
	.loc 1 293 12 is_stmt 0
	lw	a5,32(sp)
	bne	a5,zero,.L22
.LBB36:
	.loc 1 298 3 is_stmt 1
.LVL43:
	.loc 1 298 38
	.loc 1 298 54 is_stmt 0
	lw	a4,12(sp)
	li	a5,4096
	.loc 1 298 105
	li	t6,-2147483648
	.loc 1 298 54
	sw	a5,0(a4)
.LVL44:
	.loc 1 298 66 is_stmt 1
	.loc 1 298 82 is_stmt 0
	lw	a5,4(sp)
	.loc 1 298 150
	li	t5,-2147479552
	.loc 1 298 179
	li	a4,5
	.loc 1 298 82
	sw	zero,0(a5)
	.loc 1 298 88 is_stmt 1
	.loc 1 298 105 is_stmt 0
	lw	a5,28(sp)
	.loc 1 298 241
	li	t4,-2147483648
	.loc 1 298 304
	li	t3,-2147483648
	.loc 1 298 105
	sw	a5,1440(t6)
	.loc 1 298 133 is_stmt 1
	.loc 1 298 150 is_stmt 0
	sw	zero,-1248(t5)
	.loc 1 298 162 is_stmt 1
	.loc 1 298 179 is_stmt 0
	li	a5,-2147483648
	sw	a4,1824(a5)
	.loc 1 298 224 is_stmt 1
	.loc 1 298 241 is_stmt 0
	li	a4,48
	sw	a4,1696(t4)
	.loc 1 298 287 is_stmt 1
	.loc 1 298 304 is_stmt 0
	li	a5,287
	sw	a5,1952(t3)
	.loc 1 298 309 is_stmt 1
	.loc 1 298 326 is_stmt 0
	li	t1,-2147479552
	sw	zero,-1120(t1)
	.loc 1 298 329 is_stmt 1
	.loc 1 298 346 is_stmt 0
	li	a7,-2147479552
	sw	zero,-1888(a7)
	.loc 1 298 375 is_stmt 1
	.loc 1 298 392 is_stmt 0
	li	a3,-2147479552
	li	a2,8
	sw	a2,-2016(a3)
	.loc 1 298 418 is_stmt 1
	.loc 1 298 435 is_stmt 0
	sw	a5,0(s10)
	.loc 1 298 440 is_stmt 1
	.loc 1 298 457 is_stmt 0
	li	a6,-2147479552
	sw	zero,-992(a6)
	.loc 1 298 460 is_stmt 1
	.loc 1 298 476 is_stmt 0
	li	a2,-2147483648
	li	a1,7
	sw	a1,672(a2)
	.loc 1 298 516 is_stmt 1
	.loc 1 298 532 is_stmt 0
	li	a3,-2147483648
	li	a2,1
	sw	a2,1056(a3)
	.loc 1 298 543 is_stmt 1
	.loc 1 298 560 is_stmt 0
	li	a0,-2147483648
	sw	a5,1568(a0)
	.loc 1 298 565 is_stmt 1
	.loc 1 298 582 is_stmt 0
	li	a1,-2147479552
	sw	zero,-864(a1)
	.loc 1 298 585 is_stmt 1
	.loc 1 298 601 is_stmt 0
	lw	a5,44(sp)
	.loc 1 298 733
	li	a2,-2147479552
.LBE36:
	.loc 1 298 922
	li	a3,-2147479552
.LBB37:
	.loc 1 298 601
	sw	a5,0(s11)
	.loc 1 298 716 is_stmt 1
	.loc 1 298 871 is_stmt 0
	li	a5,1032192
	.loc 1 298 733
	sw	a4,-736(a2)
	.loc 1 298 854 is_stmt 1
	.loc 1 298 871 is_stmt 0
	addi	a5,a5,127
	sw	a5,0(s1)
.LBE37:
	.loc 1 298 904 is_stmt 1
	.loc 1 298 905
	.loc 1 298 922 is_stmt 0
	sw	zero,-480(a3)
	.loc 1 298 927 is_stmt 1
	.loc 1 298 944 is_stmt 0
	lw	a3,40(sp)
	.loc 1 298 993
	li	a4,393216
	li	a5,-2147483648
	.loc 1 298 944
	sw	a3,0(s1)
	.loc 1 298 976 is_stmt 1
	.loc 1 298 977
	.loc 1 298 993 is_stmt 0
	addi	a4,a4,1
	sw	a4,20(a5)
	j	.L13
.LVL45:
.L2:
	.cfi_restore 18
	.cfi_restore 21
	.cfi_restore 22
	.cfi_restore 23
	.cfi_restore 24
	.cfi_restore 25
	.cfi_restore 26
	.cfi_restore 27
	.loc 1 273 7 is_stmt 1
	.loc 1 273 9 is_stmt 0
	li	a5,32
	ble	s0,a5,.L1
	.loc 1 275 7 is_stmt 1
	.loc 1 275 11 is_stmt 0
	srai	s1,a4,6
.LVL46:
	.loc 1 276 7 is_stmt 1
.L3:
	.loc 1 280 18 is_stmt 0
	li	a1,1015840768
.LVL47:
	.loc 1 267 9
	srai	a5,a4,31
	.loc 1 280 18
	li	a2,-2147483648
	addi	a1,a1,-1788
	.loc 1 281 4
	li	a3,-2147483648
	.loc 1 280 18
	sw	a1,20(a2)
	.loc 1 267 9
	andi	a5,a5,31
	add	a5,a5,a4
	.loc 1 281 4
	sw	zero,36(a3)
	.loc 1 267 9
	srai	s4,a5,5
.LVL48:
	.loc 1 280 1 is_stmt 1
	.loc 1 280 2
	.loc 1 281 4
	.loc 1 281 4
	call	_taskYield
.LVL49:
	.loc 1 281 18 discriminator 1
	.loc 1 283 4
	.loc 1 284 4
	.loc 1 283 14 is_stmt 0
	lw	a5,52(sp)
	.loc 1 284 9
	lw	a3,112(sp)
	.loc 1 283 14
	mul	a4,a5,s0
	.loc 1 284 9
	lw	a3,12(a3)
.LVL50:
	.loc 1 285 4 is_stmt 1
	.loc 1 285 16 is_stmt 0
	slli	a5,a5,1
	.loc 1 285 9
	sub	a3,a3,a5
.LVL51:
	.loc 1 286 4 is_stmt 1
	.loc 1 283 16 is_stmt 0
	slli	a4,a4,1
.LVL52:
	.loc 1 286 12
	add	a4,a4,a5
.LVL53:
	.loc 1 288 4 is_stmt 1
	.loc 1 288 17 discriminator 1
	blt	s1,s4,.L4
.LVL54:
.L1:
	.loc 1 330 1 is_stmt 0
	lw	ra,204(sp)
	.cfi_restore 1
	lw	s0,200(sp)
	.cfi_restore 8
.LVL55:
	lw	s1,196(sp)
	.cfi_restore 9
	lw	s3,188(sp)
	.cfi_restore 19
.LVL56:
	lw	s4,184(sp)
	.cfi_restore 20
	addi	sp,sp,208
	.cfi_def_cfa_offset 0
	jr	ra
.LVL57:
.L21:
	.cfi_def_cfa_offset 208
	.cfi_offset 1, -4
	.cfi_offset 8, -8
	.cfi_offset 9, -12
	.cfi_offset 18, -16
	.cfi_offset 19, -20
	.cfi_offset 20, -24
	.cfi_offset 21, -28
	.cfi_offset 22, -32
	.cfi_offset 23, -36
	.cfi_offset 24, -40
	.cfi_offset 25, -44
	.cfi_offset 26, -48
	.cfi_offset 27, -52
	lw	s2,76(sp)
	lw	s4,80(sp)
	lw	s3,84(sp)
	lw	s1,88(sp)
	lw	s0,124(sp)
	sw	zero,60(sp)
.LVL58:
.L11:
	.loc 1 288 23 is_stmt 1 discriminator 2
	.loc 1 288 17 is_stmt 0 discriminator 1
	lw	a5,92(sp)
	.loc 1 288 23 discriminator 2
	addi	s1,s1,1
.LVL59:
	.loc 1 288 17 is_stmt 1 discriminator 1
	add	s2,s2,s0
	add	a5,a5,s0
	sw	a5,92(sp)
	lw	a5,60(sp)
	sub	s3,s3,s0
	sub	a5,a5,s0
	sw	a5,60(sp)
	lw	a5,96(sp)
	add	a5,a5,s0
	sw	a5,96(sp)
	beq	s1,s4,.L23
.LVL60:
.L15:
.LBB38:
	.loc 1 295 54 is_stmt 0
	li	a5,-2147483648
	addi	a5,a5,800
	.loc 1 295 82
	li	a4,-2147483648
	.loc 1 295 54
	sw	a5,16(sp)
	.loc 1 295 82
	addi	a5,a4,928
	lw	a0,100(sp)
	sw	a5,20(sp)
	.loc 1 295 105
	li	a5,16384
	addi	a5,a5,-1
.LBE38:
	.loc 1 295 1741
	li	a3,-2147483648
	li	a2,393216
.LBB39:
	.loc 1 295 105
	sw	a5,44(sp)
.LBE39:
	.loc 1 295 1741
	addi	a5,a3,20
.LBB40:
	.loc 1 295 435
	li	t3,-2147479552
	.loc 1 295 871
	li	a6,-2147479552
.LBE40:
	.loc 1 298 944
	li	a1,1036288
	sw	a0,28(sp)
	.loc 1 295 1741
	sw	a5,24(sp)
	addi	a0,s2,1
	addi	a5,a2,1
	sw	a0,108(sp)
.LBB41:
	.loc 1 295 435
	addi	t3,t3,-1760
	addi	a0,s3,-1
	.loc 1 295 871
	addi	a6,a6,-1632
.LBE41:
	.loc 1 295 1741
	sw	a5,64(sp)
	.loc 1 298 944
	addi	a5,a1,-1923
	.loc 1 248 46
	sw	zero,32(sp)
	sw	a0,104(sp)
	.loc 1 298 944
	sw	a5,56(sp)
	sw	s2,124(sp)
	sw	s4,128(sp)
	sw	s3,132(sp)
	sw	s1,136(sp)
	sw	s0,140(sp)
	sw	t3,4(sp)
	mv	s9,a6
	j	.L10
.LVL61:
.L8:
.LBB42:
	.loc 1 295 3 is_stmt 1
	.loc 1 295 38
	.loc 1 295 54 is_stmt 0
	lw	a0,16(sp)
	li	a4,4096
	.loc 1 295 105
	li	t5,-2147483648
	.loc 1 295 54
	sw	a4,0(a0)
	.loc 1 295 66 is_stmt 1
	.loc 1 295 82 is_stmt 0
	lw	s8,20(sp)
	.loc 1 295 150
	li	t4,-2147479552
	.loc 1 295 179
	li	s0,-2147483648
	.loc 1 295 82
	sw	zero,0(s8)
	.loc 1 295 88 is_stmt 1
	.loc 1 295 105 is_stmt 0
	lw	a5,44(sp)
.LVL62:
	.loc 1 295 179
	li	s7,5
	.loc 1 295 241
	li	s2,48
	.loc 1 295 105
	sw	a5,1440(t5)
	.loc 1 295 133 is_stmt 1
	.loc 1 295 150 is_stmt 0
	sw	zero,-1248(t4)
	.loc 1 295 162 is_stmt 1
	.loc 1 295 179 is_stmt 0
	sw	s7,1824(s0)
	.loc 1 295 224 is_stmt 1
	.loc 1 295 241 is_stmt 0
	li	t3,-2147483648
	sw	s2,1696(t3)
	.loc 1 295 287 is_stmt 1
	.loc 1 295 304 is_stmt 0
	li	a5,287
	li	t1,-2147483648
	sw	a5,1952(t1)
	.loc 1 295 309 is_stmt 1
	.loc 1 295 326 is_stmt 0
	li	a7,-2147479552
	sw	zero,-1120(a7)
	.loc 1 295 329 is_stmt 1
	.loc 1 295 346 is_stmt 0
	li	a6,-2147479552
	sw	zero,-1888(a6)
	.loc 1 295 375 is_stmt 1
	.loc 1 295 392 is_stmt 0
	li	ra,-2147479552
	li	s6,8
	sw	s6,-2016(ra)
	.loc 1 295 418 is_stmt 1
	.loc 1 295 435 is_stmt 0
	lw	s10,4(sp)
	.loc 1 295 457
	li	a1,-2147479552
	.loc 1 295 476
	li	t2,-2147483648
	.loc 1 295 435
	sw	a5,0(s10)
	.loc 1 295 440 is_stmt 1
	.loc 1 295 457 is_stmt 0
	sw	zero,-992(a1)
	.loc 1 295 460 is_stmt 1
	.loc 1 295 476 is_stmt 0
	li	s5,7
	sw	s5,672(t2)
	.loc 1 295 516 is_stmt 1
	.loc 1 295 532 is_stmt 0
	li	t0,-2147483648
	li	s4,1
	sw	s4,1056(t0)
	.loc 1 295 543 is_stmt 1
	.loc 1 295 560 is_stmt 0
	li	a2,-2147483648
	sw	a5,1568(a2)
	.loc 1 295 565 is_stmt 1
	.loc 1 295 582 is_stmt 0
	li	a3,-2147479552
	.loc 1 295 601
	li	s3,524288
	.loc 1 295 582
	sw	zero,-864(a3)
	.loc 1 295 585 is_stmt 1
	.loc 1 295 601 is_stmt 0
	li	t6,-2147483648
	addi	s3,s3,8
	sw	s3,544(t6)
	.loc 1 295 716 is_stmt 1
	.loc 1 295 733 is_stmt 0
	li	s1,-2147479552
	.loc 1 295 871
	li	s3,1032192
	.loc 1 295 733
	sw	s2,-736(s1)
	.loc 1 295 854 is_stmt 1
	.loc 1 295 871 is_stmt 0
	addi	s3,s3,127
	sw	s3,0(s9)
.LBE42:
.LBB43:
	.loc 1 295 904 is_stmt 1
.LVL63:
	.loc 1 295 953
	.loc 1 295 969 is_stmt 0
	sw	a4,0(a0)
	.loc 1 295 981 is_stmt 1
	.loc 1 295 997 is_stmt 0
	sw	zero,0(s8)
	.loc 1 295 1003 is_stmt 1
	.loc 1 295 1020 is_stmt 0
	addi	a4,a4,-1
	sw	a4,1440(t5)
	.loc 1 295 1048 is_stmt 1
	.loc 1 295 1065 is_stmt 0
	li	a4,12288
	sw	a4,-1248(t4)
	.loc 1 295 1077 is_stmt 1
	.loc 1 295 1094 is_stmt 0
	sw	s7,1824(s0)
	.loc 1 295 1139 is_stmt 1
	.loc 1 295 1156 is_stmt 0
	sw	s2,1696(t3)
	.loc 1 295 1202 is_stmt 1
	.loc 1 295 1219 is_stmt 0
	sw	a5,1952(t1)
	.loc 1 295 1224 is_stmt 1
	.loc 1 295 1241 is_stmt 0
	sw	zero,-1120(a7)
	.loc 1 295 1244 is_stmt 1
	.loc 1 295 1261 is_stmt 0
	sw	zero,-1888(a6)
	.loc 1 295 1320 is_stmt 1
	.loc 1 295 1337 is_stmt 0
	sw	s6,-2016(ra)
	.loc 1 295 1363 is_stmt 1
	.loc 1 295 1380 is_stmt 0
	sw	a5,0(s10)
	.loc 1 295 1385 is_stmt 1
	.loc 1 295 1402 is_stmt 0
	sw	zero,-992(a1)
	.loc 1 295 1405 is_stmt 1
	.loc 1 295 1421 is_stmt 0
	sw	s5,672(t2)
	.loc 1 295 1461 is_stmt 1
	.loc 1 295 1477 is_stmt 0
	sw	s4,1056(t0)
	.loc 1 295 1488 is_stmt 1
	.loc 1 295 1505 is_stmt 0
	sw	a5,1568(a2)
	.loc 1 295 1510 is_stmt 1
	.loc 1 295 1546 is_stmt 0
	li	a4,536576
	.loc 1 295 1527
	sw	zero,-864(a3)
	.loc 1 295 1530 is_stmt 1
	.loc 1 295 1546 is_stmt 0
	addi	a4,a4,32
	.loc 1 295 1692
	li	a5,1032192
	.loc 1 295 1546
	sw	a4,544(t6)
	.loc 1 295 1675 is_stmt 1
	.loc 1 295 1692 is_stmt 0
	addi	a5,a5,125
	sw	a5,0(s9)
.LBE43:
	.loc 1 295 1724 is_stmt 1
	.loc 1 295 1725
	.loc 1 295 1741 is_stmt 0
	lw	a5,24(sp)
	lw	a4,64(sp)
	sw	a4,0(a5)
.LVL64:
.L9:
	.loc 1 301 1 is_stmt 1
	.loc 1 301 2
	.loc 1 301 18 is_stmt 0
	lw	s10,24(sp)
	li	a5,88
.LBB44:
	.loc 1 305 220
	li	t0,96
.LBE44:
	.loc 1 301 18
	sw	a5,0(s10)
.LBB45:
	.loc 1 305 3 is_stmt 1
.LVL65:
	.loc 1 305 204
	.loc 1 305 220 is_stmt 0
	lw	t4,16(sp)
	.loc 1 305 321
	li	a1,7
	.loc 1 305 344
	li	a2,-2147483648
	.loc 1 305 220
	sw	t0,0(t4)
	.loc 1 305 305 is_stmt 1
	.loc 1 305 321 is_stmt 0
	lw	t2,20(sp)
	.loc 1 305 344
	li	a5,767
	.loc 1 305 471
	li	a3,-2147479552
	.loc 1 305 321
	sw	a1,0(t2)
	.loc 1 305 327 is_stmt 1
	.loc 1 305 344 is_stmt 0
	sw	a5,1440(a2)
	.loc 1 305 454 is_stmt 1
	.loc 1 305 471 is_stmt 0
	sw	zero,-1248(a3)
	.loc 1 305 556 is_stmt 1
	.loc 1 305 573 is_stmt 0
	li	a0,-2147483648
	li	s11,16
	sw	s11,1696(a0)
	.loc 1 305 632 is_stmt 1
	.loc 1 305 649 is_stmt 0
	li	t6,-2147483648
	li	a7,5
	sw	a7,1824(t6)
	.loc 1 305 655 is_stmt 1
	.loc 1 305 672 is_stmt 0
	li	t5,-2147483648
	li	ra,95
	sw	ra,1952(t5)
	.loc 1 305 761 is_stmt 1
	.loc 1 305 778 is_stmt 0
	li	s2,-2147479552
	sw	zero,-1120(s2)
	.loc 1 305 837 is_stmt 1
	.loc 1 305 854 is_stmt 0
	li	s8,-2147479552
	li	a5,4
	sw	a5,-2016(s8)
	.loc 1 305 895 is_stmt 1
	.loc 1 305 912 is_stmt 0
	li	s0,3
	li	s7,-2147479552
	sw	s0,-1888(s7)
	.loc 1 305 918 is_stmt 1
	.loc 1 305 935 is_stmt 0
	lw	s1,4(sp)
	li	a6,15
	.loc 1 305 1015
	li	s6,-2147479552
	.loc 1 305 935
	sw	a6,0(s1)
	.loc 1 305 998 is_stmt 1
	.loc 1 305 1015 is_stmt 0
	sw	zero,-992(s6)
	.loc 1 305 1056 is_stmt 1
	.loc 1 305 1072 is_stmt 0
	li	s5,-2147483648
	li	a4,1
	sw	a4,1056(s5)
	.loc 1 305 1083 is_stmt 1
	.loc 1 305 1099 is_stmt 0
	li	s4,-2147483648
	sw	s0,672(s4)
	.loc 1 305 1105 is_stmt 1
	.loc 1 305 1122 is_stmt 0
	li	s3,-2147483648
	sw	s0,1568(s3)
	.loc 1 305 1163 is_stmt 1
	.loc 1 305 1180 is_stmt 0
	li	t1,-2147479552
	sw	zero,-864(t1)
	.loc 1 305 1189 is_stmt 1
.LVL66:
	.loc 1 305 1390
	.loc 1 305 1406 is_stmt 0
	li	a5,-2147483648
	sw	a5,12(sp)
	sw	zero,544(a5)
	.loc 1 305 1435 is_stmt 1
	.loc 1 305 1436
	.loc 1 305 1453 is_stmt 0
	addi	a5,t1,-736
	sw	a5,40(sp)
	li	t2,768
	.loc 1 305 1509
	li	t1,1036288
	.loc 1 305 1453
	sw	t2,0(a5)
	.loc 1 305 1492 is_stmt 1
	.loc 1 305 1509 is_stmt 0
	addi	t1,t1,-1921
	sw	t1,68(sp)
	sw	t1,0(s9)
.LBE45:
.LBB46:
	.loc 1 305 1542 is_stmt 1
.LVL67:
	.loc 1 305 1722
	.loc 1 305 1739 is_stmt 0
	lw	t3,116(sp)
	.loc 1 305 1956
	li	a5,67108864
	addi	a5,a5,-1
	.loc 1 305 1739
	sw	t3,1696(a0)
.LVL68:
	.loc 1 305 1766 is_stmt 1
	.loc 1 305 1783 is_stmt 0
	sw	a1,1824(t6)
	.loc 1 305 1789 is_stmt 1
	.loc 1 305 1806 is_stmt 0
	lw	t3,92(sp)
.LBE46:
.LBB47:
	.loc 1 305 344
	addi	a2,a2,1440
	.loc 1 305 649
	addi	t6,t6,1824
.LBE47:
.LBB48:
	.loc 1 305 1806
	sw	t3,1952(t5)
	.loc 1 305 1842 is_stmt 1
	.loc 1 305 1859 is_stmt 0
	lw	t1,60(sp)
	sw	s2,8(sp)
.LBE48:
.LBB49:
	.loc 1 305 573
	addi	a0,a0,1696
.LBE49:
.LBB50:
	.loc 1 305 1859
	sw	t1,-1120(s2)
	.loc 1 305 1886 is_stmt 1
	.loc 1 305 1903 is_stmt 0
	lw	t3,52(sp)
.LBE50:
.LBB51:
	.loc 1 305 672
	addi	t5,t5,1952
	.loc 1 305 471
	addi	a3,a3,-1248
.LBE51:
.LBB52:
	.loc 1 305 1903
	sw	t3,-2016(s8)
	.loc 1 305 1916 is_stmt 1
	.loc 1 305 1933 is_stmt 0
	sw	a7,-1888(s7)
	.loc 1 305 1939 is_stmt 1
	.loc 1 305 1956 is_stmt 0
	sw	s1,4(sp)
	sw	a5,0(s1)
	.loc 1 305 1968 is_stmt 1
	.loc 1 305 1985 is_stmt 0
	sw	zero,-992(s6)
	.loc 1 305 1998 is_stmt 1
	.loc 1 305 2014 is_stmt 0
	sw	a4,1056(s5)
	.loc 1 305 2025 is_stmt 1
	.loc 1 305 2041 is_stmt 0
	sw	a6,672(s4)
	.loc 1 305 2047 is_stmt 1
	.loc 1 305 2064 is_stmt 0
	lw	t1,28(sp)
	lw	t3,32(sp)
	.loc 1 305 2177
	li	a6,-2147479552
	.loc 1 305 2064
	sw	t1,1568(s3)
	.loc 1 305 2077 is_stmt 1
	lw	s1,108(sp)
	slli	a5,t3,4
	sw	t3,32(sp)
	sub	a5,a5,t3
	add	t3,s1,t1
	.loc 1 305 2235 is_stmt 0
	lw	s1,104(sp)
	sw	t1,28(sp)
	.loc 1 305 2094
	sw	a5,72(sp)
	.loc 1 305 2235
	sub	t1,s1,t1
	.loc 1 305 2094
	li	s1,-2147479552
	sw	a5,-864(s1)
	.loc 1 305 2103 is_stmt 1
.LVL69:
	.loc 1 305 2160
	.loc 1 305 2177 is_stmt 0
	sw	t3,-96(a6)
	.loc 1 305 2213 is_stmt 1
	.loc 1 305 2214
	.loc 1 305 2230 is_stmt 0
	lw	s2,12(sp)
	.loc 1 305 2279
	li	a5,1036288
	addi	a5,a5,125
	.loc 1 305 2230
	sw	t1,544(s2)
	.loc 1 305 2261 is_stmt 1
	.loc 1 305 2262
.LBE52:
	.loc 1 305 2328 is_stmt 0
	li	s1,393216
.LBB53:
	.loc 1 305 2279
	sw	a5,0(s9)
.LBE53:
	.loc 1 305 2311 is_stmt 1
	.loc 1 305 2312
	.loc 1 305 2328 is_stmt 0
	addi	t3,s1,17
	sw	s10,24(sp)
	sw	t3,48(sp)
.LBB54:
	.loc 1 305 2480
	li	a6,4096
.LBE54:
	.loc 1 305 2328
	sw	t3,0(s10)
.LBB55:
	.loc 1 305 2418 is_stmt 1
.LVL70:
	.loc 1 305 2463
	.loc 1 305 2480 is_stmt 0
	sw	a6,-2016(s8)
	.loc 1 305 2492 is_stmt 1
	.loc 1 305 2509 is_stmt 0
	sw	s0,-1888(s7)
	.loc 1 305 2515 is_stmt 1
	.loc 1 305 2532 is_stmt 0
	lw	t3,44(sp)
	lw	s1,4(sp)
	.loc 1 305 2729
	li	a5,287
	.loc 1 305 2532
	sw	t3,0(s1)
	.loc 1 305 2560 is_stmt 1
	.loc 1 305 2577 is_stmt 0
	sw	zero,-992(s6)
	.loc 1 305 2589 is_stmt 1
	.loc 1 305 2666 is_stmt 0
	li	t3,48
	.loc 1 305 2606
	sw	a7,0(t6)
	.loc 1 305 2649 is_stmt 1
	.loc 1 305 2666 is_stmt 0
	sw	t3,0(a0)
	.loc 1 305 2712 is_stmt 1
	.loc 1 305 2729 is_stmt 0
	sw	a5,0(t5)
	.loc 1 305 2734 is_stmt 1
	.loc 1 305 2751 is_stmt 0
	lw	t1,8(sp)
	.loc 1 305 2894
	li	s1,-2147479552
	.loc 1 305 2751
	sw	zero,-1120(t1)
	.loc 1 305 2754 is_stmt 1
	.loc 1 305 2770 is_stmt 0
	sw	s0,672(s4)
	.loc 1 305 2813 is_stmt 1
	.loc 1 305 2829 is_stmt 0
	li	t1,8
	sw	t1,1056(s5)
	.loc 1 305 2855 is_stmt 1
	.loc 1 305 2872 is_stmt 0
	sw	a5,1568(s3)
	.loc 1 305 2877 is_stmt 1
	.loc 1 305 2894 is_stmt 0
	sw	zero,-864(s1)
	.loc 1 305 2897 is_stmt 1
	.loc 1 305 2913 is_stmt 0
	lw	s10,20(sp)
	.loc 1 305 2967
	mv	s1,t4
	.loc 1 305 2913
	sw	a1,0(s10)
	.loc 1 305 2951 is_stmt 1
	.loc 1 305 2967 is_stmt 0
	sw	a4,0(t4)
	.loc 1 305 2978 is_stmt 1
	.loc 1 305 2995 is_stmt 0
	sw	a5,0(a2)
	.loc 1 305 3000 is_stmt 1
	.loc 1 305 3036 is_stmt 0
	li	t4,524288
	.loc 1 305 3017
	sw	zero,0(a3)
	.loc 1 305 3020 is_stmt 1
	.loc 1 305 3036 is_stmt 0
	addi	t4,t4,16
	sw	t4,544(s2)
	.loc 1 305 3153 is_stmt 1
	.loc 1 305 3170 is_stmt 0
	lw	s10,40(sp)
	.loc 1 305 3318
	li	t4,1032192
	addi	t4,t4,1151
	.loc 1 305 3170
	sw	t2,0(s10)
	.loc 1 305 3301 is_stmt 1
	.loc 1 305 3318 is_stmt 0
	sw	t4,0(s9)
.LBE55:
.LBB56:
	.loc 1 305 3351 is_stmt 1
.LVL71:
	.loc 1 305 3552
	.loc 1 305 3568 is_stmt 0
	sw	t0,0(s1)
	.loc 1 305 3653 is_stmt 1
	.loc 1 305 3669 is_stmt 0
	lw	t2,20(sp)
	.loc 1 305 3692
	li	t0,767
	.loc 1 305 3568
	mv	t4,s1
	.loc 1 305 3669
	sw	a1,0(t2)
	.loc 1 305 3675 is_stmt 1
	.loc 1 305 3692 is_stmt 0
	sw	t0,0(a2)
	.loc 1 305 3802 is_stmt 1
	.loc 1 305 3819 is_stmt 0
	sw	zero,0(a3)
	.loc 1 305 3904 is_stmt 1
	.loc 1 305 3921 is_stmt 0
	sw	s11,0(a0)
	.loc 1 305 3980 is_stmt 1
	.loc 1 305 3997 is_stmt 0
	sw	a7,0(t6)
	.loc 1 305 4003 is_stmt 1
	.loc 1 305 4020 is_stmt 0
	sw	ra,0(t5)
	.loc 1 305 0 is_stmt 1
	lw	t0,8(sp)
	li	ra,4
	sw	zero,-1120(t0)
	.loc 1 305 0
	sw	ra,-2016(s8)
	.loc 1 305 0
	sw	s0,-1888(s7)
	.loc 1 305 0
	lw	s1,4(sp)
	li	t0,15
	sw	t0,0(s1)
	.loc 1 305 0
	sw	zero,-992(s6)
	.loc 1 305 0
	sw	a4,1056(s5)
	.loc 1 305 0
	sw	s0,672(s4)
	.loc 1 305 0
	sw	s0,1568(s3)
	.loc 1 305 0
	li	t0,-2147479552
	sw	zero,-864(t0)
	.loc 1 305 0
.LVL72:
	.loc 1 305 0
	sw	zero,544(s2)
	.loc 1 305 0
	.loc 1 305 0
	lw	ra,56(sp)
	sw	ra,0(s9)
.LBE56:
	.loc 1 305 0
	.loc 1 305 0
	lw	s10,24(sp)
	lw	t0,48(sp)
.LBB57:
	.loc 1 311 86 is_stmt 0
	li	ra,2
.LBE57:
	.loc 1 305 0
	sw	t0,0(s10)
.LBB58:
	.loc 1 311 3 is_stmt 1
.LVL73:
	.loc 1 311 42
	.loc 1 311 58 is_stmt 0
	sw	a6,0(t4)
	.loc 1 311 70 is_stmt 1
	.loc 1 311 86 is_stmt 0
	sw	ra,0(t2)
	.loc 1 311 92 is_stmt 1
	.loc 1 311 58 is_stmt 0
	mv	t0,t4
	.loc 1 311 109
	lw	t4,44(sp)
	sw	t4,0(a2)
	.loc 1 311 137 is_stmt 1
	.loc 1 311 154 is_stmt 0
	sw	zero,0(a3)
	.loc 1 311 166 is_stmt 1
	.loc 1 311 183 is_stmt 0
	sw	a7,0(t6)
	.loc 1 311 228 is_stmt 1
	.loc 1 311 245 is_stmt 0
	sw	t3,0(a0)
	.loc 1 311 291 is_stmt 1
	.loc 1 311 308 is_stmt 0
	sw	a5,0(t5)
	.loc 1 311 313 is_stmt 1
	.loc 1 311 330 is_stmt 0
	lw	t4,8(sp)
	sw	zero,-1120(t4)
	.loc 1 311 333 is_stmt 1
	.loc 1 311 350 is_stmt 0
	sw	zero,-1888(s7)
	.loc 1 311 407 is_stmt 1
	.loc 1 311 424 is_stmt 0
	sw	t1,-2016(s8)
	.loc 1 311 450 is_stmt 1
	.loc 1 311 467 is_stmt 0
	sw	s1,4(sp)
	sw	a5,0(s1)
	.loc 1 311 472 is_stmt 1
	.loc 1 311 489 is_stmt 0
	sw	zero,-992(s6)
	.loc 1 311 492 is_stmt 1
	.loc 1 311 508 is_stmt 0
	sw	a1,672(s4)
	.loc 1 311 548 is_stmt 1
	.loc 1 311 564 is_stmt 0
	sw	a4,1056(s5)
	.loc 1 311 575 is_stmt 1
	.loc 1 311 592 is_stmt 0
	sw	a5,1568(s3)
	.loc 1 311 597 is_stmt 1
	.loc 1 311 614 is_stmt 0
	li	s1,-2147479552
	sw	zero,-864(s1)
	.loc 1 311 617 is_stmt 1
	.loc 1 311 633 is_stmt 0
	li	t4,524288
	sw	s2,12(sp)
	addi	t4,t4,48
	sw	t4,544(s2)
	.loc 1 311 762 is_stmt 1
	.loc 1 311 779 is_stmt 0
	lw	t4,40(sp)
	.loc 1 311 945
	li	s1,1032192
	mv	s2,s1
	.loc 1 311 779
	li	s1,144
	sw	s1,0(t4)
	.loc 1 311 928 is_stmt 1
	.loc 1 311 945 is_stmt 0
	addi	t4,s2,127
	sw	t4,20(sp)
	sw	t4,0(s9)
.LBE58:
.LBB59:
	.loc 1 311 978 is_stmt 1
.LVL74:
	.loc 1 311 1023
	.loc 1 311 1039 is_stmt 0
	sw	t0,16(sp)
	sw	a6,0(t0)
	.loc 1 311 1051 is_stmt 1
	.loc 1 311 1090 is_stmt 0
	li	t0,12288
	.loc 1 311 1067
	sw	ra,0(t2)
	.loc 1 311 1073 is_stmt 1
	.loc 1 311 1090 is_stmt 0
	addi	t0,t0,-1
	sw	t0,0(a2)
	.loc 1 311 1118 is_stmt 1
	.loc 1 311 1135 is_stmt 0
	sw	a6,0(a3)
	.loc 1 311 1147 is_stmt 1
	.loc 1 311 1164 is_stmt 0
	sw	a7,0(t6)
	.loc 1 311 1209 is_stmt 1
	.loc 1 311 1226 is_stmt 0
	sw	t3,0(a0)
	.loc 1 311 1272 is_stmt 1
	.loc 1 311 1289 is_stmt 0
	sw	a5,0(t5)
	.loc 1 311 1294 is_stmt 1
	.loc 1 311 1067 is_stmt 0
	mv	s1,t2
	.loc 1 311 1311
	lw	t2,8(sp)
	sw	zero,-1120(t2)
	.loc 1 311 1314 is_stmt 1
	.loc 1 311 1331 is_stmt 0
	sw	zero,-1888(s7)
	.loc 1 311 1364 is_stmt 1
	.loc 1 311 1381 is_stmt 0
	sw	t1,-2016(s8)
	.loc 1 311 1407 is_stmt 1
	.loc 1 311 1424 is_stmt 0
	lw	t4,4(sp)
	.loc 1 311 1590
	li	t2,528384
	addi	t2,t2,16
	.loc 1 311 1424
	sw	a5,0(t4)
	.loc 1 311 1429 is_stmt 1
	.loc 1 311 1446 is_stmt 0
	sw	zero,-992(s6)
	.loc 1 311 1449 is_stmt 1
	.loc 1 311 1465 is_stmt 0
	sw	a1,672(s4)
	.loc 1 311 1505 is_stmt 1
	.loc 1 311 1521 is_stmt 0
	sw	a4,1056(s5)
	.loc 1 311 1532 is_stmt 1
	.loc 1 311 1549 is_stmt 0
	sw	a5,1568(s3)
	.loc 1 311 1554 is_stmt 1
	.loc 1 311 1571 is_stmt 0
	li	t4,-2147479552
	sw	zero,-864(t4)
	.loc 1 311 1574 is_stmt 1
	.loc 1 311 1590 is_stmt 0
	lw	s2,12(sp)
	.loc 1 311 1724
	li	t4,1032192
	addi	t4,t4,125
	.loc 1 311 1590
	sw	t2,544(s2)
	.loc 1 311 1707 is_stmt 1
	.loc 1 311 1724 is_stmt 0
	sw	t4,0(s9)
.LBE59:
	.loc 1 311 1756 is_stmt 1
	.loc 1 311 1757
	.loc 1 311 1773 is_stmt 0
	li	t2,393216
	sw	s10,24(sp)
	addi	t2,t2,9
	sw	t2,0(s10)
.LBB60:
	.loc 1 315 3 is_stmt 1
.LVL75:
	.loc 1 315 48
	.loc 1 315 64 is_stmt 0
	lw	t2,16(sp)
	.loc 1 315 92
	mv	s10,s1
	.loc 1 315 64
	sw	a6,0(t2)
	.loc 1 315 76 is_stmt 1
	.loc 1 315 92 is_stmt 0
	sw	ra,0(s1)
	.loc 1 315 98 is_stmt 1
	.loc 1 315 115 is_stmt 0
	sw	t0,0(a2)
	.loc 1 315 143 is_stmt 1
	.loc 1 315 160 is_stmt 0
	sw	a6,0(a3)
	.loc 1 315 172 is_stmt 1
	.loc 1 315 189 is_stmt 0
	sw	a7,0(t6)
	.loc 1 315 234 is_stmt 1
	.loc 1 315 251 is_stmt 0
	sw	t3,0(a0)
	.loc 1 315 297 is_stmt 1
	.loc 1 315 314 is_stmt 0
	sw	a5,0(t5)
	.loc 1 315 319 is_stmt 1
	.loc 1 315 336 is_stmt 0
	lw	s2,8(sp)
	.loc 1 315 611
	li	t0,528384
	addi	t0,t0,8
	.loc 1 315 336
	sw	zero,-1120(s2)
	.loc 1 315 339 is_stmt 1
	.loc 1 315 356 is_stmt 0
	sw	zero,-1888(s7)
	.loc 1 315 385 is_stmt 1
	.loc 1 315 402 is_stmt 0
	sw	t1,-2016(s8)
	.loc 1 315 428 is_stmt 1
	.loc 1 315 445 is_stmt 0
	lw	s1,4(sp)
	sw	a5,0(s1)
	.loc 1 315 450 is_stmt 1
	.loc 1 315 467 is_stmt 0
	sw	zero,-992(s6)
	.loc 1 315 470 is_stmt 1
	.loc 1 315 486 is_stmt 0
	sw	a1,672(s4)
	.loc 1 315 526 is_stmt 1
	.loc 1 315 542 is_stmt 0
	sw	a4,1056(s5)
	.loc 1 315 553 is_stmt 1
	.loc 1 315 570 is_stmt 0
	sw	a5,1568(s3)
	.loc 1 315 575 is_stmt 1
	.loc 1 315 592 is_stmt 0
	li	s1,-2147479552
	sw	zero,-864(s1)
	.loc 1 315 595 is_stmt 1
	.loc 1 315 611 is_stmt 0
	lw	s1,12(sp)
	sw	t0,544(s1)
	.loc 1 315 726 is_stmt 1
	.loc 1 315 743 is_stmt 0
	lw	t0,40(sp)
	li	s1,144
	sw	s1,0(t0)
	.loc 1 315 864 is_stmt 1
	.loc 1 315 881 is_stmt 0
	lw	s1,20(sp)
	sw	s1,0(s9)
.LBE60:
.LBB61:
	.loc 1 315 914 is_stmt 1
.LVL76:
	.loc 1 315 953
	.loc 1 315 981
	.loc 1 315 969 is_stmt 0
	sw	t2,16(sp)
	sw	a6,0(t2)
	.loc 1 315 997
	sw	s10,20(sp)
	sw	ra,0(s10)
	.loc 1 315 1003 is_stmt 1
	.loc 1 315 1020 is_stmt 0
	lw	s1,44(sp)
	sw	s1,0(a2)
	sw	a2,88(sp)
	.loc 1 315 1048 is_stmt 1
	.loc 1 315 1065 is_stmt 0
	sw	zero,0(a3)
	.loc 1 315 1077 is_stmt 1
	.loc 1 315 1094 is_stmt 0
	sw	a7,0(t6)
	sw	t6,84(sp)
	.loc 1 315 1139 is_stmt 1
	.loc 1 315 1156 is_stmt 0
	sw	t3,0(a0)
	sw	a0,80(sp)
	.loc 1 315 1202 is_stmt 1
	.loc 1 315 1219 is_stmt 0
	sw	a5,0(t5)
	sw	t5,76(sp)
	.loc 1 315 1224 is_stmt 1
	.loc 1 315 1241 is_stmt 0
	sw	zero,-1120(s2)
	.loc 1 315 1244 is_stmt 1
	.loc 1 315 1261 is_stmt 0
	sw	zero,-1888(s7)
	.loc 1 315 1312 is_stmt 1
	.loc 1 315 1355
	.loc 1 315 1329 is_stmt 0
	sw	t1,-2016(s8)
	.loc 1 315 1372
	lw	a6,4(sp)
.LBE61:
	.loc 1 321 18
	li	a7,1015840768
	addi	a7,a7,260
.LBB62:
	.loc 1 315 1372
	sw	a5,0(a6)
	.loc 1 315 1377 is_stmt 1
	.loc 1 315 1394 is_stmt 0
	sw	zero,-992(s6)
	.loc 1 315 1397 is_stmt 1
	.loc 1 315 1453
	.loc 1 315 1480
	.loc 1 315 1413 is_stmt 0
	sw	a1,672(s4)
	.loc 1 315 1469
	sw	a4,1056(s5)
	.loc 1 315 1497
	sw	a5,1568(s3)
	.loc 1 315 1502 is_stmt 1
	.loc 1 315 1519 is_stmt 0
	li	a4,-2147479552
	sw	zero,-864(a4)
	.loc 1 315 1522 is_stmt 1
	.loc 1 315 1538 is_stmt 0
	lw	a1,12(sp)
	li	a5,524288
	addi	a5,a5,40
	sw	a5,544(a1)
	.loc 1 315 1663 is_stmt 1
	.loc 1 315 1680 is_stmt 0
	sw	t4,0(s9)
.LBE62:
	.loc 1 315 1712 is_stmt 1
	.loc 1 315 1713
	.loc 1 315 1729 is_stmt 0
	lw	s10,24(sp)
	lw	a2,64(sp)
	.loc 1 323 10
	li	a5,-2147483648
	.loc 1 315 1729
	sw	a2,0(s10)
	.loc 1 317 10 is_stmt 1
	.loc 1 321 1
	.loc 1 321 2
	.loc 1 321 18 is_stmt 0
	sw	a7,0(s10)
	.loc 1 323 10 is_stmt 1
	sw	zero,36(a5)
	.loc 1 323 10
.LBB63:
	.loc 1 305 778 is_stmt 0
	addi	a5,s2,-1120
	sw	a5,8(sp)
	.loc 1 305 1180
	li	a5,-2147479552
	addi	a5,a5,-864
	sw	a5,36(sp)
	.loc 1 305 1406
	addi	a5,a1,544
	mv	s2,a5
	.loc 1 305 471
	sw	a3,12(sp)
.LBE63:
	.loc 1 323 10
	call	_taskYield
.LVL77:
	.loc 1 323 24 is_stmt 1 discriminator 1
.LBB64:
	.loc 1 327 3
	.loc 1 327 186
	.loc 1 327 202 is_stmt 0
	lw	t0,16(sp)
	li	t3,64
	.loc 1 327 285
	li	a1,7
	.loc 1 327 202
	sw	t3,0(t0)
	.loc 1 327 269 is_stmt 1
	.loc 1 327 285 is_stmt 0
	lw	t2,20(sp)
	.loc 1 327 308
	li	a7,511
	.loc 1 327 588
	li	a5,63
	.loc 1 327 285
	sw	a1,0(t2)
	.loc 1 327 291 is_stmt 1
	.loc 1 327 308 is_stmt 0
	lw	a2,88(sp)
	.loc 1 327 740
	li	a4,4
	.loc 1 327 809
	li	a6,15
	.loc 1 327 308
	sw	a7,0(a2)
	.loc 1 327 400 is_stmt 1
	.loc 1 327 417 is_stmt 0
	lw	a3,12(sp)
	.loc 1 327 1249
	li	t4,512
	.loc 1 327 417
	sw	zero,0(a3)
	.loc 1 327 484 is_stmt 1
	.loc 1 327 501 is_stmt 0
	lw	a0,80(sp)
	sw	s11,0(a0)
	.loc 1 327 548 is_stmt 1
	.loc 1 327 565 is_stmt 0
	lw	t6,84(sp)
	sw	s0,0(t6)
	.loc 1 327 571 is_stmt 1
	.loc 1 327 588 is_stmt 0
	lw	t5,76(sp)
	sw	a5,0(t5)
	.loc 1 327 659 is_stmt 1
	.loc 1 327 676 is_stmt 0
	lw	t1,8(sp)
	sw	zero,0(t1)
	.loc 1 327 723 is_stmt 1
	.loc 1 327 740 is_stmt 0
	sw	a4,-2016(s8)
	.loc 1 327 769 is_stmt 1
	.loc 1 327 786 is_stmt 0
	sw	s0,-1888(s7)
	.loc 1 327 792 is_stmt 1
	.loc 1 327 809 is_stmt 0
	lw	a4,4(sp)
	sw	a6,0(a4)
	.loc 1 327 860 is_stmt 1
	.loc 1 327 877 is_stmt 0
	sw	zero,-992(s6)
	.loc 1 327 906 is_stmt 1
	.loc 1 327 922 is_stmt 0
	li	a4,1
	sw	a4,1056(s5)
	.loc 1 327 933 is_stmt 1
	.loc 1 327 949 is_stmt 0
	sw	s0,672(s4)
	.loc 1 327 955 is_stmt 1
	.loc 1 327 972 is_stmt 0
	sw	s0,1568(s3)
	.loc 1 327 1001 is_stmt 1
	.loc 1 327 1018 is_stmt 0
	lw	a6,36(sp)
	sw	zero,0(a6)
	.loc 1 327 1027 is_stmt 1
.LVL78:
	.loc 1 327 1186
	.loc 1 327 1202 is_stmt 0
	sw	s2,12(sp)
	sw	zero,0(s2)
	.loc 1 327 1231 is_stmt 1
	.loc 1 327 1232
	.loc 1 327 1249 is_stmt 0
	lw	s2,40(sp)
	sw	t4,0(s2)
	.loc 1 327 1288 is_stmt 1
	.loc 1 327 1305 is_stmt 0
	lw	a6,68(sp)
	sw	a6,0(s9)
.LBE64:
.LBB65:
	.loc 1 327 1338 is_stmt 1
.LVL79:
	.loc 1 327 1383
	.loc 1 327 1400 is_stmt 0
	li	a6,4096
	sw	a6,-2016(s8)
	.loc 1 327 1412 is_stmt 1
	.loc 1 327 1429 is_stmt 0
	sw	s0,-1888(s7)
	.loc 1 327 1435 is_stmt 1
	.loc 1 327 1452 is_stmt 0
	lw	a6,4(sp)
	sw	s1,0(a6)
	.loc 1 327 1480 is_stmt 1
	.loc 1 327 1497 is_stmt 0
	sw	zero,-992(s6)
	.loc 1 327 1509 is_stmt 1
	.loc 1 327 1526 is_stmt 0
	sw	s0,0(t6)
	.loc 1 327 1563 is_stmt 1
	.loc 1 327 1580 is_stmt 0
	li	a6,32
	sw	a6,0(a0)
	.loc 1 327 1620 is_stmt 1
	.loc 1 327 1637 is_stmt 0
	li	a6,127
	sw	a6,0(t5)
	.loc 1 327 1642 is_stmt 1
	.loc 1 327 1659 is_stmt 0
	lw	t1,8(sp)
	sw	zero,0(t1)
	.loc 1 327 1662 is_stmt 1
	.loc 1 327 1678 is_stmt 0
	sw	s0,672(s4)
	.loc 1 327 1715 is_stmt 1
	.loc 1 327 1731 is_stmt 0
	li	t1,8
	sw	t1,1056(s5)
	.loc 1 327 1757 is_stmt 1
	.loc 1 327 1774 is_stmt 0
	sw	a6,1568(s3)
	.loc 1 327 1779 is_stmt 1
	.loc 1 327 1796 is_stmt 0
	lw	t1,36(sp)
	sw	zero,0(t1)
	.loc 1 327 1799 is_stmt 1
	.loc 1 327 1815 is_stmt 0
	sw	a1,0(t2)
	.loc 1 327 1853 is_stmt 1
	.loc 1 327 1869 is_stmt 0
	sw	a4,0(t0)
	.loc 1 327 1880 is_stmt 1
	.loc 1 327 1897 is_stmt 0
	sw	a6,0(a2)
	.loc 1 327 1902 is_stmt 1
	.loc 1 327 1919 is_stmt 0
	sw	zero,0(a3)
	.loc 1 327 1922 is_stmt 1
	.loc 1 327 1938 is_stmt 0
	lw	s11,12(sp)
	li	t1,524288
	addi	t1,t1,296
	.loc 1 327 2066
	li	a6,1032192
	.loc 1 327 1938
	sw	t1,0(s11)
	.loc 1 327 2049 is_stmt 1
	.loc 1 327 2066 is_stmt 0
	addi	a6,a6,1149
	sw	a6,0(s9)
.LBE65:
	.loc 1 327 2098 is_stmt 1
	.loc 1 327 2099
	.loc 1 327 2115 is_stmt 0
	lw	s11,48(sp)
	sw	s11,0(s10)
.LBB66:
	.loc 1 327 2205 is_stmt 1
.LVL80:
	.loc 1 327 2328
	.loc 1 327 2345 is_stmt 0
	lw	a6,52(sp)
	sw	a6,-2016(s8)
.LVL81:
	.loc 1 327 2358 is_stmt 1
	.loc 1 327 2375 is_stmt 0
	li	a6,31
	sw	a6,-1888(s7)
	.loc 1 327 2381 is_stmt 1
	.loc 1 327 2398 is_stmt 0
	lw	s1,96(sp)
	lw	a6,4(sp)
	sw	s1,0(a6)
	.loc 1 327 2419 is_stmt 1
	.loc 1 327 2436 is_stmt 0
	lw	s11,60(sp)
	.loc 1 327 2492
	li	a6,15
	.loc 1 327 2436
	sw	s11,-992(s6)
	.loc 1 327 2449 is_stmt 1
	.loc 1 327 2465 is_stmt 0
	sw	a4,1056(s5)
	.loc 1 327 2476 is_stmt 1
	.loc 1 327 2492 is_stmt 0
	sw	a6,672(s4)
	.loc 1 327 2498 is_stmt 1
	.loc 1 327 2515 is_stmt 0
	lw	t1,28(sp)
	sw	t1,1568(s3)
	.loc 1 327 2528 is_stmt 1
	.loc 1 327 2545 is_stmt 0
	lw	a6,72(sp)
	lw	t1,36(sp)
	sw	a6,0(t1)
	.loc 1 327 2554 is_stmt 1
.LVL82:
	.loc 1 327 2585
	.loc 1 327 2621 is_stmt 0
	lw	s1,112(sp)
	lw	t1,16(s1)
	.loc 1 327 2606
	lw	s1,100(sp)
	.loc 1 327 2621
	srli	t1,t1,1
	.loc 1 327 2606
	add	a6,s1,s11
	lw	s1,28(sp)
	.loc 1 327 2601
	lw	s11,12(sp)
	.loc 1 327 2606
	sub	a6,a6,s1
	add	a6,a6,t1
	.loc 1 327 2601
	sw	a6,0(s11)
	.loc 1 327 2638 is_stmt 1
	.loc 1 327 2639
	.loc 1 327 2698 is_stmt 0
	li	a6,1036288
	.loc 1 327 2656
	sw	t4,0(s2)
	.loc 1 327 2681 is_stmt 1
	.loc 1 327 2698 is_stmt 0
	addi	a6,a6,127
	sw	a6,0(s9)
.LBE66:
.LBB67:
	.loc 1 327 2731 is_stmt 1
.LVL83:
	.loc 1 327 2914
	.loc 1 327 2930 is_stmt 0
	sw	t3,0(t0)
	.loc 1 327 2997 is_stmt 1
	.loc 1 327 3013 is_stmt 0
	sw	a1,0(t2)
	.loc 1 327 3019 is_stmt 1
	.loc 1 327 3036 is_stmt 0
	sw	a7,0(a2)
	.loc 1 327 3128 is_stmt 1
	.loc 1 327 3145 is_stmt 0
	sw	zero,0(a3)
	.loc 1 327 3212 is_stmt 1
	.loc 1 327 3229 is_stmt 0
	li	a3,16
	sw	a3,0(a0)
	.loc 1 327 3276 is_stmt 1
	.loc 1 327 3293 is_stmt 0
	sw	s0,0(t6)
	.loc 1 327 3299 is_stmt 1
	.loc 1 327 3316 is_stmt 0
	sw	a5,0(t5)
	.loc 1 327 3387 is_stmt 1
	.loc 1 327 3404 is_stmt 0
	lw	a3,8(sp)
	.loc 1 327 3468
	li	a5,4
	.loc 1 327 3537
	li	a6,15
	.loc 1 327 3404
	sw	zero,0(a3)
	.loc 1 327 3451 is_stmt 1
	.loc 1 327 3468 is_stmt 0
	sw	a5,-2016(s8)
	.loc 1 327 3497 is_stmt 1
	.loc 1 327 3514 is_stmt 0
	sw	s0,-1888(s7)
	.loc 1 327 3520 is_stmt 1
	.loc 1 327 3537 is_stmt 0
	lw	a5,4(sp)
	sw	a6,0(a5)
	.loc 1 327 3588 is_stmt 1
	.loc 1 327 3605 is_stmt 0
	sw	zero,-992(s6)
	.loc 1 327 3634 is_stmt 1
	.loc 1 327 3650 is_stmt 0
	sw	a4,1056(s5)
	.loc 1 327 3661 is_stmt 1
	.loc 1 327 3677 is_stmt 0
	sw	s0,672(s4)
	.loc 1 327 3683 is_stmt 1
	.loc 1 327 3700 is_stmt 0
	sw	s0,1568(s3)
	.loc 1 327 3729 is_stmt 1
	.loc 1 327 3746 is_stmt 0
	lw	a5,36(sp)
.LBE67:
	.loc 1 289 17 discriminator 1
	addi	a4,s1,-15
.LBB68:
	.loc 1 327 3746
	sw	zero,0(a5)
	.loc 1 327 3755 is_stmt 1
.LVL84:
	.loc 1 327 3914
	.loc 1 327 3930 is_stmt 0
	sw	zero,0(s11)
	.loc 1 327 3959 is_stmt 1
	.loc 1 327 3960
	.loc 1 327 3977 is_stmt 0
	lw	a5,56(sp)
	sw	a5,0(s9)
.LBE68:
	.loc 1 327 4009 is_stmt 1
	.loc 1 327 4010
	.loc 1 327 4026 is_stmt 0
	lw	t3,48(sp)
	sw	t3,0(s10)
	.loc 1 289 26 is_stmt 1 discriminator 2
	.loc 1 289 17 discriminator 1
	lw	t3,32(sp)
	sw	a4,28(sp)
	lw	a4,120(sp)
	addi	a5,t3,1
	sw	a5,32(sp)
	ble	a4,a5,.L24
.LVL85:
.L10:
	.loc 1 290 10
	.loc 1 293 10
	.loc 1 293 12 is_stmt 0
	lw	a5,32(sp)
	bne	a5,zero,.L8
.LBB69:
	.loc 1 298 3 is_stmt 1
.LVL86:
	.loc 1 298 38
	.loc 1 298 54 is_stmt 0
	lw	a4,16(sp)
	li	a5,4096
	.loc 1 298 105
	li	t4,-2147483648
	.loc 1 298 54
	sw	a5,0(a4)
.LVL87:
	.loc 1 298 66 is_stmt 1
	.loc 1 298 82 is_stmt 0
	lw	a5,20(sp)
	.loc 1 298 150
	li	t3,-2147479552
	.loc 1 298 179
	li	a4,5
	.loc 1 298 82
	sw	zero,0(a5)
	.loc 1 298 88 is_stmt 1
	.loc 1 298 105 is_stmt 0
	lw	a5,44(sp)
	.loc 1 298 241
	li	t0,48
	li	t1,-2147483648
	.loc 1 298 105
	sw	a5,1440(t4)
	.loc 1 298 133 is_stmt 1
	.loc 1 298 150 is_stmt 0
	sw	zero,-1248(t3)
	.loc 1 298 162 is_stmt 1
	.loc 1 298 179 is_stmt 0
	li	a5,-2147483648
	sw	a4,1824(a5)
	.loc 1 298 224 is_stmt 1
	.loc 1 298 241 is_stmt 0
	sw	t0,1696(t1)
	.loc 1 298 287 is_stmt 1
	.loc 1 298 304 is_stmt 0
	li	a5,287
	li	a7,-2147483648
	sw	a5,1952(a7)
	.loc 1 298 309 is_stmt 1
	.loc 1 298 326 is_stmt 0
	li	a6,-2147479552
	sw	zero,-1120(a6)
	.loc 1 298 329 is_stmt 1
	.loc 1 298 346 is_stmt 0
	li	a1,-2147479552
	sw	zero,-1888(a1)
	.loc 1 298 375 is_stmt 1
	.loc 1 298 392 is_stmt 0
	li	a4,-2147479552
	li	a3,8
	sw	a3,-2016(a4)
	.loc 1 298 418 is_stmt 1
	.loc 1 298 435 is_stmt 0
	lw	a4,4(sp)
	.loc 1 298 457
	li	a2,-2147479552
	.loc 1 298 476
	li	a3,-2147483648
	.loc 1 298 435
	sw	a5,0(a4)
	.loc 1 298 440 is_stmt 1
	.loc 1 298 457 is_stmt 0
	sw	zero,-992(a2)
	.loc 1 298 460 is_stmt 1
	.loc 1 298 476 is_stmt 0
	li	t5,7
	sw	t5,672(a3)
	.loc 1 298 516 is_stmt 1
	.loc 1 298 532 is_stmt 0
	li	a4,-2147483648
	li	t5,1
	sw	t5,1056(a4)
	.loc 1 298 543 is_stmt 1
	.loc 1 298 560 is_stmt 0
	li	a3,-2147483648
	sw	a5,1568(a3)
	.loc 1 298 565 is_stmt 1
	.loc 1 298 582 is_stmt 0
	li	a4,-2147479552
	.loc 1 298 601
	li	t6,524288
	.loc 1 298 582
	sw	zero,-864(a4)
	.loc 1 298 585 is_stmt 1
	.loc 1 298 601 is_stmt 0
	li	t5,-2147483648
	addi	t6,t6,8
	sw	t6,544(t5)
	.loc 1 298 716 is_stmt 1
	.loc 1 298 733 is_stmt 0
	li	a5,-2147479552
	.loc 1 298 871
	li	t5,1032192
	.loc 1 298 733
	sw	t0,-736(a5)
	.loc 1 298 854 is_stmt 1
	.loc 1 298 871 is_stmt 0
	addi	t5,t5,127
	sw	t5,0(s9)
.LBE69:
	.loc 1 298 904 is_stmt 1
	.loc 1 298 905
	.loc 1 298 922 is_stmt 0
	li	t6,-2147479552
	sw	zero,-480(t6)
	.loc 1 298 927 is_stmt 1
	.loc 1 298 944 is_stmt 0
	lw	a5,56(sp)
	sw	a5,0(s9)
	.loc 1 298 976 is_stmt 1
	.loc 1 298 977
	.loc 1 298 993 is_stmt 0
	lw	a5,24(sp)
	lw	a4,64(sp)
	sw	a4,0(a5)
	j	.L9
.LVL88:
.L24:
	lw	s2,124(sp)
	lw	s4,128(sp)
	lw	s3,132(sp)
	lw	s1,136(sp)
	lw	s0,140(sp)
	j	.L11
.LVL89:
.L23:
	.loc 1 330 1
	lw	ra,204(sp)
	.cfi_remember_state
	.cfi_restore 1
	lw	s0,200(sp)
	.cfi_restore 8
	lw	s2,192(sp)
	.cfi_restore 18
	lw	s5,180(sp)
	.cfi_restore 21
	lw	s6,176(sp)
	.cfi_restore 22
	lw	s7,172(sp)
	.cfi_restore 23
	lw	s8,168(sp)
	.cfi_restore 24
	lw	s9,164(sp)
	.cfi_restore 25
	lw	s10,160(sp)
	.cfi_restore 26
	lw	s11,156(sp)
	.cfi_restore 27
	lw	s1,196(sp)
	.cfi_restore 9
.LVL90:
	lw	s3,188(sp)
	.cfi_restore 19
	lw	s4,184(sp)
	.cfi_restore 20
	addi	sp,sp,208
	.cfi_def_cfa_offset 0
	jr	ra
.LVL91:
.L20:
	.cfi_restore_state
	sw	a3,60(sp)
	j	.L15
	.cfi_endproc
.LFE2:
	.size	harris_phase_2, .-harris_phase_2
	.align	2
	.type	harris_phase_1, @function
harris_phase_1:
.LFB1:
	.loc 1 140 46 is_stmt 1
	.cfi_startproc
.LVL92:
	.loc 1 141 4
	.loc 1 140 46 is_stmt 0
	addi	sp,sp,-208
	.cfi_def_cfa_offset 208
	sw	s4,184(sp)
	sw	ra,204(sp)
	sw	s0,200(sp)
	sw	s1,196(sp)
	.cfi_offset 20, -24
	.cfi_offset 1, -4
	.cfi_offset 8, -8
	.cfi_offset 9, -12
	.loc 1 156 5
	lw	s0,24(a0)
	.loc 1 155 5
	lw	a3,20(a0)
	.loc 1 140 46
	sw	a0,104(sp)
.LVL93:
	.loc 1 142 4 is_stmt 1
	.loc 1 143 4
	.loc 1 144 4
	.loc 1 145 4
	.loc 1 146 4
	.loc 1 147 4
	.loc 1 148 4
	.loc 1 149 4
	.loc 1 150 4
	.loc 1 151 4
	.loc 1 152 4
	.loc 1 154 4
	.loc 1 155 4
	.loc 1 161 15 is_stmt 0
	addi	a4,s0,31
	.loc 1 161 9
	srai	a5,a4,31
	andi	a5,a5,31
	add	a5,a5,a4
	.loc 1 155 5
	sw	a3,36(sp)
.LVL94:
	.loc 1 156 4 is_stmt 1
	.loc 1 157 4
	.loc 1 158 4
	.loc 1 159 4
	.loc 1 160 4
	.loc 1 161 4
	.loc 1 161 9 is_stmt 0
	srai	s4,a5,5
.LVL95:
	.loc 1 162 4 is_stmt 1
	.loc 1 163 4
	.loc 1 163 6 is_stmt 0
	bne	a1,zero,.L26
	.loc 1 165 26
	li	a5,63
	mv	s1,a1
	.loc 1 164 7 is_stmt 1
.LVL96:
	.loc 1 165 7
	.loc 1 165 26 is_stmt 0
	bgt	a4,a5,.L42
.LVL97:
.L27:
	.loc 1 174 1 is_stmt 1
	.loc 1 174 2
	.loc 1 174 18 is_stmt 0
	li	a3,1015820288
	li	a4,-2147483648
.LVL98:
	addi	a3,a3,-1532
	sw	a3,20(a4)
	.loc 1 175 4 is_stmt 1
	li	a5,-2147483648
	sw	zero,36(a5)
	.loc 1 175 4
	call	_taskYield
.LVL99:
	.loc 1 175 18 discriminator 1
	.loc 1 177 4
	.loc 1 178 4
	.loc 1 177 19 is_stmt 0
	lw	a0,36(sp)
	.loc 1 178 14
	lw	a4,104(sp)
	.loc 1 177 19
	mul	a5,a0,s0
	.loc 1 178 14
	lw	a2,4(a4)
.LVL100:
	.loc 1 179 4 is_stmt 1
	.loc 1 183 14 is_stmt 0
	lw	a3,8(a4)
	.loc 1 179 21
	slli	a4,a0,1
	mv	a6,a0
	.loc 1 179 14
	sub	a2,a2,a4
.LVL101:
	.loc 1 180 4 is_stmt 1
	.loc 1 184 14 is_stmt 0
	sub	a3,a3,a4
	.loc 1 177 21
	slli	a5,a5,1
	.loc 1 180 17
	add	a5,a5,a4
.LVL102:
	.loc 1 182 4 is_stmt 1
	.loc 1 183 4
	.loc 1 184 4
	.loc 1 185 4
	.loc 1 187 4
	.loc 1 187 17 discriminator 1
	bge	s1,s4,.L25
	.loc 1 162 21 is_stmt 0
	addi	a1,s0,3
	.loc 1 162 6
	srai	a4,a1,31
	andi	a4,a4,3
	.loc 1 160 15
	addi	a0,a0,14
	.loc 1 162 6
	add	a4,a4,a1
	.loc 1 160 9
	li	a1,15
	div	a1,a0,a1
	.loc 1 162 6
	srai	a4,a4,2
.LBB70:
	.loc 1 207 1761
	mv	a0,a6
	.loc 1 207 2195
	srai	a5,a5,1
.LVL103:
	.loc 1 207 2254
	srli	a2,a2,1
.LVL104:
.LBE70:
.LBB71:
	.loc 1 210 2254
	srli	a3,a3,1
.LVL105:
	mv	a7,a6
.LBE71:
	.loc 1 160 9
	sw	a1,108(sp)
.LBB72:
	.loc 1 207 1761
	slli	a1,a6,2
	sw	a1,60(sp)
	ble	a6,zero,.L25
	slli	a1,s1,3
	sub	a4,a4,a1
	mul	a4,a4,a7
	slli	a1,s1,5
	sub	a1,s0,a1
	neg	a6,a6
	slli	s0,a6,5
.LVL106:
	sw	s2,192(sp)
.LVL107:
	sw	s3,188(sp)
	sub	a0,a0,a5
	sw	s5,180(sp)
	sw	s6,176(sp)
	slli	a4,a4,2
	addi	a4,a4,-1
	mul	a6,s1,a7
	sw	a4,44(sp)
	sw	s7,172(sp)
	sw	s8,168(sp)
	sw	s9,164(sp)
	sw	s10,160(sp)
	sw	s11,156(sp)
	.cfi_offset 18, -16
	.cfi_offset 19, -20
	.cfi_offset 21, -28
	.cfi_offset 22, -32
	.cfi_offset 23, -36
	.cfi_offset 24, -40
	.cfi_offset 25, -44
	.cfi_offset 26, -48
	.cfi_offset 27, -52
	sw	a5,112(sp)
	mul	a4,a1,a7
	slli	a6,a6,5
	sw	a6,48(sp)
	add	s2,a0,a6
	sub	s3,a5,a6
.LVL108:
.LBE72:
	.loc 1 188 17 is_stmt 1 discriminator 1
	addi	a4,a4,-1
	sw	a4,96(sp)
	bne	s1,zero,.L43
	add	a2,a2,a5
	add	a5,a3,a5
	sw	a5,120(sp)
.LBB73:
	.loc 1 199 105 is_stmt 0
	li	a5,16384
	addi	a5,a5,-1
	.loc 1 199 601
	li	a0,524288
	.loc 1 199 54
	li	a4,-2147483648
	.loc 1 199 82
	li	a1,-2147483648
	.loc 1 199 435
	li	t1,-2147479552
	.loc 1 199 601
	li	t5,-2147483648
	.loc 1 199 871
	li	t6,-2147479552
.LBE73:
	.loc 1 199 944
	li	a6,1036288
.LBB74:
	.loc 1 199 105
	sw	a5,20(sp)
	.loc 1 199 601
	addi	a5,a0,8
	addi	a7,s2,-1
	.loc 1 199 54
	addi	t0,a4,800
	.loc 1 199 82
	addi	t4,a1,928
	.loc 1 199 435
	addi	t1,t1,-1760
	.loc 1 199 601
	addi	t5,t5,544
	sw	a5,68(sp)
	.loc 1 199 871
	addi	t6,t6,-1632
.LBE74:
	.loc 1 199 944
	addi	a5,a6,-1923
	sw	s2,128(sp)
	sw	s0,140(sp)
.LBB75:
	.loc 1 210 2254
	sw	s3,28(sp)
	sw	zero,40(sp)
	sw	a7,100(sp)
	sw	a2,116(sp)
.LBE75:
	.loc 1 199 944
	sw	a5,32(sp)
	sw	s4,124(sp)
	sw	s3,132(sp)
	sw	s1,136(sp)
	sw	t0,4(sp)
	sw	t4,8(sp)
	sw	t1,0(sp)
	mv	s2,t5
	mv	s0,t6
	j	.L30
.LVL109:
.L45:
.LBB76:
	.loc 1 194 3 is_stmt 1
	.loc 1 194 38
	.loc 1 194 54 is_stmt 0
	lw	a5,4(sp)
.LVL110:
	li	t6,4096
	.loc 1 194 105
	li	t3,-2147483648
	.loc 1 194 54
	sw	t6,0(a5)
.LVL111:
	.loc 1 194 66 is_stmt 1
	.loc 1 194 82 is_stmt 0
	lw	s10,8(sp)
	.loc 1 194 150
	li	t1,-2147479552
	.loc 1 194 179
	li	ra,-2147483648
	.loc 1 194 82
	sw	zero,0(s10)
	.loc 1 194 88 is_stmt 1
	.loc 1 194 105 is_stmt 0
	lw	a5,20(sp)
	.loc 1 194 179
	li	s7,5
	.loc 1 194 241
	li	t5,48
	.loc 1 194 105
	sw	a5,12(sp)
	sw	a5,1440(t3)
	.loc 1 194 133 is_stmt 1
	.loc 1 194 150 is_stmt 0
	sw	zero,-1248(t1)
	.loc 1 194 162 is_stmt 1
	.loc 1 194 179 is_stmt 0
	sw	s7,1824(ra)
	.loc 1 194 224 is_stmt 1
	.loc 1 194 241 is_stmt 0
	li	a7,-2147483648
	sw	t5,1696(a7)
	.loc 1 194 287 is_stmt 1
	.loc 1 194 304 is_stmt 0
	li	a5,287
	li	a6,-2147483648
	sw	a5,1952(a6)
	.loc 1 194 309 is_stmt 1
	.loc 1 194 326 is_stmt 0
	li	a0,-2147479552
	sw	zero,-1120(a0)
	.loc 1 194 329 is_stmt 1
	.loc 1 194 346 is_stmt 0
	li	a1,-2147479552
	sw	zero,-1888(a1)
	.loc 1 194 375 is_stmt 1
	.loc 1 194 392 is_stmt 0
	li	t2,-2147479552
	li	s6,8
	sw	s6,-2016(t2)
	.loc 1 194 418 is_stmt 1
	.loc 1 194 435 is_stmt 0
	lw	s1,0(sp)
	.loc 1 194 457
	li	a2,-2147479552
	.loc 1 194 476
	li	s9,-2147483648
	.loc 1 194 435
	sw	a5,0(s1)
	.loc 1 194 440 is_stmt 1
	.loc 1 194 457 is_stmt 0
	sw	zero,-992(a2)
	.loc 1 194 460 is_stmt 1
	.loc 1 194 476 is_stmt 0
	li	s5,7
	sw	s5,672(s9)
	.loc 1 194 516 is_stmt 1
	.loc 1 194 532 is_stmt 0
	li	s11,-2147483648
	li	s4,1
	sw	s4,1056(s11)
	.loc 1 194 543 is_stmt 1
	.loc 1 194 560 is_stmt 0
	li	a3,-2147483648
	sw	a5,1568(a3)
	.loc 1 194 565 is_stmt 1
	.loc 1 194 582 is_stmt 0
	li	a4,-2147479552
	sw	zero,-864(a4)
	.loc 1 194 585 is_stmt 1
	.loc 1 194 601 is_stmt 0
	lw	s1,68(sp)
	.loc 1 194 733
	li	s3,-2147479552
	.loc 1 194 871
	li	s8,1032192
	.loc 1 194 601
	sw	s1,0(s2)
	.loc 1 194 716 is_stmt 1
	.loc 1 194 733 is_stmt 0
	sw	s3,16(sp)
	sw	t5,-736(s3)
	.loc 1 194 854 is_stmt 1
	.loc 1 194 871 is_stmt 0
	addi	s8,s8,127
	sw	s8,0(s0)
.LBE76:
.LBB77:
	.loc 1 194 904 is_stmt 1
.LVL112:
	.loc 1 194 953
	.loc 1 194 969 is_stmt 0
	lw	t4,4(sp)
	.loc 1 194 997
	mv	t0,s10
	.loc 1 194 1692
	li	s3,1032192
	.loc 1 194 969
	sw	t6,0(t4)
	.loc 1 194 981 is_stmt 1
	.loc 1 194 997 is_stmt 0
	sw	zero,0(s10)
	.loc 1 194 1003 is_stmt 1
	.loc 1 194 1020 is_stmt 0
	li	s10,4096
	addi	s1,s10,-1
	sw	s1,1440(t3)
	.loc 1 194 1048 is_stmt 1
	.loc 1 194 1065 is_stmt 0
	li	s10,12288
	sw	s10,-1248(t1)
	.loc 1 194 1077 is_stmt 1
	.loc 1 194 1094 is_stmt 0
	sw	s7,1824(ra)
	.loc 1 194 1139 is_stmt 1
	.loc 1 194 1156 is_stmt 0
	sw	t5,1696(a7)
	.loc 1 194 1202 is_stmt 1
	.loc 1 194 1219 is_stmt 0
	sw	a5,1952(a6)
	.loc 1 194 1224 is_stmt 1
	.loc 1 194 1241 is_stmt 0
	sw	zero,-1120(a0)
	.loc 1 194 1244 is_stmt 1
	.loc 1 194 1261 is_stmt 0
	sw	zero,-1888(a1)
	.loc 1 194 1320 is_stmt 1
	.loc 1 194 1337 is_stmt 0
	sw	s6,-2016(t2)
	.loc 1 194 1363 is_stmt 1
	.loc 1 194 1380 is_stmt 0
	lw	s1,0(sp)
	.loc 1 194 1546
	li	s10,536576
	addi	s10,s10,32
	.loc 1 194 1380
	sw	a5,0(s1)
	.loc 1 194 1385 is_stmt 1
	.loc 1 194 1402 is_stmt 0
	sw	zero,-992(a2)
	.loc 1 194 1405 is_stmt 1
	.loc 1 194 1421 is_stmt 0
	sw	s5,672(s9)
	.loc 1 194 1461 is_stmt 1
	.loc 1 194 1477 is_stmt 0
	sw	s4,1056(s11)
	.loc 1 194 1488 is_stmt 1
	.loc 1 194 1505 is_stmt 0
	sw	a5,1568(a3)
	.loc 1 194 1510 is_stmt 1
	.loc 1 194 1527 is_stmt 0
	sw	zero,-864(a4)
	.loc 1 194 1530 is_stmt 1
	.loc 1 194 1546 is_stmt 0
	sw	s10,0(s2)
	.loc 1 194 1675 is_stmt 1
	.loc 1 194 1692 is_stmt 0
	addi	s3,s3,125
.LBE77:
	.loc 1 194 1741
	li	s1,393216
.LBB78:
	.loc 1 194 1692
	sw	s3,0(s0)
.LBE78:
	.loc 1 194 1724 is_stmt 1
	.loc 1 194 1725
	.loc 1 194 1741 is_stmt 0
	li	s10,-2147483648
	addi	s1,s1,1
	sw	s1,20(s10)
.LBB79:
	.loc 1 196 3 is_stmt 1
.LVL113:
	.loc 1 196 38
	.loc 1 196 54 is_stmt 0
	lw	t4,4(sp)
	sw	t6,0(t4)
	.loc 1 196 66 is_stmt 1
	.loc 1 196 82 is_stmt 0
	sw	t0,8(sp)
	sw	zero,0(t0)
	.loc 1 196 88 is_stmt 1
	.loc 1 196 105 is_stmt 0
	lw	t4,12(sp)
	sw	t4,1440(t3)
	.loc 1 196 133 is_stmt 1
	.loc 1 196 150 is_stmt 0
	sw	zero,-1248(t1)
	.loc 1 196 162 is_stmt 1
	.loc 1 196 179 is_stmt 0
	sw	s7,1824(ra)
	.loc 1 196 224 is_stmt 1
	.loc 1 196 241 is_stmt 0
	sw	t5,1696(a7)
	.loc 1 196 287 is_stmt 1
	.loc 1 196 304 is_stmt 0
	sw	a5,1952(a6)
	.loc 1 196 309 is_stmt 1
	.loc 1 196 326 is_stmt 0
	sw	zero,-1120(a0)
	.loc 1 196 329 is_stmt 1
	.loc 1 196 346 is_stmt 0
	sw	zero,-1888(a1)
	.loc 1 196 375 is_stmt 1
	.loc 1 196 392 is_stmt 0
	sw	s6,-2016(t2)
	.loc 1 196 418 is_stmt 1
	.loc 1 196 435 is_stmt 0
	lw	t0,0(sp)
	.loc 1 196 601
	li	t4,524288
	addi	t4,t4,296
	.loc 1 196 435
	sw	a5,0(t0)
	.loc 1 196 440 is_stmt 1
	.loc 1 196 457 is_stmt 0
	sw	zero,-992(a2)
	.loc 1 196 460 is_stmt 1
	.loc 1 196 476 is_stmt 0
	sw	s5,672(s9)
	.loc 1 196 516 is_stmt 1
	.loc 1 196 532 is_stmt 0
	sw	s4,1056(s11)
	.loc 1 196 543 is_stmt 1
	.loc 1 196 560 is_stmt 0
	sw	a5,1568(a3)
	.loc 1 196 565 is_stmt 1
	.loc 1 196 582 is_stmt 0
	sw	zero,-864(a4)
	.loc 1 196 585 is_stmt 1
	.loc 1 196 601 is_stmt 0
	sw	t4,0(s2)
	.loc 1 196 718 is_stmt 1
	.loc 1 196 735 is_stmt 0
	lw	t4,16(sp)
	sw	t5,-736(t4)
	.loc 1 196 856 is_stmt 1
	.loc 1 196 873 is_stmt 0
	sw	s8,0(s0)
.LBE79:
.LBB80:
	.loc 1 196 906 is_stmt 1
.LVL114:
	.loc 1 196 955
	.loc 1 196 971 is_stmt 0
	lw	t4,4(sp)
	sw	t6,0(t4)
	.loc 1 196 983 is_stmt 1
	.loc 1 196 999 is_stmt 0
	lw	t6,8(sp)
	.loc 1 196 1022
	li	t4,4096
	addi	t4,t4,-1
	.loc 1 196 999
	sw	zero,0(t6)
	.loc 1 196 1005 is_stmt 1
	.loc 1 196 1022 is_stmt 0
	sw	t4,1440(t3)
	.loc 1 196 1050 is_stmt 1
	.loc 1 196 1067 is_stmt 0
	li	t3,12288
	sw	t3,-1248(t1)
	.loc 1 196 1079 is_stmt 1
	.loc 1 196 1096 is_stmt 0
	sw	s7,1824(ra)
	.loc 1 196 1141 is_stmt 1
	.loc 1 196 1158 is_stmt 0
	sw	t5,1696(a7)
	.loc 1 196 1204 is_stmt 1
	.loc 1 196 1221 is_stmt 0
	sw	a5,1952(a6)
	.loc 1 196 1226 is_stmt 1
	.loc 1 196 1243 is_stmt 0
	sw	zero,-1120(a0)
	.loc 1 196 1246 is_stmt 1
	.loc 1 196 1263 is_stmt 0
	sw	zero,-1888(a1)
	.loc 1 196 1322 is_stmt 1
	.loc 1 196 1339 is_stmt 0
	sw	s6,-2016(t2)
	.loc 1 196 1365 is_stmt 1
	.loc 1 196 1382 is_stmt 0
	sw	a5,0(t0)
	.loc 1 196 1387 is_stmt 1
	.loc 1 196 1404 is_stmt 0
	sw	zero,-992(a2)
	.loc 1 196 1407 is_stmt 1
	.loc 1 196 1423 is_stmt 0
	sw	s5,672(s9)
	.loc 1 196 1463 is_stmt 1
	.loc 1 196 1479 is_stmt 0
	sw	s4,1056(s11)
	.loc 1 196 1490 is_stmt 1
	.loc 1 196 1507 is_stmt 0
	sw	a5,1568(a3)
	.loc 1 196 1512 is_stmt 1
	.loc 1 196 1548 is_stmt 0
	li	a5,536576
	.loc 1 196 1529
	sw	zero,-864(a4)
	.loc 1 196 1532 is_stmt 1
	.loc 1 196 1548 is_stmt 0
	addi	a5,a5,320
	sw	a5,0(s2)
	.loc 1 196 1679 is_stmt 1
	.loc 1 196 1696 is_stmt 0
	sw	s3,0(s0)
.LBE80:
	.loc 1 196 1728 is_stmt 1
	.loc 1 196 1729
	.loc 1 196 1745 is_stmt 0
	sw	s1,20(s10)
.LVL115:
.L36:
	.loc 1 203 1 is_stmt 1
	.loc 1 203 2
	.loc 1 203 18 is_stmt 0
	li	a5,-2147483648
	addi	a3,a5,20
	li	a5,88
	sw	a5,0(a3)
.LBB81:
	.loc 1 207 3 is_stmt 1
.LVL116:
	.loc 1 207 204
	.loc 1 207 220 is_stmt 0
	lw	a5,4(sp)
	li	s9,96
	.loc 1 207 321
	li	s11,7
	.loc 1 207 220
	sw	s9,0(a5)
	.loc 1 207 305 is_stmt 1
	.loc 1 207 321 is_stmt 0
	lw	t3,8(sp)
	.loc 1 207 344
	li	s1,-2147483648
	addi	s1,s1,1440
	.loc 1 207 321
	sw	s11,0(t3)
	.loc 1 207 327 is_stmt 1
	.loc 1 207 344 is_stmt 0
	li	a7,767
	sw	a7,0(s1)
	.loc 1 207 454 is_stmt 1
	.loc 1 207 471 is_stmt 0
	li	a5,-2147479552
	sw	a5,12(sp)
	.loc 1 207 573
	li	t5,-2147483648
	.loc 1 207 471
	sw	zero,-1248(a5)
	.loc 1 207 556 is_stmt 1
	.loc 1 207 573 is_stmt 0
	addi	t5,t5,1696
	.loc 1 207 649
	li	t1,-2147483648
	.loc 1 207 573
	li	a5,16
	sw	a5,0(t5)
	.loc 1 207 632 is_stmt 1
	.loc 1 207 649 is_stmt 0
	addi	t1,t1,1824
	li	a4,5
	.loc 1 207 672
	li	a0,-2147483648
	.loc 1 207 649
	sw	a4,0(t1)
	.loc 1 207 655 is_stmt 1
	.loc 1 207 672 is_stmt 0
	addi	a0,a0,1952
	li	a2,95
	sw	a2,0(a0)
	.loc 1 207 761 is_stmt 1
	.loc 1 207 854 is_stmt 0
	li	s6,-2147479552
	.loc 1 207 778
	li	s7,-2147479552
	.loc 1 207 854
	addi	s6,s6,-2016
	.loc 1 207 778
	sw	zero,-1120(s7)
	.loc 1 207 837 is_stmt 1
	.loc 1 207 912 is_stmt 0
	li	t2,-2147479552
	.loc 1 207 854
	li	a2,4
	.loc 1 207 912
	li	s3,3
	.loc 1 207 854
	sw	a2,0(s6)
	.loc 1 207 895 is_stmt 1
	.loc 1 207 912 is_stmt 0
	sw	s3,-1888(t2)
	.loc 1 207 918 is_stmt 1
	.loc 1 207 935 is_stmt 0
	lw	t0,0(sp)
	li	ra,15
	.loc 1 207 1015
	li	s5,-2147479552
	.loc 1 207 935
	sw	ra,0(t0)
	.loc 1 207 998 is_stmt 1
	.loc 1 207 1072 is_stmt 0
	li	a2,-2147483648
	addi	a2,a2,1056
	li	s8,1
	.loc 1 207 1015
	sw	zero,-992(s5)
	.loc 1 207 1056 is_stmt 1
	.loc 1 207 1099 is_stmt 0
	li	s4,-2147483648
	.loc 1 207 1122
	li	t6,-2147483648
	.loc 1 207 1072
	sw	s8,0(a2)
	.loc 1 207 1083 is_stmt 1
	.loc 1 207 1122 is_stmt 0
	addi	t6,t6,1568
	.loc 1 207 1180
	li	a1,-2147479552
	.loc 1 207 1099
	sw	s3,672(s4)
	.loc 1 207 1105 is_stmt 1
	.loc 1 207 1180 is_stmt 0
	addi	a1,a1,-864
	.loc 1 207 1122
	sw	s3,0(t6)
	.loc 1 207 1163 is_stmt 1
	.loc 1 207 1180 is_stmt 0
	sw	zero,0(a1)
	.loc 1 207 1189 is_stmt 1
.LVL117:
	.loc 1 207 1390
	.loc 1 207 1453 is_stmt 0
	li	a6,-2147479552
	.loc 1 207 1406
	sw	zero,0(s2)
	.loc 1 207 1435 is_stmt 1
	.loc 1 207 1436
	.loc 1 207 1453 is_stmt 0
	addi	t3,a6,-736
	sw	t3,24(sp)
	li	t4,768
	.loc 1 207 1509
	li	s10,1036288
	.loc 1 207 1453
	sw	t4,-736(a6)
	.loc 1 207 1492 is_stmt 1
	.loc 1 207 1509 is_stmt 0
	addi	s10,s10,-1921
	sw	s10,0(s0)
.LBE81:
.LBB82:
	.loc 1 207 1542 is_stmt 1
.LVL118:
	.loc 1 207 1722
	.loc 1 207 1739 is_stmt 0
	lw	a5,60(sp)
.LBE82:
.LBB83:
	.loc 1 207 912
	addi	t2,t2,-1888
.LBE83:
.LBB84:
	.loc 1 207 1739
	sw	a5,0(t5)
.LVL119:
	.loc 1 207 1766 is_stmt 1
	.loc 1 207 1783 is_stmt 0
	sw	s11,0(t1)
	.loc 1 207 1789 is_stmt 1
	.loc 1 207 1806 is_stmt 0
	lw	a6,44(sp)
	sw	a6,0(a0)
	.loc 1 207 1842 is_stmt 1
	.loc 1 207 1859 is_stmt 0
	sw	zero,-1120(s7)
	.loc 1 207 1886 is_stmt 1
	.loc 1 207 1903 is_stmt 0
	lw	a5,36(sp)
	sw	a5,0(s6)
	.loc 1 207 1916 is_stmt 1
	.loc 1 207 1956 is_stmt 0
	li	a5,67108864
	.loc 1 207 1933
	sw	a4,0(t2)
	.loc 1 207 1939 is_stmt 1
	.loc 1 207 1956 is_stmt 0
	addi	t4,a5,-1
	sw	t4,52(sp)
	sw	t4,0(t0)
	.loc 1 207 1968 is_stmt 1
	.loc 1 207 1985 is_stmt 0
	sw	zero,-992(s5)
	.loc 1 207 1998 is_stmt 1
	.loc 1 207 2014 is_stmt 0
	sw	s8,0(a2)
	.loc 1 207 2025 is_stmt 1
	.loc 1 207 2041 is_stmt 0
	sw	ra,672(s4)
	.loc 1 207 2047 is_stmt 1
	lw	t4,28(sp)
	lw	a6,100(sp)
	lw	t3,40(sp)
	add	a6,a6,t4
	.loc 1 207 2064 is_stmt 0
	sw	a6,56(sp)
	slli	a5,t3,4
	sw	a6,0(t6)
	.loc 1 207 2077 is_stmt 1
	sub	a5,a5,t3
	sw	t3,40(sp)
	.loc 1 207 2094 is_stmt 0
	sw	a5,64(sp)
	sw	a5,0(a1)
	.loc 1 207 2103 is_stmt 1
.LVL120:
	.loc 1 207 2160
	.loc 1 207 2240 is_stmt 0
	lw	a5,116(sp)
	.loc 1 207 2177
	li	t3,-2147479552
	addi	t3,t3,-96
	sw	t3,76(sp)
	sw	t4,28(sp)
	sw	t4,0(t3)
	.loc 1 207 2218 is_stmt 1
	.loc 1 207 2219
	.loc 1 207 2240 is_stmt 0
	sub	a5,a5,t4
	.loc 1 207 2289
	li	a6,1036288
	.loc 1 207 2235
	sw	a5,0(s2)
	.loc 1 207 2271 is_stmt 1
	.loc 1 207 2272
	.loc 1 207 2289 is_stmt 0
	addi	t4,a6,125
	sw	t4,80(sp)
.LBE84:
	.loc 1 207 2338
	li	a5,393216
.LBB85:
	.loc 1 207 2289
	sw	t4,0(s0)
.LBE85:
	.loc 1 207 2321 is_stmt 1
	.loc 1 207 2322
	.loc 1 207 2338 is_stmt 0
	addi	a5,a5,17
	sw	a3,16(sp)
	sw	a5,48(sp)
	sw	a5,0(a3)
.LBB86:
	.loc 1 207 2428 is_stmt 1
.LVL121:
	.loc 1 207 2473
	.loc 1 207 2490 is_stmt 0
	li	a3,4096
	sw	a3,0(s6)
	.loc 1 207 2502 is_stmt 1
	.loc 1 207 2519 is_stmt 0
	sw	s3,0(t2)
	.loc 1 207 2525 is_stmt 1
	.loc 1 207 2542 is_stmt 0
	lw	a5,20(sp)
	sw	t0,0(sp)
	.loc 1 207 2676
	li	t4,48
	.loc 1 207 2542
	sw	a5,0(t0)
	.loc 1 207 2570 is_stmt 1
	.loc 1 207 2587 is_stmt 0
	sw	zero,-992(s5)
	.loc 1 207 2599 is_stmt 1
	.loc 1 207 2616 is_stmt 0
	sw	a4,0(t1)
	.loc 1 207 2659 is_stmt 1
	.loc 1 207 2739 is_stmt 0
	li	a5,287
	.loc 1 207 2676
	sw	t4,0(t5)
	.loc 1 207 2722 is_stmt 1
	.loc 1 207 2739 is_stmt 0
	sw	a5,0(a0)
	.loc 1 207 2744 is_stmt 1
	.loc 1 207 2761 is_stmt 0
	sw	zero,-1120(s7)
	.loc 1 207 2764 is_stmt 1
	.loc 1 207 2780 is_stmt 0
	sw	s3,672(s4)
	.loc 1 207 2823 is_stmt 1
	.loc 1 207 2839 is_stmt 0
	li	t4,8
	sw	t4,0(a2)
	.loc 1 207 2865 is_stmt 1
	.loc 1 207 2882 is_stmt 0
	sw	a5,0(t6)
	.loc 1 207 2887 is_stmt 1
	.loc 1 207 2904 is_stmt 0
	sw	zero,0(a1)
	.loc 1 207 2907 is_stmt 1
	.loc 1 207 2923 is_stmt 0
	lw	t3,8(sp)
	.loc 1 207 3328
	li	t0,1032192
	addi	t0,t0,1151
	.loc 1 207 2923
	sw	s11,0(t3)
	.loc 1 207 2961 is_stmt 1
	.loc 1 207 2977 is_stmt 0
	lw	a6,4(sp)
	.loc 1 207 3046
	li	t3,524288
	addi	t3,t3,16
	.loc 1 207 2977
	sw	s8,0(a6)
	.loc 1 207 2988 is_stmt 1
	.loc 1 207 3005 is_stmt 0
	sw	a5,0(s1)
	.loc 1 207 3010 is_stmt 1
	.loc 1 207 3027 is_stmt 0
	lw	a6,12(sp)
	sw	zero,-1248(a6)
	.loc 1 207 3030 is_stmt 1
	.loc 1 207 3046 is_stmt 0
	sw	t3,0(s2)
	.loc 1 207 3163 is_stmt 1
	.loc 1 207 3180 is_stmt 0
	lw	t3,24(sp)
	li	a6,768
	sw	a6,0(t3)
	.loc 1 207 3311 is_stmt 1
	.loc 1 207 3328 is_stmt 0
	sw	t0,0(s0)
.LBE86:
.LBB87:
	.loc 1 207 3361 is_stmt 1
.LVL122:
	.loc 1 207 3562
	.loc 1 207 3578 is_stmt 0
	lw	a6,4(sp)
	sw	s9,0(a6)
	.loc 1 207 3663 is_stmt 1
	.loc 1 207 3679 is_stmt 0
	lw	t3,8(sp)
	.loc 1 207 4030
	li	a6,95
	.loc 1 207 3679
	sw	s11,0(t3)
	.loc 1 207 3685 is_stmt 1
	.loc 1 207 3702 is_stmt 0
	sw	a7,0(s1)
	.loc 1 207 3812 is_stmt 1
	.loc 1 207 3829 is_stmt 0
	lw	s9,12(sp)
	.loc 1 207 3931
	li	t3,16
	.loc 1 207 3829
	sw	zero,-1248(s9)
	.loc 1 207 3914 is_stmt 1
	.loc 1 207 3931 is_stmt 0
	sw	t3,0(t5)
	.loc 1 207 3990 is_stmt 1
	.loc 1 207 4007 is_stmt 0
	sw	a4,0(t1)
	.loc 1 207 4013 is_stmt 1
	.loc 1 207 4030 is_stmt 0
	sw	a6,0(a0)
	.loc 1 207 0 is_stmt 1
	sw	zero,-1120(s7)
	.loc 1 207 0
	li	t3,4
	sw	t3,0(s6)
	.loc 1 207 0
	sw	s3,0(t2)
	.loc 1 207 0
	lw	s9,0(sp)
	mv	a6,t3
	sw	ra,0(s9)
	.loc 1 207 0
	sw	zero,-992(s5)
	.loc 1 207 0
	sw	s8,0(a2)
	.loc 1 207 0
	sw	s3,672(s4)
	.loc 1 207 0
	sw	s3,0(t6)
	.loc 1 207 0
	sw	zero,0(a1)
	.loc 1 207 0
.LVL123:
	.loc 1 207 0
	sw	zero,0(s2)
	.loc 1 207 0
	.loc 1 207 0
	lw	s9,32(sp)
	sw	s9,0(s0)
.LBE87:
	.loc 1 207 0
	.loc 1 207 0
	lw	t3,16(sp)
	lw	s9,48(sp)
	sw	s9,0(t3)
.LBB88:
	.loc 1 210 3
.LVL124:
	.loc 1 210 204
	.loc 1 210 220 is_stmt 0
	lw	t3,4(sp)
	li	s9,96
	sw	s9,0(t3)
	.loc 1 210 305 is_stmt 1
	.loc 1 210 321 is_stmt 0
	lw	t3,8(sp)
	sw	s11,0(t3)
	.loc 1 210 327 is_stmt 1
	.loc 1 210 344 is_stmt 0
	sw	a7,0(s1)
	.loc 1 210 454 is_stmt 1
	.loc 1 210 471 is_stmt 0
	lw	s9,12(sp)
	.loc 1 210 573
	li	t3,16
	.loc 1 210 471
	sw	zero,-1248(s9)
	.loc 1 210 556 is_stmt 1
	.loc 1 210 573 is_stmt 0
	sw	t3,0(t5)
	.loc 1 210 632 is_stmt 1
	.loc 1 210 649 is_stmt 0
	sw	a4,0(t1)
	.loc 1 210 655 is_stmt 1
	.loc 1 210 672 is_stmt 0
	li	t3,95
	sw	t3,0(a0)
	.loc 1 210 761 is_stmt 1
	.loc 1 210 778 is_stmt 0
	sw	zero,-1120(s7)
	.loc 1 210 837 is_stmt 1
	.loc 1 210 854 is_stmt 0
	sw	a6,0(s6)
	.loc 1 210 895 is_stmt 1
	.loc 1 210 912 is_stmt 0
	sw	s3,0(t2)
	.loc 1 210 918 is_stmt 1
	.loc 1 210 935 is_stmt 0
	lw	s9,0(sp)
	.loc 1 210 1453
	li	a6,768
	.loc 1 210 935
	sw	ra,0(s9)
	.loc 1 210 998 is_stmt 1
	.loc 1 210 1015 is_stmt 0
	sw	zero,-992(s5)
	.loc 1 210 1056 is_stmt 1
	.loc 1 210 1072 is_stmt 0
	sw	s8,0(a2)
	.loc 1 210 1083 is_stmt 1
	.loc 1 210 1099 is_stmt 0
	sw	s3,672(s4)
	.loc 1 210 1105 is_stmt 1
	.loc 1 210 1122 is_stmt 0
	sw	s3,0(t6)
	.loc 1 210 1163 is_stmt 1
	.loc 1 210 1180 is_stmt 0
	sw	zero,0(a1)
	.loc 1 210 1189 is_stmt 1
.LVL125:
	.loc 1 210 1390
	.loc 1 210 1406 is_stmt 0
	sw	zero,0(s2)
	.loc 1 210 1435 is_stmt 1
	.loc 1 210 1436
	.loc 1 210 1453 is_stmt 0
	lw	t3,24(sp)
	sw	a6,0(t3)
	.loc 1 210 1492 is_stmt 1
	.loc 1 210 1509 is_stmt 0
	sw	s10,72(sp)
	sw	s10,0(s0)
.LBE88:
.LBB89:
	.loc 1 210 1542 is_stmt 1
.LVL126:
	.loc 1 210 1722
	.loc 1 210 1739 is_stmt 0
	lw	s10,60(sp)
	sw	s10,0(t5)
	.loc 1 210 1766 is_stmt 1
	.loc 1 210 1783 is_stmt 0
	sw	s11,0(t1)
	.loc 1 210 1789 is_stmt 1
	.loc 1 210 1806 is_stmt 0
	lw	s10,44(sp)
	sw	s10,0(a0)
	.loc 1 210 1842 is_stmt 1
	.loc 1 210 1859 is_stmt 0
	sw	zero,-1120(s7)
	.loc 1 210 1886 is_stmt 1
	.loc 1 210 1903 is_stmt 0
	lw	s10,36(sp)
	sw	s10,0(s6)
	.loc 1 210 1916 is_stmt 1
	.loc 1 210 1933 is_stmt 0
	sw	a4,0(t2)
	.loc 1 210 1939 is_stmt 1
	.loc 1 210 1956 is_stmt 0
	lw	s10,52(sp)
	sw	s9,0(sp)
	sw	s10,0(s9)
	.loc 1 210 1968 is_stmt 1
	.loc 1 210 1985 is_stmt 0
	sw	zero,-992(s5)
	.loc 1 210 1998 is_stmt 1
	.loc 1 210 2014 is_stmt 0
	sw	s8,0(a2)
	.loc 1 210 2025 is_stmt 1
	.loc 1 210 2041 is_stmt 0
	sw	ra,672(s4)
	.loc 1 210 2047 is_stmt 1
	.loc 1 210 2064 is_stmt 0
	lw	a6,56(sp)
	sw	a6,0(t6)
	.loc 1 210 2077 is_stmt 1
	.loc 1 210 2094 is_stmt 0
	lw	s9,64(sp)
	sw	s9,0(a1)
	.loc 1 210 2103 is_stmt 1
.LVL127:
	.loc 1 210 2160
	.loc 1 210 2177 is_stmt 0
	lw	t3,28(sp)
	lw	s10,76(sp)
	sw	t3,0(s10)
	.loc 1 210 2218 is_stmt 1
	.loc 1 210 2219
	.loc 1 210 2240 is_stmt 0
	lw	s10,120(sp)
	sw	t3,28(sp)
	sub	s10,s10,t3
	.loc 1 210 2235
	sw	s10,0(s2)
	.loc 1 210 2271 is_stmt 1
	.loc 1 210 2272
	.loc 1 210 2289 is_stmt 0
	lw	s10,80(sp)
	sw	s10,0(s0)
.LBE89:
	.loc 1 210 2321 is_stmt 1
	.loc 1 210 2322
	.loc 1 210 2338 is_stmt 0
	lw	t3,16(sp)
	lw	s9,48(sp)
.LBB90:
	.loc 1 210 2676
	li	s10,48
.LBE90:
	.loc 1 210 2338
	sw	s9,0(t3)
.LBB91:
	.loc 1 210 2428 is_stmt 1
.LVL128:
	.loc 1 210 2473
	.loc 1 210 2490 is_stmt 0
	sw	a3,0(s6)
	.loc 1 210 2502 is_stmt 1
	.loc 1 210 2519 is_stmt 0
	sw	s3,0(t2)
	.loc 1 210 2525 is_stmt 1
	.loc 1 210 2542 is_stmt 0
	lw	t3,20(sp)
	lw	s9,0(sp)
	sw	t3,0(s9)
	.loc 1 210 2570 is_stmt 1
	.loc 1 210 2587 is_stmt 0
	sw	zero,-992(s5)
	.loc 1 210 2599 is_stmt 1
	.loc 1 210 2616 is_stmt 0
	sw	a4,0(t1)
	.loc 1 210 2659 is_stmt 1
	.loc 1 210 2676 is_stmt 0
	sw	s10,0(t5)
	.loc 1 210 2722 is_stmt 1
	.loc 1 210 2739 is_stmt 0
	sw	a5,0(a0)
	.loc 1 210 2744 is_stmt 1
	.loc 1 210 2761 is_stmt 0
	sw	zero,-1120(s7)
	.loc 1 210 2764 is_stmt 1
	.loc 1 210 2780 is_stmt 0
	sw	s3,672(s4)
	.loc 1 210 2823 is_stmt 1
	.loc 1 210 2839 is_stmt 0
	sw	t4,0(a2)
	.loc 1 210 2865 is_stmt 1
	.loc 1 210 2882 is_stmt 0
	sw	a5,0(t6)
	.loc 1 210 2887 is_stmt 1
	.loc 1 210 2904 is_stmt 0
	sw	zero,0(a1)
	.loc 1 210 2907 is_stmt 1
	.loc 1 210 2923 is_stmt 0
	lw	t3,8(sp)
	.loc 1 210 3046
	li	s10,524288
	addi	s10,s10,304
	.loc 1 210 2923
	sw	s11,0(t3)
	.loc 1 210 2961 is_stmt 1
	.loc 1 210 2977 is_stmt 0
	lw	a6,4(sp)
.LBE91:
.LBB92:
	.loc 1 210 3580
	li	s9,96
.LBE92:
.LBB93:
	.loc 1 210 2977
	sw	s8,0(a6)
	.loc 1 210 2988 is_stmt 1
	.loc 1 210 3005 is_stmt 0
	sw	a5,0(s1)
	.loc 1 210 3010 is_stmt 1
	.loc 1 210 3027 is_stmt 0
	lw	a6,12(sp)
	sw	zero,-1248(a6)
	.loc 1 210 3030 is_stmt 1
	.loc 1 210 3046 is_stmt 0
	sw	s10,0(s2)
	.loc 1 210 3165 is_stmt 1
	.loc 1 210 3182 is_stmt 0
	lw	s10,24(sp)
	li	a6,768
	sw	a6,0(s10)
	.loc 1 210 3313 is_stmt 1
	.loc 1 210 3330 is_stmt 0
	sw	t0,0(s0)
.LBE93:
.LBB94:
	.loc 1 210 3363 is_stmt 1
.LVL129:
	.loc 1 210 3564
	.loc 1 210 3580 is_stmt 0
	lw	a6,4(sp)
	sw	s9,0(a6)
	.loc 1 210 3665 is_stmt 1
	.loc 1 210 3681 is_stmt 0
	lw	t3,8(sp)
	.loc 1 210 0
	li	a6,4
	.loc 1 210 3681
	sw	s11,0(t3)
	.loc 1 210 3687 is_stmt 1
	.loc 1 210 3704 is_stmt 0
	sw	a7,0(s1)
	.loc 1 210 3814 is_stmt 1
	.loc 1 210 3831 is_stmt 0
	lw	t0,12(sp)
	.loc 1 210 3933
	li	a7,16
	.loc 1 210 3831
	sw	zero,-1248(t0)
	.loc 1 210 3916 is_stmt 1
	.loc 1 210 3933 is_stmt 0
	sw	a7,0(t5)
	.loc 1 210 3992 is_stmt 1
	.loc 1 210 4009 is_stmt 0
	sw	a4,0(t1)
	.loc 1 210 4015 is_stmt 1
	.loc 1 210 4032 is_stmt 0
	li	a7,95
	sw	a7,0(a0)
	.loc 1 210 0 is_stmt 1
	sw	zero,-1120(s7)
	.loc 1 210 0
	sw	a6,0(s6)
	.loc 1 210 0
	sw	s3,0(t2)
	.loc 1 210 0
	lw	a7,0(sp)
	sw	ra,0(a7)
	.loc 1 210 0
	sw	zero,-992(s5)
	.loc 1 210 0
	sw	s8,0(a2)
	.loc 1 210 0
	sw	s3,672(s4)
	.loc 1 210 0
	sw	s3,0(t6)
	.loc 1 210 0
	sw	zero,0(a1)
	.loc 1 210 0
.LVL130:
	.loc 1 210 0
	sw	zero,0(s2)
	.loc 1 210 0
	.loc 1 210 0
	lw	a6,32(sp)
	sw	a6,0(s0)
.LBE94:
	.loc 1 210 0
	.loc 1 210 0
	lw	t3,16(sp)
	lw	s9,48(sp)
	sw	s9,0(t3)
.LBB95:
	.loc 1 216 3
.LVL131:
	.loc 1 216 42
	.loc 1 216 58 is_stmt 0
	lw	a6,4(sp)
	.loc 1 216 245
	li	s9,48
	.loc 1 216 58
	sw	a3,0(a6)
	.loc 1 216 70 is_stmt 1
	.loc 1 216 86 is_stmt 0
	lw	t3,8(sp)
	li	a6,2
	sw	a6,0(t3)
	.loc 1 216 92 is_stmt 1
	.loc 1 216 109 is_stmt 0
	lw	ra,20(sp)
	.loc 1 216 779
	li	t3,144
	.loc 1 216 109
	sw	ra,0(s1)
	.loc 1 216 137 is_stmt 1
	.loc 1 216 154 is_stmt 0
	sw	t0,12(sp)
	sw	zero,-1248(t0)
	.loc 1 216 166 is_stmt 1
	.loc 1 216 183 is_stmt 0
	sw	a4,0(t1)
	.loc 1 216 228 is_stmt 1
	.loc 1 216 245 is_stmt 0
	sw	s9,0(t5)
	.loc 1 216 291 is_stmt 1
	.loc 1 216 308 is_stmt 0
	sw	a5,0(a0)
	.loc 1 216 313 is_stmt 1
	.loc 1 216 330 is_stmt 0
	sw	zero,-1120(s7)
	.loc 1 216 333 is_stmt 1
	.loc 1 216 350 is_stmt 0
	sw	zero,0(t2)
	.loc 1 216 407 is_stmt 1
	.loc 1 216 424 is_stmt 0
	sw	t4,0(s6)
	.loc 1 216 450 is_stmt 1
	.loc 1 216 467 is_stmt 0
	sw	a7,0(sp)
	sw	a5,0(a7)
	.loc 1 216 472 is_stmt 1
	.loc 1 216 489 is_stmt 0
	sw	zero,-992(s5)
	.loc 1 216 492 is_stmt 1
	.loc 1 216 508 is_stmt 0
	sw	s11,672(s4)
	.loc 1 216 548 is_stmt 1
	.loc 1 216 564 is_stmt 0
	sw	s8,0(a2)
	.loc 1 216 575 is_stmt 1
	.loc 1 216 592 is_stmt 0
	sw	a5,0(t6)
	.loc 1 216 597 is_stmt 1
	.loc 1 216 633 is_stmt 0
	li	a7,524288
	.loc 1 216 614
	sw	zero,0(a1)
	.loc 1 216 617 is_stmt 1
	.loc 1 216 633 is_stmt 0
	addi	a7,a7,48
	sw	a7,0(s2)
	.loc 1 216 762 is_stmt 1
	.loc 1 216 945 is_stmt 0
	li	s9,1032192
	.loc 1 216 779
	sw	t3,0(s10)
	.loc 1 216 928 is_stmt 1
	.loc 1 216 945 is_stmt 0
	addi	s9,s9,127
	sw	s9,0(s0)
.LBE95:
.LBB96:
	.loc 1 216 978 is_stmt 1
.LVL132:
	.loc 1 216 1023
	.loc 1 216 1039 is_stmt 0
	lw	a7,4(sp)
.LBE96:
.LBB97:
	.loc 1 216 779
	mv	t0,s10
.LBE97:
.LBB98:
	.loc 1 216 1090
	li	t3,12288
	.loc 1 216 1039
	sw	a3,0(a7)
	.loc 1 216 1051 is_stmt 1
	.loc 1 216 1067 is_stmt 0
	lw	s10,8(sp)
	.loc 1 216 1090
	addi	t3,t3,-1
	.loc 1 216 1226
	li	a7,48
	.loc 1 216 1067
	sw	a6,0(s10)
	.loc 1 216 1073 is_stmt 1
	.loc 1 216 1090 is_stmt 0
	sw	t3,0(s1)
	.loc 1 216 1118 is_stmt 1
	.loc 1 216 1135 is_stmt 0
	lw	s10,12(sp)
	sw	a3,-1248(s10)
	.loc 1 216 1147 is_stmt 1
	.loc 1 216 1164 is_stmt 0
	sw	a4,0(t1)
	.loc 1 216 1209 is_stmt 1
	.loc 1 216 1226 is_stmt 0
	sw	a7,0(t5)
	.loc 1 216 1272 is_stmt 1
	.loc 1 216 1289 is_stmt 0
	sw	a5,0(a0)
	.loc 1 216 1294 is_stmt 1
	.loc 1 216 1311 is_stmt 0
	sw	zero,-1120(s7)
	.loc 1 216 1314 is_stmt 1
	.loc 1 216 1331 is_stmt 0
	sw	zero,0(t2)
	.loc 1 216 1364 is_stmt 1
	.loc 1 216 1381 is_stmt 0
	sw	t4,0(s6)
	.loc 1 216 1407 is_stmt 1
	.loc 1 216 1424 is_stmt 0
	lw	a7,0(sp)
	.loc 1 216 1724
	li	t4,1032192
	addi	s10,t4,125
	.loc 1 216 1424
	sw	a5,0(a7)
	.loc 1 216 1429 is_stmt 1
	.loc 1 216 1446 is_stmt 0
	sw	zero,-992(s5)
	.loc 1 216 1449 is_stmt 1
	.loc 1 216 1465 is_stmt 0
	sw	s11,672(s4)
	.loc 1 216 1505 is_stmt 1
	.loc 1 216 1521 is_stmt 0
	sw	s8,0(a2)
	.loc 1 216 1532 is_stmt 1
	.loc 1 216 1549 is_stmt 0
	sw	a5,0(t6)
	.loc 1 216 1554 is_stmt 1
	.loc 1 216 1590 is_stmt 0
	li	a7,528384
	.loc 1 216 1571
	sw	zero,0(a1)
	.loc 1 216 1574 is_stmt 1
	.loc 1 216 1590 is_stmt 0
	addi	a7,a7,16
	sw	a7,0(s2)
	.loc 1 216 1707 is_stmt 1
	.loc 1 216 1724 is_stmt 0
	sw	s10,52(sp)
	sw	s10,0(s0)
.LBE98:
	.loc 1 216 1756 is_stmt 1
	.loc 1 216 1757
	.loc 1 216 1773 is_stmt 0
	lw	t4,16(sp)
	li	a7,393216
	addi	a7,a7,9
	sw	a7,0(t4)
.LBB99:
	.loc 1 220 3 is_stmt 1
.LVL133:
	.loc 1 220 48
	.loc 1 220 64 is_stmt 0
	lw	a7,4(sp)
	sw	a3,0(a7)
	.loc 1 220 76 is_stmt 1
	.loc 1 220 92 is_stmt 0
	lw	s10,8(sp)
	.loc 1 220 402
	li	a7,8
	.loc 1 220 92
	sw	a6,0(s10)
	.loc 1 220 98 is_stmt 1
	.loc 1 220 115 is_stmt 0
	sw	t3,0(s1)
	.loc 1 220 143 is_stmt 1
	.loc 1 220 160 is_stmt 0
	lw	t4,12(sp)
	.loc 1 220 743
	li	s10,144
	.loc 1 220 160
	sw	a3,-1248(t4)
	.loc 1 220 172 is_stmt 1
	.loc 1 220 189 is_stmt 0
	sw	a4,0(t1)
	.loc 1 220 234 is_stmt 1
	.loc 1 220 251 is_stmt 0
	li	t4,48
	sw	t4,0(t5)
	.loc 1 220 297 is_stmt 1
	.loc 1 220 314 is_stmt 0
	sw	a5,0(a0)
	.loc 1 220 319 is_stmt 1
	.loc 1 220 336 is_stmt 0
	sw	zero,-1120(s7)
	.loc 1 220 339 is_stmt 1
	.loc 1 220 356 is_stmt 0
	sw	zero,0(t2)
	.loc 1 220 385 is_stmt 1
	.loc 1 220 402 is_stmt 0
	sw	a7,0(s6)
	.loc 1 220 428 is_stmt 1
	.loc 1 220 402 is_stmt 0
	mv	t4,a7
	.loc 1 220 445
	lw	a7,0(sp)
	sw	a5,0(a7)
	.loc 1 220 450 is_stmt 1
	.loc 1 220 467 is_stmt 0
	sw	zero,-992(s5)
	.loc 1 220 470 is_stmt 1
	.loc 1 220 486 is_stmt 0
	sw	s11,672(s4)
	.loc 1 220 526 is_stmt 1
	.loc 1 220 542 is_stmt 0
	sw	s8,0(a2)
	.loc 1 220 553 is_stmt 1
	.loc 1 220 570 is_stmt 0
	sw	a5,0(t6)
	.loc 1 220 575 is_stmt 1
	.loc 1 220 611 is_stmt 0
	li	a7,528384
	.loc 1 220 592
	sw	zero,0(a1)
	.loc 1 220 595 is_stmt 1
	.loc 1 220 611 is_stmt 0
	addi	a7,a7,8
	sw	a7,0(s2)
	.loc 1 220 726 is_stmt 1
	.loc 1 220 743 is_stmt 0
	sw	s10,0(t0)
	.loc 1 220 864 is_stmt 1
	.loc 1 220 881 is_stmt 0
	sw	s9,0(s0)
.LBE99:
.LBB100:
	.loc 1 220 914 is_stmt 1
.LVL134:
	.loc 1 220 953
	.loc 1 220 969 is_stmt 0
	lw	a7,4(sp)
	sw	a3,0(a7)
	.loc 1 220 981 is_stmt 1
	.loc 1 220 997 is_stmt 0
	lw	s10,8(sp)
	sw	a6,0(s10)
	.loc 1 220 1003 is_stmt 1
	.loc 1 220 1020 is_stmt 0
	sw	ra,0(s1)
	.loc 1 220 1048 is_stmt 1
	.loc 1 220 1065 is_stmt 0
	lw	a7,12(sp)
	.loc 1 220 1156
	li	s10,48
	.loc 1 220 1065
	sw	zero,-1248(a7)
	.loc 1 220 1077 is_stmt 1
	.loc 1 220 1094 is_stmt 0
	sw	a4,0(t1)
	.loc 1 220 1139 is_stmt 1
	.loc 1 220 1156 is_stmt 0
	sw	s10,0(t5)
	.loc 1 220 1202 is_stmt 1
	.loc 1 220 1219 is_stmt 0
	sw	a5,0(a0)
	.loc 1 220 1224 is_stmt 1
	.loc 1 220 1241 is_stmt 0
	sw	zero,-1120(s7)
	.loc 1 220 1244 is_stmt 1
	.loc 1 220 1261 is_stmt 0
	sw	zero,0(t2)
	.loc 1 220 1312 is_stmt 1
	.loc 1 220 1329 is_stmt 0
	sw	t4,0(s6)
	.loc 1 220 1355 is_stmt 1
	.loc 1 220 1372 is_stmt 0
	lw	t4,0(sp)
	.loc 1 220 1538
	li	a7,524288
	addi	a7,a7,40
	.loc 1 220 1372
	sw	a5,0(t4)
	.loc 1 220 1377 is_stmt 1
	.loc 1 220 1394 is_stmt 0
	sw	zero,-992(s5)
	.loc 1 220 1397 is_stmt 1
	.loc 1 220 1413 is_stmt 0
	sw	s11,672(s4)
	.loc 1 220 1453 is_stmt 1
	.loc 1 220 1469 is_stmt 0
	sw	s8,0(a2)
	.loc 1 220 1480 is_stmt 1
	.loc 1 220 1497 is_stmt 0
	sw	a5,0(t6)
	.loc 1 220 1502 is_stmt 1
	.loc 1 220 1519 is_stmt 0
	sw	zero,0(a1)
	.loc 1 220 1522 is_stmt 1
	.loc 1 220 1538 is_stmt 0
	sw	a7,0(s2)
	.loc 1 220 1663 is_stmt 1
	.loc 1 220 1680 is_stmt 0
	lw	s10,52(sp)
.LBE100:
	.loc 1 220 1729
	li	a7,393216
	addi	a7,a7,1
.LBB101:
	.loc 1 220 1680
	sw	s10,0(s0)
.LBE101:
	.loc 1 220 1712 is_stmt 1
	.loc 1 220 1713
	.loc 1 220 1729 is_stmt 0
	lw	t4,16(sp)
	sw	a7,0(t4)
.LBB102:
	.loc 1 224 3 is_stmt 1
.LVL135:
	.loc 1 224 42
	.loc 1 224 58 is_stmt 0
	lw	t4,4(sp)
	sw	a3,0(t4)
	.loc 1 224 70 is_stmt 1
	.loc 1 224 86 is_stmt 0
	lw	s10,8(sp)
	.loc 1 224 245
	li	t4,48
	.loc 1 224 86
	sw	a6,0(s10)
	.loc 1 224 92 is_stmt 1
	.loc 1 224 109 is_stmt 0
	sw	ra,20(sp)
	sw	ra,0(s1)
	.loc 1 224 137 is_stmt 1
	.loc 1 224 154 is_stmt 0
	lw	ra,12(sp)
	.loc 1 224 781
	li	s10,144
	.loc 1 224 154
	sw	zero,-1248(ra)
	.loc 1 224 166 is_stmt 1
	.loc 1 224 183 is_stmt 0
	sw	a4,0(t1)
	.loc 1 224 228 is_stmt 1
	.loc 1 224 245 is_stmt 0
	sw	t4,0(t5)
	.loc 1 224 291 is_stmt 1
	.loc 1 224 308 is_stmt 0
	sw	a5,0(a0)
	.loc 1 224 313 is_stmt 1
	.loc 1 224 330 is_stmt 0
	sw	zero,-1120(s7)
	.loc 1 224 333 is_stmt 1
	.loc 1 224 350 is_stmt 0
	sw	zero,0(t2)
	.loc 1 224 407 is_stmt 1
	.loc 1 224 424 is_stmt 0
	li	t4,8
	sw	t4,0(s6)
	.loc 1 224 450 is_stmt 1
	.loc 1 224 467 is_stmt 0
	lw	ra,0(sp)
	sw	a5,0(ra)
	.loc 1 224 472 is_stmt 1
	.loc 1 224 489 is_stmt 0
	sw	zero,-992(s5)
	.loc 1 224 492 is_stmt 1
	.loc 1 224 508 is_stmt 0
	sw	s11,672(s4)
	.loc 1 224 548 is_stmt 1
	.loc 1 224 564 is_stmt 0
	sw	s8,0(a2)
	.loc 1 224 575 is_stmt 1
	.loc 1 224 592 is_stmt 0
	sw	a5,0(t6)
	.loc 1 224 597 is_stmt 1
	.loc 1 224 633 is_stmt 0
	li	ra,524288
	.loc 1 224 614
	sw	zero,0(a1)
	.loc 1 224 617 is_stmt 1
	.loc 1 224 633 is_stmt 0
	addi	ra,ra,336
	sw	ra,0(s2)
	.loc 1 224 764 is_stmt 1
	.loc 1 224 781 is_stmt 0
	mv	ra,t0
	sw	s10,0(ra)
	.loc 1 224 930 is_stmt 1
	.loc 1 224 947 is_stmt 0
	sw	s9,0(s0)
.LBE102:
.LBB103:
	.loc 1 224 980 is_stmt 1
.LVL136:
	.loc 1 224 1025
.LBE103:
.LBB104:
	.loc 1 224 781 is_stmt 0
	mv	t0,s10
.LBE104:
.LBB105:
	.loc 1 224 1041
	lw	s10,4(sp)
	sw	a3,0(s10)
	.loc 1 224 1053 is_stmt 1
	.loc 1 224 1069 is_stmt 0
	lw	s10,8(sp)
	sw	a6,0(s10)
	.loc 1 224 1075 is_stmt 1
	.loc 1 224 1092 is_stmt 0
	sw	t3,0(s1)
	.loc 1 224 1120 is_stmt 1
	.loc 1 224 1137 is_stmt 0
	lw	s10,12(sp)
	sw	a3,-1248(s10)
	.loc 1 224 1149 is_stmt 1
	.loc 1 224 1166 is_stmt 0
	sw	a4,0(t1)
	.loc 1 224 1211 is_stmt 1
	.loc 1 224 1228 is_stmt 0
	li	s10,48
	sw	s10,0(t5)
	.loc 1 224 1274 is_stmt 1
	.loc 1 224 1291 is_stmt 0
	sw	a5,0(a0)
	.loc 1 224 1296 is_stmt 1
	.loc 1 224 1313 is_stmt 0
	sw	zero,-1120(s7)
	.loc 1 224 1316 is_stmt 1
	.loc 1 224 1333 is_stmt 0
	sw	zero,0(t2)
	.loc 1 224 1366 is_stmt 1
	.loc 1 224 1383 is_stmt 0
	sw	t4,0(s6)
	.loc 1 224 1409 is_stmt 1
	.loc 1 224 1426 is_stmt 0
	lw	t4,0(sp)
	sw	a5,0(t4)
	.loc 1 224 1431 is_stmt 1
	.loc 1 224 1448 is_stmt 0
	sw	zero,-992(s5)
	.loc 1 224 1451 is_stmt 1
	.loc 1 224 1467 is_stmt 0
	sw	s11,672(s4)
	.loc 1 224 1507 is_stmt 1
	.loc 1 224 1523 is_stmt 0
	sw	s8,0(a2)
	.loc 1 224 1534 is_stmt 1
	.loc 1 224 1551 is_stmt 0
	sw	a5,0(t6)
	.loc 1 224 1556 is_stmt 1
	.loc 1 224 1592 is_stmt 0
	li	t4,528384
	.loc 1 224 1573
	sw	zero,0(a1)
	.loc 1 224 1576 is_stmt 1
	.loc 1 224 1592 is_stmt 0
	addi	t4,t4,304
	sw	t4,0(s2)
	.loc 1 224 1711 is_stmt 1
	.loc 1 224 1728 is_stmt 0
	lw	s10,52(sp)
	sw	s10,0(s0)
.LBE105:
	.loc 1 224 1760 is_stmt 1
	.loc 1 224 1761
	.loc 1 224 1777 is_stmt 0
	lw	t4,16(sp)
	sw	a7,0(t4)
.LBB106:
	.loc 1 228 3 is_stmt 1
.LVL137:
	.loc 1 228 48
	.loc 1 228 64 is_stmt 0
	lw	t4,4(sp)
	sw	a3,0(t4)
	.loc 1 228 76 is_stmt 1
	.loc 1 228 92 is_stmt 0
	lw	s10,8(sp)
	sw	a6,0(s10)
	.loc 1 228 98 is_stmt 1
	.loc 1 228 115 is_stmt 0
	sw	t3,0(s1)
	.loc 1 228 143 is_stmt 1
	.loc 1 228 160 is_stmt 0
	lw	t3,12(sp)
	sw	a3,-1248(t3)
	.loc 1 228 172 is_stmt 1
	.loc 1 228 189 is_stmt 0
	sw	a4,0(t1)
	.loc 1 228 234 is_stmt 1
	.loc 1 228 251 is_stmt 0
	li	t3,48
	sw	t3,0(t5)
	.loc 1 228 297 is_stmt 1
	.loc 1 228 314 is_stmt 0
	sw	a5,0(a0)
	.loc 1 228 319 is_stmt 1
	.loc 1 228 336 is_stmt 0
	sw	zero,-1120(s7)
	.loc 1 228 339 is_stmt 1
	.loc 1 228 356 is_stmt 0
	sw	zero,0(t2)
	.loc 1 228 385 is_stmt 1
	.loc 1 228 402 is_stmt 0
	li	t3,8
	sw	t3,0(s6)
	.loc 1 228 428 is_stmt 1
	.loc 1 228 402 is_stmt 0
	mv	t4,t3
	.loc 1 228 445
	lw	t3,0(sp)
	sw	a5,0(t3)
	.loc 1 228 450 is_stmt 1
	.loc 1 228 467 is_stmt 0
	sw	zero,-992(s5)
	.loc 1 228 470 is_stmt 1
	.loc 1 228 486 is_stmt 0
	sw	s11,672(s4)
	.loc 1 228 526 is_stmt 1
	.loc 1 228 542 is_stmt 0
	sw	s8,0(a2)
	.loc 1 228 553 is_stmt 1
	.loc 1 228 570 is_stmt 0
	sw	a5,0(t6)
	.loc 1 228 575 is_stmt 1
	.loc 1 228 611 is_stmt 0
	li	t3,528384
	.loc 1 228 592
	sw	zero,0(a1)
	.loc 1 228 595 is_stmt 1
	.loc 1 228 611 is_stmt 0
	addi	t3,t3,296
	sw	t3,0(s2)
	.loc 1 228 728 is_stmt 1
	.loc 1 228 745 is_stmt 0
	sw	ra,24(sp)
	sw	t0,0(ra)
	.loc 1 228 866 is_stmt 1
	.loc 1 228 883 is_stmt 0
	sw	s9,0(s0)
.LBE106:
.LBB107:
	.loc 1 228 916 is_stmt 1
.LVL138:
	.loc 1 228 955
	.loc 1 228 983
	.loc 1 228 1005
	.loc 1 228 971 is_stmt 0
	lw	t3,4(sp)
	.loc 1 228 1158
	li	s9,48
	.loc 1 228 971
	sw	a3,0(t3)
	.loc 1 228 999
	lw	s10,8(sp)
	sw	a6,0(s10)
	.loc 1 228 1022
	lw	t3,20(sp)
	.loc 1 228 1540
	li	a6,524288
	addi	a6,a6,328
	.loc 1 228 1022
	sw	t3,0(s1)
	.loc 1 228 1050 is_stmt 1
	.loc 1 228 1067 is_stmt 0
	lw	t0,12(sp)
	sw	zero,-1248(t0)
	.loc 1 228 1079 is_stmt 1
	.loc 1 228 1096 is_stmt 0
	sw	a4,0(t1)
	.loc 1 228 1141 is_stmt 1
	.loc 1 228 1158 is_stmt 0
	sw	s9,0(t5)
	.loc 1 228 1204 is_stmt 1
	.loc 1 228 1221 is_stmt 0
	sw	a5,0(a0)
	.loc 1 228 1226 is_stmt 1
	.loc 1 228 1243 is_stmt 0
	sw	zero,-1120(s7)
	.loc 1 228 1246 is_stmt 1
	.loc 1 228 1263 is_stmt 0
	sw	zero,0(t2)
	.loc 1 228 1314 is_stmt 1
	.loc 1 228 1331 is_stmt 0
	sw	t4,0(s6)
	.loc 1 228 1357 is_stmt 1
	.loc 1 228 1374 is_stmt 0
	lw	ra,0(sp)
	.loc 1 228 1331
	mv	t0,t4
	.loc 1 228 1374
	sw	a5,0(ra)
	.loc 1 228 1379 is_stmt 1
	.loc 1 228 1396 is_stmt 0
	sw	zero,-992(s5)
	.loc 1 228 1399 is_stmt 1
	.loc 1 228 1415 is_stmt 0
	sw	s11,672(s4)
	.loc 1 228 1455 is_stmt 1
	.loc 1 228 1471 is_stmt 0
	sw	s8,0(a2)
	.loc 1 228 1482 is_stmt 1
	.loc 1 228 1499 is_stmt 0
	sw	a5,0(t6)
	.loc 1 228 1504 is_stmt 1
	.loc 1 228 1521 is_stmt 0
	sw	zero,0(a1)
	.loc 1 228 1524 is_stmt 1
	.loc 1 228 1540 is_stmt 0
	sw	a6,0(s2)
	.loc 1 228 1667 is_stmt 1
	.loc 1 228 1684 is_stmt 0
	lw	s10,52(sp)
.LBE107:
	.loc 1 231 819
	li	a6,-2147479552
.LBB108:
	.loc 1 228 1684
	sw	s10,0(s0)
.LBE108:
	.loc 1 228 1716 is_stmt 1
	.loc 1 228 1717
	.loc 1 228 1733 is_stmt 0
	lw	t4,16(sp)
	sw	a7,0(t4)
	.loc 1 230 10 is_stmt 1
.LBB109:
	.loc 1 231 3
.LVL139:
	.loc 1 231 38
	.loc 1 231 55 is_stmt 0
	sw	a3,0(t5)
	.loc 1 231 67 is_stmt 1
	.loc 1 231 84 is_stmt 0
	sw	zero,0(t1)
	.loc 1 231 90 is_stmt 1
	.loc 1 231 107 is_stmt 0
	sw	t3,20(sp)
	sw	t3,0(a0)
	.loc 1 231 135 is_stmt 1
	.loc 1 231 152 is_stmt 0
	sw	zero,-1120(s7)
	.loc 1 231 164 is_stmt 1
	.loc 1 231 181 is_stmt 0
	sw	zero,0(t2)
	.loc 1 231 210 is_stmt 1
	.loc 1 231 227 is_stmt 0
	sw	s9,0(s6)
	.loc 1 231 273 is_stmt 1
	.loc 1 231 290 is_stmt 0
	sw	ra,0(sp)
	sw	a5,0(ra)
	.loc 1 231 295 is_stmt 1
	.loc 1 231 312 is_stmt 0
	sw	zero,-992(s5)
	.loc 1 231 315 is_stmt 1
	.loc 1 231 331 is_stmt 0
	sw	a4,672(s4)
	.loc 1 231 376 is_stmt 1
	.loc 1 231 392 is_stmt 0
	sw	t0,0(a2)
	.loc 1 231 418 is_stmt 1
	.loc 1 231 435 is_stmt 0
	sw	a5,0(t6)
	.loc 1 231 440 is_stmt 1
	.loc 1 231 457 is_stmt 0
	sw	zero,0(a1)
	.loc 1 231 460 is_stmt 1
	.loc 1 231 476 is_stmt 0
	lw	ra,68(sp)
	.loc 1 231 608
	li	t3,6
	.loc 1 231 476
	sw	ra,0(s2)
	.loc 1 231 591 is_stmt 1
	.loc 1 231 711 is_stmt 0
	li	ra,524288
	mv	s9,ra
	.loc 1 231 608
	lw	ra,24(sp)
	sw	t3,0(ra)
	.loc 1 231 694 is_stmt 1
	.loc 1 231 711 is_stmt 0
	addi	ra,s9,127
	sw	ra,0(s0)
.LBE109:
	.loc 1 231 801 is_stmt 1
	.loc 1 231 802
	.loc 1 231 819 is_stmt 0
	sw	zero,-480(a6)
	.loc 1 231 824 is_stmt 1
	.loc 1 231 841 is_stmt 0
	lw	s9,32(sp)
.LBB110:
	.loc 1 231 711
	mv	s10,ra
.LBE110:
	.loc 1 231 841
	sw	s9,0(s0)
	.loc 1 231 873 is_stmt 1
	.loc 1 231 874
	.loc 1 231 890 is_stmt 0
	sw	a7,0(t4)
.LBB111:
	.loc 1 232 3 is_stmt 1
.LVL140:
	.loc 1 232 38
	.loc 1 232 55 is_stmt 0
	sw	a3,0(t5)
	sw	t5,92(sp)
	.loc 1 232 67 is_stmt 1
	.loc 1 232 84 is_stmt 0
	sw	zero,0(t1)
	.loc 1 232 107
	lw	a3,20(sp)
	.loc 1 232 84
	sw	t1,88(sp)
	.loc 1 232 90 is_stmt 1
	.loc 1 232 107 is_stmt 0
	sw	a3,0(a0)
	sw	a0,84(sp)
	.loc 1 232 135 is_stmt 1
	.loc 1 232 152 is_stmt 0
	sw	zero,-1120(s7)
	.loc 1 232 164 is_stmt 1
	.loc 1 232 181 is_stmt 0
	sw	zero,0(t2)
	sw	t2,80(sp)
	.loc 1 232 210 is_stmt 1
	.loc 1 232 227 is_stmt 0
	li	a3,48
	sw	a3,0(s6)
	.loc 1 232 273 is_stmt 1
	.loc 1 232 290 is_stmt 0
	lw	ra,0(sp)
	sw	a5,0(ra)
	.loc 1 232 295 is_stmt 1
	.loc 1 232 312 is_stmt 0
	sw	zero,-992(s5)
	.loc 1 232 315 is_stmt 1
	.loc 1 232 331 is_stmt 0
	sw	a4,672(s4)
	.loc 1 232 376 is_stmt 1
	.loc 1 232 392 is_stmt 0
	sw	t0,0(a2)
	sw	a2,76(sp)
	.loc 1 232 418 is_stmt 1
	.loc 1 232 435 is_stmt 0
	sw	a5,0(t6)
	sw	t6,52(sp)
	.loc 1 232 440 is_stmt 1
	.loc 1 232 457 is_stmt 0
	sw	zero,0(a1)
	.loc 1 232 476
	li	a5,524288
	.loc 1 232 457
	sw	a1,16(sp)
	.loc 1 232 460 is_stmt 1
	.loc 1 232 476 is_stmt 0
	addi	a5,a5,296
	sw	a5,0(s2)
	.loc 1 232 593 is_stmt 1
	.loc 1 232 610 is_stmt 0
	lw	ra,24(sp)
.LBE111:
	.loc 1 235 18
	li	a5,1015820288
	addi	a5,a5,516
.LBB112:
	.loc 1 232 610
	sw	t3,0(ra)
	.loc 1 232 696 is_stmt 1
	.loc 1 232 713 is_stmt 0
	sw	s10,0(s0)
.LBE112:
	.loc 1 232 803 is_stmt 1
	.loc 1 232 804
	.loc 1 232 821 is_stmt 0
	sw	zero,-480(a6)
	.loc 1 232 826 is_stmt 1
	.loc 1 232 843 is_stmt 0
	sw	s9,32(sp)
	sw	s9,0(s0)
	.loc 1 232 875 is_stmt 1
	.loc 1 232 876
	.loc 1 232 892 is_stmt 0
	sw	a7,0(t4)
	.loc 1 235 1 is_stmt 1
	.loc 1 235 2
	.loc 1 235 18 is_stmt 0
	sw	a5,0(t4)
	.loc 1 237 10 is_stmt 1
	li	a4,-2147483648
	sw	zero,36(a4)
	.loc 1 237 10
.LBB113:
	.loc 1 207 471 is_stmt 0
	lw	a4,12(sp)
.LBE113:
	.loc 1 235 18
	mv	s9,t4
.LBB114:
	.loc 1 207 471
	addi	a4,a4,-1248
	sw	a4,12(sp)
.LBE114:
	.loc 1 237 10
	call	_taskYield
.LVL141:
	.loc 1 237 24 is_stmt 1 discriminator 1
.LBB115:
	.loc 1 241 3
	.loc 1 241 186
	.loc 1 241 202 is_stmt 0
	lw	a5,4(sp)
	li	a6,64
	.loc 1 241 308
	li	t3,511
	.loc 1 241 202
	sw	a6,0(a5)
	.loc 1 241 269 is_stmt 1
	.loc 1 241 285 is_stmt 0
	lw	s10,8(sp)
	.loc 1 241 740
	li	a1,4
	.loc 1 241 809
	li	a2,15
	.loc 1 241 285
	sw	s11,0(s10)
	.loc 1 241 291 is_stmt 1
	.loc 1 241 308 is_stmt 0
	sw	t3,0(s1)
	.loc 1 241 400 is_stmt 1
	.loc 1 241 417 is_stmt 0
	lw	a4,12(sp)
	.loc 1 241 809
	mv	t0,a2
	.loc 1 241 1249
	li	a7,512
	.loc 1 241 417
	sw	zero,0(a4)
	.loc 1 241 484 is_stmt 1
	.loc 1 241 501 is_stmt 0
	lw	t5,92(sp)
	li	a4,16
.LBE115:
.LBB116:
	.loc 1 241 1400
	li	a3,4096
.LBE116:
.LBB117:
	.loc 1 241 501
	sw	a4,0(t5)
	.loc 1 241 548 is_stmt 1
	.loc 1 241 565 is_stmt 0
	lw	t1,88(sp)
	.loc 1 241 588
	li	a4,63
	.loc 1 241 565
	sw	s3,0(t1)
	.loc 1 241 571 is_stmt 1
	.loc 1 241 588 is_stmt 0
	lw	a0,84(sp)
	sw	a4,0(a0)
	.loc 1 241 659 is_stmt 1
	.loc 1 241 676 is_stmt 0
	sw	zero,-1120(s7)
	.loc 1 241 723 is_stmt 1
	.loc 1 241 740 is_stmt 0
	sw	a1,0(s6)
	.loc 1 241 769 is_stmt 1
	.loc 1 241 786 is_stmt 0
	lw	t2,80(sp)
	sw	s3,0(t2)
	.loc 1 241 792 is_stmt 1
	.loc 1 241 809 is_stmt 0
	lw	a5,0(sp)
	sw	a2,0(a5)
	.loc 1 241 860 is_stmt 1
	.loc 1 241 877 is_stmt 0
	sw	zero,-992(s5)
	.loc 1 241 906 is_stmt 1
	.loc 1 241 922 is_stmt 0
	lw	a2,76(sp)
	sw	s8,0(a2)
	.loc 1 241 933 is_stmt 1
	.loc 1 241 949 is_stmt 0
	sw	s3,672(s4)
	.loc 1 241 955 is_stmt 1
	.loc 1 241 972 is_stmt 0
	lw	t6,52(sp)
	sw	s3,0(t6)
	.loc 1 241 1001 is_stmt 1
	.loc 1 241 1018 is_stmt 0
	lw	a1,16(sp)
	sw	zero,0(a1)
	.loc 1 241 1027 is_stmt 1
.LVL142:
	.loc 1 241 1186
	.loc 1 241 1202 is_stmt 0
	sw	zero,0(s2)
	.loc 1 241 1231 is_stmt 1
	.loc 1 241 1232
	.loc 1 241 1249 is_stmt 0
	lw	t4,24(sp)
	sw	a7,0(t4)
	.loc 1 241 1288 is_stmt 1
	.loc 1 241 1305 is_stmt 0
	lw	s10,72(sp)
	sw	s10,0(s0)
.LBE117:
.LBB118:
	.loc 1 241 1338 is_stmt 1
.LVL143:
	.loc 1 241 1383
	.loc 1 241 1400 is_stmt 0
	sw	a3,0(s6)
	.loc 1 241 1412 is_stmt 1
	.loc 1 241 1429 is_stmt 0
	sw	s3,0(t2)
	.loc 1 241 1435 is_stmt 1
	.loc 1 241 1452 is_stmt 0
	lw	a5,20(sp)
	lw	a3,0(sp)
	sw	a5,0(a3)
	.loc 1 241 1480 is_stmt 1
	.loc 1 241 1497 is_stmt 0
	sw	zero,-992(s5)
	.loc 1 241 1509 is_stmt 1
	.loc 1 241 1526 is_stmt 0
	sw	s3,0(t1)
	.loc 1 241 1563 is_stmt 1
	.loc 1 241 1580 is_stmt 0
	li	a5,32
	sw	a5,0(t5)
	.loc 1 241 1620 is_stmt 1
	.loc 1 241 1637 is_stmt 0
	li	a5,127
	sw	a5,0(a0)
	.loc 1 241 1642 is_stmt 1
	.loc 1 241 1659 is_stmt 0
	sw	zero,-1120(s7)
	.loc 1 241 1662 is_stmt 1
	.loc 1 241 1678 is_stmt 0
	sw	s3,672(s4)
	.loc 1 241 1715 is_stmt 1
	.loc 1 241 1731 is_stmt 0
	li	a3,8
	sw	a3,0(a2)
	.loc 1 241 1757 is_stmt 1
	.loc 1 241 1774 is_stmt 0
	sw	a5,0(t6)
	.loc 1 241 1779 is_stmt 1
	.loc 1 241 1796 is_stmt 0
	sw	zero,0(a1)
	.loc 1 241 1799 is_stmt 1
	.loc 1 241 1815 is_stmt 0
	lw	s10,8(sp)
	sw	s11,0(s10)
	.loc 1 241 1853 is_stmt 1
	.loc 1 241 1869 is_stmt 0
	lw	a3,4(sp)
	sw	s8,0(a3)
	.loc 1 241 1880 is_stmt 1
	.loc 1 241 1897 is_stmt 0
	sw	a5,0(s1)
	.loc 1 241 1902 is_stmt 1
	.loc 1 241 1919 is_stmt 0
	lw	a5,12(sp)
	.loc 1 241 1938
	li	a3,524288
	addi	a3,a3,584
	.loc 1 241 1919
	sw	zero,0(a5)
	.loc 1 241 1922 is_stmt 1
	.loc 1 241 2066 is_stmt 0
	li	a5,1032192
	.loc 1 241 1938
	sw	a3,0(s2)
	.loc 1 241 2049 is_stmt 1
	.loc 1 241 2066 is_stmt 0
	addi	a5,a5,1149
	sw	a5,0(s0)
.LBE118:
	.loc 1 241 2098 is_stmt 1
	.loc 1 241 2099
	.loc 1 241 2115 is_stmt 0
	sw	s9,16(sp)
	mv	a5,s9
	lw	s9,48(sp)
.LBB119:
	.loc 1 241 2697
	li	a3,1036288
	addi	a3,a3,127
.LBE119:
	.loc 1 241 2115
	sw	s9,0(a5)
.LBB120:
	.loc 1 241 2205 is_stmt 1
.LVL144:
	.loc 1 241 2328
	.loc 1 241 2345 is_stmt 0
	lw	s10,36(sp)
	.loc 1 241 2375
	li	a5,31
	.loc 1 241 2345
	sw	s10,0(s6)
	.loc 1 241 2358 is_stmt 1
	.loc 1 241 2375 is_stmt 0
	sw	a5,0(t2)
	.loc 1 241 2381 is_stmt 1
	.loc 1 241 2398 is_stmt 0
	lw	s10,96(sp)
	lw	a5,0(sp)
	sw	s10,0(a5)
	.loc 1 241 2419 is_stmt 1
	.loc 1 241 2436 is_stmt 0
	sw	zero,-992(s5)
	.loc 1 241 2449 is_stmt 1
	.loc 1 241 2465 is_stmt 0
	sw	s8,0(a2)
	.loc 1 241 2476 is_stmt 1
	.loc 1 241 2492 is_stmt 0
	sw	t0,672(s4)
	.loc 1 241 2498 is_stmt 1
	.loc 1 241 2515 is_stmt 0
	lw	s10,56(sp)
	sw	s10,0(t6)
	.loc 1 241 2528 is_stmt 1
	.loc 1 241 2545 is_stmt 0
	lw	s10,64(sp)
	sw	s10,0(a1)
	.loc 1 241 2554 is_stmt 1
.LVL145:
	.loc 1 241 2585
	.loc 1 241 2620 is_stmt 0
	lw	s10,104(sp)
	.loc 1 241 2606
	lw	t0,28(sp)
	.loc 1 241 2620
	lw	a5,12(s10)
	.loc 1 241 2606
	lw	s10,112(sp)
	.loc 1 241 2620
	srli	a5,a5,1
	.loc 1 241 2606
	sub	s10,s10,t0
	add	a5,a5,s10
	.loc 1 241 2601
	sw	a5,0(s2)
	.loc 1 241 2637 is_stmt 1
	.loc 1 241 2638
	.loc 1 241 2655 is_stmt 0
	sw	a7,0(t4)
	.loc 1 241 2680 is_stmt 1
	.loc 1 241 2697 is_stmt 0
	sw	a3,0(s0)
.LBE120:
.LBB121:
	.loc 1 241 2730 is_stmt 1
.LVL146:
	.loc 1 241 2913
	.loc 1 241 2929 is_stmt 0
	lw	a5,4(sp)
	.loc 1 241 3536
	li	a3,15
	.loc 1 241 2929
	sw	a6,0(a5)
	.loc 1 241 2996 is_stmt 1
	.loc 1 241 3012 is_stmt 0
	lw	a6,8(sp)
	sw	s11,0(a6)
	.loc 1 241 3018 is_stmt 1
	.loc 1 241 3035 is_stmt 0
	sw	t3,0(s1)
	.loc 1 241 3127 is_stmt 1
	.loc 1 241 3144 is_stmt 0
	lw	a6,12(sp)
	sw	zero,0(a6)
	.loc 1 241 3211 is_stmt 1
	.loc 1 241 3228 is_stmt 0
	li	a6,16
	sw	a6,0(t5)
	.loc 1 241 3275 is_stmt 1
	.loc 1 241 3292 is_stmt 0
	sw	s3,0(t1)
	.loc 1 241 3298 is_stmt 1
	.loc 1 241 3315 is_stmt 0
	sw	a4,0(a0)
	.loc 1 241 3386 is_stmt 1
	.loc 1 241 3403 is_stmt 0
	sw	zero,-1120(s7)
	.loc 1 241 3450 is_stmt 1
	.loc 1 241 3467 is_stmt 0
	li	a6,4
	sw	a6,0(s6)
	.loc 1 241 3496 is_stmt 1
	.loc 1 241 3513 is_stmt 0
	sw	s3,0(t2)
	.loc 1 241 3519 is_stmt 1
	.loc 1 241 3536 is_stmt 0
	lw	a5,0(sp)
.LBE121:
	.loc 1 188 17 discriminator 1
	addi	a4,t0,-15
.LBB122:
	.loc 1 241 3536
	sw	a3,0(a5)
	.loc 1 241 3587 is_stmt 1
	.loc 1 241 3604 is_stmt 0
	sw	zero,-992(s5)
	.loc 1 241 3633 is_stmt 1
	.loc 1 241 3649 is_stmt 0
	sw	s8,0(a2)
	.loc 1 241 3660 is_stmt 1
	.loc 1 241 3676 is_stmt 0
	sw	s3,672(s4)
	.loc 1 241 3682 is_stmt 1
	.loc 1 241 3699 is_stmt 0
	sw	s3,0(t6)
	.loc 1 241 3728 is_stmt 1
	.loc 1 241 3745 is_stmt 0
	sw	zero,0(a1)
	.loc 1 241 3754 is_stmt 1
.LVL147:
	.loc 1 241 3913
	.loc 1 241 3929 is_stmt 0
	sw	zero,0(s2)
	.loc 1 241 3958 is_stmt 1
	.loc 1 241 3959
	.loc 1 241 3976 is_stmt 0
	lw	a0,32(sp)
	sw	a0,0(s0)
.LBE122:
	.loc 1 241 4008 is_stmt 1
	.loc 1 241 4009
	.loc 1 241 4025 is_stmt 0
	lw	a5,16(sp)
	sw	s9,0(a5)
	.loc 1 188 26 is_stmt 1 discriminator 2
	.loc 1 188 17 discriminator 1
	lw	a6,40(sp)
	sw	a4,28(sp)
	lw	a4,108(sp)
	addi	a5,a6,1
	sw	a5,40(sp)
	ble	a4,a5,.L44
.LVL148:
.L30:
	.loc 1 189 10
	.loc 1 192 10
	.loc 1 192 12 is_stmt 0
	lw	a5,40(sp)
	bne	a5,zero,.L45
.LBB123:
	.loc 1 199 3 is_stmt 1
.LVL149:
	.loc 1 199 38
	.loc 1 199 54 is_stmt 0
	lw	a5,4(sp)
	li	s10,4096
	.loc 1 199 105
	li	s8,-2147483648
	.loc 1 199 54
	sw	s10,0(a5)
.LVL150:
	.loc 1 199 66 is_stmt 1
	.loc 1 199 82 is_stmt 0
	lw	a5,8(sp)
	.loc 1 199 150
	li	t6,-2147479552
	.loc 1 199 179
	li	s6,-2147483648
	.loc 1 199 82
	sw	zero,0(a5)
	.loc 1 199 88 is_stmt 1
	.loc 1 199 105 is_stmt 0
	lw	t4,20(sp)
	.loc 1 199 179
	li	s11,5
	.loc 1 199 241
	li	ra,48
	.loc 1 199 105
	sw	t4,1440(s8)
	.loc 1 199 133 is_stmt 1
	.loc 1 199 150 is_stmt 0
	sw	zero,-1248(t6)
	.loc 1 199 162 is_stmt 1
	.loc 1 199 179 is_stmt 0
	sw	s11,1824(s6)
	.loc 1 199 224 is_stmt 1
	.loc 1 199 241 is_stmt 0
	li	t5,-2147483648
	sw	ra,1696(t5)
	.loc 1 199 287 is_stmt 1
	.loc 1 199 304 is_stmt 0
	li	a5,287
	li	s7,-2147483648
	sw	a5,1952(s7)
	.loc 1 199 309 is_stmt 1
	.loc 1 199 326 is_stmt 0
	li	t3,-2147479552
	sw	zero,-1120(t3)
	.loc 1 199 329 is_stmt 1
	.loc 1 199 346 is_stmt 0
	li	t1,-2147479552
	sw	zero,-1888(t1)
	.loc 1 199 375 is_stmt 1
	.loc 1 199 392 is_stmt 0
	li	s5,-2147479552
	li	s9,8
	sw	s9,-2016(s5)
	.loc 1 199 418 is_stmt 1
	.loc 1 199 435 is_stmt 0
	lw	a4,0(sp)
	.loc 1 199 457
	li	a7,-2147479552
	.loc 1 199 476
	li	s4,-2147483648
	.loc 1 199 435
	sw	a5,0(a4)
	.loc 1 199 440 is_stmt 1
	.loc 1 199 457 is_stmt 0
	sw	zero,-992(a7)
	.loc 1 199 460 is_stmt 1
	.loc 1 199 476 is_stmt 0
	li	s1,7
	sw	s1,672(s4)
	.loc 1 199 516 is_stmt 1
	.loc 1 199 532 is_stmt 0
	li	s3,-2147483648
	li	a4,1
	sw	a4,1056(s3)
	.loc 1 199 543 is_stmt 1
	.loc 1 199 560 is_stmt 0
	li	a6,-2147483648
	sw	a5,1568(a6)
	.loc 1 199 565 is_stmt 1
	.loc 1 199 582 is_stmt 0
	li	a0,-2147479552
	sw	zero,-864(a0)
	.loc 1 199 585 is_stmt 1
	.loc 1 199 601 is_stmt 0
	lw	a3,68(sp)
	.loc 1 199 733
	li	a1,-2147479552
	.loc 1 199 871
	li	t2,1032192
	.loc 1 199 601
	sw	a3,0(s2)
	.loc 1 199 716 is_stmt 1
	.loc 1 199 733 is_stmt 0
	sw	ra,-736(a1)
	.loc 1 199 854 is_stmt 1
	.loc 1 199 871 is_stmt 0
	addi	t2,t2,127
	sw	t2,0(s0)
.LBE123:
	.loc 1 199 904 is_stmt 1
	.loc 1 199 905
	.loc 1 199 922 is_stmt 0
	li	t0,-2147479552
	sw	zero,-480(t0)
	.loc 1 199 927 is_stmt 1
	.loc 1 199 944 is_stmt 0
	lw	a2,32(sp)
	.loc 1 199 993
	li	a3,393216
	li	a4,-2147483648
	.loc 1 199 944
	sw	a2,0(s0)
	.loc 1 199 976 is_stmt 1
	.loc 1 199 977
	.loc 1 199 993 is_stmt 0
	addi	a3,a3,1
	sw	a3,20(a4)
.LBB124:
	.loc 1 200 3 is_stmt 1
.LVL151:
	.loc 1 200 38
	.loc 1 200 54 is_stmt 0
	lw	s1,4(sp)
	sw	s10,0(s1)
	.loc 1 200 66 is_stmt 1
	.loc 1 200 82 is_stmt 0
	lw	s10,8(sp)
	.loc 1 200 476
	li	s1,7
	.loc 1 200 82
	sw	zero,0(s10)
	.loc 1 200 88 is_stmt 1
	.loc 1 200 105 is_stmt 0
	sw	t4,1440(s8)
	.loc 1 200 133 is_stmt 1
	.loc 1 200 150 is_stmt 0
	sw	zero,-1248(t6)
	.loc 1 200 162 is_stmt 1
	.loc 1 200 179 is_stmt 0
	sw	s11,1824(s6)
	.loc 1 200 224 is_stmt 1
	.loc 1 200 241 is_stmt 0
	sw	ra,1696(t5)
	.loc 1 200 287 is_stmt 1
	.loc 1 200 304 is_stmt 0
	sw	a5,1952(s7)
	.loc 1 200 309 is_stmt 1
	.loc 1 200 326 is_stmt 0
	sw	zero,-1120(t3)
	.loc 1 200 329 is_stmt 1
	.loc 1 200 346 is_stmt 0
	sw	zero,-1888(t1)
	.loc 1 200 375 is_stmt 1
	.loc 1 200 392 is_stmt 0
	sw	s9,-2016(s5)
	.loc 1 200 418 is_stmt 1
	.loc 1 200 435 is_stmt 0
	lw	t1,0(sp)
	sw	a5,0(t1)
	.loc 1 200 440 is_stmt 1
	.loc 1 200 457 is_stmt 0
	sw	zero,-992(a7)
	.loc 1 200 460 is_stmt 1
	.loc 1 200 476 is_stmt 0
	sw	s1,672(s4)
	.loc 1 200 516 is_stmt 1
	.loc 1 200 532 is_stmt 0
	li	a7,1
	sw	a7,1056(s3)
	.loc 1 200 543 is_stmt 1
	.loc 1 200 560 is_stmt 0
	sw	a5,1568(a6)
	.loc 1 200 565 is_stmt 1
	.loc 1 200 601 is_stmt 0
	li	a5,524288
	.loc 1 200 582
	sw	zero,-864(a0)
	.loc 1 200 585 is_stmt 1
	.loc 1 200 601 is_stmt 0
	addi	a5,a5,296
	sw	a5,0(s2)
	.loc 1 200 718 is_stmt 1
	.loc 1 200 735 is_stmt 0
	sw	ra,-736(a1)
	.loc 1 200 856 is_stmt 1
	.loc 1 200 873 is_stmt 0
	sw	t2,0(s0)
.LBE124:
	.loc 1 200 906 is_stmt 1
	.loc 1 200 907
	.loc 1 200 924 is_stmt 0
	sw	zero,-480(t0)
	.loc 1 200 929 is_stmt 1
	.loc 1 200 946 is_stmt 0
	sw	a2,0(s0)
	.loc 1 200 978 is_stmt 1
	.loc 1 200 979
	.loc 1 200 995 is_stmt 0
	sw	a3,20(a4)
	j	.L36
.LVL152:
.L46:
	lw	s4,124(sp)
	lw	s2,128(sp)
	lw	s3,132(sp)
	lw	s1,136(sp)
	lw	s0,140(sp)
.LVL153:
.L34:
	.loc 1 187 23 is_stmt 1 discriminator 2
	.loc 1 187 17 is_stmt 0 discriminator 1
	lw	a5,44(sp)
	.loc 1 187 23 discriminator 2
	addi	s1,s1,1
.LVL154:
	.loc 1 187 17 is_stmt 1 discriminator 1
	sub	s2,s2,s0
	add	a5,a5,s0
	sw	a5,44(sp)
	lw	a5,48(sp)
	add	s3,s3,s0
	sub	a5,a5,s0
	sw	a5,48(sp)
	lw	a5,96(sp)
	add	a5,a5,s0
	sw	a5,96(sp)
	bne	s4,s1,.L37
	lw	s2,192(sp)
	.cfi_restore 18
	lw	s3,188(sp)
	.cfi_restore 19
	lw	s5,180(sp)
	.cfi_restore 21
	lw	s6,176(sp)
	.cfi_restore 22
	lw	s7,172(sp)
	.cfi_restore 23
	lw	s8,168(sp)
	.cfi_restore 24
	lw	s9,164(sp)
	.cfi_restore 25
	lw	s10,160(sp)
	.cfi_restore 26
	lw	s11,156(sp)
	.cfi_restore 27
.LVL155:
.L25:
	.loc 1 244 1 is_stmt 0
	lw	ra,204(sp)
	.cfi_remember_state
	.cfi_restore 1
	lw	s0,200(sp)
	.cfi_restore 8
	lw	s1,196(sp)
	.cfi_restore 9
	lw	s4,184(sp)
	.cfi_restore 20
	addi	sp,sp,208
	.cfi_def_cfa_offset 0
	jr	ra
.LVL156:
.L26:
	.cfi_restore_state
	.loc 1 167 7 is_stmt 1
	.loc 1 167 9 is_stmt 0
	li	a5,32
	ble	s0,a5,.L25
	.loc 1 169 7 is_stmt 1
	.loc 1 169 11 is_stmt 0
	srai	s1,a4,6
.LVL157:
	.loc 1 170 7 is_stmt 1
	j	.L27
.LVL158:
.L42:
	.loc 1 165 26 is_stmt 0 discriminator 1
	srai	s4,a4,6
.LVL159:
	j	.L27
.LVL160:
.L43:
	.cfi_offset 18, -16
	.cfi_offset 19, -20
	.cfi_offset 21, -28
	.cfi_offset 22, -32
	.cfi_offset 23, -36
	.cfi_offset 24, -40
	.cfi_offset 25, -44
	.cfi_offset 26, -48
	.cfi_offset 27, -52
	add	a4,a2,a5
	add	a5,a3,a5
	sw	a4,116(sp)
	sw	a5,120(sp)
.LVL161:
.L37:
	addi	a5,s2,-1
	sw	a5,100(sp)
.LBB125:
	.loc 1 194 105
	li	a5,16384
	addi	a5,a5,-1
.LBE125:
	.loc 1 194 1741
	li	a4,-2147483648
	li	a3,393216
.LBB126:
	.loc 1 194 105
	sw	a5,20(sp)
.LBE126:
	.loc 1 194 1741
	addi	a5,a4,20
.LBB127:
	.loc 1 194 54
	li	t4,-2147483648
	.loc 1 194 435
	li	t6,-2147479552
	.loc 1 194 871
	li	t0,-2147479552
.LBE127:
	.loc 1 199 944
	li	a2,1036288
	.loc 1 194 1741
	sw	a5,12(sp)
	addi	a5,a3,1
.LBB128:
	.loc 1 194 54
	addi	t4,t4,800
	.loc 1 194 435
	addi	t6,t6,-1760
	.loc 1 194 871
	addi	t0,t0,-1632
.LBE128:
	.loc 1 194 1741
	sw	a5,56(sp)
	.loc 1 199 944
	addi	a5,a2,-1923
	sw	s1,136(sp)
	sw	s0,140(sp)
	.loc 1 140 46
	sw	s3,24(sp)
	sw	zero,28(sp)
	.loc 1 199 944
	sw	a5,40(sp)
	sw	s4,124(sp)
	sw	s2,128(sp)
	sw	s3,132(sp)
	sw	t4,0(sp)
	mv	s1,t6
	mv	s0,t0
	j	.L33
.LVL162:
.L31:
.LBB129:
	.loc 1 194 3 is_stmt 1
	.loc 1 194 38
	.loc 1 194 54 is_stmt 0
	lw	s2,0(sp)
	li	t2,4096
	.loc 1 194 82
	li	t4,-2147483648
	.loc 1 194 54
	sw	t2,0(s2)
	.loc 1 194 66 is_stmt 1
	.loc 1 194 82 is_stmt 0
	sw	zero,928(t4)
	.loc 1 194 88 is_stmt 1
	.loc 1 194 105 is_stmt 0
	lw	s2,20(sp)
	li	t3,-2147483648
	.loc 1 194 150
	li	t1,-2147479552
	.loc 1 194 105
	sw	s2,1440(t3)
	.loc 1 194 133 is_stmt 1
	.loc 1 194 150 is_stmt 0
	sw	zero,-1248(t1)
	.loc 1 194 162 is_stmt 1
	.loc 1 194 179 is_stmt 0
	li	ra,-2147483648
	li	s7,5
	sw	s7,1824(ra)
	.loc 1 194 224 is_stmt 1
	.loc 1 194 241 is_stmt 0
	li	t0,48
	li	a7,-2147483648
	sw	t0,1696(a7)
	.loc 1 194 287 is_stmt 1
	.loc 1 194 304 is_stmt 0
	li	a5,287
.LVL163:
	li	a6,-2147483648
	sw	a5,1952(a6)
	.loc 1 194 309 is_stmt 1
	.loc 1 194 326 is_stmt 0
	li	a0,-2147479552
	sw	zero,-1120(a0)
	.loc 1 194 329 is_stmt 1
	.loc 1 194 346 is_stmt 0
	li	a1,-2147479552
	sw	zero,-1888(a1)
	.loc 1 194 375 is_stmt 1
	.loc 1 194 392 is_stmt 0
	li	s11,-2147479552
	li	s6,8
	sw	s6,-2016(s11)
	.loc 1 194 418 is_stmt 1
	.loc 1 194 435 is_stmt 0
	sw	a5,0(s1)
	.loc 1 194 440 is_stmt 1
	.loc 1 194 457 is_stmt 0
	li	a2,-2147479552
	sw	zero,-992(a2)
	.loc 1 194 460 is_stmt 1
	.loc 1 194 476 is_stmt 0
	li	s10,-2147483648
	li	s5,7
	sw	s5,672(s10)
	.loc 1 194 516 is_stmt 1
	.loc 1 194 532 is_stmt 0
	li	t6,-2147483648
	li	s4,1
	sw	s4,1056(t6)
	.loc 1 194 543 is_stmt 1
	.loc 1 194 560 is_stmt 0
	li	a3,-2147483648
	sw	a5,1568(a3)
	.loc 1 194 565 is_stmt 1
	.loc 1 194 582 is_stmt 0
	li	a4,-2147479552
	.loc 1 194 601
	li	s3,524288
	.loc 1 194 582
	sw	zero,-864(a4)
	.loc 1 194 585 is_stmt 1
	.loc 1 194 601 is_stmt 0
	li	t5,-2147483648
	addi	s3,s3,8
	sw	s3,544(t5)
	.loc 1 194 716 is_stmt 1
	.loc 1 194 733 is_stmt 0
	li	s9,-2147479552
	sw	s9,4(sp)
	.loc 1 194 871
	li	s8,1032192
	.loc 1 194 733
	sw	t0,-736(s9)
	.loc 1 194 854 is_stmt 1
	.loc 1 194 871 is_stmt 0
	addi	s8,s8,127
	sw	s8,0(s0)
.LBE129:
.LBB130:
	.loc 1 194 904 is_stmt 1
.LVL164:
	.loc 1 194 953
	.loc 1 194 969 is_stmt 0
	lw	s2,0(sp)
	.loc 1 194 1020
	li	s3,4096
	.loc 1 194 1546
	li	s9,536576
	.loc 1 194 969
	sw	t2,0(s2)
	.loc 1 194 981 is_stmt 1
	.loc 1 194 997 is_stmt 0
	sw	zero,928(t4)
	.loc 1 194 1003 is_stmt 1
	.loc 1 194 1020 is_stmt 0
	addi	s2,s3,-1
	sw	s2,1440(t3)
	.loc 1 194 1048 is_stmt 1
	.loc 1 194 1065 is_stmt 0
	li	s3,12288
	sw	s3,-1248(t1)
	.loc 1 194 1077 is_stmt 1
	.loc 1 194 1094 is_stmt 0
	sw	s7,1824(ra)
	.loc 1 194 1139 is_stmt 1
	.loc 1 194 1156 is_stmt 0
	sw	t0,1696(a7)
	.loc 1 194 1202 is_stmt 1
	.loc 1 194 1219 is_stmt 0
	sw	a5,1952(a6)
	.loc 1 194 1224 is_stmt 1
	.loc 1 194 1241 is_stmt 0
	sw	zero,-1120(a0)
	.loc 1 194 1244 is_stmt 1
	.loc 1 194 1261 is_stmt 0
	sw	zero,-1888(a1)
	.loc 1 194 1320 is_stmt 1
	.loc 1 194 1337 is_stmt 0
	sw	s6,-2016(s11)
	.loc 1 194 1363 is_stmt 1
	.loc 1 194 1380 is_stmt 0
	sw	a5,0(s1)
	.loc 1 194 1385 is_stmt 1
	.loc 1 194 1402 is_stmt 0
	sw	zero,-992(a2)
	.loc 1 194 1405 is_stmt 1
	.loc 1 194 1421 is_stmt 0
	sw	s5,672(s10)
	.loc 1 194 1461 is_stmt 1
	.loc 1 194 1477 is_stmt 0
	sw	s4,1056(t6)
	.loc 1 194 1488 is_stmt 1
	.loc 1 194 1505 is_stmt 0
	sw	a5,1568(a3)
	.loc 1 194 1510 is_stmt 1
	.loc 1 194 1527 is_stmt 0
	sw	zero,-864(a4)
	.loc 1 194 1530 is_stmt 1
	.loc 1 194 1546 is_stmt 0
	addi	s9,s9,32
	.loc 1 194 1692
	li	s3,1032192
	.loc 1 194 1546
	sw	s9,544(t5)
	.loc 1 194 1675 is_stmt 1
	.loc 1 194 1692 is_stmt 0
	addi	s3,s3,125
	sw	s3,0(s0)
.LBE130:
	.loc 1 194 1724 is_stmt 1
	.loc 1 194 1725
	.loc 1 194 1741 is_stmt 0
	lw	s9,12(sp)
	lw	s2,56(sp)
	sw	s2,0(s9)
.LBB131:
	.loc 1 196 3 is_stmt 1
.LVL165:
	.loc 1 196 38
	.loc 1 196 54 is_stmt 0
	lw	s2,0(sp)
	.loc 1 196 601
	li	s9,524288
	addi	s9,s9,296
	.loc 1 196 54
	sw	t2,0(s2)
	.loc 1 196 66 is_stmt 1
	.loc 1 196 82 is_stmt 0
	sw	zero,928(t4)
	.loc 1 196 88 is_stmt 1
	.loc 1 196 105 is_stmt 0
	lw	s2,20(sp)
	sw	s2,1440(t3)
	.loc 1 196 133 is_stmt 1
	.loc 1 196 150 is_stmt 0
	sw	zero,-1248(t1)
	.loc 1 196 162 is_stmt 1
	.loc 1 196 179 is_stmt 0
	sw	s7,1824(ra)
	.loc 1 196 224 is_stmt 1
	.loc 1 196 241 is_stmt 0
	sw	t0,1696(a7)
	.loc 1 196 287 is_stmt 1
	.loc 1 196 304 is_stmt 0
	sw	a5,1952(a6)
	.loc 1 196 309 is_stmt 1
	.loc 1 196 326 is_stmt 0
	sw	zero,-1120(a0)
	.loc 1 196 329 is_stmt 1
	.loc 1 196 346 is_stmt 0
	sw	zero,-1888(a1)
	.loc 1 196 375 is_stmt 1
	.loc 1 196 392 is_stmt 0
	sw	s6,-2016(s11)
	.loc 1 196 418 is_stmt 1
	.loc 1 196 435 is_stmt 0
	sw	a5,0(s1)
	.loc 1 196 440 is_stmt 1
	.loc 1 196 457 is_stmt 0
	sw	zero,-992(a2)
	.loc 1 196 460 is_stmt 1
	.loc 1 196 476 is_stmt 0
	sw	s5,672(s10)
	.loc 1 196 516 is_stmt 1
	.loc 1 196 532 is_stmt 0
	sw	s4,1056(t6)
	.loc 1 196 543 is_stmt 1
	.loc 1 196 560 is_stmt 0
	sw	a5,1568(a3)
	.loc 1 196 565 is_stmt 1
	.loc 1 196 582 is_stmt 0
	sw	zero,-864(a4)
	.loc 1 196 585 is_stmt 1
	.loc 1 196 601 is_stmt 0
	sw	s9,544(t5)
	.loc 1 196 718 is_stmt 1
	.loc 1 196 735 is_stmt 0
	lw	s9,4(sp)
	sw	t0,-736(s9)
	.loc 1 196 856 is_stmt 1
	.loc 1 196 873 is_stmt 0
	sw	s8,0(s0)
.LBE131:
.LBB132:
	.loc 1 196 906 is_stmt 1
.LVL166:
	.loc 1 196 955
	.loc 1 196 971 is_stmt 0
	lw	s2,0(sp)
	sw	t2,0(s2)
	.loc 1 196 983 is_stmt 1
	.loc 1 196 999 is_stmt 0
	sw	zero,928(t4)
	.loc 1 196 1005 is_stmt 1
	.loc 1 196 1022 is_stmt 0
	li	t4,4096
	addi	t4,t4,-1
	sw	t4,1440(t3)
	.loc 1 196 1050 is_stmt 1
	.loc 1 196 1067 is_stmt 0
	li	t3,12288
	sw	t3,-1248(t1)
	.loc 1 196 1079 is_stmt 1
	.loc 1 196 1096 is_stmt 0
	sw	s7,1824(ra)
	.loc 1 196 1141 is_stmt 1
	.loc 1 196 1158 is_stmt 0
	sw	t0,1696(a7)
	.loc 1 196 1204 is_stmt 1
	.loc 1 196 1221 is_stmt 0
	sw	a5,1952(a6)
	.loc 1 196 1226 is_stmt 1
	.loc 1 196 1243 is_stmt 0
	sw	zero,-1120(a0)
	.loc 1 196 1246 is_stmt 1
	.loc 1 196 1263 is_stmt 0
	sw	zero,-1888(a1)
	.loc 1 196 1322 is_stmt 1
	.loc 1 196 1339 is_stmt 0
	sw	s6,-2016(s11)
	.loc 1 196 1365 is_stmt 1
	.loc 1 196 1382 is_stmt 0
	sw	a5,0(s1)
	.loc 1 196 1387 is_stmt 1
	.loc 1 196 1404 is_stmt 0
	sw	zero,-992(a2)
	.loc 1 196 1407 is_stmt 1
	.loc 1 196 1423 is_stmt 0
	sw	s5,672(s10)
	.loc 1 196 1463 is_stmt 1
	.loc 1 196 1479 is_stmt 0
	sw	s4,1056(t6)
	.loc 1 196 1490 is_stmt 1
	.loc 1 196 1507 is_stmt 0
	sw	a5,1568(a3)
	.loc 1 196 1512 is_stmt 1
	.loc 1 196 1548 is_stmt 0
	li	a5,536576
	.loc 1 196 1529
	sw	zero,-864(a4)
	.loc 1 196 1532 is_stmt 1
	.loc 1 196 1548 is_stmt 0
	addi	a5,a5,320
	sw	a5,544(t5)
	.loc 1 196 1679 is_stmt 1
	.loc 1 196 1696 is_stmt 0
	sw	s3,0(s0)
.LBE132:
	.loc 1 196 1728 is_stmt 1
	.loc 1 196 1729
	.loc 1 196 1745 is_stmt 0
	lw	a5,12(sp)
	lw	s2,56(sp)
	sw	s2,0(a5)
.LVL167:
.L32:
	.loc 1 203 1 is_stmt 1
	.loc 1 203 2
	.loc 1 203 18 is_stmt 0
	lw	a0,12(sp)
	li	a5,88
.LBB133:
	.loc 1 207 220
	li	s11,96
.LBE133:
	.loc 1 203 18
	sw	a5,0(a0)
.LBB134:
	.loc 1 207 3 is_stmt 1
.LVL168:
	.loc 1 207 204
	.loc 1 207 220 is_stmt 0
	lw	t3,0(sp)
	.loc 1 207 321
	li	a2,7
	li	a3,-2147483648
	.loc 1 207 220
	sw	s11,0(t3)
	.loc 1 207 305 is_stmt 1
	.loc 1 207 321 is_stmt 0
	sw	a2,928(a3)
	.loc 1 207 327 is_stmt 1
	.loc 1 207 344 is_stmt 0
	li	a4,-2147483648
	li	a1,767
	sw	a1,1440(a4)
	.loc 1 207 454 is_stmt 1
	.loc 1 207 471 is_stmt 0
	li	a5,-2147479552
	sw	a5,8(sp)
	.loc 1 207 573
	li	t0,-2147483648
	.loc 1 207 471
	sw	zero,-1248(a5)
	.loc 1 207 556 is_stmt 1
	.loc 1 207 573 is_stmt 0
	addi	t0,t0,1696
	.loc 1 207 649
	li	t4,-2147483648
	.loc 1 207 573
	li	a5,16
	sw	a5,0(t0)
	.loc 1 207 632 is_stmt 1
	.loc 1 207 649 is_stmt 0
	addi	t4,t4,1824
	li	a1,5
	.loc 1 207 672
	li	t5,-2147483648
	.loc 1 207 649
	sw	a1,0(t4)
	.loc 1 207 655 is_stmt 1
	.loc 1 207 672 is_stmt 0
	addi	t5,t5,1952
	li	a6,95
	sw	a6,0(t5)
	.loc 1 207 761 is_stmt 1
	.loc 1 207 854 is_stmt 0
	li	a7,-2147479552
	.loc 1 207 778
	li	s10,-2147479552
	sw	zero,-1120(s10)
	.loc 1 207 837 is_stmt 1
	.loc 1 207 854 is_stmt 0
	addi	a7,a7,-2016
	.loc 1 207 912
	li	a6,-2147479552
	.loc 1 207 854
	li	t6,4
	.loc 1 207 912
	li	s3,3
	.loc 1 207 854
	sw	t6,0(a7)
	.loc 1 207 895 is_stmt 1
	.loc 1 207 912 is_stmt 0
	sw	s3,-1888(a6)
	.loc 1 207 918 is_stmt 1
	.loc 1 207 935 is_stmt 0
	li	t1,15
	.loc 1 207 1072
	li	s7,-2147483648
	.loc 1 207 1015
	li	s8,-2147479552
	.loc 1 207 935
	sw	t1,0(s1)
	.loc 1 207 998 is_stmt 1
	.loc 1 207 1072 is_stmt 0
	addi	s7,s7,1056
	.loc 1 207 1015
	sw	zero,-992(s8)
	.loc 1 207 1056 is_stmt 1
	.loc 1 207 1072 is_stmt 0
	li	t3,1
	.loc 1 207 1099
	li	s6,-2147483648
	.loc 1 207 1072
	sw	t3,0(s7)
	.loc 1 207 1083 is_stmt 1
	.loc 1 207 1122 is_stmt 0
	li	s5,-2147483648
	.loc 1 207 1099
	sw	s3,672(s6)
	.loc 1 207 1105 is_stmt 1
	.loc 1 207 1180 is_stmt 0
	li	s4,-2147479552
	.loc 1 207 1406
	li	t2,-2147483648
	.loc 1 207 1122
	sw	s3,1568(s5)
	.loc 1 207 1163 is_stmt 1
	.loc 1 207 1406 is_stmt 0
	addi	t2,t2,544
	.loc 1 207 1180
	sw	zero,-864(s4)
	.loc 1 207 1189 is_stmt 1
.LVL169:
	.loc 1 207 1390
	.loc 1 207 1453 is_stmt 0
	li	ra,-2147479552
	.loc 1 207 1406
	sw	zero,0(t2)
	.loc 1 207 1435 is_stmt 1
	.loc 1 207 1436
	.loc 1 207 1453 is_stmt 0
	addi	a5,ra,-736
	sw	a5,16(sp)
	li	t6,768
	.loc 1 207 1509
	li	ra,1036288
	.loc 1 207 1453
	sw	t6,0(a5)
	.loc 1 207 1492 is_stmt 1
	.loc 1 207 1509 is_stmt 0
	addi	s2,ra,-1921
	sw	s2,0(s0)
.LBE134:
.LBB135:
	.loc 1 207 1542 is_stmt 1
.LVL170:
	.loc 1 207 1722
	.loc 1 207 1739 is_stmt 0
	lw	s9,60(sp)
.LBE135:
.LBB136:
	.loc 1 207 344
	addi	a4,a4,1440
	.loc 1 207 912
	addi	a6,a6,-1888
.LBE136:
.LBB137:
	.loc 1 207 1739
	sw	s9,0(t0)
.LVL171:
	.loc 1 207 1766 is_stmt 1
	.loc 1 207 1783 is_stmt 0
	sw	a2,0(t4)
	.loc 1 207 1789 is_stmt 1
	.loc 1 207 1806 is_stmt 0
	lw	ra,44(sp)
.LBE137:
.LBB138:
	.loc 1 207 321
	addi	a3,a3,928
.LBE138:
.LBB139:
	.loc 1 207 1806
	sw	ra,0(t5)
	.loc 1 207 1842 is_stmt 1
	.loc 1 207 1859 is_stmt 0
	lw	ra,48(sp)
	sw	s10,4(sp)
	sw	ra,-1120(s10)
	.loc 1 207 1886 is_stmt 1
	.loc 1 207 1903 is_stmt 0
	lw	ra,36(sp)
	sw	ra,0(a7)
	.loc 1 207 1916 is_stmt 1
	.loc 1 207 1956 is_stmt 0
	li	ra,67108864
	.loc 1 207 1933
	sw	a1,0(a6)
	.loc 1 207 1939 is_stmt 1
	.loc 1 207 1956 is_stmt 0
	addi	s10,ra,-1
	sw	s10,68(sp)
	sw	s10,0(s1)
	.loc 1 207 1968 is_stmt 1
	.loc 1 207 1985 is_stmt 0
	sw	zero,-992(s8)
	.loc 1 207 1998 is_stmt 1
	.loc 1 207 2014 is_stmt 0
	sw	t3,0(s7)
	.loc 1 207 2025 is_stmt 1
	.loc 1 207 2041 is_stmt 0
	sw	t1,672(s6)
	.loc 1 207 2047 is_stmt 1
	lw	ra,24(sp)
	lw	s10,100(sp)
	lw	t3,28(sp)
	add	a5,s10,ra
	mv	t1,a5
	slli	a5,t3,4
	.loc 1 207 2064 is_stmt 0
	sw	t1,52(sp)
	sub	s10,a5,t3
	.loc 1 207 2177
	li	a5,-2147479552
	.loc 1 207 2064
	sw	t1,1568(s5)
	.loc 1 207 2077 is_stmt 1
	.loc 1 207 2177 is_stmt 0
	addi	a5,a5,-96
	mv	t1,a5
	.loc 1 207 2240
	lw	a5,116(sp)
	.loc 1 207 2094
	sw	s10,-864(s4)
	.loc 1 207 2103 is_stmt 1
.LVL172:
	.loc 1 207 2160
	.loc 1 207 2177 is_stmt 0
	sw	ra,24(sp)
	sw	t1,72(sp)
	sw	ra,0(t1)
	.loc 1 207 2218 is_stmt 1
	.loc 1 207 2219
	.loc 1 207 2240 is_stmt 0
	sub	a5,a5,ra
	.loc 1 207 2289
	li	t3,1036288
	.loc 1 207 2235
	sw	a5,0(t2)
	.loc 1 207 2271 is_stmt 1
	.loc 1 207 2272
	.loc 1 207 2289 is_stmt 0
	addi	ra,t3,125
	sw	ra,76(sp)
.LBE139:
	.loc 1 207 2338
	li	t3,393216
.LBB140:
	.loc 1 207 2289
	sw	ra,0(s0)
.LBE140:
	.loc 1 207 2321 is_stmt 1
	.loc 1 207 2322
	.loc 1 207 2338 is_stmt 0
	addi	ra,t3,17
	sw	a0,12(sp)
	sw	ra,32(sp)
	sw	ra,0(a0)
.LBB141:
	.loc 1 207 2428 is_stmt 1
.LVL173:
	.loc 1 207 2473
	.loc 1 207 2490 is_stmt 0
	li	a0,4096
	sw	a0,0(a7)
	.loc 1 207 2502 is_stmt 1
	.loc 1 207 2519 is_stmt 0
	sw	s3,0(a6)
	.loc 1 207 2525 is_stmt 1
	.loc 1 207 2542 is_stmt 0
	lw	a5,20(sp)
	.loc 1 207 2676
	li	ra,48
	.loc 1 207 2542
	sw	a5,0(s1)
	.loc 1 207 2570 is_stmt 1
	.loc 1 207 2587 is_stmt 0
	sw	zero,-992(s8)
	.loc 1 207 2599 is_stmt 1
	.loc 1 207 2616 is_stmt 0
	sw	a1,0(t4)
	.loc 1 207 2659 is_stmt 1
	.loc 1 207 2739 is_stmt 0
	li	a5,287
	.loc 1 207 2676
	sw	ra,0(t0)
	.loc 1 207 2722 is_stmt 1
	.loc 1 207 2739 is_stmt 0
	sw	a5,0(t5)
	.loc 1 207 2744 is_stmt 1
	.loc 1 207 2761 is_stmt 0
	lw	t1,4(sp)
	sw	zero,-1120(t1)
	.loc 1 207 2764 is_stmt 1
	.loc 1 207 2780 is_stmt 0
	sw	s3,672(s6)
	.loc 1 207 2823 is_stmt 1
	.loc 1 207 2839 is_stmt 0
	li	t1,8
	sw	t1,0(s7)
	.loc 1 207 2865 is_stmt 1
	.loc 1 207 2882 is_stmt 0
	sw	a5,1568(s5)
	.loc 1 207 2887 is_stmt 1
	.loc 1 207 2904 is_stmt 0
	sw	zero,-864(s4)
	.loc 1 207 2907 is_stmt 1
	.loc 1 207 2923 is_stmt 0
	sw	a2,0(a3)
	.loc 1 207 2961 is_stmt 1
	.loc 1 207 2977 is_stmt 0
	lw	t3,0(sp)
	li	t1,1
	sw	t1,0(t3)
	.loc 1 207 2988 is_stmt 1
	.loc 1 207 3005 is_stmt 0
	sw	a5,0(a4)
	.loc 1 207 3010 is_stmt 1
	.loc 1 207 3027 is_stmt 0
	lw	t1,8(sp)
	.loc 1 207 3046
	li	t3,524288
	addi	t3,t3,16
	.loc 1 207 3027
	sw	zero,-1248(t1)
	.loc 1 207 3030 is_stmt 1
	.loc 1 207 3046 is_stmt 0
	sw	t3,0(t2)
	.loc 1 207 3163 is_stmt 1
	.loc 1 207 3180 is_stmt 0
	lw	t1,16(sp)
	.loc 1 207 3328
	li	t3,1032192
	.loc 1 207 3180
	sw	t6,0(t1)
	.loc 1 207 3311 is_stmt 1
	.loc 1 207 3328 is_stmt 0
	addi	t1,t3,1151
	sw	t1,80(sp)
	sw	t1,0(s0)
.LBE141:
.LBB142:
	.loc 1 207 3361 is_stmt 1
.LVL174:
	.loc 1 207 3562
	.loc 1 207 3578 is_stmt 0
	lw	t3,0(sp)
	.loc 1 207 3931
	li	t1,16
	.loc 1 207 3578
	sw	s11,0(t3)
	.loc 1 207 3663 is_stmt 1
	.loc 1 207 3679 is_stmt 0
	sw	a2,0(a3)
	.loc 1 207 3685 is_stmt 1
	.loc 1 207 3702 is_stmt 0
	li	s11,767
	sw	s11,0(a4)
	.loc 1 207 3812 is_stmt 1
	.loc 1 207 3829 is_stmt 0
	lw	s11,8(sp)
	.loc 1 207 4030
	li	t3,95
	.loc 1 207 3829
	sw	zero,-1248(s11)
	.loc 1 207 3914 is_stmt 1
	.loc 1 207 3931 is_stmt 0
	sw	t1,0(t0)
	.loc 1 207 3990 is_stmt 1
	.loc 1 207 4007 is_stmt 0
	sw	a1,0(t4)
	.loc 1 207 4013 is_stmt 1
	.loc 1 207 4030 is_stmt 0
	sw	t3,0(t5)
	.loc 1 207 0 is_stmt 1
	lw	s11,4(sp)
	li	t1,4
	sw	zero,-1120(s11)
	.loc 1 207 0
	sw	t1,0(a7)
	.loc 1 207 0
	sw	s3,0(a6)
	.loc 1 207 0
	li	t1,15
	sw	t1,0(s1)
	.loc 1 207 0
	mv	t3,t1
	sw	zero,-992(s8)
	.loc 1 207 0
	li	t1,1
	sw	t1,0(s7)
	.loc 1 207 0
	sw	s3,672(s6)
	.loc 1 207 0
	sw	s3,1568(s5)
	.loc 1 207 0
	sw	zero,-864(s4)
	.loc 1 207 0
.LVL175:
	.loc 1 207 0
	sw	zero,0(t2)
	.loc 1 207 0
	.loc 1 207 0
	lw	s11,40(sp)
	sw	s11,0(s0)
.LBE142:
	.loc 1 207 0
	.loc 1 207 0
	lw	t1,12(sp)
	lw	s11,32(sp)
	sw	s11,0(t1)
.LBB143:
	.loc 1 210 3
.LVL176:
	.loc 1 210 204
	.loc 1 210 220 is_stmt 0
	lw	t1,0(sp)
	li	s11,96
	sw	s11,0(t1)
	.loc 1 210 305 is_stmt 1
	.loc 1 210 321 is_stmt 0
	sw	a2,0(a3)
	.loc 1 210 327 is_stmt 1
	.loc 1 210 344 is_stmt 0
	li	t1,767
	sw	t1,0(a4)
	.loc 1 210 454 is_stmt 1
	.loc 1 210 471 is_stmt 0
	lw	s11,8(sp)
	.loc 1 210 573
	li	t1,16
	.loc 1 210 471
	sw	zero,-1248(s11)
	.loc 1 210 556 is_stmt 1
	.loc 1 210 573 is_stmt 0
	sw	t1,0(t0)
	.loc 1 210 632 is_stmt 1
	.loc 1 210 649 is_stmt 0
	sw	a1,0(t4)
	.loc 1 210 655 is_stmt 1
	.loc 1 210 672 is_stmt 0
	li	s11,95
	sw	s11,0(t5)
	.loc 1 210 761 is_stmt 1
	.loc 1 210 778 is_stmt 0
	lw	s11,4(sp)
	.loc 1 210 854
	li	t1,4
	.loc 1 210 778
	sw	zero,-1120(s11)
	.loc 1 210 837 is_stmt 1
	.loc 1 210 854 is_stmt 0
	sw	t1,0(a7)
	.loc 1 210 895 is_stmt 1
	.loc 1 210 912 is_stmt 0
	sw	s3,0(a6)
	.loc 1 210 918 is_stmt 1
	.loc 1 210 935 is_stmt 0
	sw	t3,0(s1)
	.loc 1 210 998 is_stmt 1
	.loc 1 210 1015 is_stmt 0
	sw	zero,-992(s8)
	.loc 1 210 1056 is_stmt 1
	.loc 1 210 1072 is_stmt 0
	li	t1,1
	sw	t1,0(s7)
	.loc 1 210 1083 is_stmt 1
	.loc 1 210 1099 is_stmt 0
	sw	s3,672(s6)
	.loc 1 210 1105 is_stmt 1
	.loc 1 210 1122 is_stmt 0
	sw	s3,1568(s5)
	.loc 1 210 1163 is_stmt 1
	.loc 1 210 1180 is_stmt 0
	sw	zero,-864(s4)
	.loc 1 210 1189 is_stmt 1
.LVL177:
	.loc 1 210 1390
	.loc 1 210 1406 is_stmt 0
	sw	zero,0(t2)
	.loc 1 210 1435 is_stmt 1
	.loc 1 210 1436
	.loc 1 210 1453 is_stmt 0
	lw	t3,16(sp)
.LBE143:
.LBB144:
	.loc 1 210 2014
	li	t1,1
.LBE144:
.LBB145:
	.loc 1 210 1453
	sw	t6,0(t3)
	.loc 1 210 1492 is_stmt 1
	.loc 1 210 1509 is_stmt 0
	sw	s2,64(sp)
	sw	s2,0(s0)
.LBE145:
.LBB146:
	.loc 1 210 1542 is_stmt 1
.LVL178:
	.loc 1 210 1722
	.loc 1 210 1739 is_stmt 0
	sw	s9,0(t0)
	.loc 1 210 1766 is_stmt 1
	.loc 1 210 1783 is_stmt 0
	sw	a2,0(t4)
	.loc 1 210 1789 is_stmt 1
	.loc 1 210 1806 is_stmt 0
	lw	s9,44(sp)
	sw	s9,0(t5)
	.loc 1 210 1842 is_stmt 1
	.loc 1 210 1859 is_stmt 0
	lw	s2,48(sp)
	sw	s11,4(sp)
	sw	s2,-1120(s11)
	.loc 1 210 1886 is_stmt 1
	.loc 1 210 1903 is_stmt 0
	lw	s11,36(sp)
	sw	s11,0(a7)
	.loc 1 210 1916 is_stmt 1
	.loc 1 210 1933 is_stmt 0
	sw	a1,0(a6)
	.loc 1 210 1939 is_stmt 1
	.loc 1 210 1956 is_stmt 0
	lw	s9,68(sp)
	sw	s9,0(s1)
	.loc 1 210 1968 is_stmt 1
	.loc 1 210 1985 is_stmt 0
	sw	zero,-992(s8)
	.loc 1 210 1998 is_stmt 1
	.loc 1 210 2014 is_stmt 0
	sw	t1,0(s7)
	.loc 1 210 2025 is_stmt 1
	.loc 1 210 2041 is_stmt 0
	li	t1,15
	sw	t1,672(s6)
	.loc 1 210 2047 is_stmt 1
	.loc 1 210 2064 is_stmt 0
	lw	s2,52(sp)
	sw	s2,1568(s5)
	.loc 1 210 2077 is_stmt 1
	.loc 1 210 2094 is_stmt 0
	sw	s10,-864(s4)
	.loc 1 210 2103 is_stmt 1
.LVL179:
	.loc 1 210 2160
	.loc 1 210 2177 is_stmt 0
	lw	t1,24(sp)
	lw	s9,72(sp)
	sw	t1,0(s9)
	.loc 1 210 2218 is_stmt 1
	.loc 1 210 2219
	.loc 1 210 2240 is_stmt 0
	lw	s9,120(sp)
	sw	t1,24(sp)
	sub	s9,s9,t1
	.loc 1 210 2235
	sw	s9,0(t2)
	.loc 1 210 2271 is_stmt 1
	.loc 1 210 2272
	.loc 1 210 2289 is_stmt 0
	lw	s9,76(sp)
	sw	s9,0(s0)
.LBE146:
	.loc 1 210 2321 is_stmt 1
	.loc 1 210 2322
	.loc 1 210 2338 is_stmt 0
	lw	t1,12(sp)
	lw	s11,32(sp)
	sw	s11,0(t1)
.LBB147:
	.loc 1 210 2428 is_stmt 1
.LVL180:
	.loc 1 210 2473
	.loc 1 210 2490 is_stmt 0
	sw	a0,0(a7)
	.loc 1 210 2502 is_stmt 1
	.loc 1 210 2519 is_stmt 0
	sw	s3,0(a6)
	.loc 1 210 2525 is_stmt 1
	.loc 1 210 2542 is_stmt 0
	lw	t1,20(sp)
	sw	t1,0(s1)
	.loc 1 210 2570 is_stmt 1
	.loc 1 210 2587 is_stmt 0
	sw	zero,-992(s8)
	.loc 1 210 2599 is_stmt 1
	.loc 1 210 2616 is_stmt 0
	sw	a1,0(t4)
	.loc 1 210 2659 is_stmt 1
	.loc 1 210 2676 is_stmt 0
	sw	ra,0(t0)
	.loc 1 210 2722 is_stmt 1
	.loc 1 210 2739 is_stmt 0
	sw	a5,0(t5)
	.loc 1 210 2744 is_stmt 1
	.loc 1 210 2761 is_stmt 0
	lw	s11,4(sp)
	.loc 1 210 2839
	li	t1,8
	.loc 1 210 2761
	sw	zero,-1120(s11)
	.loc 1 210 2764 is_stmt 1
	.loc 1 210 2780 is_stmt 0
	sw	s3,672(s6)
	.loc 1 210 2823 is_stmt 1
	.loc 1 210 2839 is_stmt 0
	sw	t1,0(s7)
	.loc 1 210 2865 is_stmt 1
	.loc 1 210 2882 is_stmt 0
	sw	a5,1568(s5)
	.loc 1 210 2887 is_stmt 1
	.loc 1 210 2904 is_stmt 0
	sw	zero,-864(s4)
	.loc 1 210 2907 is_stmt 1
	.loc 1 210 2923 is_stmt 0
	sw	a2,0(a3)
	.loc 1 210 2961 is_stmt 1
	.loc 1 210 2977 is_stmt 0
	lw	s9,0(sp)
	li	t1,1
.LBE147:
.LBB148:
	.loc 1 210 3580
	li	s11,96
.LBE148:
.LBB149:
	.loc 1 210 2977
	sw	t1,0(s9)
	.loc 1 210 2988 is_stmt 1
	.loc 1 210 3005 is_stmt 0
	sw	a5,0(a4)
	.loc 1 210 3010 is_stmt 1
	.loc 1 210 3027 is_stmt 0
	lw	s2,8(sp)
	.loc 1 210 3046
	li	s9,524288
	addi	s9,s9,304
	.loc 1 210 3027
	sw	zero,-1248(s2)
	.loc 1 210 3030 is_stmt 1
	.loc 1 210 3046 is_stmt 0
	sw	s9,0(t2)
	.loc 1 210 3165 is_stmt 1
	.loc 1 210 3182 is_stmt 0
	sw	t6,0(t3)
	.loc 1 210 3313 is_stmt 1
	.loc 1 210 3330 is_stmt 0
	lw	s9,80(sp)
	.loc 1 210 3182
	mv	s2,t3
.LBE149:
.LBB150:
	.loc 1 210 3704
	li	t3,767
.LBE150:
.LBB151:
	.loc 1 210 3330
	sw	s9,0(s0)
.LBE151:
.LBB152:
	.loc 1 210 3363 is_stmt 1
.LVL181:
	.loc 1 210 3564
	.loc 1 210 3580 is_stmt 0
	lw	s9,0(sp)
	.loc 1 210 4032
	li	t6,95
	.loc 1 210 3580
	sw	s11,0(s9)
	.loc 1 210 3665 is_stmt 1
	.loc 1 210 3681 is_stmt 0
	sw	a2,0(a3)
	.loc 1 210 3687 is_stmt 1
	.loc 1 210 3704 is_stmt 0
	sw	t3,0(a4)
	.loc 1 210 3814 is_stmt 1
	.loc 1 210 3831 is_stmt 0
	lw	t1,8(sp)
	.loc 1 210 3933
	li	t3,16
	.loc 1 210 3831
	sw	zero,-1248(t1)
	.loc 1 210 3916 is_stmt 1
	.loc 1 210 3933 is_stmt 0
	sw	t3,0(t0)
	.loc 1 210 3992 is_stmt 1
	.loc 1 210 4009 is_stmt 0
	sw	a1,0(t4)
	.loc 1 210 4015 is_stmt 1
	.loc 1 210 4032 is_stmt 0
	sw	t6,0(t5)
	.loc 1 210 0 is_stmt 1
	lw	t6,4(sp)
	li	t3,15
	sw	zero,-1120(t6)
	.loc 1 210 0
	li	t6,4
	sw	t6,0(a7)
	.loc 1 210 0
	sw	s3,0(a6)
	.loc 1 210 0
	sw	t3,0(s1)
	.loc 1 210 0
	sw	zero,-992(s8)
	.loc 1 210 0
	li	t3,1
	sw	t3,0(s7)
	.loc 1 210 0
	sw	s3,672(s6)
	.loc 1 210 0
	sw	s3,1568(s5)
	.loc 1 210 0
	sw	zero,-864(s4)
	.loc 1 210 0
.LVL182:
	.loc 1 210 0
	sw	zero,0(t2)
	.loc 1 210 0
	.loc 1 210 0
	lw	t6,40(sp)
	sw	t6,0(s0)
.LBE152:
	.loc 1 210 0
	.loc 1 210 0
	lw	t1,12(sp)
	lw	s11,32(sp)
	sw	s11,0(t1)
.LBB153:
	.loc 1 216 3
.LVL183:
	.loc 1 216 42
	.loc 1 216 58 is_stmt 0
	sw	s9,0(sp)
	sw	a0,0(s9)
	.loc 1 216 70 is_stmt 1
	.loc 1 216 86 is_stmt 0
	li	s11,2
	sw	s11,0(a3)
	.loc 1 216 92 is_stmt 1
	.loc 1 216 109 is_stmt 0
	lw	t6,20(sp)
	.loc 1 216 945
	li	s9,1032192
	addi	s11,s9,127
	.loc 1 216 109
	sw	t6,0(a4)
	.loc 1 216 137 is_stmt 1
	.loc 1 216 154 is_stmt 0
	lw	t1,8(sp)
.LBE153:
.LBB154:
	.loc 1 216 1090
	li	s9,12288
.LBE154:
.LBB155:
	.loc 1 216 154
	sw	zero,-1248(t1)
	.loc 1 216 166 is_stmt 1
	.loc 1 216 183 is_stmt 0
	sw	a1,0(t4)
	.loc 1 216 228 is_stmt 1
	.loc 1 216 245 is_stmt 0
	sw	ra,0(t0)
	.loc 1 216 291 is_stmt 1
	.loc 1 216 308 is_stmt 0
	sw	a5,0(t5)
	.loc 1 216 313 is_stmt 1
	.loc 1 216 330 is_stmt 0
	lw	t6,4(sp)
	.loc 1 216 779
	li	t1,144
	.loc 1 216 330
	sw	zero,-1120(t6)
	.loc 1 216 333 is_stmt 1
	.loc 1 216 350 is_stmt 0
	sw	zero,0(a6)
	.loc 1 216 407 is_stmt 1
	.loc 1 216 424 is_stmt 0
	li	t6,8
	sw	t6,0(a7)
	.loc 1 216 450 is_stmt 1
	.loc 1 216 467 is_stmt 0
	sw	a5,0(s1)
	.loc 1 216 472 is_stmt 1
	.loc 1 216 489 is_stmt 0
	sw	zero,-992(s8)
	.loc 1 216 492 is_stmt 1
	.loc 1 216 508 is_stmt 0
	sw	a2,672(s6)
	.loc 1 216 548 is_stmt 1
	.loc 1 216 564 is_stmt 0
	sw	t3,0(s7)
	.loc 1 216 575 is_stmt 1
	.loc 1 216 592 is_stmt 0
	sw	a5,1568(s5)
	.loc 1 216 597 is_stmt 1
	.loc 1 216 633 is_stmt 0
	li	t3,524288
	addi	t3,t3,48
	.loc 1 216 614
	sw	zero,-864(s4)
	.loc 1 216 617 is_stmt 1
	.loc 1 216 633 is_stmt 0
	sw	t3,0(t2)
	.loc 1 216 762 is_stmt 1
	.loc 1 216 779 is_stmt 0
	sw	s2,16(sp)
	sw	t1,0(s2)
	.loc 1 216 928 is_stmt 1
	.loc 1 216 945 is_stmt 0
	sw	s11,0(s0)
.LBE155:
.LBB156:
	.loc 1 216 978 is_stmt 1
.LVL184:
	.loc 1 216 1023
	.loc 1 216 1039 is_stmt 0
	lw	t1,0(sp)
	.loc 1 216 1067
	li	s2,2
	.loc 1 216 1724
	li	t3,1032192
	.loc 1 216 1039
	sw	a0,0(t1)
	.loc 1 216 1051 is_stmt 1
	.loc 1 216 1067 is_stmt 0
	sw	s2,0(a3)
	.loc 1 216 1073 is_stmt 1
	.loc 1 216 1090 is_stmt 0
	addi	s2,s9,-1
	sw	s2,0(a4)
	.loc 1 216 1118 is_stmt 1
	.loc 1 216 1135 is_stmt 0
	lw	t1,8(sp)
	.loc 1 216 1724
	addi	t3,t3,125
	.loc 1 216 1135
	sw	a0,-1248(t1)
	.loc 1 216 1147 is_stmt 1
	.loc 1 216 1164 is_stmt 0
	sw	a1,0(t4)
	.loc 1 216 1209 is_stmt 1
	.loc 1 216 1226 is_stmt 0
	sw	ra,0(t0)
	.loc 1 216 1272 is_stmt 1
	.loc 1 216 1289 is_stmt 0
	sw	a5,0(t5)
	.loc 1 216 1294 is_stmt 1
	.loc 1 216 1311 is_stmt 0
	lw	s9,4(sp)
	sw	zero,-1120(s9)
	.loc 1 216 1314 is_stmt 1
	.loc 1 216 1331 is_stmt 0
	sw	zero,0(a6)
	.loc 1 216 1364 is_stmt 1
	.loc 1 216 1381 is_stmt 0
	sw	t6,0(a7)
	.loc 1 216 1407 is_stmt 1
	.loc 1 216 1424 is_stmt 0
	sw	a5,0(s1)
	.loc 1 216 1429 is_stmt 1
	.loc 1 216 1446 is_stmt 0
	sw	zero,-992(s8)
	.loc 1 216 1449 is_stmt 1
	.loc 1 216 1465 is_stmt 0
	sw	a2,672(s6)
	.loc 1 216 1505 is_stmt 1
	.loc 1 216 1521 is_stmt 0
	li	t6,1
	sw	t6,0(s7)
	.loc 1 216 1532 is_stmt 1
	.loc 1 216 1549 is_stmt 0
	sw	a5,1568(s5)
	.loc 1 216 1554 is_stmt 1
	.loc 1 216 1590 is_stmt 0
	li	t6,528384
	.loc 1 216 1571
	sw	zero,-864(s4)
	.loc 1 216 1574 is_stmt 1
	.loc 1 216 1590 is_stmt 0
	addi	t6,t6,16
	sw	t6,0(t2)
	.loc 1 216 1707 is_stmt 1
	.loc 1 216 1724 is_stmt 0
	sw	t3,0(s0)
.LBE156:
	.loc 1 216 1756 is_stmt 1
	.loc 1 216 1757
	.loc 1 216 1773 is_stmt 0
	lw	s9,12(sp)
	li	t6,393216
	addi	t6,t6,9
	sw	t6,0(s9)
.LBB157:
	.loc 1 220 3 is_stmt 1
.LVL185:
	.loc 1 220 48
	.loc 1 220 64 is_stmt 0
	lw	t1,0(sp)
	.loc 1 220 92
	li	t6,2
	.loc 1 220 64
	sw	a0,0(t1)
	.loc 1 220 76 is_stmt 1
	.loc 1 220 92 is_stmt 0
	sw	t6,0(a3)
	.loc 1 220 98 is_stmt 1
	.loc 1 220 115 is_stmt 0
	sw	s2,68(sp)
	sw	s2,0(a4)
	.loc 1 220 143 is_stmt 1
	.loc 1 220 160 is_stmt 0
	lw	t1,8(sp)
	.loc 1 220 402
	li	t6,8
	.loc 1 220 160
	sw	a0,-1248(t1)
	.loc 1 220 172 is_stmt 1
	.loc 1 220 189 is_stmt 0
	sw	a1,0(t4)
	.loc 1 220 234 is_stmt 1
	.loc 1 220 251 is_stmt 0
	sw	ra,0(t0)
	.loc 1 220 297 is_stmt 1
	.loc 1 220 314 is_stmt 0
	sw	a5,0(t5)
	.loc 1 220 319 is_stmt 1
	.loc 1 220 336 is_stmt 0
	lw	s2,4(sp)
	.loc 1 220 402
	mv	t1,t6
	.loc 1 220 336
	sw	zero,-1120(s2)
	.loc 1 220 339 is_stmt 1
	.loc 1 220 356 is_stmt 0
	sw	zero,0(a6)
	.loc 1 220 385 is_stmt 1
	.loc 1 220 402 is_stmt 0
	sw	t6,0(a7)
	.loc 1 220 428 is_stmt 1
	.loc 1 220 445 is_stmt 0
	sw	a5,0(s1)
	.loc 1 220 450 is_stmt 1
	.loc 1 220 467 is_stmt 0
	sw	zero,-992(s8)
	.loc 1 220 470 is_stmt 1
	.loc 1 220 486 is_stmt 0
	sw	a2,672(s6)
	.loc 1 220 526 is_stmt 1
	.loc 1 220 542 is_stmt 0
	li	t6,1
	sw	t6,0(s7)
	.loc 1 220 553 is_stmt 1
	.loc 1 220 570 is_stmt 0
	sw	a5,1568(s5)
	.loc 1 220 575 is_stmt 1
	.loc 1 220 611 is_stmt 0
	li	t6,528384
	.loc 1 220 592
	sw	zero,-864(s4)
	.loc 1 220 595 is_stmt 1
	.loc 1 220 611 is_stmt 0
	addi	t6,t6,8
	sw	t6,0(t2)
	.loc 1 220 726 is_stmt 1
	.loc 1 220 743 is_stmt 0
	lw	t6,16(sp)
	li	s2,144
	sw	s2,0(t6)
	.loc 1 220 864 is_stmt 1
	.loc 1 220 881 is_stmt 0
	sw	s11,0(s0)
.LBE157:
.LBB158:
	.loc 1 220 914 is_stmt 1
.LVL186:
	.loc 1 220 953
	.loc 1 220 969 is_stmt 0
	lw	s2,0(sp)
	sw	a0,0(s2)
	.loc 1 220 981 is_stmt 1
	.loc 1 220 997 is_stmt 0
	li	s2,2
	sw	s2,0(a3)
	.loc 1 220 1003 is_stmt 1
	.loc 1 220 1020 is_stmt 0
	lw	t6,20(sp)
	sw	t6,0(a4)
	.loc 1 220 1048 is_stmt 1
	.loc 1 220 1065 is_stmt 0
	lw	t6,8(sp)
	sw	zero,-1248(t6)
	.loc 1 220 1077 is_stmt 1
	.loc 1 220 1094 is_stmt 0
	sw	a1,0(t4)
	.loc 1 220 1139 is_stmt 1
	.loc 1 220 1156 is_stmt 0
	sw	ra,0(t0)
	.loc 1 220 1202 is_stmt 1
	.loc 1 220 1219 is_stmt 0
	sw	a5,0(t5)
	.loc 1 220 1224 is_stmt 1
	.loc 1 220 1241 is_stmt 0
	lw	s2,4(sp)
	.loc 1 220 1469
	li	t6,1
	.loc 1 220 1241
	sw	zero,-1120(s2)
	.loc 1 220 1244 is_stmt 1
	.loc 1 220 1261 is_stmt 0
	sw	zero,0(a6)
	.loc 1 220 1312 is_stmt 1
	.loc 1 220 1329 is_stmt 0
	sw	t1,0(a7)
	.loc 1 220 1355 is_stmt 1
	.loc 1 220 1372 is_stmt 0
	sw	a5,0(s1)
	.loc 1 220 1377 is_stmt 1
	.loc 1 220 1394 is_stmt 0
	sw	zero,-992(s8)
	.loc 1 220 1397 is_stmt 1
	.loc 1 220 1413 is_stmt 0
	sw	a2,672(s6)
	.loc 1 220 1453 is_stmt 1
	.loc 1 220 1469 is_stmt 0
	sw	t6,0(s7)
	.loc 1 220 1480 is_stmt 1
	.loc 1 220 1497 is_stmt 0
	sw	a5,1568(s5)
	.loc 1 220 1502 is_stmt 1
	.loc 1 220 1538 is_stmt 0
	li	t6,524288
	.loc 1 220 1519
	sw	zero,-864(s4)
	.loc 1 220 1522 is_stmt 1
	.loc 1 220 1538 is_stmt 0
	addi	t6,t6,40
	sw	t6,0(t2)
	.loc 1 220 1663 is_stmt 1
	.loc 1 220 1680 is_stmt 0
	sw	t3,0(s0)
.LBE158:
	.loc 1 220 1712 is_stmt 1
	.loc 1 220 1713
	.loc 1 220 1729 is_stmt 0
	sw	s9,12(sp)
	mv	t6,s9
	lw	s9,56(sp)
	sw	s9,0(t6)
.LBB159:
	.loc 1 224 3 is_stmt 1
.LVL187:
	.loc 1 224 42
	.loc 1 224 58 is_stmt 0
	lw	s2,0(sp)
	sw	a0,0(s2)
	.loc 1 224 70 is_stmt 1
	.loc 1 224 86 is_stmt 0
	li	s2,2
	sw	s2,0(a3)
	.loc 1 224 92 is_stmt 1
	.loc 1 224 109 is_stmt 0
	lw	t6,20(sp)
	sw	t6,0(a4)
	.loc 1 224 137 is_stmt 1
	.loc 1 224 154 is_stmt 0
	lw	t6,8(sp)
	sw	zero,-1248(t6)
	.loc 1 224 166 is_stmt 1
	.loc 1 224 183 is_stmt 0
	sw	a1,0(t4)
	.loc 1 224 228 is_stmt 1
	.loc 1 224 245 is_stmt 0
	sw	ra,0(t0)
	.loc 1 224 291 is_stmt 1
	.loc 1 224 308 is_stmt 0
	sw	a5,0(t5)
	.loc 1 224 313 is_stmt 1
	.loc 1 224 330 is_stmt 0
	lw	s2,4(sp)
	.loc 1 224 564
	li	t6,1
	.loc 1 224 330
	sw	zero,-1120(s2)
	.loc 1 224 333 is_stmt 1
	.loc 1 224 350 is_stmt 0
	sw	zero,0(a6)
	.loc 1 224 407 is_stmt 1
	.loc 1 224 424 is_stmt 0
	sw	t1,0(a7)
	.loc 1 224 450 is_stmt 1
	.loc 1 224 467 is_stmt 0
	sw	a5,0(s1)
	.loc 1 224 472 is_stmt 1
	.loc 1 224 489 is_stmt 0
	sw	zero,-992(s8)
	.loc 1 224 492 is_stmt 1
	.loc 1 224 508 is_stmt 0
	sw	a2,672(s6)
	.loc 1 224 548 is_stmt 1
	.loc 1 224 564 is_stmt 0
	sw	t6,0(s7)
	.loc 1 224 575 is_stmt 1
	.loc 1 224 592 is_stmt 0
	sw	a5,1568(s5)
	.loc 1 224 597 is_stmt 1
	.loc 1 224 633 is_stmt 0
	li	t6,524288
	.loc 1 224 614
	sw	zero,-864(s4)
	.loc 1 224 617 is_stmt 1
	.loc 1 224 633 is_stmt 0
	addi	t6,t6,336
	sw	t6,0(t2)
	.loc 1 224 764 is_stmt 1
	.loc 1 224 781 is_stmt 0
	lw	t6,16(sp)
	li	s2,144
	sw	s2,0(t6)
	.loc 1 224 930 is_stmt 1
	.loc 1 224 947 is_stmt 0
	sw	s11,0(s0)
.LBE159:
.LBB160:
	.loc 1 224 980 is_stmt 1
.LVL188:
	.loc 1 224 1025
	.loc 1 224 1041 is_stmt 0
	lw	s2,0(sp)
	sw	a0,0(s2)
	.loc 1 224 1053 is_stmt 1
	.loc 1 224 1069 is_stmt 0
	li	s2,2
	sw	s2,0(a3)
	.loc 1 224 1075 is_stmt 1
	.loc 1 224 1092 is_stmt 0
	lw	s2,68(sp)
	sw	s2,0(a4)
	.loc 1 224 1120 is_stmt 1
	.loc 1 224 1137 is_stmt 0
	lw	t6,8(sp)
	sw	a0,-1248(t6)
	.loc 1 224 1149 is_stmt 1
	.loc 1 224 1166 is_stmt 0
	sw	a1,0(t4)
	.loc 1 224 1211 is_stmt 1
	.loc 1 224 1228 is_stmt 0
	sw	ra,0(t0)
	.loc 1 224 1274 is_stmt 1
	.loc 1 224 1291 is_stmt 0
	sw	a5,0(t5)
	.loc 1 224 1296 is_stmt 1
	.loc 1 224 1313 is_stmt 0
	lw	t6,4(sp)
	sw	zero,-1120(t6)
	.loc 1 224 1316 is_stmt 1
	.loc 1 224 1333 is_stmt 0
	sw	zero,0(a6)
	.loc 1 224 1366 is_stmt 1
	.loc 1 224 1383 is_stmt 0
	sw	t1,0(a7)
	.loc 1 224 1409 is_stmt 1
	.loc 1 224 1426 is_stmt 0
	sw	a5,0(s1)
	.loc 1 224 1431 is_stmt 1
	.loc 1 224 1448 is_stmt 0
	sw	zero,-992(s8)
	.loc 1 224 1451 is_stmt 1
	.loc 1 224 1467 is_stmt 0
	sw	a2,672(s6)
	.loc 1 224 1507 is_stmt 1
	.loc 1 224 1523 is_stmt 0
	li	t6,1
	sw	t6,0(s7)
	.loc 1 224 1534 is_stmt 1
	.loc 1 224 1551 is_stmt 0
	sw	a5,1568(s5)
	.loc 1 224 1556 is_stmt 1
	.loc 1 224 1592 is_stmt 0
	li	t6,528384
	.loc 1 224 1573
	sw	zero,-864(s4)
	.loc 1 224 1576 is_stmt 1
	.loc 1 224 1592 is_stmt 0
	addi	t6,t6,304
	sw	t6,0(t2)
	.loc 1 224 1711 is_stmt 1
	.loc 1 224 1728 is_stmt 0
	sw	t3,0(s0)
.LBE160:
	.loc 1 224 1760 is_stmt 1
	.loc 1 224 1761
	.loc 1 224 1777 is_stmt 0
	lw	t6,12(sp)
	sw	s9,0(t6)
.LBB161:
	.loc 1 228 3 is_stmt 1
.LVL189:
	.loc 1 228 48
	.loc 1 228 64 is_stmt 0
	lw	t6,0(sp)
	sw	a0,0(t6)
	.loc 1 228 76 is_stmt 1
	.loc 1 228 92 is_stmt 0
	li	t6,2
	sw	t6,0(a3)
	.loc 1 228 98 is_stmt 1
	.loc 1 228 115 is_stmt 0
	sw	s2,0(a4)
	.loc 1 228 143 is_stmt 1
	.loc 1 228 160 is_stmt 0
	lw	s2,8(sp)
	.loc 1 228 611
	li	t6,528384
	addi	t6,t6,296
	.loc 1 228 160
	sw	a0,-1248(s2)
	.loc 1 228 172 is_stmt 1
	.loc 1 228 189 is_stmt 0
	sw	a1,0(t4)
	.loc 1 228 234 is_stmt 1
	.loc 1 228 251 is_stmt 0
	sw	ra,0(t0)
	.loc 1 228 297 is_stmt 1
	.loc 1 228 314 is_stmt 0
	sw	a5,0(t5)
	.loc 1 228 319 is_stmt 1
	.loc 1 228 336 is_stmt 0
	lw	s2,4(sp)
	sw	zero,-1120(s2)
	.loc 1 228 339 is_stmt 1
	.loc 1 228 356 is_stmt 0
	sw	zero,0(a6)
	.loc 1 228 385 is_stmt 1
	.loc 1 228 402 is_stmt 0
	sw	t1,0(a7)
	.loc 1 228 428 is_stmt 1
	.loc 1 228 445 is_stmt 0
	sw	a5,0(s1)
	.loc 1 228 450 is_stmt 1
	.loc 1 228 467 is_stmt 0
	sw	zero,-992(s8)
	.loc 1 228 470 is_stmt 1
	.loc 1 228 486 is_stmt 0
	sw	a2,672(s6)
	.loc 1 228 526 is_stmt 1
	.loc 1 228 542 is_stmt 0
	li	s2,1
	sw	s2,0(s7)
	.loc 1 228 553 is_stmt 1
	.loc 1 228 570 is_stmt 0
	sw	a5,1568(s5)
	.loc 1 228 575 is_stmt 1
	.loc 1 228 592 is_stmt 0
	sw	zero,-864(s4)
	.loc 1 228 595 is_stmt 1
	.loc 1 228 611 is_stmt 0
	sw	t6,0(t2)
	.loc 1 228 728 is_stmt 1
	.loc 1 228 745 is_stmt 0
	lw	t6,16(sp)
	li	s2,144
	sw	s2,0(t6)
	.loc 1 228 866 is_stmt 1
	.loc 1 228 883 is_stmt 0
	sw	s11,0(s0)
.LBE161:
.LBB162:
	.loc 1 228 916 is_stmt 1
.LVL190:
	.loc 1 228 955
	.loc 1 228 983
	.loc 1 228 971 is_stmt 0
	lw	t6,0(sp)
	.loc 1 228 999
	li	s11,2
	.loc 1 228 1471
	li	s2,1
	.loc 1 228 971
	sw	a0,0(t6)
	.loc 1 228 999
	sw	s11,0(a3)
	.loc 1 228 1005 is_stmt 1
	.loc 1 228 1022 is_stmt 0
	lw	s11,20(sp)
	sw	s11,0(a4)
	.loc 1 228 1067
	lw	a0,8(sp)
	.loc 1 228 1022
	sw	a4,92(sp)
	.loc 1 228 1050 is_stmt 1
	.loc 1 228 1067 is_stmt 0
	sw	zero,-1248(a0)
	.loc 1 228 1079 is_stmt 1
	.loc 1 228 1096 is_stmt 0
	sw	a1,0(t4)
	sw	t4,88(sp)
	.loc 1 228 1141 is_stmt 1
	.loc 1 228 1158 is_stmt 0
	sw	ra,0(t0)
	sw	t0,84(sp)
	.loc 1 228 1204 is_stmt 1
	.loc 1 228 1221 is_stmt 0
	sw	a5,0(t5)
	.loc 1 228 1243
	lw	t4,4(sp)
	.loc 1 228 1221
	sw	t5,80(sp)
	.loc 1 228 1226 is_stmt 1
.LBE162:
	.loc 1 237 10 is_stmt 0
	li	a1,-2147483648
.LBB163:
	.loc 1 228 1243
	sw	zero,-1120(t4)
	.loc 1 228 1246 is_stmt 1
	.loc 1 228 1263 is_stmt 0
	sw	zero,0(a6)
	sw	a6,76(sp)
	.loc 1 228 1314 is_stmt 1
	.loc 1 228 1331 is_stmt 0
	sw	t1,0(a7)
	sw	a7,72(sp)
	.loc 1 228 1357 is_stmt 1
	.loc 1 228 1374 is_stmt 0
	sw	a5,0(s1)
	.loc 1 228 1379 is_stmt 1
	.loc 1 228 1396 is_stmt 0
	sw	zero,-992(s8)
	.loc 1 228 1399 is_stmt 1
	.loc 1 228 1455
	.loc 1 228 1415 is_stmt 0
	sw	a2,672(s6)
	.loc 1 228 1471
	sw	s2,0(s7)
	.loc 1 228 1482 is_stmt 1
	.loc 1 228 1499 is_stmt 0
	sw	a5,1568(s5)
	.loc 1 228 1504 is_stmt 1
	.loc 1 228 1540 is_stmt 0
	li	a5,524288
	.loc 1 228 1521
	sw	zero,-864(s4)
	.loc 1 228 1524 is_stmt 1
	.loc 1 228 1540 is_stmt 0
	addi	a5,a5,328
	sw	a5,0(t2)
	sw	t2,68(sp)
	.loc 1 228 1667 is_stmt 1
	.loc 1 228 1684 is_stmt 0
	sw	t3,0(s0)
.LBE163:
	.loc 1 228 1716 is_stmt 1
	.loc 1 228 1717
	.loc 1 228 1733 is_stmt 0
	lw	a4,12(sp)
	.loc 1 235 18
	li	a5,1015820288
	addi	a5,a5,516
	.loc 1 228 1733
	sw	s9,0(a4)
	.loc 1 230 10 is_stmt 1
	.loc 1 235 1
	.loc 1 235 2
	.loc 1 235 18 is_stmt 0
	sw	a5,0(a4)
	.loc 1 237 10 is_stmt 1
	sw	zero,36(a1)
	.loc 1 237 10
.LBB164:
	.loc 1 207 778 is_stmt 0
	addi	a5,t4,-1120
	.loc 1 207 321
	sw	a3,12(sp)
	.loc 1 207 471
	addi	a3,a0,-1248
.LBE164:
	.loc 1 235 18
	mv	s9,a4
.LBB165:
	.loc 1 207 778
	sw	a5,4(sp)
	.loc 1 207 471
	sw	a3,8(sp)
.LBE165:
	.loc 1 237 10
	call	_taskYield
.LVL191:
	.loc 1 237 24 is_stmt 1 discriminator 1
.LBB166:
	.loc 1 241 3
	.loc 1 241 186
	.loc 1 241 202 is_stmt 0
	lw	a0,0(sp)
	li	t1,64
	.loc 1 241 285
	li	a2,7
	.loc 1 241 202
	sw	t1,0(a0)
	.loc 1 241 269 is_stmt 1
	.loc 1 241 285 is_stmt 0
	lw	a3,12(sp)
	.loc 1 241 308
	li	t6,511
	.loc 1 241 740
	li	a6,4
	.loc 1 241 285
	sw	a2,0(a3)
	.loc 1 241 291 is_stmt 1
	.loc 1 241 308 is_stmt 0
	lw	a4,92(sp)
	.loc 1 241 809
	li	t3,15
.LBE166:
.LBB167:
	.loc 1 241 1400
	li	a0,4096
.LBE167:
.LBB168:
	.loc 1 241 308
	sw	t6,0(a4)
	.loc 1 241 400 is_stmt 1
	.loc 1 241 417 is_stmt 0
	lw	a1,8(sp)
	sw	zero,0(a1)
	.loc 1 241 484 is_stmt 1
	.loc 1 241 501 is_stmt 0
	lw	t0,84(sp)
	li	a1,16
	sw	a1,0(t0)
	.loc 1 241 548 is_stmt 1
	.loc 1 241 565 is_stmt 0
	lw	t4,88(sp)
	.loc 1 241 588
	li	a1,63
	.loc 1 241 565
	sw	s3,0(t4)
	.loc 1 241 571 is_stmt 1
	.loc 1 241 588 is_stmt 0
	lw	t5,80(sp)
	sw	a1,0(t5)
	.loc 1 241 659 is_stmt 1
	.loc 1 241 676 is_stmt 0
	lw	a5,4(sp)
	sw	zero,0(a5)
	.loc 1 241 723 is_stmt 1
	.loc 1 241 740 is_stmt 0
	lw	a7,72(sp)
	sw	a6,0(a7)
	.loc 1 241 769 is_stmt 1
	.loc 1 241 786 is_stmt 0
	lw	a6,76(sp)
	sw	s3,0(a6)
	.loc 1 241 792 is_stmt 1
	.loc 1 241 809 is_stmt 0
	sw	t3,0(s1)
	.loc 1 241 860 is_stmt 1
	.loc 1 241 877 is_stmt 0
	sw	zero,-992(s8)
	.loc 1 241 906 is_stmt 1
	.loc 1 241 922 is_stmt 0
	sw	s2,0(s7)
	.loc 1 241 933 is_stmt 1
	.loc 1 241 949 is_stmt 0
	sw	s3,672(s6)
	.loc 1 241 955 is_stmt 1
	.loc 1 241 972 is_stmt 0
	sw	s3,1568(s5)
	.loc 1 241 1001 is_stmt 1
	.loc 1 241 1018 is_stmt 0
	sw	zero,-864(s4)
	.loc 1 241 1027 is_stmt 1
.LVL192:
	.loc 1 241 1186
	.loc 1 241 1202 is_stmt 0
	lw	t2,68(sp)
	.loc 1 241 1249
	li	t3,512
	.loc 1 241 1202
	sw	zero,0(t2)
	.loc 1 241 1231 is_stmt 1
	.loc 1 241 1232
	.loc 1 241 1249 is_stmt 0
	lw	a5,16(sp)
	sw	t3,0(a5)
	.loc 1 241 1288 is_stmt 1
	.loc 1 241 1305 is_stmt 0
	lw	s2,64(sp)
.LBE168:
.LBB169:
	.loc 1 241 1580
	li	a5,32
.LBE169:
.LBB170:
	.loc 1 241 1305
	sw	s2,0(s0)
.LBE170:
.LBB171:
	.loc 1 241 1338 is_stmt 1
.LVL193:
	.loc 1 241 1383
	.loc 1 241 1400 is_stmt 0
	sw	a0,0(a7)
	.loc 1 241 1412 is_stmt 1
	.loc 1 241 1429 is_stmt 0
	sw	s3,0(a6)
	.loc 1 241 1435 is_stmt 1
	.loc 1 241 1452 is_stmt 0
	sw	s11,0(s1)
	.loc 1 241 1480 is_stmt 1
	.loc 1 241 1497 is_stmt 0
	sw	zero,-992(s8)
	.loc 1 241 1509 is_stmt 1
	.loc 1 241 1526 is_stmt 0
	sw	s3,0(t4)
	.loc 1 241 1563 is_stmt 1
	.loc 1 241 1580 is_stmt 0
	sw	a5,0(t0)
	.loc 1 241 1620 is_stmt 1
	.loc 1 241 1637 is_stmt 0
	li	a5,127
	sw	a5,0(t5)
	.loc 1 241 1642 is_stmt 1
	.loc 1 241 1659 is_stmt 0
	lw	s11,4(sp)
	.loc 1 241 1731
	li	a0,8
	.loc 1 241 1869
	li	s2,1
	.loc 1 241 1659
	sw	zero,0(s11)
	.loc 1 241 1662 is_stmt 1
	.loc 1 241 1678 is_stmt 0
	sw	s3,672(s6)
	.loc 1 241 1715 is_stmt 1
	.loc 1 241 1731 is_stmt 0
	sw	a0,0(s7)
	.loc 1 241 1757 is_stmt 1
	.loc 1 241 1774 is_stmt 0
	sw	a5,1568(s5)
	.loc 1 241 1779 is_stmt 1
	.loc 1 241 1796 is_stmt 0
	sw	zero,-864(s4)
	.loc 1 241 1799 is_stmt 1
	.loc 1 241 1815 is_stmt 0
	sw	a2,0(a3)
	.loc 1 241 1853 is_stmt 1
	.loc 1 241 1869 is_stmt 0
	lw	a0,0(sp)
	sw	s2,0(a0)
	.loc 1 241 1880 is_stmt 1
	.loc 1 241 1897 is_stmt 0
	sw	a5,0(a4)
	.loc 1 241 1902 is_stmt 1
	.loc 1 241 1919 is_stmt 0
	lw	s11,8(sp)
	.loc 1 241 1938
	li	a0,524288
	addi	a0,a0,584
	.loc 1 241 1919
	sw	zero,0(s11)
	.loc 1 241 1922 is_stmt 1
	.loc 1 241 2066 is_stmt 0
	li	a5,1032192
	.loc 1 241 1938
	sw	a0,0(t2)
	.loc 1 241 2049 is_stmt 1
	.loc 1 241 2066 is_stmt 0
	addi	a5,a5,1149
	sw	a5,0(s0)
.LBE171:
	.loc 1 241 2098 is_stmt 1
	.loc 1 241 2099
	.loc 1 241 2115 is_stmt 0
	lw	s11,32(sp)
	sw	s9,12(sp)
.LBB172:
	.loc 1 241 2375
	li	a5,31
.LBE172:
	.loc 1 241 2115
	sw	s11,0(s9)
.LBB173:
	.loc 1 241 2205 is_stmt 1
.LVL194:
	.loc 1 241 2328
	.loc 1 241 2345 is_stmt 0
	lw	a0,36(sp)
	sw	a0,0(a7)
.LVL195:
	.loc 1 241 2358 is_stmt 1
	.loc 1 241 2375 is_stmt 0
	sw	a5,0(a6)
	.loc 1 241 2381 is_stmt 1
	.loc 1 241 2398 is_stmt 0
	lw	s9,96(sp)
	.loc 1 241 2465
	li	a5,1
	.loc 1 241 2492
	li	a0,15
	.loc 1 241 2398
	sw	s9,0(s1)
	.loc 1 241 2419 is_stmt 1
	.loc 1 241 2436 is_stmt 0
	lw	s2,48(sp)
	sw	s2,-992(s8)
	.loc 1 241 2449 is_stmt 1
	.loc 1 241 2465 is_stmt 0
	sw	a5,0(s7)
	.loc 1 241 2476 is_stmt 1
	.loc 1 241 2492 is_stmt 0
	sw	a0,672(s6)
	.loc 1 241 2498 is_stmt 1
	.loc 1 241 2515 is_stmt 0
	lw	s2,52(sp)
	.loc 1 241 2697
	li	a0,1036288
	addi	a0,a0,127
	.loc 1 241 2515
	sw	s2,1568(s5)
	.loc 1 241 2528 is_stmt 1
	.loc 1 241 2545 is_stmt 0
	sw	s10,-864(s4)
	.loc 1 241 2554 is_stmt 1
.LVL196:
	.loc 1 241 2585
	.loc 1 241 2620 is_stmt 0
	lw	s2,104(sp)
	.loc 1 241 2606
	lw	s9,24(sp)
	.loc 1 241 2620
	lw	a5,12(s2)
	.loc 1 241 2606
	lw	s2,112(sp)
	.loc 1 241 2620
	srli	a5,a5,1
	.loc 1 241 2606
	sub	s2,s2,s9
	add	a5,a5,s2
	.loc 1 241 2601
	sw	a5,0(t2)
	.loc 1 241 2637 is_stmt 1
	.loc 1 241 2638
	.loc 1 241 2655 is_stmt 0
	lw	a5,16(sp)
	sw	t3,0(a5)
	.loc 1 241 2680 is_stmt 1
	.loc 1 241 2697 is_stmt 0
	sw	a0,0(s0)
.LBE173:
.LBB174:
	.loc 1 241 2730 is_stmt 1
.LVL197:
	.loc 1 241 2913
	.loc 1 241 2929 is_stmt 0
	lw	a0,0(sp)
	.loc 1 241 3649
	li	a5,1
	.loc 1 241 2929
	sw	t1,0(a0)
	.loc 1 241 2996 is_stmt 1
	.loc 1 241 3012 is_stmt 0
	sw	a2,0(a3)
	.loc 1 241 3018 is_stmt 1
	.loc 1 241 3035 is_stmt 0
	sw	t6,0(a4)
	.loc 1 241 3127 is_stmt 1
	.loc 1 241 3144 is_stmt 0
	lw	a3,8(sp)
	.loc 1 241 3536
	li	a0,15
	.loc 1 241 3144
	sw	zero,0(a3)
	.loc 1 241 3211 is_stmt 1
	.loc 1 241 3228 is_stmt 0
	li	a3,16
	sw	a3,0(t0)
	.loc 1 241 3275 is_stmt 1
	.loc 1 241 3292 is_stmt 0
	sw	s3,0(t4)
	.loc 1 241 3298 is_stmt 1
	.loc 1 241 3315 is_stmt 0
	sw	a1,0(t5)
	.loc 1 241 3386 is_stmt 1
	.loc 1 241 3403 is_stmt 0
	lw	a4,4(sp)
	.loc 1 241 3467
	li	a3,4
	.loc 1 241 3403
	sw	zero,0(a4)
	.loc 1 241 3450 is_stmt 1
	.loc 1 241 3467 is_stmt 0
	sw	a3,0(a7)
	.loc 1 241 3496 is_stmt 1
	.loc 1 241 3513 is_stmt 0
	sw	s3,0(a6)
	.loc 1 241 3519 is_stmt 1
	.loc 1 241 3536 is_stmt 0
	sw	a0,0(s1)
	.loc 1 241 3587 is_stmt 1
	.loc 1 241 3604 is_stmt 0
	sw	zero,-992(s8)
	.loc 1 241 3633 is_stmt 1
	.loc 1 241 3649 is_stmt 0
	sw	a5,0(s7)
	.loc 1 241 3660 is_stmt 1
	.loc 1 241 3676 is_stmt 0
	sw	s3,672(s6)
	.loc 1 241 3682 is_stmt 1
	.loc 1 241 3699 is_stmt 0
	sw	s3,1568(s5)
	.loc 1 241 3728 is_stmt 1
	.loc 1 241 3745 is_stmt 0
	sw	zero,-864(s4)
	.loc 1 241 3754 is_stmt 1
.LVL198:
	.loc 1 241 3913
	.loc 1 241 3929 is_stmt 0
	sw	zero,0(t2)
	.loc 1 241 3958 is_stmt 1
	.loc 1 241 3959
	.loc 1 241 3976 is_stmt 0
	lw	t6,40(sp)
.LBE174:
	.loc 1 188 17 discriminator 1
	addi	a4,s9,-15
.LBB175:
	.loc 1 241 3976
	sw	t6,0(s0)
.LBE175:
	.loc 1 241 4008 is_stmt 1
	.loc 1 241 4009
	.loc 1 241 4025 is_stmt 0
	lw	a5,12(sp)
	sw	s11,0(a5)
	.loc 1 188 26 is_stmt 1 discriminator 2
	.loc 1 188 17 discriminator 1
	lw	s10,28(sp)
	sw	a4,24(sp)
	lw	a4,108(sp)
	addi	a5,s10,1
	sw	a5,28(sp)
	ble	a4,a5,.L46
.LVL199:
.L33:
	.loc 1 189 10
	.loc 1 192 10
	.loc 1 192 12 is_stmt 0
	lw	a5,28(sp)
	bne	a5,zero,.L31
.LBB176:
	.loc 1 199 3 is_stmt 1
.LVL200:
	.loc 1 199 38
	.loc 1 199 54 is_stmt 0
	lw	a4,0(sp)
	li	s10,4096
	.loc 1 199 82
	li	t6,-2147483648
	.loc 1 199 54
	sw	s10,0(a4)
.LVL201:
	.loc 1 199 66 is_stmt 1
	.loc 1 199 82 is_stmt 0
	sw	zero,928(t6)
	.loc 1 199 88 is_stmt 1
	.loc 1 199 105 is_stmt 0
	lw	s2,20(sp)
	li	t5,-2147483648
	.loc 1 199 150
	li	t4,-2147479552
	.loc 1 199 105
	sw	s2,1440(t5)
	.loc 1 199 133 is_stmt 1
	.loc 1 199 150 is_stmt 0
	sw	zero,-1248(t4)
	.loc 1 199 162 is_stmt 1
	.loc 1 199 179 is_stmt 0
	li	s11,-2147483648
	li	s9,5
	sw	s9,1824(s11)
	.loc 1 199 224 is_stmt 1
	.loc 1 199 241 is_stmt 0
	li	t2,48
	li	t3,-2147483648
	sw	t2,1696(t3)
	.loc 1 199 287 is_stmt 1
	.loc 1 199 304 is_stmt 0
	li	a5,287
.LVL202:
	li	t1,-2147483648
	sw	a5,1952(t1)
	.loc 1 199 309 is_stmt 1
	.loc 1 199 326 is_stmt 0
	li	a7,-2147479552
	sw	zero,-1120(a7)
	.loc 1 199 329 is_stmt 1
	.loc 1 199 346 is_stmt 0
	li	a6,-2147479552
	sw	zero,-1888(a6)
	.loc 1 199 375 is_stmt 1
	.loc 1 199 392 is_stmt 0
	li	s5,-2147479552
	li	s8,8
	sw	s8,-2016(s5)
	.loc 1 199 418 is_stmt 1
	.loc 1 199 435 is_stmt 0
	sw	a5,0(s1)
	.loc 1 199 440 is_stmt 1
	.loc 1 199 457 is_stmt 0
	li	a0,-2147479552
	sw	zero,-992(a0)
	.loc 1 199 460 is_stmt 1
	.loc 1 199 476 is_stmt 0
	li	s4,-2147483648
	li	s7,7
	sw	s7,672(s4)
	.loc 1 199 516 is_stmt 1
	.loc 1 199 532 is_stmt 0
	li	s3,-2147483648
	li	a4,1
	sw	a4,1056(s3)
	.loc 1 199 543 is_stmt 1
	.loc 1 199 560 is_stmt 0
	li	a1,-2147483648
	sw	a5,1568(a1)
	.loc 1 199 565 is_stmt 1
	.loc 1 199 582 is_stmt 0
	li	a2,-2147479552
	.loc 1 199 601
	li	a4,524288
	.loc 1 199 582
	sw	zero,-864(a2)
	.loc 1 199 585 is_stmt 1
	.loc 1 199 601 is_stmt 0
	li	ra,-2147483648
	addi	a4,a4,8
	sw	a4,544(ra)
	.loc 1 199 716 is_stmt 1
	.loc 1 199 733 is_stmt 0
	li	a3,-2147479552
	.loc 1 199 871
	li	t0,1032192
	.loc 1 199 733
	sw	t2,-736(a3)
	.loc 1 199 854 is_stmt 1
	.loc 1 199 871 is_stmt 0
	addi	t0,t0,127
	sw	t0,0(s0)
.LBE176:
	.loc 1 199 904 is_stmt 1
	.loc 1 199 905
	.loc 1 199 922 is_stmt 0
	li	a4,-2147479552
	sw	a4,4(sp)
	sw	zero,-480(a4)
	.loc 1 199 927 is_stmt 1
	.loc 1 199 944 is_stmt 0
	lw	a4,40(sp)
	sw	a4,0(s0)
	.loc 1 199 976 is_stmt 1
	.loc 1 199 977
	.loc 1 199 993 is_stmt 0
	lw	a4,12(sp)
	lw	s6,56(sp)
	sw	s6,0(a4)
.LBB177:
	.loc 1 200 3 is_stmt 1
.LVL203:
	.loc 1 200 38
	.loc 1 200 54 is_stmt 0
	lw	a4,0(sp)
	sw	s10,0(a4)
	.loc 1 200 66 is_stmt 1
	.loc 1 200 82 is_stmt 0
	sw	zero,928(t6)
	.loc 1 200 88 is_stmt 1
	.loc 1 200 105 is_stmt 0
	sw	s2,1440(t5)
	.loc 1 200 133 is_stmt 1
	.loc 1 200 150 is_stmt 0
	sw	zero,-1248(t4)
	.loc 1 200 162 is_stmt 1
	.loc 1 200 179 is_stmt 0
	sw	s9,1824(s11)
	.loc 1 200 224 is_stmt 1
	.loc 1 200 241 is_stmt 0
	sw	t2,1696(t3)
	.loc 1 200 287 is_stmt 1
	.loc 1 200 304 is_stmt 0
	sw	a5,1952(t1)
	.loc 1 200 309 is_stmt 1
	.loc 1 200 326 is_stmt 0
	sw	zero,-1120(a7)
	.loc 1 200 329 is_stmt 1
	.loc 1 200 346 is_stmt 0
	sw	zero,-1888(a6)
	.loc 1 200 375 is_stmt 1
	.loc 1 200 392 is_stmt 0
	sw	s8,-2016(s5)
	.loc 1 200 418 is_stmt 1
	.loc 1 200 435 is_stmt 0
	sw	a5,0(s1)
	.loc 1 200 440 is_stmt 1
	.loc 1 200 457 is_stmt 0
	sw	zero,-992(a0)
	.loc 1 200 460 is_stmt 1
	.loc 1 200 476 is_stmt 0
	sw	s7,672(s4)
	.loc 1 200 516 is_stmt 1
	.loc 1 200 532 is_stmt 0
	li	a0,1
	sw	a0,1056(s3)
	.loc 1 200 543 is_stmt 1
	.loc 1 200 560 is_stmt 0
	sw	a5,1568(a1)
	.loc 1 200 565 is_stmt 1
	.loc 1 200 601 is_stmt 0
	li	a5,524288
	.loc 1 200 582
	sw	zero,-864(a2)
	.loc 1 200 585 is_stmt 1
	.loc 1 200 601 is_stmt 0
	addi	a5,a5,296
	sw	a5,544(ra)
	.loc 1 200 718 is_stmt 1
	.loc 1 200 735 is_stmt 0
	sw	t2,-736(a3)
	.loc 1 200 856 is_stmt 1
	.loc 1 200 873 is_stmt 0
	sw	t0,0(s0)
.LBE177:
	.loc 1 200 906 is_stmt 1
	.loc 1 200 907
	.loc 1 200 924 is_stmt 0
	lw	a4,4(sp)
	sw	zero,-480(a4)
	.loc 1 200 929 is_stmt 1
	.loc 1 200 946 is_stmt 0
	lw	a4,40(sp)
	sw	a4,0(s0)
	.loc 1 200 978 is_stmt 1
	.loc 1 200 979
	.loc 1 200 995 is_stmt 0
	lw	a5,12(sp)
	sw	s6,0(a5)
	j	.L32
.LVL204:
.L44:
	lw	s4,124(sp)
	lw	s2,128(sp)
	lw	s3,132(sp)
	lw	s1,136(sp)
	lw	s0,140(sp)
	sw	zero,48(sp)
	j	.L34
	.cfi_endproc
.LFE1:
	.size	harris_phase_1, .-harris_phase_1
	.align	2
	.type	harris_phase_0, @function
harris_phase_0:
.LFB0:
	.loc 1 46 46 is_stmt 1
	.cfi_startproc
.LVL205:
	.loc 1 47 4
	.loc 1 46 46 is_stmt 0
	addi	sp,sp,-208
	.cfi_def_cfa_offset 208
	sw	s2,192(sp)
	sw	ra,204(sp)
	sw	s0,200(sp)
	sw	s1,196(sp)
	sw	s3,188(sp)
	sw	s5,180(sp)
	sw	s6,176(sp)
	.cfi_offset 18, -16
	.cfi_offset 1, -4
	.cfi_offset 8, -8
	.cfi_offset 9, -12
	.cfi_offset 19, -20
	.cfi_offset 21, -28
	.cfi_offset 22, -32
	.loc 1 65 14
	lw	s1,24(a0)
	.loc 1 58 9
	lw	s3,36(a0)
	.loc 1 59 9
	lw	s5,40(a0)
	.loc 1 65 20
	addi	a4,s1,31
	.loc 1 65 9
	srai	a5,a4,31
	andi	a5,a5,31
	add	a5,a5,a4
	.loc 1 64 14
	lw	s6,20(a0)
	.loc 1 46 46
	mv	t6,a0
.LVL206:
	.loc 1 48 4 is_stmt 1
	.loc 1 49 4
	.loc 1 50 4
	.loc 1 51 4
	.loc 1 52 4
	.loc 1 53 4
	.loc 1 54 4
	.loc 1 55 4
	.loc 1 56 4
	.loc 1 58 4
	.loc 1 59 4
	.loc 1 60 4
	.loc 1 61 4
	.loc 1 62 4
	.loc 1 63 4
	.loc 1 64 4
	.loc 1 65 4
	.loc 1 65 9 is_stmt 0
	srai	s2,a5,5
.LVL207:
	.loc 1 66 4 is_stmt 1
	.loc 1 68 4
	.loc 1 68 6 is_stmt 0
	bne	a1,zero,.L48
	sw	s4,184(sp)
	.loc 1 70 26
	li	a5,63
	mv	s0,a1
	.loc 1 69 7 is_stmt 1
.LVL208:
	.loc 1 70 7
	.cfi_offset 20, -24
	.loc 1 70 26 is_stmt 0
	bgt	a4,a5,.L62
.LVL209:
.L49:
	.loc 1 79 18
	li	s4,-2147483648
	li	a4,1015808000
.LVL210:
	sw	t6,8(sp)
.LVL211:
	.loc 1 79 1 is_stmt 1
	.loc 1 79 2
	.loc 1 79 18 is_stmt 0
	addi	a4,a4,4
	.loc 1 80 4
	li	a5,-2147483648
	.loc 1 79 18
	sw	a4,20(s4)
	.loc 1 80 4 is_stmt 1
	sw	zero,36(a5)
	.loc 1 80 4
	call	_taskYield
.LVL212:
	.loc 1 80 18 discriminator 1
	.loc 1 82 4
	.loc 1 82 16 is_stmt 0
	lw	t6,8(sp)
	.loc 1 79 18
	addi	s4,s4,20
	.loc 1 82 16
	lw	a3,28(t6)
	.loc 1 82 12
	lw	a5,32(t6)
	.loc 1 83 9
	lw	a2,0(t6)
	.loc 1 84 19
	mul	a4,a3,s5
	.loc 1 88 14
	lw	a6,4(t6)
	.loc 1 89 14
	lw	a0,8(t6)
	.loc 1 82 12
	mul	a5,a3,a5
.LVL213:
	.loc 1 83 4 is_stmt 1
	.loc 1 84 4
	.loc 1 86 9 is_stmt 0
	sub	a1,a4,a3
	add	a2,a1,a2
.LVL214:
	sw	a2,100(sp)
	.loc 1 84 12
	sub	a5,a5,a4
.LVL215:
	.loc 1 85 4 is_stmt 1
	.loc 1 86 4
	.loc 1 87 4
	.loc 1 87 12 is_stmt 0
	add	a5,a3,a5
.LVL216:
	sw	a5,104(sp)
.LVL217:
	.loc 1 88 4 is_stmt 1
	.loc 1 89 4
	.loc 1 91 4
	.loc 1 91 17 discriminator 1
	bge	s0,s2,.L60
	.loc 1 64 20 is_stmt 0
	addi	a3,s6,14
	.loc 1 64 9
	li	a4,15
	div	a4,a3,a4
	.loc 1 66 25
	addi	s1,s1,3
.LVL218:
	.loc 1 66 5
	srai	a5,s1,31
.LVL219:
	andi	a5,a5,3
	add	a5,a5,s1
	srai	a5,a5,2
	.loc 1 64 9
	sw	a4,116(sp)
.LBB178:
	.loc 1 130 2674
	srli	a4,a6,1
	sw	a4,108(sp)
.LBE178:
.LBB179:
	.loc 1 133 2674
	srli	a4,a0,1
	sw	a4,112(sp)
	ble	s6,zero,.L60
	slli	a4,s0,3
	sub	a5,a5,a4
	sw	s7,172(sp)
	sw	s8,168(sp)
	sw	s9,164(sp)
	sw	s10,160(sp)
	sw	s11,156(sp)
	sw	a5,96(sp)
	mv	s1,a5
.LVL220:
.LBE179:
	.loc 1 92 17 is_stmt 1 discriminator 1
	.cfi_offset 23, -36
	.cfi_offset 24, -40
	.cfi_offset 25, -44
	.cfi_offset 26, -48
	.cfi_offset 27, -52
	bne	s0,zero,.L63
.LBB180:
	.loc 1 101 54 is_stmt 0
	li	a5,-2147483648
	li	a4,4096
	sw	a4,800(a5)
.LVL221:
	.loc 1 101 82
	li	t4,-2147483648
	.loc 1 101 105
	li	a4,16384
	.loc 1 101 82
	sw	zero,928(t4)
	.loc 1 101 105
	li	a5,-2147483648
	addi	a4,a4,-1
	sw	a4,1440(a5)
	.loc 1 101 150
	li	t0,-2147479552
	sw	zero,-1248(t0)
	.loc 1 101 179
	li	a5,-2147483648
	li	a4,5
	sw	a4,1824(a5)
	.loc 1 101 241
	li	a3,48
	li	s5,-2147483648
.LVL222:
	sw	a3,1696(s5)
	.loc 1 101 304
	li	a5,287
	li	t3,-2147483648
	sw	a5,1952(t3)
	.loc 1 101 326
	li	ra,-2147479552
	sw	zero,-1120(ra)
	.loc 1 101 346
	li	a7,-2147479552
	sw	zero,-1888(a7)
	.loc 1 101 392
	li	a4,-2147479552
	li	a2,8
.LVL223:
	sw	a2,-2016(a4)
	.loc 1 101 435
	li	t5,-2147479552
	sw	a5,-1760(t5)
	.loc 1 101 457
	li	a6,-2147479552
.LVL224:
	sw	zero,-992(a6)
	.loc 1 101 476
	li	a4,-2147483648
	li	a2,7
	sw	a2,672(a4)
	.loc 1 101 532
	li	t1,-2147483648
	li	a4,1
	sw	a4,1056(t1)
	.loc 1 101 560
	li	a0,-2147483648
.LVL225:
	sw	a5,1568(a0)
	.loc 1 101 582
	li	a1,-2147479552
	.loc 1 101 601
	li	a4,524288
	.loc 1 101 582
	sw	zero,-864(a1)
	.loc 1 101 601
	li	a5,-2147483648
	addi	a4,a4,8
	sw	a4,544(a5)
	.loc 1 101 733
	li	a2,-2147479552
	.loc 1 101 871
	li	a4,1032192
	.loc 1 101 733
	sw	a3,-736(a2)
	.loc 1 101 871
	li	a5,-2147479552
	addi	a4,a4,95
	sw	a4,-1632(a5)
.LBE180:
	.loc 1 101 921
	li	a3,-2147479552
	.loc 1 101 943
	li	t2,1036288
	.loc 1 101 921
	sw	zero,-480(a3)
	.loc 1 101 943
	addi	t2,t2,-1955
	sw	t2,-1632(a5)
	.loc 1 101 991
	li	a4,393216
	addi	a4,a4,1
	sw	s3,36(sp)
	.loc 1 93 10 is_stmt 1
.LVL226:
	.loc 1 96 10
.LBB181:
	.loc 1 101 3
	.loc 1 101 38
	.loc 1 101 66
	.loc 1 101 88
	.loc 1 101 133
	.loc 1 101 162
	.loc 1 101 224
	.loc 1 101 287
	.loc 1 101 309
	.loc 1 101 329
	.loc 1 101 375
	.loc 1 101 418
	.loc 1 101 440
	.loc 1 101 460
	.loc 1 101 516
	.loc 1 101 543
	.loc 1 101 565
	.loc 1 101 585
	.loc 1 101 716
	.loc 1 101 854
.LBE181:
	.loc 1 101 903
	.loc 1 101 904
	.loc 1 101 926
	.loc 1 101 974
	.loc 1 101 975
.LBB182:
	.loc 1 108 2003 is_stmt 0
	li	a5,67108864
.LBE182:
	.loc 1 101 991
	sw	a4,0(s4)
.LBB183:
	.loc 1 101 532
	addi	t1,t1,1056
	.loc 1 101 435
	addi	t5,t5,-1760
.LBE183:
.LBB184:
	.loc 1 108 2003
	addi	a5,a5,-1
.LBE184:
.LBB185:
	.loc 1 101 82
	addi	t4,t4,928
.LBE185:
	.loc 1 101 991
	sw	zero,40(sp)
	sw	zero,24(sp)
.LBB186:
	.loc 1 108 2003
	sw	a5,92(sp)
	sw	s2,120(sp)
	sw	s3,124(sp)
	sw	s1,128(sp)
	sw	s0,132(sp)
	mv	s9,t5
	mv	s10,t1
	j	.L54
.LVL227:
.L64:
.LBE186:
	.loc 1 93 10 is_stmt 1
	.loc 1 96 10
.LBB187:
	.loc 1 98 3
	.loc 1 98 38
	.loc 1 98 54 is_stmt 0
	sw	a4,0(a5)
.LVL228:
	.loc 1 98 66 is_stmt 1
	.loc 1 98 82 is_stmt 0
	sw	zero,0(t4)
	.loc 1 98 88 is_stmt 1
	.loc 1 98 105 is_stmt 0
	lw	s0,28(sp)
	.loc 1 98 179
	li	a3,5
	.loc 1 98 241
	li	ra,48
	.loc 1 98 105
	sw	s0,0(s11)
	.loc 1 98 133 is_stmt 1
	.loc 1 98 150 is_stmt 0
	sw	zero,0(t2)
	.loc 1 98 162 is_stmt 1
	.loc 1 98 179 is_stmt 0
	sw	a3,0(a7)
	.loc 1 98 224 is_stmt 1
	.loc 1 98 241 is_stmt 0
	sw	ra,0(s8)
	.loc 1 98 287 is_stmt 1
	.loc 1 98 304 is_stmt 0
	sw	s1,0(t5)
	.loc 1 98 309 is_stmt 1
	.loc 1 98 326 is_stmt 0
	lw	s7,8(sp)
	.loc 1 98 392
	li	a6,8
	.loc 1 98 326
	sw	zero,0(s7)
	.loc 1 98 329 is_stmt 1
	.loc 1 98 346 is_stmt 0
	sw	zero,0(t1)
	.loc 1 98 375 is_stmt 1
	.loc 1 98 392 is_stmt 0
	sw	a6,0(t3)
	.loc 1 98 418 is_stmt 1
	.loc 1 98 435 is_stmt 0
	sw	s1,0(s9)
	.loc 1 98 440 is_stmt 1
	.loc 1 98 457 is_stmt 0
	sw	zero,0(s6)
	.loc 1 98 460 is_stmt 1
	.loc 1 98 476 is_stmt 0
	sw	a2,0(s5)
	.loc 1 98 516 is_stmt 1
	.loc 1 98 532 is_stmt 0
	sw	a1,0(s10)
	.loc 1 98 543 is_stmt 1
	.loc 1 98 560 is_stmt 0
	sw	s1,0(s4)
	.loc 1 98 565 is_stmt 1
	.loc 1 98 582 is_stmt 0
	sw	zero,0(s3)
	.loc 1 98 585 is_stmt 1
	.loc 1 98 601 is_stmt 0
	lw	s0,88(sp)
	sw	s0,0(s2)
	.loc 1 98 716 is_stmt 1
	.loc 1 98 733 is_stmt 0
	lw	a0,20(sp)
	sw	ra,0(a0)
	.loc 1 98 854 is_stmt 1
	.loc 1 98 871 is_stmt 0
	lw	a0,44(sp)
	sw	a0,0(t0)
.LBE187:
.LBB188:
	.loc 1 98 904 is_stmt 1
.LVL229:
	.loc 1 98 953
	.loc 1 98 969 is_stmt 0
	sw	a4,0(a5)
	.loc 1 98 981 is_stmt 1
	.loc 1 98 997 is_stmt 0
	sw	zero,0(t4)
	.loc 1 98 1003 is_stmt 1
	.loc 1 98 1020 is_stmt 0
	addi	a4,a4,-1
	sw	a4,0(s11)
	.loc 1 98 1048 is_stmt 1
	.loc 1 98 1065 is_stmt 0
	li	a5,12288
	sw	a5,0(t2)
	.loc 1 98 1077 is_stmt 1
	.loc 1 98 1094 is_stmt 0
	sw	a3,0(a7)
	.loc 1 98 1139 is_stmt 1
	.loc 1 98 1156 is_stmt 0
	sw	ra,0(s8)
	.loc 1 98 1202 is_stmt 1
	.loc 1 98 1219 is_stmt 0
	sw	s1,0(t5)
	.loc 1 98 1224 is_stmt 1
	.loc 1 98 1241 is_stmt 0
	sw	zero,0(s7)
	.loc 1 98 1244 is_stmt 1
	.loc 1 98 1261 is_stmt 0
	sw	zero,0(t1)
	.loc 1 98 1320 is_stmt 1
	.loc 1 98 1337 is_stmt 0
	sw	a6,0(t3)
	.loc 1 98 1363 is_stmt 1
	.loc 1 98 1380 is_stmt 0
	sw	s1,0(s9)
	.loc 1 98 1385 is_stmt 1
	.loc 1 98 1402 is_stmt 0
	sw	zero,0(s6)
	.loc 1 98 1405 is_stmt 1
	.loc 1 98 1421 is_stmt 0
	sw	a2,0(s5)
	.loc 1 98 1461 is_stmt 1
	.loc 1 98 1477 is_stmt 0
	sw	a1,0(s10)
	.loc 1 98 1488 is_stmt 1
	.loc 1 98 1505 is_stmt 0
	sw	s1,0(s4)
	.loc 1 98 1510 is_stmt 1
	.loc 1 98 1546 is_stmt 0
	li	a5,536576
	.loc 1 98 1527
	sw	zero,0(s3)
	.loc 1 98 1530 is_stmt 1
	.loc 1 98 1546 is_stmt 0
	addi	a5,a5,32
	sw	a5,0(s2)
	.loc 1 98 1675 is_stmt 1
	.loc 1 98 1692 is_stmt 0
	lw	s11,80(sp)
	sw	s11,0(t0)
.LBE188:
	.loc 1 98 1724 is_stmt 1
	.loc 1 98 1725
	.loc 1 98 1741 is_stmt 0
	lw	t3,84(sp)
	lw	s7,16(sp)
	sw	t3,0(s7)
	lw	a7,76(sp)
	sw	a7,36(sp)
.LVL230:
.L54:
	.loc 1 104 1 is_stmt 1
	.loc 1 104 2
	.loc 1 104 18 is_stmt 0
	li	a5,-2147483648
	addi	s7,a5,20
	sw	s7,16(sp)
	li	a4,88
	sw	a4,20(a5)
.LBB189:
	.loc 1 108 3 is_stmt 1
.LVL231:
	.loc 1 108 204
	.loc 1 108 220 is_stmt 0
	li	s11,96
	sw	s11,800(a5)
	.loc 1 108 305 is_stmt 1
	.loc 1 108 344 is_stmt 0
	li	a4,-2147483648
	.loc 1 108 321
	li	a1,7
	sw	a1,0(t4)
	.loc 1 108 327 is_stmt 1
	.loc 1 108 344 is_stmt 0
	addi	a0,a4,1440
	sw	a0,12(sp)
	li	a4,767
	sw	a4,0(a0)
	.loc 1 108 454 is_stmt 1
	.loc 1 108 573 is_stmt 0
	li	s8,-2147483648
	.loc 1 108 471
	li	t2,-2147479552
	sw	zero,-1248(t2)
	.loc 1 108 556 is_stmt 1
	.loc 1 108 573 is_stmt 0
	addi	s8,s8,1696
	li	a4,16
	sw	a4,0(s8)
	.loc 1 108 632 is_stmt 1
	.loc 1 108 649 is_stmt 0
	li	a7,-2147483648
	li	a3,5
	sw	a3,1824(a7)
	.loc 1 108 655 is_stmt 1
	.loc 1 108 672 is_stmt 0
	li	t5,-2147483648
	li	a2,95
	sw	a2,1952(t5)
	.loc 1 108 761 is_stmt 1
	.loc 1 108 778 is_stmt 0
	li	a4,-2147479552
	sw	a4,8(sp)
	sw	zero,-1120(a4)
	.loc 1 108 837 is_stmt 1
	.loc 1 108 854 is_stmt 0
	li	t3,-2147479552
	li	a2,4
	.loc 1 108 912
	li	s0,3
	.loc 1 108 854
	sw	a2,-2016(t3)
	.loc 1 108 895 is_stmt 1
	.loc 1 108 912 is_stmt 0
	li	t1,-2147479552
	sw	s0,-1888(t1)
	.loc 1 108 918 is_stmt 1
	.loc 1 108 935 is_stmt 0
	li	a4,15
	sw	a4,0(s9)
	.loc 1 108 998 is_stmt 1
	.loc 1 108 1015 is_stmt 0
	li	s6,-2147479552
	sw	zero,-992(s6)
	.loc 1 108 1056 is_stmt 1
	.loc 1 108 1072 is_stmt 0
	li	a2,1
	.loc 1 108 1099
	li	s5,-2147483648
	.loc 1 108 1072
	sw	a2,0(s10)
	.loc 1 108 1083 is_stmt 1
	.loc 1 108 1122 is_stmt 0
	li	s4,-2147483648
	.loc 1 108 1099
	sw	s0,672(s5)
	.loc 1 108 1105 is_stmt 1
	.loc 1 108 1180 is_stmt 0
	li	s3,-2147479552
	.loc 1 108 1122
	sw	s0,1568(s4)
	.loc 1 108 1163 is_stmt 1
	.loc 1 108 1406 is_stmt 0
	li	s2,-2147483648
	.loc 1 108 1180
	sw	zero,-864(s3)
	.loc 1 108 1189 is_stmt 1
.LVL232:
	.loc 1 108 1390
	.loc 1 108 1453 is_stmt 0
	li	t0,-2147479552
	.loc 1 108 1406
	sw	zero,544(s2)
	.loc 1 108 1435 is_stmt 1
	.loc 1 108 1436
	.loc 1 108 1453 is_stmt 0
	addi	ra,t0,-736
	sw	ra,20(sp)
	li	s1,768
	.loc 1 108 1509
	li	a4,1036288
	.loc 1 108 1453
	sw	s1,0(ra)
	.loc 1 108 1492 is_stmt 1
	.loc 1 108 1509 is_stmt 0
	addi	a4,a4,-1889
	sw	a4,-1632(t0)
.LBE189:
.LBB190:
	.loc 1 108 1542 is_stmt 1
.LVL233:
	.loc 1 108 1782 is_stmt 0
	lw	a4,28(t6)
	.loc 1 108 2289
	lw	s1,36(sp)
	lw	s7,104(sp)
	.loc 1 108 1782
	slli	a4,a4,2
	.loc 1 108 1751
	sw	a4,0(s8)
.LVL234:
	.loc 1 108 1804
	sw	a1,1824(a7)
	.loc 1 108 2318
	lw	a0,100(sp)
	sw	s1,36(sp)
	.loc 1 108 1837
	lw	a2,28(t6)
	.loc 1 108 2318
	add	a0,a0,s1
	sw	a0,44(sp)
	.loc 1 108 1837
	lw	a6,96(sp)
.LBE190:
	.loc 1 108 2411
	li	a1,393216
.LBB191:
	.loc 1 108 2289
	sub	s7,s7,s1
	.loc 1 108 1837
	mul	a2,a6,a2
.LBE191:
	.loc 1 108 2411
	addi	s1,a1,17
.LVL235:
.LBB192:
	.loc 1 108 2615
	li	a1,16384
	addi	a0,a1,-1
.LBE192:
	.loc 1 108 2411
	sw	s1,32(sp)
.LBB193:
	.loc 1 108 2615
	sw	a0,28(sp)
.LBE193:
.LBB194:
	.loc 1 108 2260
	li	ra,-2147479552
	.loc 1 108 2362
	li	a6,1036288
	addi	a6,a6,157
.LBE194:
.LBB195:
	.loc 1 108 2563
	li	a4,4096
.LBE195:
.LBB196:
	.loc 1 108 1837
	slli	a2,a2,2
	.loc 1 108 1868
	addi	a2,a2,-1
	.loc 1 108 1827
	sw	a2,1952(t5)
.LVL236:
	.loc 1 108 1888
	lw	a2,8(sp)
.LBE196:
.LBB197:
	.loc 1 108 2812
	li	s1,287
	.loc 1 108 3119
	li	a0,524288
.LBE197:
.LBB198:
	.loc 1 108 1888
	sw	zero,-1120(a2)
	.loc 1 108 1958
	lw	a2,28(t6)
.LBE198:
.LBB199:
	.loc 1 108 3119
	addi	a0,a0,16
.LBE199:
.LBB200:
	.loc 1 108 220
	addi	a5,a5,800
.LBE200:
.LBB201:
	.loc 1 108 1941
	sw	a2,-2016(t3)
	.loc 1 108 1980
	sw	a3,-1888(t1)
	.loc 1 108 2003
	lw	a1,92(sp)
	.loc 1 108 2070
	li	a2,1
.LBE201:
.LBB202:
	.loc 1 108 649
	addi	a7,a7,1824
.LBE202:
.LBB203:
	.loc 1 108 2003
	sw	a1,0(s9)
	.loc 1 108 2032
	sw	zero,-992(s6)
	.loc 1 108 2070
	sw	a2,0(s10)
	.loc 1 108 2097
	li	a1,15
	sw	a1,672(s5)
	.loc 1 108 2134
	lw	a2,28(t6)
	sw	t6,72(sp)
	.loc 1 108 2136
	lw	t6,36(sp)
	.loc 1 108 2134
	addi	a2,a2,-1
.LBE203:
.LBB204:
	.loc 1 108 3401
	li	a1,1032192
.LBE204:
.LBB205:
	.loc 1 108 2136
	sub	a2,a2,t6
	.loc 1 108 2120
	sw	a2,1568(s4)
	.loc 1 108 2159
	sw	t6,36(sp)
	sw	t6,-864(s3)
	.loc 1 108 2260
	sw	s7,-96(ra)
	.loc 1 108 2313
	lw	s7,44(sp)
.LBE205:
.LBB206:
	.loc 1 108 3401
	addi	a1,a1,1183
.LBE206:
.LBB207:
	.loc 1 108 672
	addi	t5,t5,1952
.LBE207:
.LBB208:
	.loc 1 108 2313
	sw	s7,544(s2)
	.loc 1 108 2362
	sw	a6,-1632(t0)
.LBE208:
	.loc 1 108 2411
	lw	t6,32(sp)
	lw	s7,16(sp)
.LBB209:
	.loc 1 108 2996
	li	a6,7
.LBE209:
.LBB210:
	.loc 1 108 912
	addi	t1,t1,-1888
.LBE210:
	.loc 1 108 2411
	sw	t6,0(s7)
.LBB211:
	.loc 1 108 2563
	sw	a4,-2016(t3)
	.loc 1 108 2592
	sw	s0,0(t1)
	.loc 1 108 2615
	lw	s7,28(sp)
	.loc 1 108 2749
	li	t6,48
.LBE211:
.LBB212:
	.loc 1 108 854
	addi	t3,t3,-2016
.LBE212:
.LBB213:
	.loc 1 108 2615
	sw	s7,0(s9)
	.loc 1 108 2660
	sw	zero,-992(s6)
	.loc 1 108 2689
	sw	a3,0(a7)
	.loc 1 108 2749
	sw	t6,0(s8)
	.loc 1 108 2812
	sw	s1,0(t5)
	.loc 1 108 2834
	lw	a2,8(sp)
	.loc 1 108 2912
	li	t6,8
.LBE213:
.LBB214:
	.loc 1 108 1509
	addi	t0,t0,-1632
.LBE214:
.LBB215:
	.loc 1 108 2834
	sw	zero,-1120(a2)
	.loc 1 108 2853
	sw	s0,672(s5)
	.loc 1 108 2912
	sw	t6,0(s10)
	.loc 1 108 2955
	sw	s1,1568(s4)
	.loc 1 108 2977
	sw	zero,-864(s3)
	.loc 1 108 2996
	sw	a6,0(t4)
	.loc 1 108 3050
	li	a2,1
	sw	a2,0(a5)
	.loc 1 108 3078
	lw	ra,12(sp)
.LBE215:
.LBB216:
	.loc 1 108 471
	addi	t2,t2,-1248
	.loc 1 108 1015
	addi	s6,s6,-992
.LBE216:
.LBB217:
	.loc 1 108 3078
	sw	s1,0(ra)
	.loc 1 108 3100
	sw	zero,0(t2)
	.loc 1 108 3119
	sw	a0,544(s2)
	.loc 1 108 3253
	lw	ra,20(sp)
	li	a0,768
.LBE217:
.LBB218:
	.loc 1 108 1099
	addi	s5,s5,672
.LBE218:
.LBB219:
	.loc 1 108 3253
	sw	a0,0(ra)
	.loc 1 108 3401
	sw	a1,0(t0)
.LBE219:
.LBB220:
	.loc 1 108 3651
	sw	s11,0(a5)
	.loc 1 108 3752
	sw	a6,0(t4)
	.loc 1 108 3775
	lw	a0,12(sp)
	li	s11,767
	.loc 1 108 3752
	mv	a1,a6
	.loc 1 108 3775
	sw	s11,0(a0)
	.loc 1 108 3902
	sw	zero,0(t2)
	.loc 1 108 4004
	li	a6,16
	sw	a6,0(s8)
	.loc 1 108 4080
	sw	a3,0(a7)
	.loc 1 108 0
	li	s11,95
	sw	s11,0(t5)
	lw	s11,8(sp)
	li	a0,4
.LBE220:
.LBB221:
	.loc 1 108 1122
	addi	s4,s4,1568
.LBE221:
.LBB222:
	.loc 1 108 0
	sw	zero,-1120(s11)
	sw	a0,0(t3)
	sw	s0,0(t1)
	li	a0,15
	sw	a0,0(s9)
	sw	zero,0(s6)
	sw	a2,0(s10)
	sw	s0,0(s5)
	sw	s0,0(s4)
	sw	zero,-864(s3)
	mv	a0,a2
	li	a2,1036288
	sw	zero,544(s2)
	addi	a2,a2,-1891
	sw	a2,0(t0)
.LBE222:
	lw	a2,32(sp)
	lw	a6,16(sp)
.LBB223:
	.loc 1 108 1180
	addi	s3,s3,-864
	.loc 1 108 1406
	addi	s2,s2,544
.LBE223:
	.loc 1 108 0
	sw	a2,0(a6)
.LBB224:
	.loc 1 114 58
	sw	a4,0(a5)
	.loc 1 114 86
	li	a2,2
	sw	a2,0(t4)
	.loc 1 114 109
	sw	s7,28(sp)
	mv	a6,s7
	lw	s7,12(sp)
	sw	a6,0(s7)
	.loc 1 114 154
	sw	zero,0(t2)
	.loc 1 114 183
	sw	a3,0(a7)
	.loc 1 114 245
	li	a6,48
	sw	a6,0(s8)
	.loc 1 114 308
	sw	s1,0(t5)
	.loc 1 114 330
	sw	s11,8(sp)
	sw	zero,-1120(s11)
	.loc 1 114 350
	sw	zero,0(t1)
	.loc 1 114 424
	sw	t6,0(t3)
	.loc 1 114 467
	sw	s1,0(s9)
	.loc 1 114 489
	sw	zero,0(s6)
	.loc 1 114 508
	sw	a1,0(s5)
	.loc 1 114 564
	sw	a0,0(s10)
	.loc 1 114 592
	sw	s1,0(s4)
	.loc 1 114 424
	mv	s11,t6
	.loc 1 114 508
	mv	t6,a1
	.loc 1 114 633
	li	a1,524288
	.loc 1 114 614
	sw	zero,0(s3)
	.loc 1 114 633
	addi	a1,a1,48
	sw	a1,0(s2)
	.loc 1 114 779
	sw	ra,20(sp)
	li	a6,144
	.loc 1 114 945
	li	s7,1032192
	.loc 1 114 779
	sw	a6,0(ra)
	.loc 1 114 945
	addi	a1,s7,159
	sw	a1,44(sp)
	sw	a1,0(t0)
.LBE224:
.LBB225:
	.loc 1 114 1039
	sw	a4,0(a5)
	.loc 1 114 1067
	sw	a2,0(t4)
	.loc 1 114 1090
	lw	ra,12(sp)
	li	a1,12288
	addi	a1,a1,-1
	sw	a1,0(ra)
	.loc 1 114 1135
	sw	a4,0(t2)
	.loc 1 114 1164
	sw	a3,0(a7)
	.loc 1 114 1226
	li	ra,48
	sw	ra,0(s8)
	.loc 1 114 1289
	sw	s1,0(t5)
	.loc 1 114 1311
	lw	ra,8(sp)
	sw	zero,-1120(ra)
	.loc 1 114 1331
	sw	zero,0(t1)
	.loc 1 114 1381
	sw	s11,0(t3)
	.loc 1 114 1424
	sw	s1,0(s9)
	.loc 1 114 1446
	sw	zero,0(s6)
	.loc 1 114 1465
	sw	t6,0(s5)
	.loc 1 114 1521
	sw	a0,0(s10)
	.loc 1 114 1549
	sw	s1,0(s4)
	.loc 1 114 1465
	mv	ra,t6
	.loc 1 114 1521
	mv	t6,a0
	.loc 1 114 1590
	li	a0,528384
	.loc 1 114 1571
	sw	zero,0(s3)
	.loc 1 114 1590
	addi	a0,a0,16
	sw	a0,0(s2)
	.loc 1 114 1724
	addi	a0,s7,157
	mv	s11,a0
	sw	s11,0(t0)
.LBE225:
	.loc 1 114 1773
	lw	s7,16(sp)
	li	a0,393216
	addi	a0,a0,9
	sw	a0,0(s7)
.LBB226:
	.loc 1 118 64
	sw	a4,0(a5)
	.loc 1 118 92
	sw	a2,0(t4)
	.loc 1 118 115
	lw	a0,12(sp)
	sw	a1,0(a0)
	.loc 1 118 160
	sw	a4,0(t2)
	.loc 1 118 189
	sw	a3,0(a7)
	.loc 1 118 251
	li	a1,48
	sw	a1,0(s8)
	.loc 1 118 314
	sw	s1,0(t5)
	.loc 1 118 336
	lw	a1,8(sp)
	.loc 1 118 542
	mv	a0,t6
	.loc 1 118 336
	sw	zero,-1120(a1)
	.loc 1 118 356
	sw	zero,0(t1)
	.loc 1 118 402
	li	a1,8
	sw	a1,0(t3)
	.loc 1 118 445
	sw	s1,0(s9)
	.loc 1 118 467
	sw	zero,0(s6)
	.loc 1 118 486
	sw	ra,0(s5)
	.loc 1 118 542
	sw	t6,0(s10)
	.loc 1 118 570
	sw	s1,0(s4)
	.loc 1 118 402
	mv	s7,a1
	.loc 1 118 611
	li	a1,528384
	.loc 1 118 592
	sw	zero,0(s3)
	.loc 1 118 611
	addi	a1,a1,8
	sw	a1,0(s2)
	.loc 1 118 743
	lw	t6,20(sp)
	sw	a6,0(t6)
	.loc 1 118 881
	lw	a1,44(sp)
.LBE226:
.LBB227:
	.loc 1 118 1329
	mv	a6,s7
.LBE227:
.LBB228:
	.loc 1 118 881
	sw	a1,0(t0)
.LBE228:
.LBB229:
	.loc 1 118 969
	sw	a4,0(a5)
	sw	a5,68(sp)
	.loc 1 118 997
	sw	a2,0(t4)
	.loc 1 118 1020
	lw	a1,28(sp)
	lw	a2,12(sp)
	.loc 1 118 997
	sw	t4,64(sp)
	.loc 1 118 1156
	li	t4,48
	.loc 1 118 1020
	sw	a1,0(a2)
	.loc 1 118 1065
	sw	zero,0(t2)
	.loc 1 118 1094
	sw	a3,0(a7)
	.loc 1 118 1156
	sw	t4,0(s8)
	.loc 1 118 1219
	sw	s1,0(t5)
	.loc 1 118 1094
	mv	a5,a3
	.loc 1 118 1241
	lw	a3,8(sp)
	.loc 1 118 1538
	li	a2,524288
	addi	a2,a2,40
	.loc 1 118 1241
	sw	zero,-1120(a3)
	.loc 1 118 1261
	sw	zero,0(t1)
	.loc 1 118 1329
	sw	s7,0(t3)
	.loc 1 118 1372
	sw	s1,0(s9)
	.loc 1 118 1394
	sw	zero,0(s6)
	.loc 1 118 1413
	sw	ra,0(s5)
	.loc 1 118 1469
	sw	a0,0(s10)
	.loc 1 118 1497
	sw	s1,0(s4)
	.loc 1 118 1519
	sw	zero,0(s3)
	.loc 1 118 1538
	sw	a2,0(s2)
	.loc 1 118 1680
	sw	s11,80(sp)
.LBE229:
	.loc 1 118 1729
	li	s7,393216
.LBB230:
	.loc 1 118 1680
	sw	s11,0(t0)
.LBE230:
	.loc 1 118 1729
	addi	ra,s7,1
	lw	s7,16(sp)
.LBB231:
	.loc 1 121 711
	li	a2,524288
	addi	a2,a2,95
.LBE231:
	.loc 1 118 1729
	sw	ra,0(s7)
.LBB232:
	.loc 1 121 55
	sw	a4,0(s8)
	.loc 1 121 84
	sw	zero,0(a7)
	sw	a7,60(sp)
	.loc 1 121 107
	sw	a1,28(sp)
	sw	a1,0(t5)
	sw	t5,56(sp)
	.loc 1 121 152
	sw	zero,-1120(a3)
	.loc 1 121 181
	sw	zero,0(t1)
	sw	t1,52(sp)
	.loc 1 121 227
	sw	t4,0(t3)
	sw	t3,20(sp)
	.loc 1 121 290
	sw	s1,0(s9)
	.loc 1 121 312
	sw	zero,0(s6)
	.loc 1 121 331
	sw	a5,0(s5)
	.loc 1 121 392
	sw	a6,0(s10)
	.loc 1 121 435
	sw	s1,0(s4)
	.loc 1 121 476
	li	t3,524288
	.loc 1 121 457
	sw	zero,0(s3)
	.loc 1 121 476
	addi	t3,t3,8
	sw	t3,88(sp)
	sw	t3,0(s2)
	.loc 1 121 608
	li	a1,6
	sw	a1,0(t6)
	.loc 1 121 711
	sw	a2,0(t0)
.LBE232:
	.loc 1 121 818
	li	a1,-2147479552
	.loc 1 121 840
	li	a2,1036288
	.loc 1 121 818
	sw	zero,-480(a1)
	.loc 1 121 840
	addi	a2,a2,-1955
	sw	a2,0(t0)
	sw	t0,48(sp)
	.loc 1 121 888
	sw	ra,84(sp)
	sw	ra,0(s7)
	.loc 1 124 18
	li	a0,1015812096
	sw	s7,16(sp)
	addi	a0,a0,516
	sw	a0,0(s7)
	.loc 1 126 10
	li	a2,-2147483648
	sw	zero,36(a2)
.LBB233:
	.loc 1 108 471
	sw	t2,8(sp)
.LVL237:
.LBE233:
.LBB234:
	.loc 1 108 1734 is_stmt 1
	.loc 1 108 1787
	.loc 1 108 1810
	.loc 1 108 1871
	.loc 1 108 1924
	.loc 1 108 1963
	.loc 1 108 1986
	.loc 1 108 2015
	.loc 1 108 2054
	.loc 1 108 2081
	.loc 1 108 2103
	.loc 1 108 2142
	.loc 1 108 2168
	.loc 1 108 2243
	.loc 1 108 2296
	.loc 1 108 2297
	.loc 1 108 2344
	.loc 1 108 2345
.LBE234:
	.loc 1 108 2394
	.loc 1 108 2395
.LBB235:
	.loc 1 108 2501
	.loc 1 108 2546
	.loc 1 108 2575
	.loc 1 108 2598
	.loc 1 108 2643
	.loc 1 108 2672
	.loc 1 108 2732
	.loc 1 108 2795
	.loc 1 108 2817
	.loc 1 108 2837
	.loc 1 108 2896
	.loc 1 108 2938
	.loc 1 108 2960
	.loc 1 108 2980
	.loc 1 108 3034
	.loc 1 108 3061
	.loc 1 108 3083
	.loc 1 108 3103
	.loc 1 108 3236
	.loc 1 108 3384
.LBE235:
.LBB236:
	.loc 1 108 3434
	.loc 1 108 3635
	.loc 1 108 3736
	.loc 1 108 3758
	.loc 1 108 3885
	.loc 1 108 3987
	.loc 1 108 4063
	.loc 1 108 4086
	.loc 1 108 0
	.loc 1 108 0
	.loc 1 108 0
	.loc 1 108 0
	.loc 1 108 0
	.loc 1 108 0
	.loc 1 108 0
	.loc 1 108 0
	.loc 1 108 0
	.loc 1 108 0
	.loc 1 108 0
	.loc 1 108 0
	.loc 1 108 0
.LBE236:
	.loc 1 108 0
	.loc 1 108 0
.LBB237:
	.loc 1 114 3
	.loc 1 114 42
	.loc 1 114 70
	.loc 1 114 92
	.loc 1 114 137
	.loc 1 114 166
	.loc 1 114 228
	.loc 1 114 291
	.loc 1 114 313
	.loc 1 114 333
	.loc 1 114 407
	.loc 1 114 450
	.loc 1 114 472
	.loc 1 114 492
	.loc 1 114 548
	.loc 1 114 575
	.loc 1 114 597
	.loc 1 114 617
	.loc 1 114 762
	.loc 1 114 928
.LBE237:
.LBB238:
	.loc 1 114 978
	.loc 1 114 1023
	.loc 1 114 1051
	.loc 1 114 1073
	.loc 1 114 1118
	.loc 1 114 1147
	.loc 1 114 1209
	.loc 1 114 1272
	.loc 1 114 1294
	.loc 1 114 1314
	.loc 1 114 1364
	.loc 1 114 1407
	.loc 1 114 1429
	.loc 1 114 1449
	.loc 1 114 1505
	.loc 1 114 1532
	.loc 1 114 1554
	.loc 1 114 1574
	.loc 1 114 1707
.LBE238:
	.loc 1 114 1756
	.loc 1 114 1757
.LBB239:
	.loc 1 118 3
	.loc 1 118 48
	.loc 1 118 76
	.loc 1 118 98
	.loc 1 118 143
	.loc 1 118 172
	.loc 1 118 234
	.loc 1 118 297
	.loc 1 118 319
	.loc 1 118 339
	.loc 1 118 385
	.loc 1 118 428
	.loc 1 118 450
	.loc 1 118 470
	.loc 1 118 526
	.loc 1 118 553
	.loc 1 118 575
	.loc 1 118 595
	.loc 1 118 726
	.loc 1 118 864
.LBE239:
.LBB240:
	.loc 1 118 914
	.loc 1 118 953
	.loc 1 118 981
	.loc 1 118 1003
	.loc 1 118 1048
	.loc 1 118 1077
	.loc 1 118 1139
	.loc 1 118 1202
	.loc 1 118 1224
	.loc 1 118 1244
	.loc 1 118 1312
	.loc 1 118 1355
	.loc 1 118 1377
	.loc 1 118 1397
	.loc 1 118 1453
	.loc 1 118 1480
	.loc 1 118 1502
	.loc 1 118 1522
	.loc 1 118 1663
.LBE240:
	.loc 1 118 1712
	.loc 1 118 1713
	.loc 1 120 10
.LBB241:
	.loc 1 121 3
	.loc 1 121 38
	.loc 1 121 67
	.loc 1 121 90
	.loc 1 121 135
	.loc 1 121 164
	.loc 1 121 210
	.loc 1 121 273
	.loc 1 121 295
	.loc 1 121 315
	.loc 1 121 376
	.loc 1 121 418
	.loc 1 121 440
	.loc 1 121 460
	.loc 1 121 591
	.loc 1 121 694
.LBE241:
	.loc 1 121 800
	.loc 1 121 801
	.loc 1 121 823
	.loc 1 121 871
	.loc 1 121 872
	.loc 1 124 1
	.loc 1 124 2
	.loc 1 126 10
	.loc 1 126 10
	lw	a7,36(sp)
.LBB242:
	.loc 1 108 778 is_stmt 0
	addi	a5,a3,-1120
.LBE242:
.LBB243:
	.loc 1 121 608
	mv	s11,t6
	addi	a7,a7,15
.LBE243:
.LBB244:
	.loc 1 108 778
	mv	s7,a5
	sw	a7,76(sp)
.LVL238:
.LBE244:
	.loc 1 126 10
	call	_taskYield
.LVL239:
	.loc 1 126 24 is_stmt 1 discriminator 1
.LBB245:
	.loc 1 130 3
	.loc 1 130 186
	.loc 1 130 202 is_stmt 0
	lw	a5,68(sp)
	li	a7,64
	.loc 1 130 285
	li	a1,7
	.loc 1 130 202
	sw	a7,0(a5)
.LVL240:
	.loc 1 130 269 is_stmt 1
	.loc 1 130 285 is_stmt 0
	lw	t4,64(sp)
	.loc 1 130 308
	li	a6,511
	.loc 1 130 501
	li	a2,16
	.loc 1 130 285
	sw	a1,0(t4)
	.loc 1 130 291 is_stmt 1
	.loc 1 130 308 is_stmt 0
	lw	a3,12(sp)
	.loc 1 130 588
	li	a4,63
	.loc 1 130 740
	li	t1,4
	.loc 1 130 308
	sw	a6,0(a3)
	.loc 1 130 400 is_stmt 1
	.loc 1 130 417 is_stmt 0
	lw	t2,8(sp)
	.loc 1 130 922
	li	a3,1
	.loc 1 130 1249
	li	t0,512
	.loc 1 130 417
	sw	zero,0(t2)
	.loc 1 130 484 is_stmt 1
	.loc 1 130 501 is_stmt 0
	sw	a2,0(s8)
	.loc 1 130 548 is_stmt 1
	.loc 1 130 565 is_stmt 0
	lw	a7,60(sp)
.LBE245:
.LBB246:
	.loc 1 130 1637
	li	a2,127
	.loc 1 130 1731
	li	t6,8
.LBE246:
.LBB247:
	.loc 1 130 565
	sw	s0,0(a7)
	.loc 1 130 571 is_stmt 1
	.loc 1 130 588 is_stmt 0
	lw	t5,56(sp)
	sw	a4,0(t5)
	.loc 1 130 659 is_stmt 1
	.loc 1 130 676 is_stmt 0
	sw	s7,8(sp)
	sw	zero,0(s7)
	.loc 1 130 723 is_stmt 1
	.loc 1 130 740 is_stmt 0
	lw	t3,20(sp)
	.loc 1 130 809
	li	a4,15
	.loc 1 130 1305
	li	s7,1036288
	.loc 1 130 740
	sw	t1,0(t3)
	.loc 1 130 769 is_stmt 1
	.loc 1 130 786 is_stmt 0
	lw	t1,52(sp)
	sw	s0,0(t1)
	.loc 1 130 792 is_stmt 1
	.loc 1 130 809 is_stmt 0
	sw	a4,0(s9)
	.loc 1 130 860 is_stmt 1
	.loc 1 130 877 is_stmt 0
	sw	zero,0(s6)
	.loc 1 130 906 is_stmt 1
	.loc 1 130 922 is_stmt 0
	sw	a3,0(s10)
	.loc 1 130 933 is_stmt 1
	.loc 1 130 949 is_stmt 0
	sw	s0,0(s5)
	.loc 1 130 955 is_stmt 1
	.loc 1 130 972 is_stmt 0
	sw	s0,0(s4)
	.loc 1 130 1001 is_stmt 1
	.loc 1 130 1018 is_stmt 0
	sw	zero,0(s3)
	.loc 1 130 1027 is_stmt 1
.LVL241:
	.loc 1 130 1186
	.loc 1 130 1202 is_stmt 0
	sw	zero,0(s2)
	.loc 1 130 1231 is_stmt 1
	.loc 1 130 1232
	.loc 1 130 1249 is_stmt 0
	sw	s11,20(sp)
	sw	t0,0(s11)
	.loc 1 130 1288 is_stmt 1
	.loc 1 130 1305 is_stmt 0
	lw	t0,48(sp)
	addi	a4,s7,-1921
	mv	s11,a4
	sw	a4,0(t0)
.LBE247:
.LBB248:
	.loc 1 130 1338 is_stmt 1
.LVL242:
	.loc 1 130 1383
	.loc 1 130 1400 is_stmt 0
	li	a4,4096
	sw	a4,0(t3)
	.loc 1 130 1412 is_stmt 1
	.loc 1 130 1429 is_stmt 0
	sw	s0,0(t1)
	.loc 1 130 1435 is_stmt 1
	.loc 1 130 1452 is_stmt 0
	lw	a0,28(sp)
	.loc 1 130 2066
	li	s7,1032192
	.loc 1 130 1452
	sw	a0,0(s9)
	.loc 1 130 1480 is_stmt 1
	.loc 1 130 1497 is_stmt 0
	sw	zero,0(s6)
	.loc 1 130 1509 is_stmt 1
	.loc 1 130 1526 is_stmt 0
	sw	s0,0(a7)
	.loc 1 130 1563 is_stmt 1
	.loc 1 130 1580 is_stmt 0
	li	a0,32
	sw	a0,0(s8)
	.loc 1 130 1620 is_stmt 1
	.loc 1 130 1637 is_stmt 0
	sw	a2,0(t5)
	.loc 1 130 1642 is_stmt 1
	.loc 1 130 1659 is_stmt 0
	lw	a0,8(sp)
	sw	zero,0(a0)
	.loc 1 130 1662 is_stmt 1
	.loc 1 130 1678 is_stmt 0
	sw	s0,0(s5)
	.loc 1 130 1715 is_stmt 1
	.loc 1 130 1731 is_stmt 0
	sw	t6,0(s10)
	.loc 1 130 1757 is_stmt 1
	.loc 1 130 1774 is_stmt 0
	sw	a2,0(s4)
	.loc 1 130 1779 is_stmt 1
	.loc 1 130 1796 is_stmt 0
	sw	zero,0(s3)
	.loc 1 130 1799 is_stmt 1
	.loc 1 130 1815 is_stmt 0
	sw	a1,0(t4)
	.loc 1 130 1853 is_stmt 1
	.loc 1 130 1869 is_stmt 0
	sw	a3,0(a5)
	.loc 1 130 1880 is_stmt 1
	.loc 1 130 1897 is_stmt 0
	lw	a3,12(sp)
	.loc 1 130 1938
	li	a1,524288
	addi	a1,a1,296
	.loc 1 130 1897
	sw	a2,0(a3)
	.loc 1 130 1902 is_stmt 1
	.loc 1 130 1919 is_stmt 0
	sw	zero,0(t2)
	.loc 1 130 1922 is_stmt 1
	.loc 1 130 1938 is_stmt 0
	sw	a1,0(s2)
	.loc 1 130 2049 is_stmt 1
	.loc 1 130 2066 is_stmt 0
	addi	a0,s7,1149
	sw	a0,56(sp)
	sw	a0,0(t0)
.LBE248:
	.loc 1 130 2098 is_stmt 1
	.loc 1 130 2099
	.loc 1 130 2115 is_stmt 0
	lw	t6,32(sp)
	lw	s7,16(sp)
.LBB249:
	.loc 1 130 2384
	li	a0,31
.LBE249:
	.loc 1 130 2115
	sw	t6,0(s7)
.LBB250:
	.loc 1 130 2205 is_stmt 1
.LVL243:
	.loc 1 130 2362 is_stmt 0
	lw	t6,72(sp)
	.loc 1 130 2660
	lw	a3,24(sp)
	lw	s7,108(sp)
	.loc 1 130 2362
	lw	a1,44(t6)
	.loc 1 130 2660
	add	s7,s7,a3
	sw	s7,48(sp)
	.loc 1 130 2345
	sw	a1,0(t3)
.LVL244:
	.loc 1 130 2384
	sw	a0,0(t1)
	.loc 1 130 2751
	li	s7,1036288
	addi	a0,s7,127
	.loc 1 130 2426
	lw	a1,48(t6)
	lw	s7,44(t6)
	mul	a1,a1,s7
.LBE250:
.LBB251:
	.loc 1 130 4030
	li	s7,1036288
	addi	s7,s7,-1923
	sw	s7,36(sp)
.LVL245:
.LBE251:
.LBB252:
	.loc 1 130 2328 is_stmt 1
	.loc 1 130 2367
	.loc 1 130 2390
.LBE252:
.LBB253:
	.loc 1 133 1938 is_stmt 0
	li	s7,524288
	addi	s7,s7,424
	sw	s7,60(sp)
.LBE253:
.LBB254:
	.loc 1 133 2660
	lw	s7,112(sp)
	sw	a3,24(sp)
	add	s7,s7,a3
	sw	s7,52(sp)
	lw	s7,40(sp)
.LBE254:
.LBB255:
	.loc 1 130 2443
	addi	a1,a1,-1
	.loc 1 130 2528
	li	a3,15
.LVL246:
	addi	s7,s7,1
	sw	s7,40(sp)
.LVL247:
	.loc 1 130 2407
	sw	a1,0(s9)
.LVL248:
	.loc 1 130 2446 is_stmt 1
	.loc 1 130 2463 is_stmt 0
	sw	zero,0(s6)
	.loc 1 130 2485 is_stmt 1
	.loc 1 130 2501 is_stmt 0
	li	a1,1
	sw	a1,0(s10)
	.loc 1 130 2512 is_stmt 1
	.loc 1 130 2528 is_stmt 0
	sw	a3,0(s5)
	.loc 1 130 2534 is_stmt 1
	.loc 1 130 2565 is_stmt 0
	lw	a1,44(t6)
	.loc 1 130 2567
	lw	a3,24(sp)
	.loc 1 130 2565
	addi	a1,a1,-1
	.loc 1 130 2567
	sub	a1,a1,a3
	.loc 1 130 2551
	sw	a1,0(s4)
	.loc 1 130 2573 is_stmt 1
	.loc 1 130 2590 is_stmt 0
	sw	a3,24(sp)
	sw	a3,0(s3)
	.loc 1 130 2599 is_stmt 1
.LVL249:
	.loc 1 130 2639
	.loc 1 130 2655 is_stmt 0
	lw	s7,48(sp)
.LVL250:
	.loc 1 130 2709
	li	a1,512
	.loc 1 130 2655
	sw	s7,0(s2)
.LVL251:
	.loc 1 130 2691 is_stmt 1
	.loc 1 130 2692
	.loc 1 130 2709 is_stmt 0
	lw	a3,20(sp)
	sw	a1,0(a3)
	.loc 1 130 2734 is_stmt 1
	.loc 1 130 2751 is_stmt 0
	sw	a0,48(sp)
	sw	a0,0(t0)
.LBE255:
.LBB256:
	.loc 1 130 2784 is_stmt 1
.LVL252:
	.loc 1 130 2967
	.loc 1 130 2983 is_stmt 0
	li	a3,64
	sw	a3,0(a5)
	.loc 1 130 3050 is_stmt 1
	.loc 1 130 3066 is_stmt 0
	li	a1,7
	sw	a1,0(t4)
	.loc 1 130 3072 is_stmt 1
	.loc 1 130 3089 is_stmt 0
	lw	a3,12(sp)
	.loc 1 130 3282
	li	a1,16
	.loc 1 130 3089
	sw	a6,0(a3)
	.loc 1 130 3181 is_stmt 1
	.loc 1 130 3198 is_stmt 0
	sw	zero,0(t2)
	.loc 1 130 3265 is_stmt 1
	.loc 1 130 3282 is_stmt 0
	sw	a1,0(s8)
	.loc 1 130 3329 is_stmt 1
	.loc 1 130 3346 is_stmt 0
	sw	s0,0(a7)
	.loc 1 130 3352 is_stmt 1
	.loc 1 130 3369 is_stmt 0
	li	a1,63
	sw	a1,0(t5)
	.loc 1 130 3440 is_stmt 1
	.loc 1 130 3457 is_stmt 0
	lw	a1,8(sp)
	sw	zero,0(a1)
	.loc 1 130 3504 is_stmt 1
	.loc 1 130 3521 is_stmt 0
	li	a1,4
	sw	a1,0(t3)
	.loc 1 130 3550 is_stmt 1
	.loc 1 130 3590 is_stmt 0
	li	a1,15
	.loc 1 130 3567
	sw	s0,0(t1)
	.loc 1 130 3573 is_stmt 1
	.loc 1 130 3590 is_stmt 0
	sw	a1,0(s9)
	.loc 1 130 3641 is_stmt 1
	.loc 1 130 3658 is_stmt 0
	sw	zero,0(s6)
	.loc 1 130 3687 is_stmt 1
	.loc 1 130 3590 is_stmt 0
	mv	a0,a1
	.loc 1 130 3703
	li	a1,1
	sw	a1,0(s10)
	.loc 1 130 3714 is_stmt 1
	.loc 1 130 3730 is_stmt 0
	sw	s0,0(s5)
	.loc 1 130 3736 is_stmt 1
	.loc 1 130 3753 is_stmt 0
	sw	s0,0(s4)
	.loc 1 130 3782 is_stmt 1
	.loc 1 130 3799 is_stmt 0
	sw	zero,0(s3)
	.loc 1 130 3808 is_stmt 1
.LVL253:
	.loc 1 130 3967
	.loc 1 130 3983 is_stmt 0
	sw	zero,0(s2)
	.loc 1 130 4012 is_stmt 1
	.loc 1 130 4013
	.loc 1 130 4030 is_stmt 0
	lw	s7,36(sp)
	sw	s7,0(t0)
.LBE256:
	.loc 1 130 4062 is_stmt 1
	.loc 1 130 4063
	.loc 1 130 4079 is_stmt 0
	lw	a3,32(sp)
	lw	s7,16(sp)
	sw	a3,0(s7)
.LBB257:
	.loc 1 133 3 is_stmt 1
.LVL254:
	.loc 1 133 186
	.loc 1 133 202 is_stmt 0
	li	a3,64
	sw	a3,0(a5)
	.loc 1 133 269 is_stmt 1
	.loc 1 133 285 is_stmt 0
	li	a3,7
	sw	a3,0(t4)
	.loc 1 133 291 is_stmt 1
	.loc 1 133 308 is_stmt 0
	lw	a3,12(sp)
	sw	a6,0(a3)
	.loc 1 133 400 is_stmt 1
	.loc 1 133 417 is_stmt 0
	sw	zero,0(t2)
	.loc 1 133 484 is_stmt 1
	.loc 1 133 501 is_stmt 0
	li	a3,16
	sw	a3,0(s8)
	.loc 1 133 548 is_stmt 1
	.loc 1 133 565 is_stmt 0
	sw	s0,0(a7)
	.loc 1 133 571 is_stmt 1
	.loc 1 133 588 is_stmt 0
	li	a3,63
	sw	a3,0(t5)
	.loc 1 133 659 is_stmt 1
	.loc 1 133 676 is_stmt 0
	lw	a3,8(sp)
	sw	zero,0(a3)
	.loc 1 133 723 is_stmt 1
	.loc 1 133 740 is_stmt 0
	li	a3,4
	sw	a3,0(t3)
	.loc 1 133 769 is_stmt 1
	.loc 1 133 786 is_stmt 0
	sw	s0,0(t1)
	.loc 1 133 792 is_stmt 1
	.loc 1 133 809 is_stmt 0
	sw	a0,0(s9)
	.loc 1 133 860 is_stmt 1
	.loc 1 133 877 is_stmt 0
	sw	zero,0(s6)
	.loc 1 133 906 is_stmt 1
	.loc 1 133 922 is_stmt 0
	sw	a1,0(s10)
	.loc 1 133 933 is_stmt 1
	.loc 1 133 949 is_stmt 0
	sw	s0,0(s5)
	.loc 1 133 955 is_stmt 1
	.loc 1 133 972 is_stmt 0
	sw	s0,0(s4)
	.loc 1 133 1001 is_stmt 1
	.loc 1 133 1018 is_stmt 0
	sw	zero,0(s3)
	.loc 1 133 1027 is_stmt 1
.LVL255:
	.loc 1 133 1186
	.loc 1 133 1202 is_stmt 0
	sw	zero,0(s2)
	.loc 1 133 1231 is_stmt 1
	.loc 1 133 1232
	.loc 1 133 1249 is_stmt 0
	lw	s7,20(sp)
	li	a0,512
.LBE257:
.LBB258:
	.loc 1 133 1731
	li	a3,8
.LBE258:
.LBB259:
	.loc 1 133 1249
	sw	a0,0(s7)
	.loc 1 133 1288 is_stmt 1
	.loc 1 133 1305 is_stmt 0
	sw	s11,0(t0)
.LBE259:
.LBB260:
	.loc 1 133 1338 is_stmt 1
.LVL256:
	.loc 1 133 1383
	.loc 1 133 1400 is_stmt 0
	sw	a4,0(t3)
	.loc 1 133 1412 is_stmt 1
	.loc 1 133 1429 is_stmt 0
	sw	s0,0(t1)
	.loc 1 133 1435 is_stmt 1
	.loc 1 133 1452 is_stmt 0
	lw	a0,28(sp)
	.loc 1 133 1580
	li	s11,32
	.loc 1 133 1452
	sw	a0,0(s9)
	.loc 1 133 1480 is_stmt 1
	.loc 1 133 1497 is_stmt 0
	sw	zero,0(s6)
	.loc 1 133 1509 is_stmt 1
	.loc 1 133 1526 is_stmt 0
	sw	s0,0(a7)
	.loc 1 133 1563 is_stmt 1
	.loc 1 133 1580 is_stmt 0
	sw	s11,0(s8)
	.loc 1 133 1620 is_stmt 1
	.loc 1 133 1637 is_stmt 0
	sw	a2,0(t5)
	.loc 1 133 1642 is_stmt 1
	.loc 1 133 1659 is_stmt 0
	lw	a0,8(sp)
	sw	zero,0(a0)
	.loc 1 133 1662 is_stmt 1
	.loc 1 133 1678 is_stmt 0
	sw	s0,0(s5)
	.loc 1 133 1715 is_stmt 1
	.loc 1 133 1731 is_stmt 0
	sw	a3,0(s10)
	.loc 1 133 1757 is_stmt 1
	.loc 1 133 1774 is_stmt 0
	sw	a2,0(s4)
	.loc 1 133 1779 is_stmt 1
	.loc 1 133 1796 is_stmt 0
	sw	zero,0(s3)
	.loc 1 133 1799 is_stmt 1
	.loc 1 133 1815 is_stmt 0
	li	a3,7
	sw	a3,0(t4)
	.loc 1 133 1853 is_stmt 1
	.loc 1 133 1869 is_stmt 0
	sw	a1,0(a5)
	.loc 1 133 1880 is_stmt 1
	.loc 1 133 1897 is_stmt 0
	lw	s11,12(sp)
	.loc 1 133 1869
	mv	a3,a1
	.loc 1 133 1897
	sw	a2,0(s11)
	.loc 1 133 1902 is_stmt 1
	.loc 1 133 1919 is_stmt 0
	sw	zero,0(t2)
	.loc 1 133 1922 is_stmt 1
	.loc 1 133 1938 is_stmt 0
	lw	a2,60(sp)
	sw	a2,0(s2)
	.loc 1 133 2049 is_stmt 1
	.loc 1 133 2066 is_stmt 0
	lw	s11,56(sp)
	sw	s11,0(t0)
.LBE260:
	.loc 1 133 2098 is_stmt 1
	.loc 1 133 2099
	.loc 1 133 2115 is_stmt 0
	lw	a0,32(sp)
	lw	a2,16(sp)
.LBB261:
	.loc 1 133 2384
	li	s11,31
.LBE261:
	.loc 1 133 2115
	sw	a0,0(a2)
.LBB262:
	.loc 1 133 2205 is_stmt 1
.LVL257:
	.loc 1 133 2328
	.loc 1 133 2362 is_stmt 0
	lw	a2,44(t6)
	.loc 1 133 2709
	li	a0,512
	.loc 1 133 2345
	sw	a2,0(t3)
.LVL258:
	.loc 1 133 2367 is_stmt 1
	.loc 1 133 2384 is_stmt 0
	sw	s11,0(t1)
	.loc 1 133 2390 is_stmt 1
	.loc 1 133 2426 is_stmt 0
	lw	a1,44(t6)
	lw	a2,48(t6)
	mul	a2,a2,a1
	.loc 1 133 2501
	mv	a1,a3
	.loc 1 133 2443
	addi	a2,a2,-1
	.loc 1 133 2407
	sw	a2,0(s9)
	.loc 1 133 2446 is_stmt 1
	.loc 1 133 2463 is_stmt 0
	sw	zero,0(s6)
	.loc 1 133 2485 is_stmt 1
	.loc 1 133 2501 is_stmt 0
	sw	a3,0(s10)
	.loc 1 133 2512 is_stmt 1
	.loc 1 133 2528 is_stmt 0
	li	a2,15
	sw	a2,0(s5)
	.loc 1 133 2534 is_stmt 1
	.loc 1 133 2528 is_stmt 0
	mv	a3,a2
	.loc 1 133 2565
	lw	a2,44(t6)
	.loc 1 133 2567
	lw	s11,24(sp)
	.loc 1 133 2565
	addi	a2,a2,-1
	.loc 1 133 2567
	sub	a2,a2,s11
	.loc 1 133 2551
	sw	a2,0(s4)
	.loc 1 133 2573 is_stmt 1
	.loc 1 133 2590 is_stmt 0
	sw	s11,24(sp)
	sw	s11,0(s3)
	.loc 1 133 2599 is_stmt 1
.LVL259:
	.loc 1 133 2639
	.loc 1 133 2655 is_stmt 0
	lw	a2,52(sp)
	sw	a2,0(s2)
	.loc 1 133 2691 is_stmt 1
	.loc 1 133 2692
	.loc 1 133 2709 is_stmt 0
	sw	s7,20(sp)
	sw	a0,0(s7)
	.loc 1 133 2734 is_stmt 1
	.loc 1 133 2751 is_stmt 0
	lw	s11,48(sp)
.LBE262:
.LBB263:
	.loc 1 133 2983
	li	a2,64
.LBE263:
.LBB264:
	.loc 1 133 2751
	sw	s11,0(t0)
.LBE264:
.LBB265:
	.loc 1 133 2784 is_stmt 1
.LVL260:
	.loc 1 133 2967
	.loc 1 133 2983 is_stmt 0
	sw	a2,0(a5)
	.loc 1 133 3050 is_stmt 1
	.loc 1 133 3066 is_stmt 0
	li	a2,7
	sw	a2,0(t4)
	.loc 1 133 3072 is_stmt 1
	.loc 1 133 3089 is_stmt 0
	lw	s11,12(sp)
	sw	a6,0(s11)
	.loc 1 133 3181 is_stmt 1
	.loc 1 133 3198 is_stmt 0
	sw	zero,0(t2)
	.loc 1 133 3265 is_stmt 1
	.loc 1 133 3282 is_stmt 0
	li	a6,16
	sw	a6,0(s8)
	.loc 1 133 3329 is_stmt 1
	.loc 1 133 3346 is_stmt 0
	sw	s0,0(a7)
	.loc 1 133 3352 is_stmt 1
	.loc 1 133 3369 is_stmt 0
	li	a6,63
	sw	a6,0(t5)
	.loc 1 133 3440 is_stmt 1
	.loc 1 133 3457 is_stmt 0
	lw	a0,8(sp)
	.loc 1 133 3521
	li	a6,4
	.loc 1 133 3457
	sw	zero,0(a0)
	.loc 1 133 3504 is_stmt 1
	.loc 1 133 3521 is_stmt 0
	sw	a6,0(t3)
	.loc 1 133 3550 is_stmt 1
	.loc 1 133 3567 is_stmt 0
	sw	s0,0(t1)
	.loc 1 133 3573 is_stmt 1
	.loc 1 133 3590 is_stmt 0
	sw	a3,0(s9)
	.loc 1 133 3641 is_stmt 1
	.loc 1 133 3658 is_stmt 0
	sw	zero,0(s6)
	.loc 1 133 3687 is_stmt 1
	.loc 1 133 3703 is_stmt 0
	sw	a1,0(s10)
	.loc 1 133 3714 is_stmt 1
	.loc 1 133 3730 is_stmt 0
	sw	s0,0(s5)
	.loc 1 133 3736 is_stmt 1
	.loc 1 133 3753 is_stmt 0
	sw	s0,0(s4)
	.loc 1 133 3782 is_stmt 1
	.loc 1 133 3799 is_stmt 0
	sw	zero,0(s3)
	.loc 1 133 3808 is_stmt 1
.LVL261:
	.loc 1 133 3967
	.loc 1 133 3983 is_stmt 0
	sw	zero,0(s2)
	.loc 1 133 4012 is_stmt 1
	.loc 1 133 4013
	.loc 1 133 4030 is_stmt 0
	lw	s7,36(sp)
	sw	s7,0(t0)
.LBE265:
	.loc 1 133 4062 is_stmt 1
	.loc 1 133 4063
	.loc 1 133 4079 is_stmt 0
	lw	a6,32(sp)
	lw	s7,16(sp)
	sw	a6,0(s7)
	.loc 1 92 26 is_stmt 1 discriminator 2
.LVL262:
	.loc 1 92 17 discriminator 1
	lw	s0,24(sp)
	lw	s7,40(sp)
	addi	a6,s0,15
	sw	a6,24(sp)
	lw	a6,116(sp)
	blt	s7,a6,.L64
	lw	s0,132(sp)
	.loc 1 91 23 discriminator 2
	lw	s1,128(sp)
	lw	s2,120(sp)
	addi	s0,s0,1
.LVL263:
	.loc 1 91 17 discriminator 1
	lw	s3,124(sp)
	addi	s1,s1,-8
	beq	s2,s0,.L61
.LVL264:
.L66:
	.loc 1 92 17 discriminator 1
.LBB266:
	.loc 1 108 1546 is_stmt 0
	slli	a5,s0,3
	sw	a5,120(sp)
.LBE266:
.LBB267:
	.loc 1 130 2209
	slli	a5,s0,5
.LBE267:
.LBB268:
	.loc 1 108 1832
	sw	s1,96(sp)
.LBE268:
.LBB269:
	.loc 1 130 2209
	sw	a5,24(sp)
.LVL265:
.L55:
.LBE269:
.LBB270:
	.loc 1 101 54
	li	a5,-2147483648
	li	a4,4096
	sw	a4,800(a5)
	.loc 1 101 82
	li	t1,-2147483648
	.loc 1 101 105
	li	a4,16384
	.loc 1 101 82
	sw	zero,928(t1)
	.loc 1 101 105
	li	a5,-2147483648
	addi	a4,a4,-1
	sw	a4,1440(a5)
	.loc 1 101 150
	li	ra,-2147479552
	sw	zero,-1248(ra)
	.loc 1 101 179
	li	a5,-2147483648
	li	a4,5
	sw	a4,1824(a5)
	.loc 1 101 241
	li	a3,48
	li	t2,-2147483648
	sw	a3,1696(t2)
	.loc 1 101 304
	li	a5,287
	li	s5,-2147483648
	sw	a5,1952(s5)
	.loc 1 101 326
	li	t3,-2147479552
	sw	zero,-1120(t3)
	.loc 1 101 346
	li	s4,-2147479552
	sw	zero,-1888(s4)
	.loc 1 101 392
	li	a4,-2147479552
	li	a2,8
	sw	a2,-2016(a4)
	.loc 1 101 435
	li	t5,-2147479552
	sw	a5,-1760(t5)
	.loc 1 101 457
	li	a7,-2147479552
	sw	zero,-992(a7)
	.loc 1 101 476
	li	a4,-2147483648
	li	a2,7
	sw	a2,672(a4)
	.loc 1 101 532
	li	t4,-2147483648
	li	a4,1
	sw	a4,1056(t4)
	.loc 1 101 560
	li	a6,-2147483648
	sw	a5,1568(a6)
	.loc 1 101 582
	li	a0,-2147479552
	.loc 1 101 601
	li	a4,524288
	.loc 1 101 582
	sw	zero,-864(a0)
	.loc 1 101 601
	li	a5,-2147483648
	addi	a4,a4,8
	sw	a4,544(a5)
	.loc 1 101 733
	li	a1,-2147479552
	.loc 1 101 871
	li	a4,1032192
	.loc 1 101 733
	sw	a3,-736(a1)
	.loc 1 101 871
	li	a5,-2147479552
	addi	a4,a4,95
	sw	a4,-1632(a5)
.LBE270:
	.loc 1 101 921
	li	a2,-2147479552
	.loc 1 101 943
	li	t0,1036288
	.loc 1 101 921
	sw	zero,-480(a2)
	.loc 1 101 943
	addi	t0,t0,-1955
	sw	t0,-1632(a5)
	.loc 1 101 991
	li	a3,393216
	li	a4,-2147483648
	addi	a3,a3,1
	sw	s3,32(sp)
	.loc 1 93 10 is_stmt 1
.LVL266:
	.loc 1 96 10
.LBB271:
	.loc 1 101 3
	.loc 1 101 38
	.loc 1 101 66
	.loc 1 101 88
	.loc 1 101 133
	.loc 1 101 162
	.loc 1 101 224
	.loc 1 101 287
	.loc 1 101 309
	.loc 1 101 329
	.loc 1 101 375
	.loc 1 101 418
	.loc 1 101 440
	.loc 1 101 460
	.loc 1 101 516
	.loc 1 101 543
	.loc 1 101 565
	.loc 1 101 585
	.loc 1 101 716
	.loc 1 101 854
.LBE271:
	.loc 1 101 903
	.loc 1 101 904
	.loc 1 101 926
	.loc 1 101 974
	.loc 1 101 975
.LBB272:
	.loc 1 108 2003 is_stmt 0
	li	a5,67108864
.LBE272:
	.loc 1 101 991
	sw	a3,20(a4)
.LBB273:
	.loc 1 101 532
	addi	t4,t4,1056
	.loc 1 101 435
	addi	t5,t5,-1760
.LBE273:
.LBB274:
	.loc 1 108 2003
	addi	a5,a5,-1
.LBE274:
.LBB275:
	.loc 1 101 82
	addi	t1,t1,928
.LBE275:
	.loc 1 101 991
	sw	zero,28(sp)
	sw	zero,40(sp)
.LBB276:
	.loc 1 108 2003
	sw	a5,124(sp)
	sw	s2,128(sp)
	sw	s3,132(sp)
	sw	s1,136(sp)
	mv	s8,t6
	sw	s0,140(sp)
	mv	s9,t5
	mv	s10,t4
	j	.L53
.LVL267:
.L65:
.LBE276:
	.loc 1 93 10 is_stmt 1
	.loc 1 96 10
.LBB277:
	.loc 1 98 3
	.loc 1 98 38
	.loc 1 98 54 is_stmt 0
	li	t4,4096
	sw	t4,0(a4)
.LVL268:
	.loc 1 98 66 is_stmt 1
	.loc 1 98 82 is_stmt 0
	sw	zero,0(t1)
	.loc 1 98 88 is_stmt 1
	.loc 1 98 105 is_stmt 0
	lw	s7,44(sp)
	.loc 1 98 179
	li	t4,5
	.loc 1 98 241
	li	s0,48
	.loc 1 98 105
	sw	s7,0(a5)
	.loc 1 98 133 is_stmt 1
	.loc 1 98 150 is_stmt 0
	lw	s7,8(sp)
	.loc 1 98 392
	li	ra,8
	.loc 1 98 476
	mv	t5,a1
	.loc 1 98 150
	sw	zero,0(s7)
	.loc 1 98 162 is_stmt 1
	.loc 1 98 179 is_stmt 0
	sw	t4,0(t3)
	.loc 1 98 224 is_stmt 1
	.loc 1 98 241 is_stmt 0
	sw	s0,0(a7)
	.loc 1 98 287 is_stmt 1
	.loc 1 98 304 is_stmt 0
	sw	s1,0(a6)
	.loc 1 98 309 is_stmt 1
	.loc 1 98 326 is_stmt 0
	sw	zero,0(a3)
	.loc 1 98 329 is_stmt 1
	.loc 1 98 346 is_stmt 0
	sw	zero,0(t6)
	.loc 1 98 375 is_stmt 1
	.loc 1 98 392 is_stmt 0
	sw	ra,0(t2)
	.loc 1 98 418 is_stmt 1
	.loc 1 98 435 is_stmt 0
	sw	s1,0(s9)
	.loc 1 98 440 is_stmt 1
	.loc 1 98 457 is_stmt 0
	sw	zero,0(s6)
	.loc 1 98 460 is_stmt 1
	.loc 1 98 476 is_stmt 0
	sw	a1,0(s5)
	.loc 1 98 516 is_stmt 1
	.loc 1 98 532 is_stmt 0
	sw	a0,0(s10)
	.loc 1 98 543 is_stmt 1
	.loc 1 98 560 is_stmt 0
	sw	s1,0(s4)
	.loc 1 98 565 is_stmt 1
	.loc 1 98 601 is_stmt 0
	li	a1,524288
	.loc 1 98 582
	sw	zero,0(s3)
	.loc 1 98 585 is_stmt 1
	.loc 1 98 601 is_stmt 0
	addi	a1,a1,8
	sw	a1,0(s2)
	.loc 1 98 716 is_stmt 1
	.loc 1 98 733 is_stmt 0
	mv	a1,s0
	lw	s0,16(sp)
	.loc 1 98 326
	mv	s11,a3
.LBE277:
.LBB278:
	.loc 1 98 969
	li	a3,4096
.LBE278:
.LBB279:
	.loc 1 98 733
	sw	a1,0(s0)
	.loc 1 98 854 is_stmt 1
	.loc 1 98 871 is_stmt 0
	lw	s0,36(sp)
	sw	s0,0(t0)
.LBE279:
.LBB280:
	.loc 1 98 904 is_stmt 1
.LVL269:
	.loc 1 98 953
	.loc 1 98 969 is_stmt 0
	sw	a3,0(a4)
	.loc 1 98 981 is_stmt 1
	.loc 1 98 1020 is_stmt 0
	li	a4,4096
	.loc 1 98 997
	sw	zero,0(t1)
	.loc 1 98 1003 is_stmt 1
	.loc 1 98 1020 is_stmt 0
	addi	a3,a4,-1
	sw	a3,0(a5)
	.loc 1 98 1048 is_stmt 1
	.loc 1 98 1065 is_stmt 0
	li	a5,12288
	sw	a5,0(s7)
	.loc 1 98 1077 is_stmt 1
	.loc 1 98 1094 is_stmt 0
	sw	t4,0(t3)
	.loc 1 98 1139 is_stmt 1
	.loc 1 98 1156 is_stmt 0
	sw	a1,0(a7)
	.loc 1 98 1202 is_stmt 1
	.loc 1 98 1219 is_stmt 0
	sw	s1,0(a6)
	.loc 1 98 1224 is_stmt 1
	.loc 1 98 1241 is_stmt 0
	sw	zero,0(s11)
	.loc 1 98 1244 is_stmt 1
	.loc 1 98 1261 is_stmt 0
	sw	zero,0(t6)
	.loc 1 98 1320 is_stmt 1
	.loc 1 98 1337 is_stmt 0
	sw	ra,0(t2)
	.loc 1 98 1363 is_stmt 1
	.loc 1 98 1380 is_stmt 0
	sw	s1,0(s9)
	.loc 1 98 1385 is_stmt 1
	.loc 1 98 1402 is_stmt 0
	sw	zero,0(s6)
	.loc 1 98 1405 is_stmt 1
	.loc 1 98 1421 is_stmt 0
	sw	t5,0(s5)
	.loc 1 98 1461 is_stmt 1
	.loc 1 98 1477 is_stmt 0
	sw	a0,0(s10)
	.loc 1 98 1488 is_stmt 1
	.loc 1 98 1505 is_stmt 0
	sw	s1,0(s4)
	.loc 1 98 1510 is_stmt 1
	.loc 1 98 1546 is_stmt 0
	li	a5,536576
	.loc 1 98 1527
	sw	zero,0(s3)
	.loc 1 98 1530 is_stmt 1
	.loc 1 98 1546 is_stmt 0
	addi	a5,a5,32
	sw	a5,0(s2)
	.loc 1 98 1675 is_stmt 1
	.loc 1 98 1692 is_stmt 0
	lw	a6,48(sp)
	sw	a6,0(t0)
.LBE280:
	.loc 1 98 1724 is_stmt 1
	.loc 1 98 1725
	.loc 1 98 1741 is_stmt 0
	lw	a7,52(sp)
	sw	a7,0(a2)
	lw	a4,80(sp)
	sw	a4,32(sp)
.LVL270:
.L53:
	.loc 1 104 1 is_stmt 1
	.loc 1 104 2
	.loc 1 104 18 is_stmt 0
	li	a2,-2147483648
	li	a5,88
	sw	a5,20(a2)
.LBB281:
	.loc 1 108 3 is_stmt 1
.LVL271:
	.loc 1 108 204
	.loc 1 108 220 is_stmt 0
	li	a4,-2147483648
	li	a5,96
	sw	a5,800(a4)
	.loc 1 108 305 is_stmt 1
	.loc 1 108 321 is_stmt 0
	li	a1,7
	sw	a1,0(t1)
	.loc 1 108 327 is_stmt 1
	.loc 1 108 344 is_stmt 0
	li	a5,-2147483648
	li	a3,767
	sw	a3,1440(a5)
	.loc 1 108 454 is_stmt 1
	.loc 1 108 471 is_stmt 0
	li	a0,-2147479552
	sw	a0,8(sp)
	sw	zero,-1248(a0)
	.loc 1 108 556 is_stmt 1
	.loc 1 108 573 is_stmt 0
	li	a7,-2147483648
	li	a3,16
	sw	a3,1696(a7)
	.loc 1 108 632 is_stmt 1
	.loc 1 108 649 is_stmt 0
	li	t3,-2147483648
	li	t4,5
	sw	t4,1824(t3)
	.loc 1 108 655 is_stmt 1
	.loc 1 108 672 is_stmt 0
	li	a6,-2147483648
	li	a0,95
	sw	a0,1952(a6)
	.loc 1 108 761 is_stmt 1
	.loc 1 108 778 is_stmt 0
	li	a3,-2147479552
	sw	a3,12(sp)
	sw	zero,-1120(a3)
	.loc 1 108 837 is_stmt 1
	.loc 1 108 854 is_stmt 0
	li	t2,-2147479552
	li	s11,4
	.loc 1 108 912
	li	s0,3
	.loc 1 108 854
	sw	s11,-2016(t2)
	.loc 1 108 895 is_stmt 1
	.loc 1 108 912 is_stmt 0
	li	t6,-2147479552
	sw	s0,-1888(t6)
	.loc 1 108 918 is_stmt 1
	.loc 1 108 935 is_stmt 0
	li	a3,15
	sw	a3,0(s9)
	.loc 1 108 998 is_stmt 1
	.loc 1 108 1015 is_stmt 0
	li	s6,-2147479552
	sw	zero,-992(s6)
	.loc 1 108 1056 is_stmt 1
	.loc 1 108 1072 is_stmt 0
	li	ra,1
	sw	ra,0(s10)
	.loc 1 108 1083 is_stmt 1
	.loc 1 108 1099 is_stmt 0
	li	s5,-2147483648
	.loc 1 108 1122
	li	s4,-2147483648
	.loc 1 108 1099
	sw	s0,672(s5)
	.loc 1 108 1105 is_stmt 1
	.loc 1 108 1180 is_stmt 0
	li	s3,-2147479552
	.loc 1 108 1122
	sw	s0,1568(s4)
	.loc 1 108 1163 is_stmt 1
	.loc 1 108 1406 is_stmt 0
	li	s2,-2147483648
	.loc 1 108 1180
	sw	zero,-864(s3)
	.loc 1 108 1189 is_stmt 1
.LVL272:
	.loc 1 108 1390
	.loc 1 108 1453 is_stmt 0
	li	t5,-2147479552
	.loc 1 108 1406
	sw	zero,544(s2)
	.loc 1 108 1435 is_stmt 1
	.loc 1 108 1436
	.loc 1 108 1453 is_stmt 0
	addi	s1,t5,-736
	sw	s1,16(sp)
	li	t5,768
	.loc 1 108 1509
	li	a3,1036288
	.loc 1 108 1453
	sw	t5,0(s1)
	.loc 1 108 1492 is_stmt 1
	.loc 1 108 1509 is_stmt 0
	li	t0,-2147479552
	addi	a3,a3,-1889
	sw	a3,-1632(t0)
.LBE281:
.LBB282:
	.loc 1 108 1542 is_stmt 1
.LVL273:
	.loc 1 108 1782 is_stmt 0
	lw	a3,28(s8)
	.loc 1 108 2260
	li	s1,-2147479552
	addi	s11,s1,-96
	sw	s11,20(sp)
	.loc 1 108 1782
	slli	a3,a3,2
	.loc 1 108 1751
	sw	a3,1696(a7)
.LVL274:
	.loc 1 108 1804
	sw	a1,1824(t3)
	.loc 1 108 1837
	lw	s7,96(sp)
	lw	a1,28(s8)
	.loc 1 108 2362
	li	s1,1036288
	addi	s1,s1,157
	.loc 1 108 1837
	mul	a1,s7,a1
	.loc 1 108 2362
	sw	s1,44(sp)
.LBE282:
.LBB283:
	.loc 1 108 3119
	li	t5,524288
	addi	t5,t5,16
.LBE283:
	.loc 1 108 2411
	li	s7,393216
	addi	a0,s7,17
	mv	a3,a0
.LBB284:
	.loc 1 108 2615
	li	a0,16384
	addi	s7,a0,-1
.LBE284:
.LBB285:
	.loc 1 108 0
	li	a0,1036288
.LBE285:
.LBB286:
	.loc 1 108 1837
	slli	a1,a1,2
	.loc 1 108 1868
	addi	a1,a1,-1
	.loc 1 108 1827
	sw	a1,1952(a6)
	.loc 1 108 1892
	lw	a1,28(s8)
.LBE286:
.LBB287:
	.loc 1 108 3119
	sw	t5,48(sp)
.LBE287:
.LBB288:
	.loc 1 108 1892
	lw	s11,120(sp)
.LBE288:
.LBB289:
	.loc 1 108 3401
	li	t5,1032192
	addi	t5,t5,1183
.LBE289:
.LBB290:
	.loc 1 108 1892
	mul	a1,s11,a1
.LBE290:
.LBB291:
	.loc 1 108 3401
	sw	t5,56(sp)
.LBE291:
.LBB292:
	.loc 1 114 633
	li	t5,524288
.LBE292:
.LBB293:
	.loc 1 108 0
	addi	a0,a0,-1891
.LBE293:
.LBB294:
	.loc 1 114 633
	addi	t5,t5,48
.LBE294:
.LBB295:
	.loc 1 108 0
	sw	a0,60(sp)
.LBE295:
.LBB296:
	.loc 1 114 633
	sw	t5,64(sp)
.LBE296:
.LBB297:
	.loc 1 108 1888
	lw	a0,12(sp)
.LBE297:
.LBB298:
	.loc 1 114 945
	li	t5,1032192
	addi	t5,t5,159
	sw	t5,36(sp)
.LBE298:
.LBB299:
	.loc 1 108 1892
	slli	a1,a1,2
	.loc 1 108 1888
	sw	a1,-1120(a0)
	.loc 1 108 1958
	lw	a1,28(s8)
.LBE299:
.LBB300:
	.loc 1 108 2812
	li	s1,287
.LBE300:
.LBB301:
	.loc 1 114 1090
	li	t5,12288
.LBE301:
.LBB302:
	.loc 1 108 1941
	sw	a1,-2016(t2)
	.loc 1 108 1980
	sw	t4,-1888(t6)
	.loc 1 108 2003
	lw	a1,124(sp)
.LBE302:
.LBB303:
	.loc 1 114 1090
	addi	t5,t5,-1
.LBE303:
.LBB304:
	.loc 1 108 220
	addi	a4,a4,800
.LBE304:
.LBB305:
	.loc 1 108 2003
	sw	a1,0(s9)
	.loc 1 108 2032
	sw	zero,-992(s6)
	.loc 1 108 2070
	sw	ra,0(s10)
	.loc 1 108 2097
	li	ra,15
	sw	ra,672(s5)
	.loc 1 108 2134
	lw	a1,28(s8)
	.loc 1 108 2136
	lw	a0,32(sp)
.LBE305:
.LBB306:
	.loc 1 114 1590
	li	ra,528384
	addi	ra,ra,16
.LBE306:
.LBB307:
	.loc 1 108 2134
	addi	a1,a1,-1
.LBE307:
.LBB308:
	.loc 1 114 1590
	sw	ra,68(sp)
.LBE308:
.LBB309:
	.loc 1 108 2136
	sub	a1,a1,a0
	.loc 1 108 2120
	sw	a1,1568(s4)
	.loc 1 108 2159
	sw	a0,-864(s3)
	.loc 1 108 2180
	lw	a1,28(s8)
	.loc 1 108 2172
	sw	a0,32(sp)
.LBE309:
.LBB310:
	.loc 1 114 1724
	li	ra,1032192
.LBE310:
.LBB311:
	.loc 1 108 2180
	mul	a1,s11,a1
.LBE311:
	.loc 1 114 1773
	li	s11,393216
	addi	s11,s11,9
	sw	s11,72(sp)
.LBB312:
	.loc 1 118 611
	li	s11,528384
	addi	s11,s11,8
	sw	s11,76(sp)
.LBE312:
.LBB313:
	.loc 1 118 1538
	li	s11,524288
	addi	s11,s11,40
	sw	s11,80(sp)
.LBE313:
.LBB314:
	.loc 1 108 2180
	slli	a1,a1,2
.LBE314:
	.loc 1 118 1729
	li	s11,393216
.LBB315:
	.loc 1 108 2172
	add	a1,a1,a0
.LBE315:
	.loc 1 118 1729
	addi	s11,s11,1
.LBB316:
	.loc 1 108 2289
	lw	a0,104(sp)
.LBE316:
	.loc 1 118 1729
	sw	s11,52(sp)
.LBB317:
	.loc 1 108 2260
	lw	s11,20(sp)
	.loc 1 108 2289
	sub	a0,a0,a1
.LBE317:
.LBB318:
	.loc 1 114 1724
	addi	ra,ra,157
.LBE318:
.LBB319:
	.loc 1 108 2260
	sw	a0,0(s11)
	.loc 1 108 2318
	lw	s11,100(sp)
.LBE319:
.LBB320:
	.loc 1 108 2749
	li	a0,48
.LBE320:
.LBB321:
	.loc 1 108 344
	addi	a5,a5,1440
.LBE321:
.LBB322:
	.loc 1 108 2318
	add	a1,a1,s11
	.loc 1 108 2313
	sw	a1,544(s2)
	.loc 1 108 2362
	lw	s11,44(sp)
.LBE322:
.LBB323:
	.loc 1 108 2996
	li	a1,7
.LBE323:
.LBB324:
	.loc 1 108 649
	addi	t3,t3,1824
.LBE324:
.LBB325:
	.loc 1 108 2362
	sw	s11,-1632(t0)
.LBE325:
	.loc 1 108 2411
	sw	a3,20(sp)
	sw	a3,20(a2)
.LBB326:
	.loc 1 108 2563
	li	a3,4096
	sw	a3,-2016(t2)
	.loc 1 108 2592
	sw	s0,-1888(t6)
	.loc 1 108 2615
	sw	s7,0(s9)
	.loc 1 108 2660
	sw	zero,-992(s6)
	.loc 1 108 2689
	sw	t4,0(t3)
	.loc 1 108 2749
	sw	a0,1696(a7)
	.loc 1 108 2812
	sw	s1,1952(a6)
	.loc 1 108 2834
	lw	a0,12(sp)
	.loc 1 108 3253
	li	t4,768
.LBE326:
.LBB327:
	.loc 1 108 573
	addi	a7,a7,1696
.LBE327:
.LBB328:
	.loc 1 108 2834
	sw	zero,-1120(a0)
	.loc 1 108 2853
	sw	s0,672(s5)
	.loc 1 108 2912
	li	a0,8
	sw	a0,0(s10)
	.loc 1 108 2955
	sw	s1,1568(s4)
	.loc 1 108 2977
	sw	zero,-864(s3)
	.loc 1 108 2996
	sw	a1,0(t1)
	mv	a0,a1
	.loc 1 108 3050
	li	a1,1
	sw	a1,0(a4)
	.loc 1 108 3078
	sw	s1,0(a5)
	.loc 1 108 3100
	lw	s11,8(sp)
.LBE328:
.LBB329:
	.loc 1 108 672
	addi	a6,a6,1952
	.loc 1 108 912
	addi	t6,t6,-1888
.LBE329:
.LBB330:
	.loc 1 108 3100
	sw	zero,-1248(s11)
	.loc 1 108 3119
	lw	s11,48(sp)
.LBE330:
.LBB331:
	.loc 1 108 854
	addi	t2,t2,-2016
	.loc 1 108 1509
	addi	t0,t0,-1632
.LBE331:
.LBB332:
	.loc 1 108 3119
	sw	s11,544(s2)
	.loc 1 108 3253
	lw	a3,16(sp)
.LBE332:
	.loc 1 104 18
	addi	a2,a2,20
.LBB333:
	.loc 1 108 1015
	addi	s6,s6,-992
.LBE333:
.LBB334:
	.loc 1 108 3253
	sw	t4,0(a3)
	.loc 1 108 3401
	lw	s11,56(sp)
.LBE334:
.LBB335:
	.loc 1 108 3651
	li	t4,96
.LBE335:
.LBB336:
	.loc 1 108 1099
	addi	s5,s5,672
.LBE336:
.LBB337:
	.loc 1 108 3401
	sw	s11,0(t0)
.LBE337:
.LBB338:
	.loc 1 108 3651
	sw	t4,0(a4)
	.loc 1 108 3752
	sw	a0,0(t1)
	.loc 1 108 3775
	li	t4,767
	sw	t4,0(a5)
	.loc 1 108 3902
	lw	a3,8(sp)
	.loc 1 108 4004
	li	t4,16
	.loc 1 108 0
	li	a0,95
	.loc 1 108 3902
	sw	zero,-1248(a3)
	.loc 1 108 4004
	sw	t4,0(a7)
	.loc 1 108 4080
	li	t4,5
	sw	t4,0(t3)
	.loc 1 108 0
	sw	a0,0(a6)
	lw	a0,12(sp)
	li	s11,4
.LBE338:
.LBB339:
	.loc 1 108 1122
	addi	s4,s4,1568
.LBE339:
.LBB340:
	.loc 1 108 0
	sw	zero,-1120(a0)
	sw	s11,0(t2)
	sw	s0,0(t6)
	li	a0,15
	sw	a0,0(s9)
	sw	zero,0(s6)
	sw	a1,0(s10)
	sw	s0,0(s5)
	sw	s0,0(s4)
	sw	zero,-864(s3)
	sw	zero,544(s2)
	lw	a0,60(sp)
.LBE340:
.LBB341:
	.loc 1 108 1180
	addi	s3,s3,-864
	.loc 1 108 1406
	addi	s2,s2,544
.LBE341:
.LBB342:
	.loc 1 108 0
	sw	a0,0(t0)
.LBE342:
	lw	a0,20(sp)
	sw	a0,0(a2)
.LBB343:
	.loc 1 114 58
	li	a0,4096
	sw	a0,0(a4)
	.loc 1 114 86
	li	a0,2
	sw	a0,0(t1)
	.loc 1 114 109
	sw	s7,0(a5)
	.loc 1 114 154
	sw	a3,8(sp)
	sw	zero,-1248(a3)
	.loc 1 114 183
	sw	t4,0(t3)
	.loc 1 114 245
	li	a0,48
	sw	a0,0(a7)
	.loc 1 114 308
	sw	s1,0(a6)
	.loc 1 114 330
	lw	t4,12(sp)
	.loc 1 114 424
	li	a0,8
	.loc 1 114 330
	sw	zero,-1120(t4)
	.loc 1 114 350
	sw	zero,0(t6)
	.loc 1 114 424
	sw	a0,0(t2)
	.loc 1 114 467
	sw	s1,0(s9)
	.loc 1 114 489
	sw	zero,0(s6)
	.loc 1 114 508
	li	t4,7
	sw	t4,0(s5)
	.loc 1 114 564
	sw	a1,0(s10)
	.loc 1 114 592
	sw	s1,0(s4)
	.loc 1 114 614
	sw	zero,0(s3)
	.loc 1 114 633
	lw	t4,64(sp)
	sw	t4,0(s2)
	.loc 1 114 779
	lw	a3,16(sp)
	li	t4,144
	sw	t4,0(a3)
	.loc 1 114 945
	lw	t4,36(sp)
.LBE343:
.LBB344:
	.loc 1 114 1039
	li	a3,4096
.LBE344:
.LBB345:
	.loc 1 114 945
	sw	t4,0(t0)
.LBE345:
.LBB346:
	.loc 1 114 1039
	sw	a3,0(a4)
	.loc 1 114 1067
	li	t4,2
	sw	t4,0(t1)
	.loc 1 114 1090
	sw	t5,0(a5)
	.loc 1 114 1135
	lw	a3,8(sp)
	li	t4,4096
	sw	t4,-1248(a3)
	.loc 1 114 1164
	li	t4,5
	sw	t4,0(t3)
	.loc 1 114 1226
	li	t4,48
	sw	t4,0(a7)
	.loc 1 114 1289
	sw	s1,0(a6)
	.loc 1 114 1311
	lw	t4,12(sp)
	sw	zero,-1120(t4)
	.loc 1 114 1331
	sw	zero,0(t6)
	.loc 1 114 1381
	sw	a0,0(t2)
	.loc 1 114 1424
	sw	s1,0(s9)
	.loc 1 114 1446
	sw	zero,0(s6)
	.loc 1 114 1465
	li	t4,7
	sw	t4,0(s5)
	.loc 1 114 1521
	sw	a1,0(s10)
	.loc 1 114 1549
	sw	s1,0(s4)
	.loc 1 114 1571
	sw	zero,0(s3)
	.loc 1 114 1590
	lw	t4,68(sp)
	sw	t4,0(s2)
	.loc 1 114 1724
	sw	ra,48(sp)
	sw	ra,0(t0)
.LBE346:
	.loc 1 114 1773
	lw	ra,72(sp)
.LBB347:
	.loc 1 118 64
	li	t4,4096
.LBE347:
	.loc 1 114 1773
	sw	ra,0(a2)
.LBB348:
	.loc 1 118 64
	sw	t4,0(a4)
	.loc 1 118 92
	li	ra,2
	sw	ra,0(t1)
	.loc 1 118 115
	sw	t5,0(a5)
	.loc 1 118 160
	sw	a3,8(sp)
	mv	ra,a3
	li	a3,4096
	sw	a3,-1248(ra)
	.loc 1 118 189
	li	t4,5
	sw	t4,0(t3)
	.loc 1 118 251
	li	t5,48
	sw	t5,0(a7)
	.loc 1 118 314
	sw	s1,0(a6)
	.loc 1 118 336
	lw	t5,12(sp)
	sw	zero,-1120(t5)
	.loc 1 118 356
	sw	zero,0(t6)
	.loc 1 118 402
	sw	a0,0(t2)
	.loc 1 118 445
	sw	s1,0(s9)
	.loc 1 118 467
	sw	zero,0(s6)
	.loc 1 118 486
	li	t5,7
	sw	t5,0(s5)
	.loc 1 118 542
	sw	a1,0(s10)
	.loc 1 118 570
	sw	s1,0(s4)
	.loc 1 118 592
	sw	zero,0(s3)
	.loc 1 118 611
	lw	ra,76(sp)
	sw	ra,0(s2)
	.loc 1 118 743
	lw	a3,16(sp)
	li	ra,144
	sw	ra,0(a3)
	.loc 1 118 881
	lw	ra,36(sp)
.LBE348:
.LBB349:
	.loc 1 118 969
	li	a3,4096
.LBE349:
.LBB350:
	.loc 1 118 881
	sw	ra,0(t0)
.LBE350:
.LBB351:
	.loc 1 118 969
	sw	a3,0(a4)
	sw	a4,92(sp)
	.loc 1 118 997
	li	a4,2
	sw	a4,0(t1)
	sw	t1,88(sp)
	.loc 1 118 1020
	sw	s7,0(a5)
	.loc 1 118 1065
	lw	ra,8(sp)
	.loc 1 118 1020
	sw	a5,84(sp)
	.loc 1 118 1156
	li	a5,48
	.loc 1 118 1065
	sw	zero,-1248(ra)
	.loc 1 118 1094
	sw	t4,0(t3)
	sw	t3,76(sp)
	.loc 1 118 1156
	sw	a5,0(a7)
.LVL275:
.LBE351:
.LBB352:
	.loc 1 108 1734 is_stmt 1
	.loc 1 108 1787
	.loc 1 108 1810
	.loc 1 108 1871
	.loc 1 108 1924
	.loc 1 108 1963
	.loc 1 108 1986
	.loc 1 108 2015
	.loc 1 108 2054
	.loc 1 108 2081
	.loc 1 108 2103
	.loc 1 108 2142
	.loc 1 108 2168
	.loc 1 108 2243
	.loc 1 108 2296
	.loc 1 108 2297
	.loc 1 108 2344
	.loc 1 108 2345
.LBE352:
	.loc 1 108 2394
	.loc 1 108 2395
.LBB353:
	.loc 1 108 2501
	.loc 1 108 2546
	.loc 1 108 2575
	.loc 1 108 2598
	.loc 1 108 2643
	.loc 1 108 2672
	.loc 1 108 2732
	.loc 1 108 2795
	.loc 1 108 2817
	.loc 1 108 2837
	.loc 1 108 2896
	.loc 1 108 2938
	.loc 1 108 2960
	.loc 1 108 2980
	.loc 1 108 3034
	.loc 1 108 3061
	.loc 1 108 3083
	.loc 1 108 3103
	.loc 1 108 3236
	.loc 1 108 3384
.LBE353:
.LBB354:
	.loc 1 108 3434
	.loc 1 108 3635
	.loc 1 108 3736
	.loc 1 108 3758
	.loc 1 108 3885
	.loc 1 108 3987
	.loc 1 108 4063
	.loc 1 108 4086
	.loc 1 108 0
	.loc 1 108 0
	.loc 1 108 0
	.loc 1 108 0
	.loc 1 108 0
	.loc 1 108 0
	.loc 1 108 0
	.loc 1 108 0
	.loc 1 108 0
	.loc 1 108 0
	.loc 1 108 0
	.loc 1 108 0
	.loc 1 108 0
.LBE354:
	.loc 1 108 0
	.loc 1 108 0
.LBB355:
	.loc 1 114 3
	.loc 1 114 42
	.loc 1 114 70
	.loc 1 114 92
	.loc 1 114 137
	.loc 1 114 166
	.loc 1 114 228
	.loc 1 114 291
	.loc 1 114 313
	.loc 1 114 333
	.loc 1 114 407
	.loc 1 114 450
	.loc 1 114 472
	.loc 1 114 492
	.loc 1 114 548
	.loc 1 114 575
	.loc 1 114 597
	.loc 1 114 617
	.loc 1 114 762
	.loc 1 114 928
.LBE355:
.LBB356:
	.loc 1 114 978
	.loc 1 114 1023
	.loc 1 114 1051
	.loc 1 114 1073
	.loc 1 114 1118
	.loc 1 114 1147
	.loc 1 114 1209
	.loc 1 114 1272
	.loc 1 114 1294
	.loc 1 114 1314
	.loc 1 114 1364
	.loc 1 114 1407
	.loc 1 114 1429
	.loc 1 114 1449
	.loc 1 114 1505
	.loc 1 114 1532
	.loc 1 114 1554
	.loc 1 114 1574
	.loc 1 114 1707
.LBE356:
	.loc 1 114 1756
	.loc 1 114 1757
.LBB357:
	.loc 1 118 3
	.loc 1 118 48
	.loc 1 118 76
	.loc 1 118 98
	.loc 1 118 143
	.loc 1 118 172
	.loc 1 118 234
	.loc 1 118 297
	.loc 1 118 319
	.loc 1 118 339
	.loc 1 118 385
	.loc 1 118 428
	.loc 1 118 450
	.loc 1 118 470
	.loc 1 118 526
	.loc 1 118 553
	.loc 1 118 575
	.loc 1 118 595
	.loc 1 118 726
	.loc 1 118 864
.LBE357:
.LBB358:
	.loc 1 118 914
	.loc 1 118 953
	.loc 1 118 981
	.loc 1 118 1003
	.loc 1 118 1048
	.loc 1 118 1077
	.loc 1 118 1139
	.loc 1 118 1202
	.loc 1 118 1224
	.loc 1 118 1244
	.loc 1 118 1312
	.loc 1 118 1355
	.loc 1 118 1377
	.loc 1 118 1397
	.loc 1 118 1453
	.loc 1 118 1480
	.loc 1 118 1502
	.loc 1 118 1522
	.loc 1 118 1663
.LBE358:
	.loc 1 118 1712
	.loc 1 118 1713
	.loc 1 120 10
	.loc 1 124 1
	.loc 1 124 2
	.loc 1 126 10
	.loc 1 126 10
.LBB359:
	.loc 1 118 1156 is_stmt 0
	sw	a7,72(sp)
	.loc 1 118 1219
	sw	s1,0(a6)
.LVL276:
	.loc 1 118 1241
	lw	a4,12(sp)
	.loc 1 118 1219
	sw	a6,68(sp)
.LBE359:
	.loc 1 124 18
	li	a5,1015812096
.LBB360:
	.loc 1 118 1241
	sw	zero,-1120(a4)
	.loc 1 118 1261
	sw	zero,0(t6)
	sw	t6,64(sp)
	.loc 1 118 1329
	sw	a0,0(t2)
	sw	t2,56(sp)
	.loc 1 118 1372
	sw	s1,0(s9)
	.loc 1 118 1394
	sw	zero,0(s6)
	.loc 1 118 1413
	sw	t5,0(s5)
	.loc 1 118 1469
	sw	a1,0(s10)
	.loc 1 118 1497
	sw	s1,0(s4)
	.loc 1 118 1519
	sw	zero,0(s3)
	.loc 1 118 1538
	lw	t1,80(sp)
.LBE360:
	.loc 1 124 18
	addi	a5,a5,516
	.loc 1 126 10
	li	a1,-2147483648
.LBB361:
	.loc 1 118 1538
	sw	t1,0(s2)
	.loc 1 118 1680
	lw	a6,48(sp)
	sw	a6,0(t0)
.LBE361:
	.loc 1 118 1729
	lw	a7,52(sp)
.LBB362:
	.loc 1 118 1680
	sw	t0,44(sp)
.LBE362:
	.loc 1 118 1729
	sw	a7,0(a2)
	.loc 1 124 18
	sw	a5,0(a2)
	sw	a2,60(sp)
	.loc 1 126 10
	sw	zero,36(a1)
.LBB363:
	.loc 1 108 778
	addi	a5,a4,-1120
	.loc 1 108 471
	addi	a4,ra,-1248
	sw	a4,8(sp)
	lw	a4,32(sp)
	.loc 1 108 778
	sw	a5,12(sp)
	addi	a4,a4,15
	sw	a4,80(sp)
.LBE363:
	.loc 1 126 10
	call	_taskYield
.LVL277:
	.loc 1 126 24 is_stmt 1 discriminator 1
.LBB364:
	.loc 1 130 3
	.loc 1 130 186
	.loc 1 130 202 is_stmt 0
	lw	a4,92(sp)
	li	a6,64
	.loc 1 130 285
	li	a2,7
	.loc 1 130 202
	sw	a6,0(a4)
	.loc 1 130 269 is_stmt 1
	.loc 1 130 285 is_stmt 0
	lw	t1,88(sp)
	.loc 1 130 308
	li	a7,511
	.loc 1 130 501
	li	a3,16
	.loc 1 130 285
	sw	a2,0(t1)
	.loc 1 130 291 is_stmt 1
	.loc 1 130 308 is_stmt 0
	lw	a5,84(sp)
	.loc 1 130 588
	li	t6,63
	.loc 1 130 809
	li	a0,15
	.loc 1 130 308
	sw	a7,0(a5)
	.loc 1 130 400 is_stmt 1
	.loc 1 130 417 is_stmt 0
	lw	a1,8(sp)
	.loc 1 130 809
	mv	t4,a0
	.loc 1 130 1249
	li	t0,512
	.loc 1 130 417
	sw	zero,0(a1)
	.loc 1 130 484 is_stmt 1
	.loc 1 130 501 is_stmt 0
	lw	a7,72(sp)
.LBE364:
.LBB365:
	.loc 1 130 1580
	li	t5,32
.LBE365:
.LBB366:
	.loc 1 130 501
	sw	a3,0(a7)
	.loc 1 130 548 is_stmt 1
	.loc 1 130 565 is_stmt 0
	lw	t3,76(sp)
	.loc 1 130 1305
	li	a3,1036288
	addi	a3,a3,-1921
	.loc 1 130 565
	sw	s0,0(t3)
	.loc 1 130 571 is_stmt 1
	.loc 1 130 588 is_stmt 0
	lw	a6,68(sp)
	sw	t6,0(a6)
	.loc 1 130 659 is_stmt 1
	.loc 1 130 676 is_stmt 0
	lw	a1,12(sp)
	sw	zero,0(a1)
	.loc 1 130 723 is_stmt 1
	.loc 1 130 740 is_stmt 0
	lw	t2,56(sp)
	.loc 1 130 922
	li	a1,1
	.loc 1 130 740
	sw	s11,0(t2)
	.loc 1 130 769 is_stmt 1
	.loc 1 130 786 is_stmt 0
	lw	t6,64(sp)
	sw	s0,0(t6)
	.loc 1 130 792 is_stmt 1
	.loc 1 130 809 is_stmt 0
	sw	a0,0(s9)
	.loc 1 130 860 is_stmt 1
	.loc 1 130 877 is_stmt 0
	sw	zero,0(s6)
	.loc 1 130 906 is_stmt 1
	.loc 1 130 922 is_stmt 0
	sw	a1,0(s10)
	.loc 1 130 933 is_stmt 1
	.loc 1 130 949 is_stmt 0
	sw	s0,0(s5)
	.loc 1 130 955 is_stmt 1
	.loc 1 130 972 is_stmt 0
	sw	s0,0(s4)
	.loc 1 130 1001 is_stmt 1
	.loc 1 130 1018 is_stmt 0
	sw	zero,0(s3)
	.loc 1 130 1027 is_stmt 1
.LVL278:
	.loc 1 130 1186
	.loc 1 130 1202 is_stmt 0
	sw	zero,0(s2)
	.loc 1 130 1231 is_stmt 1
	.loc 1 130 1232
	.loc 1 130 1249 is_stmt 0
	lw	a0,16(sp)
	sw	t0,0(a0)
	.loc 1 130 1288 is_stmt 1
	.loc 1 130 1305 is_stmt 0
	lw	t0,44(sp)
	sw	a3,56(sp)
.LBE366:
.LBB367:
	.loc 1 130 1637
	li	a0,127
.LBE367:
.LBB368:
	.loc 1 130 1305
	sw	a3,0(t0)
.LBE368:
.LBB369:
	.loc 1 130 1338 is_stmt 1
.LVL279:
	.loc 1 130 1383
	.loc 1 130 1400 is_stmt 0
	li	a3,4096
	sw	a3,0(t2)
	.loc 1 130 1412 is_stmt 1
	.loc 1 130 1429 is_stmt 0
	sw	s0,0(t6)
	.loc 1 130 1435 is_stmt 1
	.loc 1 130 1452 is_stmt 0
	sw	s7,44(sp)
	sw	s7,0(s9)
	.loc 1 130 1480 is_stmt 1
	.loc 1 130 1497 is_stmt 0
	sw	zero,0(s6)
	.loc 1 130 1509 is_stmt 1
	.loc 1 130 1526 is_stmt 0
	sw	s0,0(t3)
	.loc 1 130 1563 is_stmt 1
	.loc 1 130 1580 is_stmt 0
	sw	t5,0(a7)
	.loc 1 130 1620 is_stmt 1
	.loc 1 130 1637 is_stmt 0
	sw	a0,0(a6)
	.loc 1 130 1642 is_stmt 1
	.loc 1 130 1659 is_stmt 0
	lw	a3,12(sp)
	.loc 1 130 1731
	li	t5,8
.LBE369:
.LBB370:
	.loc 1 130 2384
	li	s7,31
.LBE370:
.LBB371:
	.loc 1 130 1659
	sw	zero,0(a3)
	.loc 1 130 1662 is_stmt 1
	.loc 1 130 1678 is_stmt 0
	sw	s0,0(s5)
	.loc 1 130 1715 is_stmt 1
	.loc 1 130 1731 is_stmt 0
	sw	t5,0(s10)
	.loc 1 130 1757 is_stmt 1
	.loc 1 130 1774 is_stmt 0
	sw	a0,0(s4)
	.loc 1 130 1779 is_stmt 1
	.loc 1 130 1796 is_stmt 0
	sw	zero,0(s3)
	.loc 1 130 1799 is_stmt 1
	.loc 1 130 1815 is_stmt 0
	sw	a2,0(t1)
	.loc 1 130 1853 is_stmt 1
	.loc 1 130 1869 is_stmt 0
	sw	a1,0(a4)
	.loc 1 130 1880 is_stmt 1
	.loc 1 130 1897 is_stmt 0
	sw	a0,0(a5)
	.loc 1 130 1902 is_stmt 1
	.loc 1 130 1919 is_stmt 0
	lw	a2,8(sp)
	.loc 1 130 1938
	li	a1,524288
	addi	a1,a1,296
	.loc 1 130 1919
	sw	zero,0(a2)
	.loc 1 130 1922 is_stmt 1
	.loc 1 130 2066 is_stmt 0
	li	t5,1032192
	.loc 1 130 1938
	sw	a1,0(s2)
	.loc 1 130 2049 is_stmt 1
	.loc 1 130 2066 is_stmt 0
	addi	t5,t5,1149
	sw	t5,0(t0)
.LBE371:
	.loc 1 130 2098 is_stmt 1
	.loc 1 130 2099
	.loc 1 130 2115 is_stmt 0
	lw	a2,60(sp)
	lw	a1,20(sp)
	sw	a1,0(a2)
.LBB372:
	.loc 1 130 2205 is_stmt 1
.LVL280:
	.loc 1 130 2362 is_stmt 0
	lw	a1,44(s8)
	.loc 1 130 2345
	sw	a1,0(t2)
.LVL281:
	.loc 1 130 2384
	sw	s7,0(t6)
	.loc 1 130 2751
	li	s7,1036288
	addi	s7,s7,127
	.loc 1 130 2421
	lw	a1,48(s8)
	.loc 1 130 2751
	sw	s7,12(sp)
	.loc 1 130 2421
	lw	s7,24(sp)
	sub	a1,a1,s7
	.loc 1 130 2426
	lw	s7,44(s8)
	mul	a1,a1,s7
.LBE372:
.LBB373:
	.loc 1 130 4030
	li	s7,1036288
	addi	s7,s7,-1923
	sw	s7,32(sp)
.LBE373:
.LBB374:
	.loc 1 133 1938
	li	s7,524288
	addi	s7,s7,424
	sw	s7,60(sp)
	lw	s7,40(sp)
.LVL282:
.LBE374:
.LBB375:
	.loc 1 130 2328 is_stmt 1
	.loc 1 130 2367
	.loc 1 130 2390
	addi	s7,s7,1
.LVL283:
	sw	s7,40(sp)
.LVL284:
	.loc 1 130 2443 is_stmt 0
	addi	a1,a1,-1
	.loc 1 130 2407
	sw	a1,0(s9)
	.loc 1 130 2446 is_stmt 1
	.loc 1 130 2467 is_stmt 0
	lw	s7,24(sp)
.LVL285:
	lw	a1,44(s8)
	mul	a1,s7,a1
	.loc 1 130 2463
	sw	a1,0(s6)
	.loc 1 130 2485 is_stmt 1
	.loc 1 130 2501 is_stmt 0
	li	a1,1
	sw	a1,0(s10)
	.loc 1 130 2512 is_stmt 1
	.loc 1 130 2528 is_stmt 0
	sw	t4,0(s5)
	.loc 1 130 2534 is_stmt 1
	.loc 1 130 2565 is_stmt 0
	lw	a1,44(s8)
	.loc 1 130 2567
	lw	t4,28(sp)
	.loc 1 130 2565
	addi	a1,a1,-1
	.loc 1 130 2567
	sub	a1,a1,t4
	.loc 1 130 2551
	sw	a1,0(s4)
	.loc 1 130 2573 is_stmt 1
	.loc 1 130 2590 is_stmt 0
	sw	t4,0(s3)
	.loc 1 130 2599 is_stmt 1
.LVL286:
	.loc 1 130 2639
	.loc 1 130 2611 is_stmt 0
	lw	a1,44(s8)
	.loc 1 130 2603
	sw	t4,28(sp)
	.loc 1 130 2611
	sw	s7,24(sp)
	mul	a1,s7,a1
	.loc 1 130 2709
	li	s7,512
.LVL287:
	.loc 1 130 2603
	add	a1,a1,t4
.LVL288:
	.loc 1 130 2660
	lw	t4,108(sp)
	add	a1,a1,t4
.LVL289:
	.loc 1 130 2655
	sw	a1,0(s2)
.LVL290:
	.loc 1 130 2691 is_stmt 1
	.loc 1 130 2692
	.loc 1 130 2709 is_stmt 0
	lw	a1,16(sp)
.LBE375:
.LBB376:
	.loc 1 130 3066
	li	t4,7
.LBE376:
.LBB377:
	.loc 1 130 2709
	sw	s7,0(a1)
	.loc 1 130 2734 is_stmt 1
	.loc 1 130 2751 is_stmt 0
	lw	s7,12(sp)
.LBE377:
.LBB378:
	.loc 1 130 3089
	li	a1,511
.LBE378:
.LBB379:
	.loc 1 130 2751
	sw	s7,0(t0)
.LBE379:
.LBB380:
	.loc 1 130 2784 is_stmt 1
.LVL291:
	.loc 1 130 2967
	.loc 1 130 2983 is_stmt 0
	li	s7,64
	sw	s7,0(a4)
	.loc 1 130 3050 is_stmt 1
	.loc 1 130 3066 is_stmt 0
	sw	t4,0(t1)
	.loc 1 130 3072 is_stmt 1
	.loc 1 130 3089 is_stmt 0
	sw	a1,0(a5)
	.loc 1 130 3181 is_stmt 1
	.loc 1 130 3198 is_stmt 0
	lw	t4,8(sp)
	.loc 1 130 3282
	li	a1,16
	.loc 1 130 3198
	sw	zero,0(t4)
	.loc 1 130 3265 is_stmt 1
	.loc 1 130 3282 is_stmt 0
	sw	a1,0(a7)
	.loc 1 130 3329 is_stmt 1
	.loc 1 130 3346 is_stmt 0
	sw	s0,0(t3)
	.loc 1 130 3352 is_stmt 1
	.loc 1 130 3369 is_stmt 0
	li	a1,63
	sw	a1,0(a6)
	.loc 1 130 3440 is_stmt 1
	.loc 1 130 3457 is_stmt 0
	sw	zero,0(a3)
	.loc 1 130 3504 is_stmt 1
	.loc 1 130 3521 is_stmt 0
	sw	s11,0(t2)
	.loc 1 130 3550 is_stmt 1
	.loc 1 130 3590 is_stmt 0
	li	a1,15
	.loc 1 130 3567
	sw	s0,0(t6)
	.loc 1 130 3573 is_stmt 1
	.loc 1 130 3590 is_stmt 0
	sw	a1,0(s9)
	.loc 1 130 3641 is_stmt 1
	.loc 1 130 3658 is_stmt 0
	sw	zero,0(s6)
	.loc 1 130 3687 is_stmt 1
	.loc 1 130 3703 is_stmt 0
	li	a1,1
	sw	a1,0(s10)
	.loc 1 130 3714 is_stmt 1
	.loc 1 130 3730 is_stmt 0
	sw	s0,0(s5)
	.loc 1 130 3736 is_stmt 1
	.loc 1 130 3753 is_stmt 0
	sw	s0,0(s4)
	.loc 1 130 3782 is_stmt 1
	.loc 1 130 3799 is_stmt 0
	sw	zero,0(s3)
	.loc 1 130 3808 is_stmt 1
.LVL292:
	.loc 1 130 3967
	.loc 1 130 3983 is_stmt 0
	sw	zero,0(s2)
	.loc 1 130 4012 is_stmt 1
	.loc 1 130 4013
	.loc 1 130 4030 is_stmt 0
	lw	t4,32(sp)
	sw	t4,0(t0)
.LBE380:
	.loc 1 130 4062 is_stmt 1
	.loc 1 130 4063
	.loc 1 130 4079 is_stmt 0
	lw	t4,20(sp)
	sw	t4,0(a2)
.LBB381:
	.loc 1 133 3 is_stmt 1
.LVL293:
	.loc 1 133 186
	.loc 1 133 202 is_stmt 0
	sw	s7,0(a4)
	.loc 1 133 269 is_stmt 1
	.loc 1 133 285 is_stmt 0
	li	t4,7
	sw	t4,0(t1)
	.loc 1 133 291 is_stmt 1
	.loc 1 133 308 is_stmt 0
	li	s7,511
	sw	s7,0(a5)
	.loc 1 133 400 is_stmt 1
	.loc 1 133 417 is_stmt 0
	lw	t4,8(sp)
	.loc 1 133 588
	li	s7,63
	.loc 1 133 417
	sw	zero,0(t4)
	.loc 1 133 484 is_stmt 1
	.loc 1 133 501 is_stmt 0
	li	t4,16
	sw	t4,0(a7)
	.loc 1 133 548 is_stmt 1
	.loc 1 133 565 is_stmt 0
	sw	s0,0(t3)
	.loc 1 133 571 is_stmt 1
	.loc 1 133 588 is_stmt 0
	sw	s7,0(a6)
	.loc 1 133 659 is_stmt 1
	.loc 1 133 676 is_stmt 0
	sw	zero,0(a3)
	.loc 1 133 723 is_stmt 1
	.loc 1 133 740 is_stmt 0
	sw	s11,0(t2)
	.loc 1 133 769 is_stmt 1
	.loc 1 133 786 is_stmt 0
	sw	s0,0(t6)
	.loc 1 133 792 is_stmt 1
	.loc 1 133 809 is_stmt 0
	li	t4,15
	sw	t4,0(s9)
	.loc 1 133 860 is_stmt 1
	.loc 1 133 877 is_stmt 0
	sw	zero,0(s6)
	.loc 1 133 906 is_stmt 1
	.loc 1 133 922 is_stmt 0
	sw	a1,0(s10)
	.loc 1 133 933 is_stmt 1
	.loc 1 133 949 is_stmt 0
	sw	s0,0(s5)
	.loc 1 133 955 is_stmt 1
	.loc 1 133 972 is_stmt 0
	sw	s0,0(s4)
	.loc 1 133 1001 is_stmt 1
	.loc 1 133 1018 is_stmt 0
	sw	zero,0(s3)
	.loc 1 133 1027 is_stmt 1
.LVL294:
	.loc 1 133 1186
	.loc 1 133 1202 is_stmt 0
	sw	zero,0(s2)
	.loc 1 133 1231 is_stmt 1
	.loc 1 133 1232
	.loc 1 133 1249 is_stmt 0
	lw	s7,16(sp)
	li	s11,512
.LBE381:
.LBB382:
	.loc 1 133 1400
	li	t4,4096
.LBE382:
.LBB383:
	.loc 1 133 1249
	sw	s11,0(s7)
	.loc 1 133 1288 is_stmt 1
	.loc 1 133 1305 is_stmt 0
	lw	s11,56(sp)
	sw	s11,0(t0)
.LBE383:
.LBB384:
	.loc 1 133 1338 is_stmt 1
.LVL295:
	.loc 1 133 1383
	.loc 1 133 1400 is_stmt 0
	sw	t4,0(t2)
	.loc 1 133 1412 is_stmt 1
	.loc 1 133 1429 is_stmt 0
	sw	s0,0(t6)
	.loc 1 133 1435 is_stmt 1
	.loc 1 133 1452 is_stmt 0
	lw	s7,44(sp)
	.loc 1 133 1580
	li	s11,32
	.loc 1 133 1731
	li	t4,8
	.loc 1 133 1452
	sw	s7,0(s9)
	.loc 1 133 1480 is_stmt 1
	.loc 1 133 1497 is_stmt 0
	sw	zero,0(s6)
	.loc 1 133 1509 is_stmt 1
	.loc 1 133 1526 is_stmt 0
	sw	s0,0(t3)
	.loc 1 133 1563 is_stmt 1
	.loc 1 133 1580 is_stmt 0
	sw	s11,0(a7)
	.loc 1 133 1620 is_stmt 1
	.loc 1 133 1637 is_stmt 0
	sw	a0,0(a6)
	.loc 1 133 1642 is_stmt 1
	.loc 1 133 1659 is_stmt 0
	sw	zero,0(a3)
	.loc 1 133 1662 is_stmt 1
	.loc 1 133 1678 is_stmt 0
	sw	s0,0(s5)
	.loc 1 133 1715 is_stmt 1
	.loc 1 133 1731 is_stmt 0
	sw	t4,0(s10)
	.loc 1 133 1757 is_stmt 1
	.loc 1 133 1774 is_stmt 0
	sw	a0,0(s4)
	.loc 1 133 1779 is_stmt 1
	.loc 1 133 1796 is_stmt 0
	sw	zero,0(s3)
	.loc 1 133 1799 is_stmt 1
	.loc 1 133 1815 is_stmt 0
	li	t4,7
	sw	t4,0(t1)
	.loc 1 133 1853 is_stmt 1
	.loc 1 133 1869 is_stmt 0
	sw	a1,0(a4)
	.loc 1 133 1880 is_stmt 1
	.loc 1 133 1897 is_stmt 0
	sw	a0,0(a5)
	.loc 1 133 1902 is_stmt 1
	.loc 1 133 1919 is_stmt 0
	lw	s11,8(sp)
	.loc 1 133 1869
	mv	t4,a1
	.loc 1 133 1919
	sw	zero,0(s11)
	.loc 1 133 1922 is_stmt 1
	.loc 1 133 1938 is_stmt 0
	lw	a0,60(sp)
	sw	a0,0(s2)
	.loc 1 133 2049 is_stmt 1
	.loc 1 133 2066 is_stmt 0
	sw	t5,0(t0)
.LBE384:
	.loc 1 133 2098 is_stmt 1
	.loc 1 133 2099
	.loc 1 133 2115 is_stmt 0
	lw	a0,20(sp)
.LBB385:
	.loc 1 133 2528
	li	t5,15
.LBE385:
	.loc 1 133 2115
	sw	a0,0(a2)
.LBB386:
	.loc 1 133 2205 is_stmt 1
.LVL296:
	.loc 1 133 2328
	.loc 1 133 2362 is_stmt 0
	lw	a1,44(s8)
	.loc 1 133 2384
	li	a0,31
	.loc 1 133 2345
	sw	a1,0(t2)
.LVL297:
	.loc 1 133 2367 is_stmt 1
	.loc 1 133 2384 is_stmt 0
	sw	a0,0(t6)
	.loc 1 133 2390 is_stmt 1
	.loc 1 133 2421 is_stmt 0
	lw	s11,24(sp)
	lw	a1,48(s8)
	.loc 1 133 2426
	lw	a0,44(s8)
	.loc 1 133 2421
	sub	a1,a1,s11
	.loc 1 133 2426
	mul	a1,a1,a0
	.loc 1 133 2501
	mv	a0,t4
	.loc 1 133 2443
	addi	a1,a1,-1
	.loc 1 133 2407
	sw	a1,0(s9)
	.loc 1 133 2446 is_stmt 1
	.loc 1 133 2467 is_stmt 0
	lw	a1,44(s8)
	mul	a1,s11,a1
	.loc 1 133 2463
	sw	a1,0(s6)
	.loc 1 133 2485 is_stmt 1
	.loc 1 133 2501 is_stmt 0
	sw	t4,0(s10)
	.loc 1 133 2512 is_stmt 1
	.loc 1 133 2528 is_stmt 0
	sw	t5,0(s5)
	.loc 1 133 2534 is_stmt 1
	.loc 1 133 2565 is_stmt 0
	lw	a1,44(s8)
	.loc 1 133 2567
	lw	t4,28(sp)
	.loc 1 133 2565
	addi	a1,a1,-1
	.loc 1 133 2567
	sub	a1,a1,t4
	.loc 1 133 2551
	sw	a1,0(s4)
	.loc 1 133 2573 is_stmt 1
	.loc 1 133 2590 is_stmt 0
	sw	t4,0(s3)
	.loc 1 133 2599 is_stmt 1
.LVL298:
	.loc 1 133 2639
	.loc 1 133 2611 is_stmt 0
	lw	a1,44(s8)
	mul	a1,s11,a1
	.loc 1 133 2660
	lw	s11,112(sp)
.LVL299:
	.loc 1 133 2603
	add	a1,a1,t4
	.loc 1 133 2660
	add	a1,a1,s11
	.loc 1 133 2655
	sw	a1,0(s2)
	.loc 1 133 2691 is_stmt 1
	.loc 1 133 2692
	.loc 1 133 2709 is_stmt 0
	lw	s7,16(sp)
	li	a1,512
	sw	a1,0(s7)
	.loc 1 133 2734 is_stmt 1
	.loc 1 133 2751 is_stmt 0
	lw	a1,12(sp)
.LBE386:
.LBB387:
	.loc 1 133 3089
	li	s7,511
.LBE387:
.LBB388:
	.loc 1 133 2751
	sw	a1,0(t0)
.LBE388:
.LBB389:
	.loc 1 133 2784 is_stmt 1
.LVL300:
	.loc 1 133 2967
	.loc 1 133 2983 is_stmt 0
	li	a1,64
	sw	a1,0(a4)
	.loc 1 133 3050 is_stmt 1
	.loc 1 133 3066 is_stmt 0
	li	a1,7
	sw	a1,0(t1)
	.loc 1 133 3072 is_stmt 1
	.loc 1 133 3089 is_stmt 0
	sw	s7,0(a5)
	.loc 1 133 3181 is_stmt 1
	.loc 1 133 3198 is_stmt 0
	lw	s11,8(sp)
	.loc 1 133 3369
	li	s7,63
	.loc 1 133 3198
	sw	zero,0(s11)
	.loc 1 133 3265 is_stmt 1
	.loc 1 133 3282 is_stmt 0
	li	s11,16
	sw	s11,0(a7)
	.loc 1 133 3329 is_stmt 1
	.loc 1 133 3346 is_stmt 0
	sw	s0,0(t3)
	.loc 1 133 3352 is_stmt 1
	.loc 1 133 3369 is_stmt 0
	sw	s7,0(a6)
	.loc 1 133 3440 is_stmt 1
	.loc 1 133 3457 is_stmt 0
	sw	zero,0(a3)
	.loc 1 133 3504 is_stmt 1
	.loc 1 133 3521 is_stmt 0
	li	s11,4
	sw	s11,0(t2)
	.loc 1 133 3550 is_stmt 1
	.loc 1 133 3567 is_stmt 0
	sw	s0,0(t6)
	.loc 1 133 3573 is_stmt 1
	.loc 1 133 3590 is_stmt 0
	sw	t5,0(s9)
	.loc 1 133 3641 is_stmt 1
	.loc 1 133 3658 is_stmt 0
	sw	zero,0(s6)
	.loc 1 133 3687 is_stmt 1
	.loc 1 133 3703 is_stmt 0
	sw	a0,0(s10)
	.loc 1 133 3714 is_stmt 1
	.loc 1 133 3730 is_stmt 0
	sw	s0,0(s5)
	.loc 1 133 3736 is_stmt 1
	.loc 1 133 3753 is_stmt 0
	sw	s0,0(s4)
	.loc 1 133 3782 is_stmt 1
	.loc 1 133 3799 is_stmt 0
	sw	zero,0(s3)
	.loc 1 133 3808 is_stmt 1
.LVL301:
	.loc 1 133 3967
	.loc 1 133 3983 is_stmt 0
	sw	zero,0(s2)
	.loc 1 133 4012 is_stmt 1
	.loc 1 133 4013
	.loc 1 133 4030 is_stmt 0
	lw	s11,32(sp)
	sw	s11,0(t0)
.LBE389:
	.loc 1 133 4062 is_stmt 1
	.loc 1 133 4063
	.loc 1 133 4079 is_stmt 0
	lw	t5,20(sp)
	.loc 1 92 17 discriminator 1
	addi	s11,t4,15
	.loc 1 133 4079
	sw	t5,0(a2)
	.loc 1 92 26 is_stmt 1 discriminator 2
.LVL302:
	.loc 1 92 17 discriminator 1
	sw	s11,28(sp)
	lw	t5,40(sp)
	lw	s11,116(sp)
	bgt	s11,t5,.L65
	lw	s0,140(sp)
	.loc 1 91 23 discriminator 2
	lw	s1,136(sp)
	lw	s2,128(sp)
	addi	s0,s0,1
.LVL303:
	.loc 1 91 17 discriminator 1
	lw	s3,132(sp)
	mv	t6,s8
	addi	s1,s1,-8
	bne	s2,s0,.L66
.LVL304:
.L61:
	lw	s4,184(sp)
	.cfi_restore 20
	lw	s7,172(sp)
	.cfi_restore 23
	lw	s8,168(sp)
	.cfi_restore 24
	lw	s9,164(sp)
	.cfi_restore 25
	lw	s10,160(sp)
	.cfi_restore 26
	lw	s11,156(sp)
	.cfi_restore 27
.LVL305:
.L47:
	.loc 1 136 1 is_stmt 0
	lw	ra,204(sp)
	.cfi_remember_state
	.cfi_restore 1
	lw	s0,200(sp)
	.cfi_restore 8
	lw	s1,196(sp)
	.cfi_restore 9
	lw	s2,192(sp)
	.cfi_restore 18
	lw	s3,188(sp)
	.cfi_restore 19
	lw	s5,180(sp)
	.cfi_restore 21
	lw	s6,176(sp)
	.cfi_restore 22
	addi	sp,sp,208
	.cfi_def_cfa_offset 0
	jr	ra
.LVL306:
.L48:
	.cfi_restore_state
	.loc 1 72 7 is_stmt 1
	.loc 1 72 9 is_stmt 0
	li	a5,32
	ble	s1,a5,.L47
	sw	s4,184(sp)
	.cfi_offset 20, -24
	.loc 1 74 7 is_stmt 1
	.loc 1 74 11 is_stmt 0
	srai	s0,a4,6
.LVL307:
	.loc 1 75 7 is_stmt 1
	j	.L49
.LVL308:
.L62:
	.loc 1 70 26 is_stmt 0 discriminator 1
	srai	s2,a4,6
.LVL309:
	j	.L49
.LVL310:
.L63:
	.cfi_offset 23, -36
	.cfi_offset 24, -40
	.cfi_offset 25, -44
	.cfi_offset 26, -48
	.cfi_offset 27, -52
.LBB390:
	.loc 1 130 2209
	slli	a5,s0,5
.LBE390:
.LBB391:
	.loc 1 108 1546
	sw	a4,120(sp)
.LBE391:
.LBB392:
	.loc 1 130 2209
	sw	a5,24(sp)
	j	.L55
.LVL311:
.L60:
	.cfi_restore 23
	.cfi_restore 24
	.cfi_restore 25
	.cfi_restore 26
	.cfi_restore 27
	lw	s4,184(sp)
	.cfi_restore 20
	j	.L47
.LBE392:
	.cfi_endproc
.LFE0:
	.size	harris_phase_0, .-harris_phase_0
	.align	2
	.globl	kernel_harris_exe
	.type	kernel_harris_exe, @function
kernel_harris_exe:
.LFB3:
	.loc 1 348 1 is_stmt 1
	.cfi_startproc
.LVL312:
	.loc 1 349 4
	.loc 1 351 4
	.loc 1 348 1 is_stmt 0
	addi	sp,sp,-112
	.cfi_def_cfa_offset 112
	sw	s0,104(sp)
	.cfi_offset 8, -8
	mv	s0,a0
	.loc 1 351 4
	lui	a0,%hi(zta_pcore_img)
.LVL313:
	addi	a0,a0,%lo(zta_pcore_img)
	.loc 1 348 1
	sw	ra,108(sp)
	sw	s1,100(sp)
	sw	s2,96(sp)
	sw	s3,92(sp)
	sw	s4,88(sp)
	sw	s5,84(sp)
	sw	s6,80(sp)
	sw	s7,76(sp)
	.cfi_offset 1, -4
	.cfi_offset 9, -12
	.cfi_offset 18, -16
	.cfi_offset 19, -20
	.cfi_offset 20, -24
	.cfi_offset 21, -28
	.cfi_offset 22, -32
	.cfi_offset 23, -36
	.loc 1 348 1
	mv	s6,a2
	mv	s5,a3
	mv	s4,a4
	mv	s2,a6
	mv	s1,a7
	mv	s7,a1
	mv	s3,a5
	.loc 1 351 4
	call	ztaInitPcore
.LVL314:
	.loc 1 353 4 is_stmt 1
	.loc 1 360 13 is_stmt 0
	lw	a5,112(sp)
	.loc 1 367 4
	lui	a0,%hi(harris_phase_0)
	addi	a1,sp,12
	.loc 1 360 13
	sw	a5,40(sp)
	.loc 1 361 13
	lw	a5,116(sp)
	.loc 1 367 4
	addi	a0,a0,%lo(harris_phase_0)
	.loc 1 353 13
	sw	s7,12(sp)
	.loc 1 354 4 is_stmt 1
	.loc 1 361 13 is_stmt 0
	sw	a5,44(sp)
	.loc 1 362 13
	lw	a5,120(sp)
	.loc 1 354 18
	sw	s6,16(sp)
	.loc 1 355 4 is_stmt 1
	.loc 1 355 18 is_stmt 0
	sw	s5,20(sp)
	.loc 1 356 4 is_stmt 1
	.loc 1 362 13 is_stmt 0
	sw	a5,48(sp)
	.loc 1 363 13
	lw	a5,124(sp)
	.loc 1 356 13
	sw	s4,24(sp)
	.loc 1 357 4 is_stmt 1
	.loc 1 357 14 is_stmt 0
	sw	s3,28(sp)
	.loc 1 358 4 is_stmt 1
	.loc 1 363 13 is_stmt 0
	sw	a5,52(sp)
	.loc 1 364 13
	lw	a5,128(sp)
	.loc 1 358 9
	sw	s2,32(sp)
	.loc 1 359 4 is_stmt 1
	.loc 1 359 9 is_stmt 0
	sw	s1,36(sp)
	.loc 1 360 4 is_stmt 1
	.loc 1 361 4
	.loc 1 362 4
	.loc 1 363 4
	.loc 1 364 4
	.loc 1 364 13 is_stmt 0
	sw	a5,56(sp)
	.loc 1 365 4 is_stmt 1
	.loc 1 365 13 is_stmt 0
	lw	a5,132(sp)
	sw	a5,60(sp)
	.loc 1 367 4 is_stmt 1
	call	ztaDualHartExecute
.LVL315:
	.loc 1 369 4
	lui	a0,%hi(harris_phase_1)
	addi	a1,sp,12
	addi	a0,a0,%lo(harris_phase_1)
	call	ztaDualHartExecute
.LVL316:
	.loc 1 371 4
	lui	a0,%hi(harris_phase_2)
	addi	a1,sp,12
	addi	a0,a0,%lo(harris_phase_2)
	call	ztaDualHartExecute
.LVL317:
	.loc 1 373 4
	mv	a0,s0
	call	ztaJobDone
.LVL318:
	.loc 1 374 1 is_stmt 0
	lw	ra,108(sp)
	.cfi_restore 1
	lw	s0,104(sp)
	.cfi_restore 8
.LVL319:
	lw	s1,100(sp)
	.cfi_restore 9
.LVL320:
	lw	s2,96(sp)
	.cfi_restore 18
.LVL321:
	lw	s3,92(sp)
	.cfi_restore 19
.LVL322:
	lw	s4,88(sp)
	.cfi_restore 20
.LVL323:
	lw	s5,84(sp)
	.cfi_restore 21
.LVL324:
	lw	s6,80(sp)
	.cfi_restore 22
.LVL325:
	lw	s7,76(sp)
	.cfi_restore 23
.LVL326:
	addi	sp,sp,112
	.cfi_def_cfa_offset 0
.LVL327:
	jr	ra
	.cfi_endproc
.LFE3:
	.size	kernel_harris_exe, .-kernel_harris_exe
	.data
	.align	2
	.type	zta_pcore_img, @object
	.size	zta_pcore_img, 2512
zta_pcore_img:
	.half	2496
	.half	72
	.half	2056
	.half	1044
	.half	32
	.half	3425
	.half	8984
	.half	0
	.half	0
	.half	72
	.half	2056
	.half	1044
	.half	96
	.half	14681
	.half	9000
	.half	0
	.half	-32756
	.half	72
	.half	2056
	.half	1044
	.half	32
	.half	10587
	.half	9016
	.half	0
	.half	-32760
	.half	72
	.half	2056
	.half	1044
	.half	160
	.half	7131
	.half	9032
	.half	0
	.half	-32744
	.half	72
	.half	2056
	.half	1044
	.half	160
	.half	2491
	.half	9048
	.half	0
	.half	-32768
	.half	72
	.half	2056
	.half	1044
	.half	160
	.half	3514
	.half	9064
	.half	0
	.half	16388
	.half	72
	.half	2056
	.half	1044
	.half	224
	.half	3474
	.half	9080
	.half	0
	.half	-16236
	.half	72
	.half	2056
	.half	1044
	.half	288
	.half	3475
	.half	9096
	.half	0
	.half	16596
	.half	72
	.half	2056
	.half	1044
	.half	224
	.half	3416
	.half	9112
	.half	0
	.half	12
	.half	72
	.half	2056
	.half	1044
	.half	32
	.half	0
	.half	8840
	.half	0
	.half	0
	.half	72
	.half	2056
	.half	1044
	.half	160
	.half	0
	.half	8856
	.half	0
	.half	0
	.half	72
	.half	2056
	.half	1044
	.half	224
	.half	0
	.half	8872
	.half	0
	.half	0
	.half	72
	.half	2056
	.half	1044
	.half	96
	.half	0
	.half	8888
	.half	0
	.half	0
	.half	72
	.half	2056
	.half	1044
	.half	160
	.half	0
	.half	8904
	.half	0
	.half	0
	.half	72
	.half	2056
	.half	1044
	.half	288
	.half	0
	.half	8920
	.half	0
	.half	0
	.half	72
	.half	2056
	.half	1044
	.half	32
	.half	0
	.half	8936
	.half	0
	.half	0
	.half	72
	.half	2056
	.half	1044
	.half	160
	.half	0
	.half	8952
	.half	0
	.half	0
	.half	72
	.half	2056
	.half	1044
	.half	224
	.half	0
	.half	8968
	.half	2048
	.half	0
	.half	72
	.half	3080
	.half	1045
	.half	160
	.half	3363
	.half	25
	.half	0
	.half	-32768
	.half	72
	.half	3080
	.half	1045
	.half	160
	.half	0
	.half	9
	.half	0
	.half	0
	.half	76
	.half	-13304
	.half	17681
	.half	1580
	.half	0
	.half	9
	.half	0
	.half	0
	.half	204
	.half	-13304
	.half	17969
	.half	1580
	.half	3035
	.half	25
	.half	0
	.half	-32764
	.half	76
	.half	-13304
	.half	17713
	.half	1580
	.half	0
	.half	9
	.half	0
	.half	0
	.half	204
	.half	-13304
	.half	18001
	.half	1580
	.half	3035
	.half	25
	.half	0
	.half	-32764
	.half	76
	.half	-13304
	.half	17745
	.half	1580
	.half	0
	.half	9
	.half	0
	.half	0
	.half	204
	.half	-13304
	.half	18033
	.half	1580
	.half	3035
	.half	25
	.half	0
	.half	-32764
	.half	72
	.half	8
	.half	0
	.half	0
	.half	2947
	.half	0
	.half	0
	.half	-32768
	.half	76
	.half	-13304
	.half	17777
	.half	1580
	.half	0
	.half	9
	.half	0
	.half	0
	.half	204
	.half	-13304
	.half	18065
	.half	1580
	.half	3035
	.half	25
	.half	0
	.half	-32764
	.half	76
	.half	-13304
	.half	17809
	.half	1580
	.half	0
	.half	9
	.half	0
	.half	0
	.half	204
	.half	-13304
	.half	18097
	.half	1580
	.half	3035
	.half	25
	.half	0
	.half	-32764
	.half	76
	.half	-13304
	.half	17841
	.half	1580
	.half	0
	.half	9
	.half	0
	.half	0
	.half	204
	.half	-13304
	.half	18129
	.half	1580
	.half	3035
	.half	25
	.half	0
	.half	-32764
	.half	72
	.half	8
	.half	0
	.half	0
	.half	2947
	.half	0
	.half	0
	.half	-32768
	.half	76
	.half	-13304
	.half	17873
	.half	1580
	.half	0
	.half	9
	.half	0
	.half	0
	.half	204
	.half	-13304
	.half	18161
	.half	1580
	.half	3035
	.half	25
	.half	0
	.half	-32764
	.half	76
	.half	-13304
	.half	17905
	.half	1580
	.half	0
	.half	9
	.half	0
	.half	0
	.half	204
	.half	-13304
	.half	18193
	.half	1580
	.half	3035
	.half	25
	.half	0
	.half	-32764
	.half	76
	.half	-13304
	.half	17937
	.half	1580
	.half	0
	.half	9
	.half	0
	.half	0
	.half	204
	.half	-13304
	.half	18225
	.half	1580
	.half	0
	.half	25
	.half	0
	.half	0
	.half	72
	.half	-20472
	.half	1045
	.half	160
	.half	3035
	.half	139
	.half	0
	.half	-32764
	.half	200
	.half	-20472
	.half	1045
	.half	160
	.half	2947
	.half	267
	.half	2048
	.half	-32768
	.half	72
	.half	8
	.half	0
	.half	0
	.half	3427
	.half	0
	.half	0
	.half	-32768
	.half	72
	.half	8
	.half	0
	.half	0
	.half	15323
	.half	0
	.half	0
	.half	12
	.half	72
	.half	8
	.half	0
	.half	0
	.half	11227
	.half	0
	.half	0
	.half	-32760
	.half	72
	.half	8
	.half	0
	.half	0
	.half	7131
	.half	0
	.half	0
	.half	-32744
	.half	72
	.half	8
	.half	0
	.half	0
	.half	2875
	.half	0
	.half	0
	.half	-32768
	.half	72
	.half	8
	.half	0
	.half	0
	.half	3514
	.half	0
	.half	0
	.half	16388
	.half	72
	.half	8
	.half	0
	.half	0
	.half	3514
	.half	0
	.half	0
	.half	-16236
	.half	72
	.half	8
	.half	0
	.half	0
	.half	3416
	.half	0
	.half	2048
	.half	12
	.half	72
	.half	3080
	.half	1045
	.half	160
	.half	3363
	.half	25
	.half	0
	.half	-32768
	.half	72
	.half	3080
	.half	1045
	.half	160
	.half	3371
	.half	41
	.half	0
	.half	0
	.half	72
	.half	3080
	.half	1045
	.half	160
	.half	0
	.half	9
	.half	0
	.half	0
	.half	76
	.half	-13304
	.half	791
	.half	1582
	.half	0
	.half	9
	.half	0
	.half	0
	.half	204
	.half	-13304
	.half	535
	.half	1070
	.half	0
	.half	25
	.half	0
	.half	0
	.half	332
	.half	-13304
	.half	535
	.half	1582
	.half	3035
	.half	41
	.half	0
	.half	-32764
	.half	76
	.half	-13304
	.half	791
	.half	1582
	.half	2907
	.half	9
	.half	0
	.half	4
	.half	204
	.half	-13304
	.half	535
	.half	1070
	.half	0
	.half	25
	.half	0
	.half	0
	.half	332
	.half	-13304
	.half	535
	.half	1582
	.half	3035
	.half	41
	.half	0
	.half	-32764
	.half	76
	.half	-13304
	.half	791
	.half	1582
	.half	2907
	.half	9
	.half	0
	.half	4
	.half	204
	.half	-13304
	.half	535
	.half	1070
	.half	0
	.half	25
	.half	0
	.half	0
	.half	332
	.half	-13304
	.half	535
	.half	1582
	.half	2907
	.half	41
	.half	0
	.half	4
	.half	72
	.half	8
	.half	0
	.half	0
	.half	3035
	.half	0
	.half	0
	.half	-32764
	.half	72
	.half	8
	.half	0
	.half	0
	.half	2947
	.half	0
	.half	0
	.half	-32768
	.half	76
	.half	-13304
	.half	791
	.half	1582
	.half	2819
	.half	9
	.half	0
	.half	0
	.half	204
	.half	-13304
	.half	535
	.half	1070
	.half	0
	.half	25
	.half	0
	.half	0
	.half	332
	.half	-13304
	.half	535
	.half	1582
	.half	3035
	.half	41
	.half	0
	.half	-32764
	.half	76
	.half	-13304
	.half	791
	.half	1582
	.half	2907
	.half	9
	.half	0
	.half	4
	.half	204
	.half	-13304
	.half	535
	.half	1070
	.half	0
	.half	25
	.half	0
	.half	0
	.half	332
	.half	-13304
	.half	535
	.half	1582
	.half	3035
	.half	41
	.half	0
	.half	-32764
	.half	76
	.half	-13304
	.half	791
	.half	1582
	.half	2907
	.half	9
	.half	0
	.half	4
	.half	204
	.half	-13304
	.half	535
	.half	1070
	.half	0
	.half	25
	.half	0
	.half	0
	.half	332
	.half	-13304
	.half	535
	.half	1582
	.half	2907
	.half	41
	.half	0
	.half	4
	.half	72
	.half	8
	.half	0
	.half	0
	.half	3035
	.half	0
	.half	0
	.half	-32764
	.half	72
	.half	8
	.half	0
	.half	0
	.half	2947
	.half	0
	.half	0
	.half	-32768
	.half	76
	.half	-13304
	.half	791
	.half	1582
	.half	2819
	.half	9
	.half	0
	.half	0
	.half	204
	.half	-13304
	.half	535
	.half	1070
	.half	0
	.half	25
	.half	0
	.half	0
	.half	332
	.half	-13304
	.half	535
	.half	1582
	.half	3035
	.half	41
	.half	0
	.half	-32764
	.half	76
	.half	-13304
	.half	791
	.half	1582
	.half	2907
	.half	9
	.half	0
	.half	4
	.half	204
	.half	-13304
	.half	535
	.half	1070
	.half	0
	.half	25
	.half	0
	.half	0
	.half	332
	.half	-13304
	.half	535
	.half	1582
	.half	3035
	.half	41
	.half	0
	.half	-32764
	.half	76
	.half	-13304
	.half	791
	.half	1582
	.half	2907
	.half	9
	.half	0
	.half	4
	.half	204
	.half	-13304
	.half	535
	.half	1070
	.half	0
	.half	25
	.half	0
	.half	0
	.half	332
	.half	-13304
	.half	535
	.half	1582
	.half	3035
	.half	41
	.half	0
	.half	-32764
	.half	72
	.half	-19448
	.half	1045
	.half	352
	.half	2907
	.half	9
	.half	0
	.half	4
	.half	200
	.half	-19448
	.half	1045
	.half	352
	.half	2947
	.half	25
	.half	0
	.half	-32768
	.half	328
	.half	-19448
	.half	1045
	.half	352
	.half	2819
	.half	41
	.half	0
	.half	0
	.half	72
	.half	-19448
	.half	1045
	.half	352
	.half	0
	.half	9
	.half	0
	.half	0
	.half	72
	.half	-19448
	.half	1045
	.half	352
	.half	0
	.half	9
	.half	0
	.half	0
	.half	72
	.half	-19448
	.half	1045
	.half	224
	.half	0
	.half	9
	.half	0
	.half	0
	.half	72
	.half	-13304
	.half	113
	.half	224
	.half	0
	.half	9
	.half	0
	.half	0
	.half	72
	.half	-20472
	.half	1045
	.half	224
	.half	0
	.half	9
	.half	0
	.half	0
	.half	200
	.half	-19448
	.half	1045
	.half	352
	.half	0
	.half	25
	.half	0
	.half	0
	.half	200
	.half	-19448
	.half	1045
	.half	352
	.half	0
	.half	25
	.half	0
	.half	0
	.half	200
	.half	-19448
	.half	1045
	.half	224
	.half	0
	.half	25
	.half	0
	.half	0
	.half	200
	.half	-13304
	.half	113
	.half	224
	.half	0
	.half	25
	.half	0
	.half	0
	.half	200
	.half	-20472
	.half	1045
	.half	224
	.half	0
	.half	25
	.half	0
	.half	0
	.half	328
	.half	-19448
	.half	1045
	.half	352
	.half	0
	.half	41
	.half	0
	.half	0
	.half	328
	.half	-19448
	.half	1045
	.half	352
	.half	0
	.half	41
	.half	0
	.half	0
	.half	328
	.half	-19448
	.half	1045
	.half	224
	.half	0
	.half	41
	.half	0
	.half	0
	.half	328
	.half	-13304
	.half	113
	.half	224
	.half	0
	.half	41
	.half	0
	.half	0
	.half	328
	.half	-20472
	.half	1045
	.half	224
	.half	0
	.half	41
	.half	0
	.half	0
	.half	76
	.half	25608
	.half	51
	.half	38
	.half	0
	.half	57
	.half	0
	.half	0
	.half	456
	.half	-23544
	.half	1045
	.half	224
	.half	0
	.half	57
	.half	0
	.half	0
	.half	460
	.half	-13304
	.half	19
	.half	38
	.half	0
	.half	57
	.half	0
	.half	0
	.half	460
	.half	-13304
	.half	51
	.half	102
	.half	0
	.half	57
	.half	0
	.half	0
	.half	456
	.half	-19448
	.half	1045
	.half	352
	.half	0
	.half	57
	.half	0
	.half	0
	.half	456
	.half	-19448
	.half	1045
	.half	224
	.half	0
	.half	57
	.half	0
	.half	0
	.half	460
	.half	-9208
	.half	51
	.half	38
	.half	0
	.half	57
	.half	0
	.half	0
	.half	460
	.half	-13304
	.half	83
	.half	166
	.half	0
	.half	57
	.half	0
	.half	0
	.half	456
	.half	-19448
	.half	1045
	.half	352
	.half	0
	.half	57
	.half	0
	.half	0
	.half	456
	.half	-19448
	.half	1045
	.half	352
	.half	0
	.half	57
	.half	0
	.half	0
	.half	456
	.half	-19448
	.half	1045
	.half	352
	.half	0
	.half	57
	.half	0
	.half	0
	.half	456
	.half	-19448
	.half	1045
	.half	224
	.half	0
	.half	57
	.half	0
	.half	0
	.half	456
	.half	-13304
	.half	113
	.half	224
	.half	0
	.half	57
	.half	0
	.half	0
	.half	456
	.half	-20472
	.half	1045
	.half	224
	.half	3425
	.half	9
	.half	0
	.half	-32768
	.half	72
	.half	8200
	.half	19
	.half	162
	.half	0
	.half	1171
	.half	0
	.half	0
	.half	76
	.half	12296
	.half	80
	.half	4684
	.half	0
	.half	1034
	.half	0
	.half	0
	.half	72
	.half	8
	.half	0
	.half	0
	.half	0
	.half	0
	.half	0
	.half	0
	.half	72
	.half	2056
	.half	1045
	.half	160
	.half	3444
	.half	1171
	.half	0
	.half	0
	.half	72
	.half	8
	.half	0
	.half	0
	.half	3420
	.half	0
	.half	2048
	.half	32764
	.half	72
	.half	8
	.half	0
	.half	0
	.half	3425
	.half	0
	.half	0
	.half	-32768
	.half	72
	.half	8
	.half	0
	.half	0
	.half	14811
	.half	0
	.half	0
	.half	12
	.half	72
	.half	8
	.half	0
	.half	0
	.half	10715
	.half	0
	.half	0
	.half	-32760
	.half	72
	.half	8
	.half	0
	.half	0
	.half	7131
	.half	0
	.half	0
	.half	-32744
	.half	72
	.half	8
	.half	0
	.half	0
	.half	2875
	.half	0
	.half	0
	.half	-32768
	.half	72
	.half	8
	.half	0
	.half	0
	.half	3514
	.half	0
	.half	0
	.half	16388
	.half	72
	.half	8
	.half	0
	.half	0
	.half	3482
	.half	0
	.half	0
	.half	-16236
	.half	72
	.half	8
	.half	0
	.half	0
	.half	3416
	.half	0
	.half	2048
	.half	12
	.half	72
	.half	8
	.half	0
	.half	0
	.half	3363
	.half	0
	.half	0
	.half	-32768
	.half	76
	.half	2056
	.half	1045
	.half	2028
	.half	0
	.half	9
	.half	0
	.half	0
	.half	76
	.half	16392
	.half	18
	.half	1582
	.half	3419
	.half	1034
	.half	0
	.half	0
	.half	72
	.half	8
	.half	0
	.half	0
	.half	13811
	.half	0
	.half	0
	.half	0
	.half	72
	.half	8
	.half	0
	.half	0
	.half	3035
	.half	0
	.half	0
	.half	-32764
	.half	76
	.half	16392
	.half	18
	.half	1582
	.half	3035
	.half	1034
	.half	0
	.half	-32764
	.half	72
	.half	8
	.half	0
	.half	0
	.half	13171
	.half	0
	.half	0
	.half	0
	.half	76
	.half	16392
	.half	18
	.half	1582
	.half	3035
	.half	1034
	.half	0
	.half	-32764
	.half	72
	.half	8
	.half	0
	.half	0
	.half	13171
	.half	0
	.half	0
	.half	0
	.half	72
	.half	8
	.half	0
	.half	0
	.half	2947
	.half	0
	.half	0
	.half	-32768
	.half	76
	.half	16392
	.half	18
	.half	1582
	.half	3035
	.half	1034
	.half	0
	.half	-32764
	.half	72
	.half	8
	.half	0
	.half	0
	.half	13171
	.half	0
	.half	0
	.half	0
	.half	76
	.half	16392
	.half	18
	.half	1582
	.half	3035
	.half	1034
	.half	0
	.half	-32764
	.half	72
	.half	8
	.half	0
	.half	0
	.half	13171
	.half	0
	.half	0
	.half	0
	.half	76
	.half	16392
	.half	18
	.half	1582
	.half	3035
	.half	1034
	.half	0
	.half	-32764
	.half	72
	.half	8
	.half	0
	.half	0
	.half	13171
	.half	0
	.half	0
	.half	0
	.half	72
	.half	8
	.half	0
	.half	0
	.half	2947
	.half	0
	.half	0
	.half	-32768
	.half	76
	.half	16392
	.half	18
	.half	1582
	.half	3035
	.half	1034
	.half	0
	.half	-32764
	.half	72
	.half	8
	.half	0
	.half	0
	.half	13171
	.half	0
	.half	0
	.half	0
	.half	76
	.half	16392
	.half	18
	.half	1582
	.half	3035
	.half	1034
	.half	0
	.half	-32764
	.half	72
	.half	8
	.half	0
	.half	0
	.half	13171
	.half	0
	.half	0
	.half	0
	.half	76
	.half	16392
	.half	18
	.half	1582
	.half	3035
	.half	1034
	.half	0
	.half	-32764
	.half	72
	.half	8
	.half	0
	.half	0
	.half	13171
	.half	0
	.half	0
	.half	0
	.half	76
	.half	2056
	.half	1045
	.half	36
	.half	2947
	.half	139
	.half	0
	.half	-32768
	.half	72
	.half	8
	.half	0
	.half	0
	.half	0
	.half	0
	.half	0
	.half	0
	.half	72
	.half	2056
	.half	1045
	.half	160
	.half	3380
	.half	139
	.half	0
	.half	0
	.half	72
	.half	8
	.half	0
	.half	0
	.half	3420
	.half	0
	.half	2048
	.half	32764
	.half	12
	.half	-1
	.half	-2
	.half	0
	.half	1
	.half	2
	.half	3
	.text
.Letext0:
	.file 2 "/opt/riscv-xpack/riscv-none-elf/include/machine/_default_types.h"
	.file 3 "/opt/riscv-xpack/riscv-none-elf/include/sys/_stdint.h"
	.file 4 "apps/harris/kernels/../../../base/ztalib.h"
	.file 5 "apps/harris/kernels/harris.p.img"