	.file	"color.m.c"
	.option nopic
	.attribute arch, "rv32i2p1_m2p0"
	.attribute unaligned_access, 0
	.attribute stack_align, 16
	.text
.Ltext0:
	.cfi_sections	.debug_frame
	.file 0 "/home/mahmoudsamy/grad/ZC702/SW" "apps/color/kernels/color.m.c"
	.align	2
	.type	copy, @function
copy:
.LFB1:
	.file 1 "apps/color/kernels/color.m.c"
	.loc 1 197 36
	.cfi_startproc
.LVL0:
	.loc 1 198 4
	.loc 1 199 4
	.loc 1 200 4
	.loc 1 201 4
	.loc 1 202 4
	.loc 1 203 4
	.loc 1 204 4
	.loc 1 205 4
	.loc 1 206 4
	.loc 1 207 4
	.loc 1 208 4
	.loc 1 209 4
	.loc 1 197 36 is_stmt 0
	addi	sp,sp,-320
	.cfi_def_cfa_offset 320
	sw	s1,308(sp)
	sw	s7,284(sp)
	sw	ra,316(sp)
	sw	s0,312(sp)
	sw	s2,304(sp)
	sw	s3,300(sp)
	sw	s4,296(sp)
	sw	s5,292(sp)
	sw	s6,288(sp)
	sw	s8,280(sp)
	sw	s9,276(sp)
	sw	s10,272(sp)
	sw	s11,268(sp)
	.cfi_offset 9, -12
	.cfi_offset 23, -36
	.cfi_offset 1, -4
	.cfi_offset 8, -8
	.cfi_offset 18, -16
	.cfi_offset 19, -20
	.cfi_offset 20, -24
	.cfi_offset 21, -28
	.cfi_offset 22, -32
	.cfi_offset 24, -40
	.cfi_offset 25, -44
	.cfi_offset 26, -48
	.cfi_offset 27, -52
	.loc 1 214 23
	lw	a5,48(a0)
	.loc 1 209 21
	lw	s6,64(a0)
	.loc 1 215 23
	lw	a4,56(a0)
	.loc 1 214 23
	sw	a5,36(sp)
	.loc 1 214 79 discriminator 1
	snez	a5,a5
	neg	a5,a5
	.loc 1 209 38
	seqz	s1,s6
	.loc 1 214 79 discriminator 1
	andi	a5,a5,-2
	.loc 1 215 23
	sw	a4,76(sp)
	.loc 1 197 36
	mv	s7,a1
	.loc 1 209 38
	neg	s1,s1
.LVL1:
	.loc 1 210 4 is_stmt 1
	.loc 1 211 4
	.loc 1 212 4
	.loc 1 214 4
	.loc 1 214 79 is_stmt 0 discriminator 1
	addi	a5,a5,3
.LVL2:
	.loc 1 215 4 is_stmt 1
	.loc 1 215 79 is_stmt 0
	bne	a4,zero,.L83
	li	a4,192
	sw	a4,8(sp)
	li	a1,1536
.LVL3:
	.loc 1 215 79 discriminator 1
	li	a6,3
.L3:
.LVL4:
	.loc 1 216 4 is_stmt 1
	.loc 1 216 9 is_stmt 0
	lw	a2,0(a0)
	.loc 1 220 22
	lw	a3,8(a0)
	.loc 1 220 44 discriminator 1
	lw	a4,12(a0)
	.loc 1 216 9
	sw	a2,136(sp)
.LVL5:
	.loc 1 217 4 is_stmt 1
	.loc 1 221 32 is_stmt 0
	lw	a2,44(a0)
.LVL6:
	.loc 1 220 10
	lw	t4,16(a0)
	.loc 1 224 8
	mul	s0,a3,a4
	.loc 1 221 32
	sw	a2,0(sp)
	.loc 1 217 10
	lw	s2,4(a0)
.LVL7:
	.loc 1 220 4 is_stmt 1
	.loc 1 220 32 is_stmt 0 discriminator 1
	lw	s5,20(a0)
	.loc 1 221 10
	lw	t3,40(a0)
	.loc 1 220 6
	beq	t4,a3,.L125
.L4:
	.loc 1 249 7 is_stmt 1
.LVL8:
	.loc 1 250 7
	.loc 1 251 7
	.loc 1 252 7
	.loc 1 254 12 is_stmt 0
	lw	t5,24(a0)
	.loc 1 265 13
	lw	t1,32(a0)
	.loc 1 262 9
	srli	a1,a4,31
	add	a1,a1,a4
	.loc 1 252 12
	mul	a2,t4,a5
	.loc 1 267 9
	li	a7,1
	.loc 1 256 12
	lw	s11,28(a0)
	.loc 1 266 13
	lw	s4,36(a0)
	.loc 1 262 9
	srai	s9,a1,1
	.loc 1 255 12
	mul	s8,a5,t5
	.loc 1 252 12
	sw	a2,104(sp)
.LVL9:
	.loc 1 253 7 is_stmt 1
	.loc 1 254 7
	.loc 1 255 7
	.loc 1 256 7
	.loc 1 257 7
	.loc 1 258 7
	.loc 1 259 7
	.loc 1 260 7
	.loc 1 261 5
	.loc 1 257 14 is_stmt 0
	slli	a2,a5,6
.LVL10:
	sw	a2,84(sp)
.LVL11:
	.loc 1 261 7
	mul	a5,a3,a5
.LVL12:
	sw	a5,80(sp)
.LVL13:
	.loc 1 262 7 is_stmt 1
	.loc 1 263 7
	.loc 1 263 10 is_stmt 0
	mul	a5,a6,t3
.LVL14:
	sw	a5,60(sp)
.LVL15:
	.loc 1 264 7 is_stmt 1
	.loc 1 265 7
	.loc 1 265 13 is_stmt 0
	mul	s10,a6,t1
.LVL16:
	.loc 1 266 7 is_stmt 1
	.loc 1 267 7
	.loc 1 267 9 is_stmt 0
	beq	s7,a7,.L126
	.loc 1 249 11
	li	a5,1
.LVL17:
	sw	a5,132(sp)
	.loc 1 258 14
	li	s7,8
.LVL18:
.L5:
	.loc 1 275 4 is_stmt 1
	.loc 1 276 4
	.loc 1 278 4
	.loc 1 279 4
	.loc 1 280 4
	.loc 1 283 6 is_stmt 0
	lw	a2,36(sp)
	li	a5,2
	.loc 1 280 21
	lw	a4,52(a0)
.LVL19:
	.loc 1 281 4 is_stmt 1
	.loc 1 281 21 is_stmt 0
	lw	a3,60(a0)
.LVL20:
	.loc 1 283 4 is_stmt 1
	.loc 1 283 6 is_stmt 0
	beq	a2,a5,.L127
	.loc 1 285 11 is_stmt 1
	.loc 1 285 53 is_stmt 0 discriminator 1
	li	a1,1
	.loc 1 285 13
	bne	a2,zero,.L128
	.loc 1 285 53 discriminator 1
	lw	a2,76(sp)
	beq	a2,a1,.L129
	.loc 1 320 53 discriminator 1
	bne	a2,a5,.L31
	.loc 1 321 7 is_stmt 1
	.loc 1 344 18 is_stmt 0
	li	a5,-2147483648
	.loc 1 321 9
	bne	a4,zero,.L32
.LVL21:
	.loc 1 343 4 is_stmt 1
	.loc 1 344 1
	.loc 1 344 2
	.loc 1 344 18 is_stmt 0
	li	a4,1015828480
.LVL22:
	addi	a4,a4,260
	.loc 1 322 11
	li	s3,8192
	.loc 1 344 18
	sw	a4,20(a5)
.LVL23:
	.loc 1 348 4 is_stmt 1
	.loc 1 322 11 is_stmt 0
	addi	s3,s3,-1664
	j	.L17
.LVL24:
.L83:
	li	a4,64
	sw	a4,8(sp)
	li	a1,512
.LVL25:
	.loc 1 215 79 discriminator 2
	li	a6,1
	j	.L3
.LVL26:
.L128:
	.loc 1 296 11 is_stmt 1
	.loc 1 296 13 is_stmt 0
	bne	a2,a1,.L130
	.loc 1 296 48 discriminator 1
	lw	a2,76(sp)
.LVL27:
	beq	a2,zero,.L131
	.loc 1 307 11 is_stmt 1
	.loc 1 307 48 is_stmt 0 discriminator 1
	lw	a1,36(sp)
	bne	a2,a1,.L23
	.loc 1 308 7 is_stmt 1
	.loc 1 308 9 is_stmt 0
	beq	a4,a5,.L24
	.loc 1 308 47 discriminator 1
	beq	a3,a5,.L132
.L24:
	.loc 1 313 14 is_stmt 1
	.loc 1 346 18 is_stmt 0
	li	a5,-2147483648
	.loc 1 313 16
	beq	a4,a3,.L26
	.loc 1 316 10 is_stmt 1
.LVL28:
	.loc 1 343 4
	.loc 1 346 1
	.loc 1 346 2
	.loc 1 346 18 is_stmt 0
	li	a4,1015828480
.LVL29:
	addi	a4,a4,772
	.loc 1 316 11
	li	s3,4096
	.loc 1 346 18
	sw	a4,20(a5)
.LVL30:
	.loc 1 348 4 is_stmt 1
	.loc 1 316 11 is_stmt 0
	addi	s3,s3,1312
	j	.L17
.LVL31:
.L125:
	.loc 1 220 26 discriminator 1
	bne	s5,a4,.L4
	.loc 1 220 48 discriminator 2
	bne	t4,t3,.L4
	.loc 1 221 26
	bne	s5,a2,.L4
	.loc 1 223 7 is_stmt 1
.LVL32:
	.loc 1 224 7
	.loc 1 225 7
	.loc 1 226 7
	.loc 1 226 12 is_stmt 0
	mul	a2,a5,s0
	.loc 1 235 12
	srli	a4,s0,31
	add	a4,a4,s0
	srai	a4,a4,1
	.loc 1 241 9
	li	a3,1
.LVL33:
	.loc 1 226 12
	sw	a2,104(sp)
.LVL34:
	.loc 1 227 7 is_stmt 1
	.loc 1 228 7
	.loc 1 229 7
	.loc 1 230 7
	.loc 1 230 14 is_stmt 0
	slli	a2,a5,9
.LVL35:
	sw	a2,84(sp)
.LVL36:
	.loc 1 231 7 is_stmt 1
	.loc 1 232 7
	.loc 1 233 7
	.loc 1 235 7
	.loc 1 235 9 is_stmt 0
	mul	a2,a4,a5
.LVL37:
	sw	a2,80(sp)
.LVL38:
	.loc 1 236 7 is_stmt 1
	.loc 1 237 7
	.loc 1 237 10 is_stmt 0
	mul	a2,a4,a6
.LVL39:
	sw	a2,60(sp)
.LVL40:
	.loc 1 238 7 is_stmt 1
	.loc 1 239 7
	.loc 1 240 7
	.loc 1 241 7
	.loc 1 241 9 is_stmt 0
	beq	s7,a3,.L133
	.loc 1 238 10
	li	a5,1
.LVL41:
	.loc 1 232 15
	sw	a1,8(sp)
	.loc 1 223 11
	sw	zero,132(sp)
	.loc 1 227 12
	li	s5,1
	.loc 1 229 12
	li	s11,0
	.loc 1 228 12
	li	s8,0
	.loc 1 238 10
	sw	a5,0(sp)
	.loc 1 236 9
	li	s9,1
	.loc 1 231 14
	li	s7,1
.LVL42:
	.loc 1 239 13
	li	s4,0
	.loc 1 240 13
	li	s10,0
	j	.L5
.LVL43:
.L127:
	.loc 1 283 42 discriminator 1
	lw	a5,76(sp)
	bne	a5,zero,.L7
.LVL44:
	.loc 1 343 4 is_stmt 1
	.loc 1 346 1
	.loc 1 346 2
	.loc 1 346 18 is_stmt 0
	li	a4,1015828480
.LVL45:
	li	a5,-2147483648
	addi	a4,a4,772
	.loc 1 284 8
	li	s3,8192
	.loc 1 346 18
	sw	a4,20(a5)
.LVL46:
	.loc 1 348 4 is_stmt 1
	.loc 1 284 8 is_stmt 0
	addi	s3,s3,-1792
.LVL47:
.L8:
	.loc 1 349 1 is_stmt 1
	.loc 1 349 2
	.loc 1 349 18 is_stmt 0
	li	a4,1015828480
	li	a5,-2147483648
	addi	a4,a4,1284
	sw	a4,20(a5)
.L47:
	.loc 1 353 4 is_stmt 1
	li	a5,-2147483648
	sw	zero,36(a5)
	.loc 1 353 4
	call	_taskYield
.LVL48:
	.loc 1 353 18 discriminator 1
	.loc 1 355 4
	.loc 1 356 22 is_stmt 0
	slli	a5,s0,1
	.loc 1 356 18
	add	a5,a5,s2
	sw	a5,204(sp)
	.loc 1 355 18
	add	a7,s0,s2
.LVL49:
	.loc 1 356 4 is_stmt 1
	.loc 1 358 4
	.loc 1 359 10
	ble	s9,zero,.L1
	.loc 1 386 19 is_stmt 0
	li	a4,1015808000
	slli	s3,s3,3
	addi	a4,a4,4
	add	a4,s3,a4
	.loc 1 400 2186 discriminator 4
	slli	a5,s1,17
.LVL50:
	.loc 1 386 19
	sw	a4,108(sp)
	.loc 1 400 2186 discriminator 4
	li	a4,393216
	and	a5,a5,a4
	li	a4,17
	beq	s6,zero,.L50
	li	a4,65536
	addi	a4,a4,17
.L50:
	add	a5,a5,a4
	sw	a5,64(sp)
	lw	a5,80(sp)
	ble	a5,zero,.L1
	lw	a5,36(sp)
	bne	a5,zero,.L51
	lw	a5,0(sp)
	lw	a2,60(sp)
	lw	a1,136(sp)
	sub	a4,a5,s4
	mul	a4,a4,a2
	add	s3,a1,s8
	lw	a1,84(sp)
	lw	a0,8(sp)
	sub	a5,s5,s11
	add	a6,s8,a1
	lw	a1,104(sp)
	add	a3,s11,s7
	addi	a3,a3,-1
.LBB2:
	.loc 1 368 207
	li	t6,-2147483648
	addi	a4,a4,-1
	sw	a4,96(sp)
	addi	a4,a2,-1
	sw	a4,196(sp)
	add	a4,s2,s10
	sw	a4,192(sp)
	addi	a4,a1,-1
	sw	a4,200(sp)
	slli	a4,a0,1
	sw	a4,88(sp)
	lw	a4,204(sp)
	mul	a5,a5,a1
	sw	a3,176(sp)
	add	s6,a4,s10
.LBE2:
.LBB3:
	.loc 1 366 1959
	addi	a4,a6,-1
	sw	a4,136(sp)
	add	a3,s10,a0
	add	s5,a7,s10
.LVL51:
.LBE3:
.LBB4:
	.loc 1 368 207
	addi	t6,t6,800
.LBE4:
	.loc 1 358 9
	li	s0,0
	sw	a3,188(sp)
	mul	a4,a1,s11
	addi	a5,a5,-1
	sw	a5,128(sp)
.LBB5:
	.loc 1 366 2791
	li	a5,16777216
	addi	a5,a5,-1
	sw	a5,116(sp)
	sw	s3,228(sp)
	sw	s10,232(sp)
	sw	s9,236(sp)
	sw	s11,240(sp)
	add	a5,a4,s3
	sw	a5,112(sp)
	mul	a5,a2,s4
	sw	s5,244(sp)
	sw	s6,248(sp)
	mv	t5,t6
	mul	s1,s7,a2
.LVL52:
	sw	a5,92(sp)
	mul	s2,a1,s7
.LVL53:
.L52:
.LBE5:
	.loc 1 362 12 is_stmt 1
	mv	a5,s4
.LVL54:
	.loc 1 360 20 is_stmt 0
	add	s4,s4,s7
.LVL55:
.LBB6:
	.loc 1 392 2932 discriminator 4
	addi	a4,s4,-1
	.loc 1 392 2951 discriminator 4
	sub	a4,a4,a5
.LBE6:
.LBB7:
	.loc 1 381 2346
	lw	a3,228(sp)
	lw	a5,112(sp)
.LBE7:
.LBB8:
	.loc 1 392 2951 discriminator 4
	sw	a4,172(sp)
.LBE8:
.LBB9:
	.loc 1 366 2207
	sw	s8,20(sp)
.LBE9:
.LBB10:
	.loc 1 381 2346
	sub	a5,a5,a3
	sw	a5,168(sp)
	lw	a5,240(sp)
	lw	a3,232(sp)
.LBE10:
	.loc 1 361 12
	sw	zero,28(sp)
	add	a5,s0,a5
	sw	a5,180(sp)
	lw	a5,188(sp)
	sw	s2,204(sp)
	sw	s1,208(sp)
	sw	a5,32(sp)
	lw	a5,196(sp)
	sw	s4,212(sp)
	sw	s8,216(sp)
	sub	a5,a5,a3
	sw	a5,12(sp)
	lw	a3,192(sp)
	lw	a5,92(sp)
	sw	s0,220(sp)
	sw	s7,224(sp)
	add	a3,a3,a5
	sw	a3,36(sp)
	lw	a3,200(sp)
	sub	a3,a3,s8
	sw	a3,44(sp)
	lw	a3,244(sp)
	add	a3,a3,a5
	sw	a3,68(sp)
	lw	a3,248(sp)
	add	a5,a3,a5
	sw	a5,72(sp)
.LBB11:
	.loc 1 392 3353 discriminator 4
	addi	a5,a4,1
	sw	a5,184(sp)
	j	.L81
.LVL56:
.L71:
.LBE11:
.LBB12:
	.loc 1 368 3 is_stmt 1
	.loc 1 368 191
	.loc 1 368 207 is_stmt 0
	li	a5,192
	sw	a5,0(t5)
.LVL57:
	.loc 1 368 279 is_stmt 1
	.loc 1 368 295 is_stmt 0
	li	s0,7
	li	a6,-2147483648
	sw	s0,928(a6)
	.loc 1 368 301 is_stmt 1
	.loc 1 368 318 is_stmt 0
	li	a0,-2147483648
	li	a4,1535
	sw	a4,1440(a0)
	.loc 1 368 415 is_stmt 1
	.loc 1 368 432 is_stmt 0
	li	a1,-2147479552
	sw	zero,-1248(a1)
	.loc 1 368 504 is_stmt 1
	.loc 1 368 521 is_stmt 0
	li	a2,-2147483648
	li	a7,48
	sw	a7,1696(a2)
	.loc 1 368 575 is_stmt 1
	.loc 1 368 592 is_stmt 0
	li	t1,3
	li	a3,-2147483648
	sw	t1,1824(a3)
	.loc 1 368 598 is_stmt 1
	.loc 1 368 615 is_stmt 0
	li	a4,-2147483648
	li	t3,191
	sw	t3,1952(a4)
	.loc 1 368 691 is_stmt 1
	.loc 1 368 779 is_stmt 0
	li	s11,-2147479552
	.loc 1 368 708
	li	a5,-2147479552
	sw	zero,-1120(a5)
	.loc 1 368 762 is_stmt 1
	.loc 1 368 819 is_stmt 0
	li	s10,-2147479552
	.loc 1 368 779
	addi	s11,s11,-2016
	li	a7,8
	sw	a7,0(s11)
	.loc 1 368 802 is_stmt 1
	.loc 1 368 842 is_stmt 0
	li	s9,-2147479552
	.loc 1 368 819
	li	t4,5
	sw	t4,-1888(s10)
	.loc 1 368 825 is_stmt 1
	.loc 1 368 842 is_stmt 0
	addi	s9,s9,-1760
	li	t2,47
	sw	t2,0(s9)
	.loc 1 368 900 is_stmt 1
	.loc 1 368 917 is_stmt 0
	li	s8,-2147479552
	.loc 1 368 956
	li	s7,-2147483648
	.loc 1 368 917
	sw	zero,-992(s8)
	.loc 1 368 940 is_stmt 1
	.loc 1 368 956 is_stmt 0
	addi	s7,s7,1056
	li	s1,1
	sw	s1,0(s7)
	.loc 1 368 967 is_stmt 1
	.loc 1 368 983 is_stmt 0
	li	s6,-2147483648
	sw	s0,672(s6)
	.loc 1 368 989 is_stmt 1
	.loc 1 368 1006 is_stmt 0
	li	s5,-2147483648
	sw	s0,1568(s5)
	.loc 1 368 1029 is_stmt 1
	.loc 1 368 1046 is_stmt 0
	li	s4,-2147479552
	sw	zero,-864(s4)
	.loc 1 368 1055 is_stmt 1
.LVL58:
	.loc 1 368 1220
	.loc 1 368 1236 is_stmt 0
	li	s3,-2147483648
	.loc 1 368 1339
	li	ra,1036288
	.loc 1 368 1236
	sw	zero,544(s3)
	.loc 1 368 1265 is_stmt 1
	.loc 1 368 1266
	.loc 1 368 1283 is_stmt 0
	li	t2,-2147479552
	.loc 1 368 1339
	mv	a7,ra
	.loc 1 368 1283
	li	ra,1536
	sw	ra,-736(t2)
	.loc 1 368 1322 is_stmt 1
	.loc 1 368 1339 is_stmt 0
	li	s2,-2147479552
	addi	t3,a7,-1889
	sw	t3,0(sp)
	sw	t3,-1632(s2)
.LBE12:
.LBB13:
	.loc 1 368 1372 is_stmt 1
.LVL59:
	.loc 1 368 1483
	.loc 1 368 1500 is_stmt 0
	lw	a7,104(sp)
	.loc 1 368 1829
	li	t3,1036288
	addi	t3,t3,157
	.loc 1 368 1500
	sw	a7,0(s11)
.LVL60:
	.loc 1 368 1517 is_stmt 1
	.loc 1 368 1534 is_stmt 0
	sw	zero,-1888(s10)
	.loc 1 368 1540 is_stmt 1
	.loc 1 368 1557 is_stmt 0
	lw	a7,128(sp)
.LBE13:
.LBB14:
	.loc 1 368 2543
	li	ra,524288
	addi	ra,ra,16
.LBE14:
.LBB15:
	.loc 1 368 1557
	sw	a7,0(s9)
	.loc 1 368 1586 is_stmt 1
	.loc 1 368 1603 is_stmt 0
	lw	a7,168(sp)
.LBE15:
.LBB16:
	.loc 1 368 1283
	addi	t2,t2,-736
	.loc 1 368 318
	addi	a0,a0,1440
.LBE16:
.LBB17:
	.loc 1 368 1603
	sw	a7,-992(s8)
	.loc 1 368 1620 is_stmt 1
	.loc 1 368 1636 is_stmt 0
	sw	s1,0(s7)
	.loc 1 368 1647 is_stmt 1
	.loc 1 368 1663 is_stmt 0
	sw	t6,672(s6)
	.loc 1 368 1669 is_stmt 1
	.loc 1 368 1686 is_stmt 0
	lw	t6,44(sp)
.LBE17:
	.loc 1 368 1878
	li	a7,393216
.LBB18:
	.loc 1 368 521
	addi	a2,a2,1696
.LBE18:
.LBB19:
	.loc 1 368 1686
	sw	t6,1568(s5)
	.loc 1 368 1703 is_stmt 1
	.loc 1 368 1720 is_stmt 0
	lw	t6,20(sp)
.LBE19:
.LBB20:
	.loc 1 368 592
	addi	a3,a3,1824
	.loc 1 368 615
	addi	a4,a4,1952
.LBE20:
.LBB21:
	.loc 1 368 1720
	sw	t6,-864(s4)
	.loc 1 368 1729 is_stmt 1
.LVL61:
	.loc 1 368 1764
	.loc 1 368 1780 is_stmt 0
	sw	t0,544(s3)
	.loc 1 368 1811 is_stmt 1
	.loc 1 368 1812
	.loc 1 368 1829 is_stmt 0
	sw	t3,-1632(s2)
.LBE21:
	.loc 1 368 1861 is_stmt 1
	.loc 1 368 1862
	.loc 1 368 1878 is_stmt 0
	addi	t3,a7,17
	sw	t3,16(sp)
	li	t6,-2147483648
	sw	t3,20(t6)
.LBB22:
	.loc 1 368 1968 is_stmt 1
.LVL62:
	.loc 1 368 2013
	.loc 1 368 2030 is_stmt 0
	li	a7,4096
	sw	a7,0(s11)
	.loc 1 368 2042 is_stmt 1
	.loc 1 368 2082 is_stmt 0
	li	a7,16384
	.loc 1 368 2059
	sw	t1,-1888(s10)
	.loc 1 368 2065 is_stmt 1
	.loc 1 368 2082 is_stmt 0
	addi	a7,a7,-1
	sw	a7,0(s9)
	.loc 1 368 2110 is_stmt 1
	.loc 1 368 2127 is_stmt 0
	sw	zero,-992(s8)
	.loc 1 368 2139 is_stmt 1
	.loc 1 368 2156 is_stmt 0
	sw	t4,0(a3)
	.loc 1 368 2204 is_stmt 1
	.loc 1 368 2242
	.loc 1 368 2221 is_stmt 0
	li	t0,64
	sw	t0,0(a2)
	.loc 1 368 2259
	li	a7,383
	sw	a7,0(a4)
	.loc 1 368 2264 is_stmt 1
	.loc 1 368 2281 is_stmt 0
	sw	zero,-1120(a5)
	.loc 1 368 2284 is_stmt 1
	.loc 1 368 2300 is_stmt 0
	sw	s0,672(s6)
	.loc 1 368 2331 is_stmt 1
	.loc 1 368 2347 is_stmt 0
	li	t0,8
	sw	t0,0(s7)
	.loc 1 368 2362 is_stmt 1
	.loc 1 368 2379 is_stmt 0
	sw	a7,1568(s5)
	.loc 1 368 2384 is_stmt 1
	.loc 1 368 2401 is_stmt 0
	sw	zero,-864(s4)
	.loc 1 368 2404 is_stmt 1
	.loc 1 368 2420 is_stmt 0
	sw	s0,928(a6)
	.loc 1 368 2458 is_stmt 1
	.loc 1 368 2474 is_stmt 0
	sw	s1,0(t5)
	.loc 1 368 2485 is_stmt 1
	.loc 1 368 2507
	.loc 1 368 2502 is_stmt 0
	sw	a7,0(a0)
	.loc 1 368 2524
	sw	zero,-1248(a1)
	.loc 1 368 2527 is_stmt 1
	.loc 1 368 2543 is_stmt 0
	sw	ra,544(s3)
	.loc 1 368 2623 is_stmt 1
	.loc 1 368 2640 is_stmt 0
	li	t0,1536
	sw	t0,0(t2)
	.loc 1 368 2781
	li	ra,1032192
	.loc 1 368 2640
	sw	t2,148(sp)
	.loc 1 368 2764 is_stmt 1
	.loc 1 368 2781 is_stmt 0
	addi	ra,ra,1183
	sw	ra,-1632(s2)
.LBE22:
.LBB23:
	.loc 1 368 2814 is_stmt 1
.LVL63:
	.loc 1 368 3002
	.loc 1 368 3018 is_stmt 0
	li	t0,192
	sw	t0,0(t5)
	sw	t5,144(sp)
	.loc 1 368 3090 is_stmt 1
	.loc 1 368 3106 is_stmt 0
	sw	s0,928(a6)
	.loc 1 368 3112 is_stmt 1
	.loc 1 368 3129 is_stmt 0
	li	t5,1535
	sw	t5,0(a0)
	sw	a0,140(sp)
	.loc 1 368 3226 is_stmt 1
	.loc 1 368 3243 is_stmt 0
	sw	zero,-1248(a1)
	.loc 1 368 3315 is_stmt 1
	.loc 1 368 3332 is_stmt 0
	li	a0,48
	sw	a0,0(s11)
	.loc 1 368 3386 is_stmt 1
	.loc 1 368 3409
	.loc 1 368 3403 is_stmt 0
	sw	t1,-1888(s10)
	.loc 1 368 3426
	li	a0,191
	sw	a0,0(s9)
	.loc 1 368 3502 is_stmt 1
	.loc 1 368 3519 is_stmt 0
	sw	zero,-992(s8)
	.loc 1 368 3573 is_stmt 1
	.loc 1 368 3590 is_stmt 0
	li	a0,8
	sw	a0,0(a2)
	sw	a2,124(sp)
	.loc 1 368 3613 is_stmt 1
	.loc 1 368 3630 is_stmt 0
	sw	t4,0(a3)
	sw	a3,120(sp)
	.loc 1 368 3636 is_stmt 1
	.loc 1 368 3653 is_stmt 0
	li	t2,47
	sw	t2,0(a4)
	sw	a4,100(sp)
	.loc 1 368 3711 is_stmt 1
	.loc 1 368 3728 is_stmt 0
	sw	zero,-1120(a5)
	.loc 1 368 3751 is_stmt 1
	.loc 1 368 3767 is_stmt 0
	sw	s1,0(s7)
	.loc 1 368 3778 is_stmt 1
	.loc 1 368 3794 is_stmt 0
	sw	s0,672(s6)
	.loc 1 368 3800 is_stmt 1
	.loc 1 368 4094 is_stmt 0
	li	a4,1036288
	.loc 1 368 3817
	sw	s0,1568(s5)
	.loc 1 368 3840 is_stmt 1
	.loc 1 368 4094 is_stmt 0
	addi	a4,a4,-1891
	sw	a4,24(sp)
	.loc 1 368 3857
	sw	zero,-864(s4)
	.loc 1 368 3866 is_stmt 1
.LVL64:
	.loc 1 368 4031
	.loc 1 368 4047 is_stmt 0
	sw	zero,544(s3)
	.loc 1 368 4076 is_stmt 1
	.loc 1 368 4077
	.loc 1 368 4094 is_stmt 0
	sw	a4,-1632(s2)
.LBE23:
	.loc 1 368 0 is_stmt 1
	.loc 1 368 0
	sw	t3,20(t6)
	.loc 1 386 1
	.loc 1 386 2
	.loc 1 386 18 is_stmt 0
	lw	a4,108(sp)
	.loc 1 368 1878
	addi	t6,t6,20
	.loc 1 388 10
	li	ra,-2147483648
	.loc 1 386 18
	sw	a4,0(t6)
	sw	t6,56(sp)
	.loc 1 388 10 is_stmt 1
	sw	zero,36(ra)
	.loc 1 388 10
.LBB24:
	.loc 1 368 295 is_stmt 0
	addi	a6,a6,928
	.loc 1 368 432
	addi	a1,a1,-1248
	.loc 1 368 708
	addi	a5,a5,-1120
	.loc 1 368 295
	sw	a6,52(sp)
	.loc 1 368 432
	sw	a1,48(sp)
	.loc 1 368 708
	sw	a5,40(sp)
.LBE24:
	.loc 1 388 10
	call	_taskYield
.LVL65:
	.loc 1 388 24 is_stmt 1 discriminator 1
	.loc 1 390 10
	.loc 1 390 12 is_stmt 0
	lw	a7,76(sp)
.LBB25:
	.loc 1 368 819
	addi	s10,s10,-1888
	.loc 1 368 1339
	addi	s2,s2,-1632
.LBE25:
	.loc 1 390 12
	lw	a5,40(sp)
	lw	a1,48(sp)
	lw	a6,52(sp)
	lw	t6,56(sp)
	lw	a4,100(sp)
	lw	a3,120(sp)
	lw	a2,124(sp)
	lw	a0,140(sp)
	lw	t5,144(sp)
	lw	t2,148(sp)
.LBB26:
	.loc 1 368 917
	addi	s8,s8,-992
	.loc 1 368 983
	addi	s6,s6,672
	.loc 1 368 1006
	addi	s5,s5,1568
	.loc 1 368 1046
	addi	s4,s4,-864
	.loc 1 368 1236
	addi	s3,s3,544
.LBE26:
	.loc 1 390 12
	li	t4,5
	li	t1,3
	li	t0,64
	beq	a7,zero,.L134
.LBB27:
	.loc 1 400 3 is_stmt 1
.LVL66:
	.loc 1 400 195
	.loc 1 400 211 is_stmt 0
	sw	t0,0(t5)
	.loc 1 400 287 is_stmt 1
	.loc 1 400 303 is_stmt 0
	sw	s0,0(a6)
	.loc 1 400 309 is_stmt 1
	.loc 1 400 326 is_stmt 0
	li	t3,511
	sw	t3,0(a0)
	.loc 1 400 427 is_stmt 1
	.loc 1 400 444 is_stmt 0
	sw	zero,0(a1)
	.loc 1 400 520 is_stmt 1
	.loc 1 400 537 is_stmt 0
	li	t4,16
	sw	t4,0(s11)
	.loc 1 400 595 is_stmt 1
	.loc 1 400 612 is_stmt 0
	sw	t1,0(s10)
	.loc 1 400 618 is_stmt 1
	.loc 1 400 635 is_stmt 0
	li	t4,63
	sw	t4,0(s9)
	.loc 1 400 715 is_stmt 1
	.loc 1 400 732 is_stmt 0
	sw	zero,0(s8)
	.loc 1 400 790 is_stmt 1
	.loc 1 400 807 is_stmt 0
	li	t4,8
	sw	t4,0(a2)
	.loc 1 400 830 is_stmt 1
	.loc 1 400 847 is_stmt 0
	sw	s1,0(a3)
	.loc 1 400 853 is_stmt 1
	.loc 1 400 870 is_stmt 0
	li	t4,15
	sw	t4,0(a4)
	.loc 1 400 932 is_stmt 1
	.loc 1 400 949 is_stmt 0
	sw	zero,0(a5)
	.loc 1 400 972 is_stmt 1
	.loc 1 400 988 is_stmt 0
	sw	s1,0(s7)
	.loc 1 400 999 is_stmt 1
	.loc 1 400 1015 is_stmt 0
	sw	s0,0(s6)
	.loc 1 400 1021 is_stmt 1
	.loc 1 400 1038 is_stmt 0
	sw	s0,0(s5)
	.loc 1 400 1061 is_stmt 1
	.loc 1 400 1078 is_stmt 0
	sw	zero,0(s4)
	.loc 1 400 1087 is_stmt 1
.LVL67:
	.loc 1 400 1260
	.loc 1 400 1276 is_stmt 0
	sw	zero,0(s3)
	.loc 1 400 1305 is_stmt 1
	.loc 1 400 1306
	.loc 1 400 1323 is_stmt 0
	li	a7,512
	sw	a7,0(t2)
	.loc 1 400 1362 is_stmt 1
	.loc 1 400 1379 is_stmt 0
	lw	a7,0(sp)
.LBE27:
.LBB28:
	.loc 1 400 1795
	li	t4,8
.LBE28:
.LBB29:
	.loc 1 400 1379
	sw	a7,0(s2)
.LBE29:
.LBB30:
	.loc 1 400 1412 is_stmt 1
.LVL68:
	.loc 1 400 1457
	.loc 1 400 1474 is_stmt 0
	li	a7,4096
	sw	a7,0(s11)
	.loc 1 400 1486 is_stmt 1
	.loc 1 400 1526 is_stmt 0
	li	a7,16384
	.loc 1 400 1503
	sw	t1,0(s10)
	.loc 1 400 1509 is_stmt 1
	.loc 1 400 1526 is_stmt 0
	addi	a7,a7,-1
	sw	a7,0(s9)
	.loc 1 400 1554 is_stmt 1
	.loc 1 400 1571 is_stmt 0
	sw	zero,0(s8)
	.loc 1 400 1583 is_stmt 1
	.loc 1 400 1600 is_stmt 0
	sw	s1,0(a3)
	.loc 1 400 1652 is_stmt 1
	.loc 1 400 1669 is_stmt 0
	sw	t0,0(a2)
	.loc 1 400 1690 is_stmt 1
	.loc 1 400 1707 is_stmt 0
	li	a7,383
	sw	a7,0(a4)
	.loc 1 400 1712 is_stmt 1
	.loc 1 400 1729 is_stmt 0
	sw	zero,0(a5)
	.loc 1 400 1732 is_stmt 1
	.loc 1 400 1748 is_stmt 0
	sw	s0,0(s6)
	.loc 1 400 1779 is_stmt 1
	.loc 1 400 1795 is_stmt 0
	sw	t4,0(s7)
	.loc 1 400 1810 is_stmt 1
	.loc 1 400 1827 is_stmt 0
	sw	a7,0(s5)
	.loc 1 400 1832 is_stmt 1
	.loc 1 400 1849 is_stmt 0
	sw	zero,0(s4)
	.loc 1 400 1852 is_stmt 1
	.loc 1 400 1868 is_stmt 0
	sw	s0,0(a6)
	.loc 1 400 1906 is_stmt 1
	.loc 1 400 1922 is_stmt 0
	sw	s1,0(t5)
	.loc 1 400 1933 is_stmt 1
	.loc 1 400 1950 is_stmt 0
	sw	a7,0(a0)
	.loc 1 400 1955 is_stmt 1
	.loc 1 400 1991 is_stmt 0
	li	t4,524288
	.loc 1 400 1972
	sw	zero,0(a1)
	.loc 1 400 1975 is_stmt 1
	.loc 1 400 1991 is_stmt 0
	addi	t4,t4,400
	.loc 1 400 2136
	li	a7,1032192
	.loc 1 400 1991
	sw	t4,0(s3)
	.loc 1 400 2119 is_stmt 1
	.loc 1 400 2136 is_stmt 0
	addi	t4,a7,1181
	sw	t4,48(sp)
	sw	t4,0(s2)
.LBE30:
	.loc 1 400 2168 is_stmt 1
	.loc 1 400 2169
	.loc 1 400 2185 is_stmt 0 discriminator 4
	lw	a7,64(sp)
	sw	a7,0(t6)
.LBB31:
	.loc 1 400 2287 is_stmt 1 discriminator 4
.LVL69:
	.loc 1 400 2396 is_stmt 0 discriminator 4
	lw	a7,60(sp)
	sw	a7,0(s11)
	.loc 1 400 2428 discriminator 4
	sw	zero,0(s10)
	.loc 1 400 2451 discriminator 4
	lw	a7,96(sp)
	sw	a7,0(s9)
	.loc 1 400 2493 discriminator 4
	lw	a7,92(sp)
	sw	a7,0(s8)
	.loc 1 400 2347 discriminator 4
	lw	a7,32(sp)
	.loc 1 400 2524 discriminator 4
	sw	s1,0(s7)
	.loc 1 400 2347 discriminator 4
	addi	t4,a7,-1
	.loc 1 400 2366 discriminator 4
	lw	a7,4(sp)
	sub	t4,t4,a7
	sw	t4,40(sp)
.LVL70:
	.loc 1 400 2379 is_stmt 1 discriminator 4
	.loc 1 400 2411 discriminator 4
	.loc 1 400 2434 discriminator 4
	.loc 1 400 2476 discriminator 4
	.loc 1 400 2508 discriminator 4
	.loc 1 400 2535 discriminator 4
	.loc 1 400 2551 is_stmt 0 discriminator 4
	sw	t4,0(s6)
	.loc 1 400 2557 is_stmt 1 discriminator 4
	.loc 1 400 2574 is_stmt 0 discriminator 4
	lw	a7,12(sp)
	sw	a7,0(s5)
	.loc 1 400 2589 is_stmt 1 discriminator 4
	.loc 1 400 2606 is_stmt 0 discriminator 4
	lw	a7,4(sp)
	sw	a7,0(s4)
	.loc 1 400 2615 is_stmt 1 discriminator 4
.LVL71:
	.loc 1 400 2648 discriminator 4
	.loc 1 400 2664 is_stmt 0 discriminator 4
	lw	a7,36(sp)
	sw	a7,0(s3)
	.loc 1 400 2696 is_stmt 1 discriminator 4
	.loc 1 400 2697 discriminator 4
	.loc 1 400 2726 is_stmt 0 discriminator 4
	addi	a7,t4,1
	sw	a7,32(sp)
	.loc 1 400 2756 discriminator 4
	li	t4,1036288
	.loc 1 400 2714 discriminator 4
	sw	a7,0(t2)
	.loc 1 400 2739 is_stmt 1 discriminator 4
	.loc 1 400 2756 is_stmt 0 discriminator 4
	addi	t4,t4,159
	sw	t4,0(s2)
.LBE31:
.LBB32:
	.loc 1 400 2789 is_stmt 1 discriminator 4
.LVL72:
	.loc 1 400 2981 discriminator 4
	.loc 1 400 2997 is_stmt 0 discriminator 4
	sw	t0,0(t5)
	.loc 1 400 3073 is_stmt 1 discriminator 4
	.loc 1 400 3089 is_stmt 0 discriminator 4
	sw	s0,0(a6)
	.loc 1 400 3095 is_stmt 1 discriminator 4
	.loc 1 400 3112 is_stmt 0 discriminator 4
	sw	t3,0(a0)
	.loc 1 400 3213 is_stmt 1 discriminator 4
	.loc 1 400 3323 is_stmt 0 discriminator 4
	li	t3,16
	.loc 1 400 3230 discriminator 4
	sw	zero,0(a1)
	.loc 1 400 3306 is_stmt 1 discriminator 4
	.loc 1 400 3323 is_stmt 0 discriminator 4
	sw	t3,0(a2)
	.loc 1 400 3381 is_stmt 1 discriminator 4
	.loc 1 400 3398 is_stmt 0 discriminator 4
	sw	t1,0(a3)
	.loc 1 400 3404 is_stmt 1 discriminator 4
	.loc 1 400 3421 is_stmt 0 discriminator 4
	li	t3,63
	sw	t3,0(a4)
	.loc 1 400 3501 is_stmt 1 discriminator 4
	.loc 1 400 3518 is_stmt 0 discriminator 4
	sw	zero,0(a5)
	.loc 1 400 3576 is_stmt 1 discriminator 4
	.loc 1 400 3593 is_stmt 0 discriminator 4
	li	a7,8
	sw	a7,0(s11)
	.loc 1 400 3616 is_stmt 1 discriminator 4
	.loc 1 400 3633 is_stmt 0 discriminator 4
	sw	s1,0(s10)
	.loc 1 400 3639 is_stmt 1 discriminator 4
	.loc 1 400 3656 is_stmt 0 discriminator 4
	li	t3,15
	sw	t3,0(s9)
	.loc 1 400 3718 is_stmt 1 discriminator 4
	.loc 1 400 3735 is_stmt 0 discriminator 4
	sw	zero,0(s8)
	.loc 1 400 3758 is_stmt 1 discriminator 4
	.loc 1 400 3774 is_stmt 0 discriminator 4
	sw	s1,0(s7)
	.loc 1 400 3785 is_stmt 1 discriminator 4
	.loc 1 400 3801 is_stmt 0 discriminator 4
	sw	s0,0(s6)
	.loc 1 400 3807 is_stmt 1 discriminator 4
	.loc 1 400 3824 is_stmt 0 discriminator 4
	sw	s0,0(s5)
	.loc 1 400 3847 is_stmt 1 discriminator 4
	.loc 1 400 3864 is_stmt 0 discriminator 4
	sw	zero,0(s4)
	.loc 1 400 3873 is_stmt 1 discriminator 4
.LVL73:
	.loc 1 400 4046 discriminator 4
	.loc 1 400 4062 is_stmt 0 discriminator 4
	sw	zero,0(s3)
	.loc 1 400 4091 is_stmt 1 discriminator 4
	.loc 1 400 4092 discriminator 4
	.loc 1 400 0 is_stmt 0 discriminator 4
	lw	a7,24(sp)
.LBE32:
	.loc 1 402 15
	li	t3,2
.LBB33:
	.loc 1 400 0 discriminator 4
	sw	a7,0(s2)
.LBE33:
	.loc 1 400 0 is_stmt 1 discriminator 4
	.loc 1 400 0 discriminator 4
	lw	a7,16(sp)
	sw	a7,0(t6)
	.loc 1 402 13
	.loc 1 402 15 is_stmt 0
	lw	a7,76(sp)
	beq	a7,t3,.L79
	.loc 1 403 16 is_stmt 1
.LBB34:
	.loc 1 407 3
.LVL74:
	.loc 1 407 195
	.loc 1 407 211 is_stmt 0
	sw	t0,0(t5)
	.loc 1 407 287 is_stmt 1
	.loc 1 407 303 is_stmt 0
	sw	s0,0(a6)
	.loc 1 407 309 is_stmt 1
	.loc 1 407 326 is_stmt 0
	li	t3,511
	sw	t3,0(a0)
	.loc 1 407 427 is_stmt 1
	.loc 1 407 444 is_stmt 0
	sw	zero,0(a1)
	.loc 1 407 520 is_stmt 1
	.loc 1 407 537 is_stmt 0
	li	t3,16
	sw	t3,0(s11)
	.loc 1 407 595 is_stmt 1
	.loc 1 407 612 is_stmt 0
	sw	t1,0(s10)
	.loc 1 407 618 is_stmt 1
	.loc 1 407 635 is_stmt 0
	li	t3,63
	sw	t3,0(s9)
	.loc 1 407 715 is_stmt 1
	.loc 1 407 732 is_stmt 0
	sw	zero,0(s8)
	.loc 1 407 790 is_stmt 1
	.loc 1 407 807 is_stmt 0
	li	a7,8
	sw	a7,0(a2)
	.loc 1 407 830 is_stmt 1
	.loc 1 407 847 is_stmt 0
	sw	s1,0(a3)
	.loc 1 407 853 is_stmt 1
	.loc 1 407 870 is_stmt 0
	li	t3,15
	sw	t3,0(a4)
	.loc 1 407 932 is_stmt 1
	.loc 1 407 949 is_stmt 0
	sw	zero,0(a5)
	.loc 1 407 972 is_stmt 1
	.loc 1 407 988 is_stmt 0
	sw	s1,0(s7)
	.loc 1 407 999 is_stmt 1
	.loc 1 407 1015 is_stmt 0
	sw	s0,0(s6)
	.loc 1 407 1021 is_stmt 1
	.loc 1 407 1038 is_stmt 0
	sw	s0,0(s5)
	.loc 1 407 1061 is_stmt 1
	.loc 1 407 1078 is_stmt 0
	sw	zero,0(s4)
	.loc 1 407 1087 is_stmt 1
.LVL75:
	.loc 1 407 1260
	.loc 1 407 1276 is_stmt 0
	sw	zero,0(s3)
	.loc 1 407 1305 is_stmt 1
	.loc 1 407 1306
	.loc 1 407 1323 is_stmt 0
	li	a7,512
	sw	a7,0(t2)
	.loc 1 407 1362 is_stmt 1
	.loc 1 407 1379 is_stmt 0
	lw	t3,0(sp)
.LBE34:
.LBB35:
	.loc 1 407 1795
	li	a7,8
.LBE35:
.LBB36:
	.loc 1 407 1379
	sw	t3,0(s2)
.LBE36:
.LBB37:
	.loc 1 407 1412 is_stmt 1
.LVL76:
	.loc 1 407 1457
	.loc 1 407 1474 is_stmt 0
	li	t3,4096
	sw	t3,0(s11)
	.loc 1 407 1486 is_stmt 1
	.loc 1 407 1526 is_stmt 0
	li	t3,16384
	.loc 1 407 1503
	sw	t1,0(s10)
	.loc 1 407 1509 is_stmt 1
	.loc 1 407 1526 is_stmt 0
	addi	t3,t3,-1
	sw	t3,0(s9)
	.loc 1 407 1554 is_stmt 1
	.loc 1 407 1571 is_stmt 0
	sw	zero,0(s8)
	.loc 1 407 1583 is_stmt 1
	.loc 1 407 1600 is_stmt 0
	sw	s1,0(a3)
	.loc 1 407 1652 is_stmt 1
	.loc 1 407 1669 is_stmt 0
	sw	t0,0(a2)
	.loc 1 407 1690 is_stmt 1
	.loc 1 407 1707 is_stmt 0
	li	t3,383
	sw	t3,0(a4)
	.loc 1 407 1712 is_stmt 1
	.loc 1 407 1729 is_stmt 0
	sw	zero,0(a5)
	.loc 1 407 1732 is_stmt 1
	.loc 1 407 1748 is_stmt 0
	sw	s0,0(s6)
	.loc 1 407 1779 is_stmt 1
	.loc 1 407 1795 is_stmt 0
	sw	a7,0(s7)
	.loc 1 407 1810 is_stmt 1
	.loc 1 407 1827 is_stmt 0
	sw	t3,0(s5)
	.loc 1 407 1832 is_stmt 1
	.loc 1 407 1849 is_stmt 0
	sw	zero,0(s4)
	.loc 1 407 1852 is_stmt 1
	.loc 1 407 1868 is_stmt 0
	sw	s0,0(a6)
	.loc 1 407 1906 is_stmt 1
	.loc 1 407 1827 is_stmt 0
	mv	a7,t3
	.loc 1 407 1922
	sw	s1,0(t5)
	.loc 1 407 1933 is_stmt 1
	.loc 1 407 1950 is_stmt 0
	sw	a7,0(a0)
	.loc 1 407 1955 is_stmt 1
	.loc 1 407 1991 is_stmt 0
	li	t3,524288
	.loc 1 407 1972
	sw	zero,0(a1)
	.loc 1 407 1975 is_stmt 1
	.loc 1 407 1991 is_stmt 0
	addi	t3,t3,528
	sw	t3,0(s3)
	.loc 1 407 2119 is_stmt 1
	.loc 1 407 2136 is_stmt 0
	lw	t3,48(sp)
	sw	t3,0(s2)
.LBE37:
	.loc 1 407 2168 is_stmt 1
	.loc 1 407 2169
	.loc 1 407 2185 is_stmt 0 discriminator 4
	lw	t3,64(sp)
	sw	t3,0(t6)
.LBB38:
	.loc 1 407 2287 is_stmt 1 discriminator 4
.LVL77:
	.loc 1 407 2379 discriminator 4
	.loc 1 407 2396 is_stmt 0 discriminator 4
	lw	t3,60(sp)
	sw	t3,0(s11)
	.loc 1 407 2411 is_stmt 1 discriminator 4
	.loc 1 407 2428 is_stmt 0 discriminator 4
	sw	zero,0(s10)
	.loc 1 407 2434 is_stmt 1 discriminator 4
	.loc 1 407 2451 is_stmt 0 discriminator 4
	lw	t3,96(sp)
	sw	t3,0(s9)
	.loc 1 407 2476 is_stmt 1 discriminator 4
	.loc 1 407 2493 is_stmt 0 discriminator 4
	lw	t3,92(sp)
	sw	t3,0(s8)
	.loc 1 407 2508 is_stmt 1 discriminator 4
	.loc 1 407 2524 is_stmt 0 discriminator 4
	sw	s1,0(s7)
	.loc 1 407 2535 is_stmt 1 discriminator 4
	.loc 1 407 2551 is_stmt 0 discriminator 4
	lw	t3,40(sp)
	sw	t3,0(s6)
	.loc 1 407 2557 is_stmt 1 discriminator 4
	.loc 1 407 2574 is_stmt 0 discriminator 4
	lw	t3,12(sp)
	sw	t3,0(s5)
	.loc 1 407 2589 is_stmt 1 discriminator 4
	.loc 1 407 2606 is_stmt 0 discriminator 4
	lw	t3,4(sp)
	sw	t3,0(s4)
	.loc 1 407 2615 is_stmt 1 discriminator 4
.LVL78:
	.loc 1 407 2648 discriminator 4
	.loc 1 407 2664 is_stmt 0 discriminator 4
	lw	t3,68(sp)
	sw	t3,0(s3)
	.loc 1 407 2697 is_stmt 1 discriminator 4
	.loc 1 407 2698 discriminator 4
	.loc 1 407 2715 is_stmt 0 discriminator 4
	lw	t3,32(sp)
	sw	t3,0(t2)
	.loc 1 407 2740 is_stmt 1 discriminator 4
	.loc 1 407 2757 is_stmt 0 discriminator 4
	sw	t4,0(s2)
.LBE38:
.LBB39:
	.loc 1 407 2790 is_stmt 1 discriminator 4
.LVL79:
	.loc 1 407 2982 discriminator 4
	.loc 1 407 2998 is_stmt 0 discriminator 4
	sw	t0,0(t5)
	.loc 1 407 3074 is_stmt 1 discriminator 4
	.loc 1 407 3090 is_stmt 0 discriminator 4
	sw	s0,0(a6)
	.loc 1 407 3096 is_stmt 1 discriminator 4
	.loc 1 407 3113 is_stmt 0 discriminator 4
	li	t3,511
	sw	t3,0(a0)
	.loc 1 407 3214 is_stmt 1 discriminator 4
	.loc 1 407 3231 is_stmt 0 discriminator 4
	sw	zero,0(a1)
	.loc 1 407 3307 is_stmt 1 discriminator 4
	.loc 1 407 3324 is_stmt 0 discriminator 4
	li	t3,16
	sw	t3,0(a2)
	.loc 1 407 3382 is_stmt 1 discriminator 4
	.loc 1 407 3422 is_stmt 0 discriminator 4
	li	t3,63
	.loc 1 407 3399 discriminator 4
	sw	t1,0(a3)
	.loc 1 407 3405 is_stmt 1 discriminator 4
	.loc 1 407 3422 is_stmt 0 discriminator 4
	sw	t3,0(a4)
	.loc 1 407 3502 is_stmt 1 discriminator 4
	.loc 1 407 3519 is_stmt 0 discriminator 4
	sw	zero,0(a5)
	.loc 1 407 3577 is_stmt 1 discriminator 4
	.loc 1 407 3594 is_stmt 0 discriminator 4
	li	t3,8
	sw	t3,0(s11)
	.loc 1 407 3617 is_stmt 1 discriminator 4
	.loc 1 407 3634 is_stmt 0 discriminator 4
	sw	s1,0(s10)
	.loc 1 407 3640 is_stmt 1 discriminator 4
	.loc 1 407 3594 is_stmt 0 discriminator 4
	mv	a7,t3
	.loc 1 407 3657 discriminator 4
	li	t3,15
	sw	t3,0(s9)
	.loc 1 407 3719 is_stmt 1 discriminator 4
	.loc 1 407 3736 is_stmt 0 discriminator 4
	sw	zero,0(s8)
	.loc 1 407 3759 is_stmt 1 discriminator 4
	.loc 1 407 3775 is_stmt 0 discriminator 4
	sw	s1,0(s7)
	.loc 1 407 3786 is_stmt 1 discriminator 4
	.loc 1 407 3802 is_stmt 0 discriminator 4
	sw	s0,0(s6)
	.loc 1 407 3808 is_stmt 1 discriminator 4
	.loc 1 407 3825 is_stmt 0 discriminator 4
	sw	s0,0(s5)
	.loc 1 407 3848 is_stmt 1 discriminator 4
	.loc 1 407 3865 is_stmt 0 discriminator 4
	sw	zero,0(s4)
	.loc 1 407 3874 is_stmt 1 discriminator 4
.LVL80:
	.loc 1 407 4047 discriminator 4
	.loc 1 407 4063 is_stmt 0 discriminator 4
	sw	zero,0(s3)
	.loc 1 407 4092 is_stmt 1 discriminator 4
	.loc 1 407 4093 discriminator 4
	.loc 1 407 0 is_stmt 0 discriminator 4
	lw	t3,24(sp)
	sw	t3,0(s2)
.LBE39:
	.loc 1 407 0 is_stmt 1 discriminator 4
	.loc 1 407 0 discriminator 4
	lw	t3,16(sp)
	sw	t3,0(t6)
.LBB40:
	.loc 1 408 3
.LVL81:
	.loc 1 408 195
	.loc 1 408 211 is_stmt 0
	sw	t0,0(t5)
	.loc 1 408 287 is_stmt 1
	.loc 1 408 303 is_stmt 0
	sw	s0,0(a6)
	.loc 1 408 309 is_stmt 1
	.loc 1 408 326 is_stmt 0
	li	t3,511
	sw	t3,0(a0)
	.loc 1 408 427 is_stmt 1
	.loc 1 408 444 is_stmt 0
	sw	zero,0(a1)
	.loc 1 408 520 is_stmt 1
	.loc 1 408 537 is_stmt 0
	li	t3,16
	sw	t3,0(s11)
	.loc 1 408 595 is_stmt 1
	.loc 1 408 612 is_stmt 0
	sw	t1,0(s10)
	.loc 1 408 618 is_stmt 1
	.loc 1 408 635 is_stmt 0
	li	t3,63
	sw	t3,0(s9)
	.loc 1 408 715 is_stmt 1
	.loc 1 408 732 is_stmt 0
	sw	zero,0(s8)
	.loc 1 408 790 is_stmt 1
	.loc 1 408 807 is_stmt 0
	sw	a7,0(a2)
	.loc 1 408 830 is_stmt 1
	.loc 1 408 847 is_stmt 0
	sw	s1,0(a3)
	.loc 1 408 853 is_stmt 1
	.loc 1 408 870 is_stmt 0
	li	t3,15
	sw	t3,0(a4)
	.loc 1 408 932 is_stmt 1
	.loc 1 408 949 is_stmt 0
	sw	zero,0(a5)
	.loc 1 408 972 is_stmt 1
	.loc 1 408 988 is_stmt 0
	sw	s1,0(s7)
	.loc 1 408 999 is_stmt 1
	.loc 1 408 1015 is_stmt 0
	sw	s0,0(s6)
	.loc 1 408 1021 is_stmt 1
	.loc 1 408 1038 is_stmt 0
	sw	s0,0(s5)
	.loc 1 408 1061 is_stmt 1
	.loc 1 408 1078 is_stmt 0
	sw	zero,0(s4)
	.loc 1 408 1087 is_stmt 1
.LVL82:
	.loc 1 408 1260
	.loc 1 408 1323 is_stmt 0
	li	a7,512
	.loc 1 408 1276
	sw	zero,0(s3)
	.loc 1 408 1305 is_stmt 1
	.loc 1 408 1306
	.loc 1 408 1323 is_stmt 0
	sw	a7,0(t2)
	.loc 1 408 1362 is_stmt 1
	.loc 1 408 1379 is_stmt 0
	lw	a7,0(sp)
.LBE40:
.LBB41:
	.loc 1 408 1795
	li	t3,8
.LBE41:
.LBB42:
	.loc 1 408 1379
	sw	a7,0(s2)
.LBE42:
.LBB43:
	.loc 1 408 1412 is_stmt 1
.LVL83:
	.loc 1 408 1457
	.loc 1 408 1474 is_stmt 0
	li	a7,4096
	sw	a7,0(s11)
	.loc 1 408 1486 is_stmt 1
	.loc 1 408 1526 is_stmt 0
	li	a7,16384
	.loc 1 408 1503
	sw	t1,0(s10)
	.loc 1 408 1509 is_stmt 1
	.loc 1 408 1526 is_stmt 0
	addi	a7,a7,-1
	sw	a7,0(s9)
	.loc 1 408 1554 is_stmt 1
	.loc 1 408 1571 is_stmt 0
	sw	zero,0(s8)
	.loc 1 408 1583 is_stmt 1
	.loc 1 408 1600 is_stmt 0
	sw	s1,0(a3)
	.loc 1 408 1652 is_stmt 1
	.loc 1 408 1669 is_stmt 0
	sw	t0,0(a2)
	.loc 1 408 1690 is_stmt 1
	.loc 1 408 1707 is_stmt 0
	li	a7,383
	sw	a7,0(a4)
	.loc 1 408 1712 is_stmt 1
	.loc 1 408 1729 is_stmt 0
	sw	zero,0(a5)
	.loc 1 408 1732 is_stmt 1
	.loc 1 408 1748 is_stmt 0
	sw	s0,0(s6)
	.loc 1 408 1779 is_stmt 1
	.loc 1 408 1795 is_stmt 0
	sw	t3,0(s7)
	.loc 1 408 1810 is_stmt 1
	.loc 1 408 1827 is_stmt 0
	sw	a7,0(s5)
	.loc 1 408 1832 is_stmt 1
	.loc 1 408 1849 is_stmt 0
	sw	zero,0(s4)
	.loc 1 408 1852 is_stmt 1
	.loc 1 408 1868 is_stmt 0
	sw	s0,0(a6)
	.loc 1 408 1906 is_stmt 1
	.loc 1 408 1922 is_stmt 0
	sw	s1,0(t5)
	.loc 1 408 1933 is_stmt 1
	.loc 1 408 1950 is_stmt 0
	sw	a7,0(a0)
	.loc 1 408 1955 is_stmt 1
	.loc 1 408 1991 is_stmt 0
	li	t3,524288
	.loc 1 408 1972
	sw	zero,0(a1)
	.loc 1 408 1975 is_stmt 1
	.loc 1 408 1991 is_stmt 0
	addi	t3,t3,656
	sw	t3,0(s3)
	.loc 1 408 2119 is_stmt 1
	.loc 1 408 2136 is_stmt 0
	lw	a7,48(sp)
.LBE43:
.LBB44:
	.loc 1 408 3113 discriminator 4
	li	t3,511
.LBE44:
.LBB45:
	.loc 1 408 2136
	sw	a7,0(s2)
.LBE45:
	.loc 1 408 2168 is_stmt 1
	.loc 1 408 2169
	.loc 1 408 2185 is_stmt 0 discriminator 4
	lw	a7,64(sp)
	sw	a7,0(t6)
.LBB46:
	.loc 1 408 2287 is_stmt 1 discriminator 4
.LVL84:
	.loc 1 408 2379 discriminator 4
	.loc 1 408 2396 is_stmt 0 discriminator 4
	lw	a7,60(sp)
	sw	a7,0(s11)
	.loc 1 408 2411 is_stmt 1 discriminator 4
	.loc 1 408 2428 is_stmt 0 discriminator 4
	sw	zero,0(s10)
	.loc 1 408 2434 is_stmt 1 discriminator 4
	.loc 1 408 2451 is_stmt 0 discriminator 4
	lw	a7,96(sp)
	sw	a7,0(s9)
	.loc 1 408 2476 is_stmt 1 discriminator 4
	.loc 1 408 2493 is_stmt 0 discriminator 4
	lw	a7,92(sp)
	sw	a7,0(s8)
	.loc 1 408 2508 is_stmt 1 discriminator 4
	.loc 1 408 2524 is_stmt 0 discriminator 4
	sw	s1,0(s7)
	.loc 1 408 2535 is_stmt 1 discriminator 4
	.loc 1 408 2551 is_stmt 0 discriminator 4
	lw	a7,40(sp)
	sw	a7,0(s6)
	.loc 1 408 2557 is_stmt 1 discriminator 4
	.loc 1 408 2574 is_stmt 0 discriminator 4
	lw	a7,12(sp)
	sw	a7,0(s5)
	.loc 1 408 2589 is_stmt 1 discriminator 4
	.loc 1 408 2606 is_stmt 0 discriminator 4
	lw	a7,4(sp)
	sw	a7,0(s4)
	.loc 1 408 2615 is_stmt 1 discriminator 4
.LVL85:
	.loc 1 408 2648 discriminator 4
	.loc 1 408 2664 is_stmt 0 discriminator 4
	lw	a7,72(sp)
	sw	a7,0(s3)
	.loc 1 408 2697 is_stmt 1 discriminator 4
	.loc 1 408 2698 discriminator 4
	.loc 1 408 2715 is_stmt 0 discriminator 4
	lw	a7,32(sp)
	sw	a7,0(t2)
	.loc 1 408 2740 is_stmt 1 discriminator 4
	.loc 1 408 2757 is_stmt 0 discriminator 4
	sw	t4,0(s2)
.LBE46:
.LBB47:
	.loc 1 408 2790 is_stmt 1 discriminator 4
.LVL86:
	.loc 1 408 2982 discriminator 4
	.loc 1 408 2998 is_stmt 0 discriminator 4
	sw	t0,0(t5)
	.loc 1 408 3074 is_stmt 1 discriminator 4
	.loc 1 408 3090 is_stmt 0 discriminator 4
	sw	s0,0(a6)
	.loc 1 408 3096 is_stmt 1 discriminator 4
	.loc 1 408 3113 is_stmt 0 discriminator 4
	sw	t3,0(a0)
	.loc 1 408 3214 is_stmt 1 discriminator 4
	.loc 1 408 3231 is_stmt 0 discriminator 4
	sw	zero,0(a1)
	.loc 1 408 3307 is_stmt 1 discriminator 4
	.loc 1 408 3324 is_stmt 0 discriminator 4
	li	t3,16
	sw	t3,0(a2)
	.loc 1 408 3382 is_stmt 1 discriminator 4
	.loc 1 408 3399 is_stmt 0 discriminator 4
	sw	t1,0(a3)
	.loc 1 408 3405 is_stmt 1 discriminator 4
	.loc 1 408 3422 is_stmt 0 discriminator 4
	li	t3,63
	sw	t3,0(a4)
	.loc 1 408 3502 is_stmt 1 discriminator 4
	.loc 1 408 3519 is_stmt 0 discriminator 4
	sw	zero,0(a5)
	.loc 1 408 3577 is_stmt 1 discriminator 4
	.loc 1 408 3594 is_stmt 0 discriminator 4
	li	a7,8
	sw	a7,0(s11)
	.loc 1 408 3617 is_stmt 1 discriminator 4
	.loc 1 408 3634 is_stmt 0 discriminator 4
	sw	s1,0(s10)
	.loc 1 408 3640 is_stmt 1 discriminator 4
	.loc 1 408 3657 is_stmt 0 discriminator 4
	li	t3,15
	sw	t3,0(s9)
	.loc 1 408 3719 is_stmt 1 discriminator 4
	.loc 1 408 3736 is_stmt 0 discriminator 4
	sw	zero,0(s8)
	.loc 1 408 3759 is_stmt 1 discriminator 4
	.loc 1 408 3775 is_stmt 0 discriminator 4
	sw	s1,0(s7)
	.loc 1 408 3786 is_stmt 1 discriminator 4
	.loc 1 408 3802 is_stmt 0 discriminator 4
	sw	s0,0(s6)
	.loc 1 408 3808 is_stmt 1 discriminator 4
	.loc 1 408 3825 is_stmt 0 discriminator 4
	sw	s0,0(s5)
	.loc 1 408 3848 is_stmt 1 discriminator 4
	.loc 1 408 3865 is_stmt 0 discriminator 4
	sw	zero,0(s4)
	.loc 1 408 3874 is_stmt 1 discriminator 4
.LVL87:
	.loc 1 408 4047 discriminator 4
	.loc 1 408 4063 is_stmt 0 discriminator 4
	sw	zero,0(s3)
	.loc 1 408 4092 is_stmt 1 discriminator 4
	.loc 1 408 4093 discriminator 4
	.loc 1 408 0 is_stmt 0 discriminator 4
	lw	t3,24(sp)
	sw	t3,0(s2)
.LBE47:
	.loc 1 408 0 is_stmt 1 discriminator 4
	.loc 1 408 0 discriminator 4
	lw	t3,16(sp)
	sw	t3,0(t6)
.LVL88:
.L79:
	.loc 1 363 21
	.loc 1 363 12 is_stmt 0
	lw	a5,28(sp)
	lw	a4,84(sp)
	.loc 1 362 12
	lw	a2,4(sp)
	.loc 1 363 12
	add	a3,a5,a4
	.loc 1 362 12
	lw	a5,20(sp)
	.loc 1 363 12
	sw	a3,28(sp)
.LVL89:
	.loc 1 362 12 is_stmt 1
	add	a5,a5,a4
	sw	a5,20(sp)
	lw	a5,88(sp)
	add	a5,a5,a2
	sw	a5,32(sp)
	lw	a2,12(sp)
	lw	a5,8(sp)
	sub	a2,a2,a5
	sw	a2,12(sp)
	lw	a2,36(sp)
	add	a2,a2,a5
	sw	a2,36(sp)
	lw	a2,44(sp)
	sub	a4,a2,a4
	sw	a4,44(sp)
	lw	a4,68(sp)
	add	a4,a4,a5
	sw	a4,68(sp)
	lw	a4,72(sp)
	add	a5,a4,a5
	sw	a5,72(sp)
	lw	a5,80(sp)
	ble	a5,a3,.L135
.LVL90:
.L81:
.LBB48:
	.loc 1 366 1959 is_stmt 0
	lw	a5,28(sp)
	lw	a4,136(sp)
	lw	a3,8(sp)
	.loc 1 366 1982
	lw	ra,20(sp)
	.loc 1 366 1959
	add	t6,a4,a5
	lw	a4,32(sp)
	.loc 1 366 1982
	sub	t6,t6,ra
	sub	a4,a4,a3
	sw	a4,4(sp)
.LVL91:
.LBE48:
	.loc 1 364 10 is_stmt 1
	.loc 1 365 13
.LBB49:
	.loc 1 366 2297 is_stmt 0
	lw	a4,112(sp)
.LVL92:
	add	t0,a4,a5
.LBE49:
	.loc 1 365 15
	lw	a5,132(sp)
.LVL93:
	beq	a5,zero,.L71
.LBB50:
	.loc 1 366 3 is_stmt 1
.LVL94:
	.loc 1 366 232
	.loc 1 366 248 is_stmt 0
	li	t4,1536
	li	a7,-2147483648
	sw	t4,288(a7)
.LVL95:
	.loc 1 366 340 is_stmt 1
	.loc 1 366 356 is_stmt 0
	li	a6,-2147483648
	sw	zero,416(a6)
	.loc 1 366 362 is_stmt 1
	.loc 1 366 379 is_stmt 0
	li	t3,1535
	li	a0,-2147483648
	sw	t3,1312(a0)
	.loc 1 366 492 is_stmt 1
	.loc 1 366 509 is_stmt 0
	li	a1,-2147479552
	sw	zero,-1376(a1)
	.loc 1 366 601 is_stmt 1
	.loc 1 366 617 is_stmt 0
	li	a5,192
	sw	a5,0(t5)
	.loc 1 366 688 is_stmt 1
	.loc 1 366 704 is_stmt 0
	li	s0,7
	li	a2,-2147483648
	sw	s0,928(a2)
	.loc 1 366 710 is_stmt 1
	.loc 1 366 727 is_stmt 0
	li	a4,-2147483648
	sw	t3,1440(a4)
	.loc 1 366 823 is_stmt 1
	.loc 1 366 840 is_stmt 0
	li	a5,-2147479552
	sw	a5,16(sp)
	.loc 1 366 928
	li	t1,-2147483648
	.loc 1 366 840
	sw	zero,-1248(a5)
	.loc 1 366 911 is_stmt 1
	.loc 1 366 928 is_stmt 0
	addi	a5,t1,1696
	sw	a5,48(sp)
	.loc 1 366 999
	li	t2,-2147483648
	.loc 1 366 928
	li	t1,48
	sw	t1,0(a5)
	.loc 1 366 982 is_stmt 1
	.loc 1 366 999 is_stmt 0
	addi	t2,t2,1824
	sw	t2,52(sp)
	li	s1,3
	sw	s1,0(t2)
	.loc 1 366 1005 is_stmt 1
	.loc 1 366 1022 is_stmt 0
	li	t1,-2147483648
	li	s2,191
	sw	s2,1952(t1)
	.loc 1 366 1097 is_stmt 1
	.loc 1 366 1114 is_stmt 0
	li	a4,-2147479552
	sw	a4,0(sp)
	.loc 1 366 1185
	li	s11,-2147479552
	.loc 1 366 1114
	sw	zero,-1120(a4)
	.loc 1 366 1168 is_stmt 1
	.loc 1 366 1225 is_stmt 0
	li	s10,-2147479552
	.loc 1 366 1185
	addi	s11,s11,-2016
	li	s2,8
	sw	s2,0(s11)
	.loc 1 366 1208 is_stmt 1
	.loc 1 366 1248 is_stmt 0
	li	s9,-2147479552
	.loc 1 366 1225
	addi	s10,s10,-1888
	li	s3,5
	sw	s3,0(s10)
	.loc 1 366 1231 is_stmt 1
	.loc 1 366 1248 is_stmt 0
	addi	s9,s9,-1760
	li	s4,47
	sw	s4,0(s9)
	.loc 1 366 1306 is_stmt 1
	.loc 1 366 1323 is_stmt 0
	li	s8,-2147479552
	.loc 1 366 1362
	li	s7,-2147483648
	.loc 1 366 1323
	sw	zero,-992(s8)
	.loc 1 366 1346 is_stmt 1
	.loc 1 366 1362 is_stmt 0
	addi	s7,s7,1056
	li	s1,1
	sw	s1,0(s7)
	.loc 1 366 1373 is_stmt 1
	.loc 1 366 1389 is_stmt 0
	li	s6,-2147483648
	sw	s0,672(s6)
	.loc 1 366 1395 is_stmt 1
	.loc 1 366 1412 is_stmt 0
	li	s5,-2147483648
	sw	s0,1568(s5)
	.loc 1 366 1435 is_stmt 1
	.loc 1 366 1452 is_stmt 0
	li	s4,-2147479552
	sw	zero,-864(s4)
	.loc 1 366 1461 is_stmt 1
.LVL96:
	.loc 1 366 1716
	.loc 1 366 1225 is_stmt 0
	mv	a3,s3
	.loc 1 366 1732
	li	s3,-2147483648
	sw	zero,544(s3)
	.loc 1 366 1761 is_stmt 1
	.loc 1 366 1762
	.loc 1 366 1779 is_stmt 0
	li	s2,-2147479552
	sw	s2,24(sp)
	.loc 1 366 1842
	li	a4,1036288
	.loc 1 366 1779
	sw	t4,-736(s2)
	.loc 1 366 1825 is_stmt 1
	.loc 1 366 999 is_stmt 0
	mv	a5,t2
	.loc 1 366 1842
	addi	t2,a4,-1889
	addi	s2,s2,-1632
	sw	t2,124(sp)
	sw	t2,0(s2)
.LBE50:
.LBB51:
	.loc 1 366 1875 is_stmt 1
.LVL97:
	.loc 1 366 1995
	.loc 1 366 2012 is_stmt 0
	lw	a4,104(sp)
.LBE51:
.LBB52:
	.loc 1 366 1022
	addi	t1,t1,1952
	.loc 1 366 248
	addi	a7,a7,288
.LBE52:
.LBB53:
	.loc 1 366 2012
	sw	a4,0(s11)
.LVL98:
	.loc 1 366 2029 is_stmt 1
	.loc 1 366 1924 is_stmt 0
	lw	a4,176(sp)
	lw	t2,180(sp)
.LBE53:
.LBB54:
	.loc 1 366 356
	addi	a6,a6,416
	.loc 1 366 379
	addi	a0,a0,1312
.LBE54:
.LBB55:
	.loc 1 366 1924
	sub	t2,a4,t2
	.loc 1 366 2046
	sw	t2,0(s10)
	.loc 1 366 2052 is_stmt 1
	.loc 1 366 2069 is_stmt 0
	lw	a4,128(sp)
.LBE55:
.LBB56:
	.loc 1 366 509
	addi	a1,a1,-1376
	.loc 1 366 704
	addi	a2,a2,928
.LBE56:
.LBB57:
	.loc 1 366 2069
	sw	a4,0(s9)
	.loc 1 366 2098 is_stmt 1
	.loc 1 366 2115 is_stmt 0
	lw	a4,168(sp)
.LBE57:
.LBB58:
	.loc 1 366 1323
	addi	s8,s8,-992
	.loc 1 366 1389
	addi	s6,s6,672
.LBE58:
.LBB59:
	.loc 1 366 2115
	sw	a4,0(s8)
	.loc 1 366 2132 is_stmt 1
	.loc 1 366 2148 is_stmt 0
	sw	s1,0(s7)
	.loc 1 366 2159 is_stmt 1
	.loc 1 366 2175 is_stmt 0
	sw	t6,0(s6)
	.loc 1 366 2181 is_stmt 1
	.loc 1 366 2198 is_stmt 0
	lw	a4,44(sp)
	.loc 1 366 2341
	li	t6,1036288
	addi	t6,t6,157
	.loc 1 366 2198
	sw	a4,1568(s5)
	.loc 1 366 2215 is_stmt 1
	.loc 1 366 2232 is_stmt 0
	sw	ra,-864(s4)
	.loc 1 366 2241 is_stmt 1
.LVL99:
	.loc 1 366 2276
.LBE59:
	.loc 1 366 2390 is_stmt 0
	li	ra,393216
.LBB60:
	.loc 1 366 2292
	sw	t0,544(s3)
	.loc 1 366 2323 is_stmt 1
	.loc 1 366 2324
.LBE60:
	.loc 1 366 2390 is_stmt 0
	li	a4,-2147483648
	mv	t2,ra
.LBB61:
	.loc 1 366 2341
	sw	t6,0(s2)
.LBE61:
	.loc 1 366 2373 is_stmt 1
	.loc 1 366 2374
	.loc 1 366 2390 is_stmt 0
	addi	ra,a4,20
	addi	t2,t2,17
	sw	ra,56(sp)
	sw	t2,100(sp)
	sw	t2,0(ra)
.LBB62:
	.loc 1 366 2480 is_stmt 1
.LVL100:
	.loc 1 366 2564
	.loc 1 366 2581 is_stmt 0
	lw	ra,48(sp)
	li	t6,16384
	.loc 1 366 2644
	addi	a4,t6,-1
	.loc 1 366 2581
	sw	t6,0(ra)
	.loc 1 366 2604 is_stmt 1
	.loc 1 366 2621 is_stmt 0
	sw	zero,0(a5)
	.loc 1 366 2627 is_stmt 1
	.loc 1 366 2644 is_stmt 0
	sw	a4,0(t1)
	.loc 1 366 2682 is_stmt 1
	.loc 1 366 2699 is_stmt 0
	lw	a4,0(sp)
	.loc 1 366 2768
	li	t0,3
	.loc 1 366 2961
	li	t6,383
	.loc 1 366 2699
	sw	zero,-1120(a4)
	.loc 1 366 2722 is_stmt 1
	.loc 1 366 2739 is_stmt 0
	li	a4,4096
	sw	a4,0(s11)
	.loc 1 366 2751 is_stmt 1
	.loc 1 366 2768 is_stmt 0
	sw	t0,0(s10)
	.loc 1 366 2774 is_stmt 1
	.loc 1 366 2791 is_stmt 0
	lw	a4,116(sp)
	.loc 1 366 2923
	li	t0,64
	.loc 1 366 3245
	li	t2,524288
	.loc 1 366 2791
	sw	a4,0(s9)
	.loc 1 366 2814 is_stmt 1
	.loc 1 366 2831 is_stmt 0
	sw	zero,0(s8)
	.loc 1 366 2843 is_stmt 1
	.loc 1 366 2859 is_stmt 0
	sw	a3,0(a2)
	.loc 1 366 2907 is_stmt 1
	.loc 1 366 2944
	.loc 1 366 2923 is_stmt 0
	sw	t0,0(t5)
	.loc 1 366 2961
	li	a4,-2147483648
	sw	t6,1440(a4)
	.loc 1 366 2966 is_stmt 1
	.loc 1 366 2983 is_stmt 0
	lw	t0,16(sp)
	.loc 1 366 3245
	addi	t2,t2,16
.LBE62:
.LBB63:
	.loc 1 366 1412
	addi	s5,s5,1568
.LBE63:
.LBB64:
	.loc 1 366 2983
	sw	zero,-1248(t0)
	.loc 1 366 2986 is_stmt 1
	.loc 1 366 3049 is_stmt 0
	li	t0,8
	.loc 1 366 3002
	sw	s0,0(s6)
	.loc 1 366 3033 is_stmt 1
	.loc 1 366 3049 is_stmt 0
	sw	t0,0(s7)
	.loc 1 366 3064 is_stmt 1
	.loc 1 366 3081 is_stmt 0
	sw	t6,0(s5)
	.loc 1 366 3086 is_stmt 1
	.loc 1 366 3103 is_stmt 0
	sw	zero,-864(s4)
	.loc 1 366 3106 is_stmt 1
	.loc 1 366 3122 is_stmt 0
	sw	s0,0(a6)
	.loc 1 366 3160 is_stmt 1
	.loc 1 366 3176 is_stmt 0
	sw	s1,0(a7)
	.loc 1 366 3187 is_stmt 1
	.loc 1 366 3209
	.loc 1 366 3204 is_stmt 0
	sw	t6,0(a0)
	.loc 1 366 3226
	sw	zero,0(a1)
	.loc 1 366 3229 is_stmt 1
	.loc 1 366 3245 is_stmt 0
	sw	t2,544(s3)
	.loc 1 366 3347 is_stmt 1
	.loc 1 366 3364 is_stmt 0
	lw	t6,24(sp)
	.loc 1 366 3512
	li	t2,1032192
	addi	t2,t2,1183
	.loc 1 366 3364
	sw	t4,-736(t6)
	.loc 1 366 3495 is_stmt 1
	.loc 1 366 3512 is_stmt 0
	sw	t2,0(s2)
.LBE64:
.LBB65:
	.loc 1 366 3545 is_stmt 1
.LVL101:
	.loc 1 366 3774
	.loc 1 366 3883
	.loc 1 366 3791 is_stmt 0
	sw	t4,0(ra)
	.loc 1 366 3900
	sw	zero,0(a5)
	.loc 1 366 3906 is_stmt 1
	.loc 1 366 3923 is_stmt 0
	sw	t3,0(t1)
	.loc 1 366 4053
	lw	a5,0(sp)
	.loc 1 366 3923
	sw	t1,164(sp)
	.loc 1 366 4036 is_stmt 1
	.loc 1 366 0 is_stmt 0
	li	t4,192
	.loc 1 366 4053
	sw	zero,-1120(a5)
	.loc 1 366 0 is_stmt 1
	sw	t4,0(a7)
	.loc 1 366 0
	sw	s0,0(a6)
	.loc 1 366 0
	.loc 1 366 0
	sw	t3,0(a0)
	sw	zero,0(a1)
	.loc 1 366 0
	li	t3,48
	sw	t3,0(s11)
	.loc 1 366 0
.LBE65:
.LBB66:
	.loc 1 366 3049 is_stmt 0
	mv	a4,t0
.LBE66:
.LBB67:
	.loc 1 366 0
	li	t0,3
	sw	t0,0(s10)
	.loc 1 366 0 is_stmt 1
	li	t3,191
	sw	t3,0(s9)
	.loc 1 366 0
	sw	zero,0(s8)
	.loc 1 366 0
	sw	a4,0(t5)
	sw	t5,160(sp)
	.loc 1 366 0
	sw	a3,0(a2)
	.loc 1 366 0
	li	t1,47
	li	a4,-2147483648
	sw	t1,1440(a4)
	.loc 1 366 0
	lw	t3,16(sp)
	li	a4,1036288
	addi	t1,a4,-1891
	sw	zero,-1248(t3)
	.loc 1 366 0
	sw	s1,0(s7)
	.loc 1 366 0
	sw	s0,0(s6)
	.loc 1 366 0
	sw	s0,0(s5)
	.loc 1 366 0
	sw	zero,-864(s4)
	.loc 1 366 0
.LVL102:
	.loc 1 366 0
	sw	zero,544(s3)
	.loc 1 366 0
	.loc 1 366 0
	sw	t1,120(sp)
	sw	t1,0(s2)
.LBE67:
	.loc 1 366 0
	.loc 1 366 0
	lw	t0,100(sp)
	lw	ra,56(sp)
	.loc 1 388 10 is_stmt 0
	li	t2,-2147483648
.LBB68:
	.loc 1 366 1114
	addi	a5,a5,-1120
.LBE68:
	.loc 1 366 0
	sw	t0,0(ra)
	.loc 1 386 1 is_stmt 1
	.loc 1 386 2
	.loc 1 386 18 is_stmt 0
	lw	a4,108(sp)
.LBB69:
	.loc 1 366 1452
	addi	s4,s4,-864
	.loc 1 366 1732
	addi	s3,s3,544
.LBE69:
	.loc 1 386 18
	sw	a4,0(ra)
	.loc 1 388 10 is_stmt 1
.LBB70:
	.loc 1 366 727 is_stmt 0
	li	a4,-2147483648
.LBE70:
	.loc 1 388 10
	sw	zero,36(t2)
	.loc 1 388 10 is_stmt 1
.LBB71:
	.loc 1 366 727 is_stmt 0
	addi	a4,a4,1440
	sw	a4,40(sp)
	.loc 1 366 1114
	sw	a5,0(sp)
	.loc 1 366 840
	addi	a4,t3,-1248
	.loc 1 366 1779
	addi	a5,t6,-736
	.loc 1 366 248
	sw	a7,156(sp)
	.loc 1 366 356
	sw	a6,152(sp)
	.loc 1 366 379
	sw	a0,148(sp)
	.loc 1 366 509
	sw	a1,144(sp)
	.loc 1 366 704
	sw	a2,140(sp)
	.loc 1 366 840
	sw	a4,16(sp)
	.loc 1 366 1779
	sw	a5,24(sp)
.LBE71:
	.loc 1 388 10
	call	_taskYield
.LVL103:
	.loc 1 388 24 is_stmt 1 discriminator 1
	.loc 1 390 10
	.loc 1 390 12 is_stmt 0
	lw	a4,76(sp)
	lw	a2,140(sp)
	lw	a1,144(sp)
	lw	a0,148(sp)
	lw	a6,152(sp)
	lw	a7,156(sp)
	lw	t5,160(sp)
	lw	t1,164(sp)
	li	t3,1535
	li	t4,1536
	li	t6,383
	li	t0,64
	bne	a4,zero,.L136
	.loc 1 391 13 is_stmt 1
.LBB72:
	.loc 1 392 249 is_stmt 0
	lw	a4,48(sp)
	sw	t4,0(a4)
	.loc 1 392 358
	lw	t2,52(sp)
	sw	zero,0(t2)
	.loc 1 392 381
	sw	t3,0(t1)
	.loc 1 392 511
	lw	a5,0(sp)
	.loc 1 392 930
	li	t2,48
	.loc 1 392 511
	sw	zero,0(a5)
	.loc 1 392 619
	li	a5,192
	sw	a5,0(a7)
	.loc 1 392 706
	sw	s0,0(a6)
	.loc 1 392 729
	sw	t3,0(a0)
	.loc 1 392 842
	sw	zero,0(a1)
	.loc 1 392 930
	sw	t2,0(s11)
	.loc 1 392 1001
	li	t2,3
	sw	t2,0(s10)
	.loc 1 392 1024
	li	t2,191
	sw	t2,0(s9)
	.loc 1 392 1116
	sw	zero,0(s8)
	.loc 1 392 1186
	li	t2,8
	sw	t2,0(t5)
	.loc 1 392 1225
	li	t2,5
	sw	t2,0(a2)
	.loc 1 392 1248
	lw	a3,40(sp)
	li	t2,47
	sw	t2,0(a3)
	.loc 1 392 1323
	lw	a3,16(sp)
	sw	zero,0(a3)
	.loc 1 392 1362
	sw	s1,0(s7)
	.loc 1 392 1389
	sw	s0,0(s6)
	.loc 1 392 1412
	sw	s0,0(s5)
	.loc 1 392 1452
	sw	zero,0(s4)
	.loc 1 392 1732
	sw	zero,0(s3)
	.loc 1 392 1779
	lw	t2,24(sp)
	sw	t4,0(t2)
	.loc 1 392 1842
	lw	t2,124(sp)
	sw	t2,0(s2)
.LBE72:
.LBB73:
	.loc 1 392 1976
	sw	a4,48(sp)
	li	t2,16384
	sw	t2,0(a4)
	.loc 1 392 2016
	lw	t2,52(sp)
.LBE73:
.LBB74:
	.loc 1 392 3 is_stmt 1
.LVL104:
	.loc 1 392 232
	.loc 1 392 341
	.loc 1 392 364
	.loc 1 392 494
	.loc 1 392 603
	.loc 1 392 690
	.loc 1 392 712
	.loc 1 392 825
	.loc 1 392 913
	.loc 1 392 984
	.loc 1 392 1007
	.loc 1 392 1099
	.loc 1 392 1170
	.loc 1 392 1209
	.loc 1 392 1231
	.loc 1 392 1306
	.loc 1 392 1346
	.loc 1 392 1373
	.loc 1 392 1395
	.loc 1 392 1435
	.loc 1 392 1461
	.loc 1 392 1716
	.loc 1 392 1761
	.loc 1 392 1762
	.loc 1 392 1825
.LBE74:
.LBB75:
	.loc 1 392 1875
	.loc 1 392 1959
	.loc 1 392 1999
	.loc 1 392 2022
	.loc 1 392 2077
	.loc 1 392 2117
	.loc 1 392 2146
	.loc 1 392 2169
	.loc 1 392 2209
	.loc 1 392 2238
	.loc 1 392 2302
	.loc 1 392 2339
	.loc 1 392 2361
	.loc 1 392 2381
	.loc 1 392 2428
	.loc 1 392 2459
	.loc 1 392 2481
	.loc 1 392 2501
	.loc 1 392 2555
	.loc 1 392 2582
	.loc 1 392 2604
	.loc 1 392 2624
	.loc 1 392 2743
	.loc 1 392 2016 is_stmt 0
	sw	zero,0(t2)
	.loc 1 392 2039
	li	t2,16384
	addi	t2,t2,-1
	sw	t2,0(t1)
	.loc 1 392 2094
	lw	a4,0(sp)
	.loc 1 392 2134
	li	t2,4096
	.loc 1 392 2094
	sw	zero,0(a4)
	.loc 1 392 2134
	sw	t2,0(s11)
	.loc 1 392 2163
	li	t2,3
	sw	t2,0(s10)
	.loc 1 392 2186
	lw	t2,116(sp)
	sw	t2,0(s9)
	.loc 1 392 2226
	sw	zero,0(s8)
	.loc 1 392 2254
	li	t2,5
	sw	t2,0(a2)
	.loc 1 392 2318
	sw	t0,0(t5)
	.loc 1 392 2356
	lw	a4,40(sp)
	.loc 1 392 2444
	li	t0,8
	.loc 1 392 2640
	li	t2,524288
	.loc 1 392 2356
	sw	t6,0(a4)
	.loc 1 392 2378
	sw	zero,0(a3)
	.loc 1 392 2397
	sw	s0,0(s6)
	.loc 1 392 2444
	sw	t0,0(s7)
	.loc 1 392 2476
	sw	t6,0(s5)
	.loc 1 392 2498
	sw	zero,0(s4)
	.loc 1 392 2517
	sw	s0,0(a6)
	.loc 1 392 2571
	sw	s1,0(a7)
	.loc 1 392 2599
	sw	t6,0(a0)
	.loc 1 392 2621
	sw	zero,0(a1)
	.loc 1 392 2640
	addi	t2,t2,400
.LBE75:
.LBB76:
	.loc 1 392 2981 discriminator 4
	lw	t6,32(sp)
.LBE76:
.LBB77:
	.loc 1 392 2640
	sw	t2,0(s3)
.LBE77:
.LBB78:
	.loc 1 392 3000 discriminator 4
	lw	t2,4(sp)
.LBE78:
.LBB79:
	.loc 1 392 2760
	li	t0,1032192
	addi	t0,t0,1181
.LBE79:
.LBB80:
	.loc 1 392 2981 discriminator 4
	addi	t6,t6,-1
.LBE80:
.LBB81:
	.loc 1 392 2760
	sw	t0,0(s2)
.LBE81:
	.loc 1 392 2792 is_stmt 1
	.loc 1 392 2793
.LBB82:
	.loc 1 392 3000 is_stmt 0 discriminator 4
	sub	t6,t6,t2
.LBE82:
	.loc 1 392 2809 discriminator 4
	lw	a4,64(sp)
.LBB83:
	.loc 1 392 3360 discriminator 4
	sw	t6,16(sp)
	addi	t0,t6,1
.LBE83:
	.loc 1 392 2809 discriminator 4
	lw	t6,56(sp)
	sw	a4,0(t6)
.LBB84:
	.loc 1 392 2911 is_stmt 1 discriminator 4
.LVL105:
	.loc 1 392 3013 discriminator 4
	.loc 1 392 3363 is_stmt 0 discriminator 4
	lw	a4,184(sp)
	mul	t0,a4,t0
	.loc 1 392 3030 discriminator 4
	lw	a4,60(sp)
	sw	a4,0(s11)
.LVL106:
	.loc 1 392 3045 is_stmt 1 discriminator 4
	.loc 1 392 3062 is_stmt 0 discriminator 4
	lw	a4,172(sp)
	sw	a4,0(s10)
	.loc 1 392 3068 is_stmt 1 discriminator 4
	.loc 1 392 3085 is_stmt 0 discriminator 4
	lw	a4,96(sp)
	sw	a4,0(s9)
	.loc 1 392 3110 is_stmt 1 discriminator 4
	.loc 1 392 3127 is_stmt 0 discriminator 4
	lw	a4,92(sp)
	sw	a4,0(s8)
	.loc 1 392 3142 is_stmt 1 discriminator 4
	.loc 1 392 3158 is_stmt 0 discriminator 4
	sw	s1,0(s7)
	.loc 1 392 3169 is_stmt 1 discriminator 4
	.loc 1 392 3185 is_stmt 0 discriminator 4
	lw	t6,16(sp)
	sw	t6,0(s6)
	.loc 1 392 3191 is_stmt 1 discriminator 4
	.loc 1 392 3208 is_stmt 0 discriminator 4
	lw	a4,12(sp)
	.loc 1 392 3390 discriminator 4
	li	t6,1036288
	addi	t6,t6,159
	.loc 1 392 3208 discriminator 4
	sw	a4,0(s5)
	.loc 1 392 3223 is_stmt 1 discriminator 4
	.loc 1 392 3240 is_stmt 0 discriminator 4
	sw	t2,0(s4)
	.loc 1 392 3249 is_stmt 1 discriminator 4
.LVL107:
	.loc 1 392 3282 discriminator 4
	.loc 1 392 3298 is_stmt 0 discriminator 4
	lw	a4,36(sp)
	sw	a4,0(s3)
	.loc 1 392 3330 is_stmt 1 discriminator 4
	.loc 1 392 3331 discriminator 4
	.loc 1 392 3348 is_stmt 0 discriminator 4
	lw	t2,24(sp)
	sw	t0,0(t2)
	.loc 1 392 3373 is_stmt 1 discriminator 4
	.loc 1 392 3390 is_stmt 0 discriminator 4
	sw	t6,0(s2)
.LBE84:
.LBB85:
	.loc 1 392 3423 is_stmt 1 discriminator 4
.LVL108:
	.loc 1 392 3652 discriminator 4
	.loc 1 392 3668 is_stmt 0 discriminator 4
	sw	t4,0(a7)
	.loc 1 392 3760 is_stmt 1 discriminator 4
	.loc 1 392 3776 is_stmt 0 discriminator 4
	sw	zero,0(a6)
	.loc 1 392 3782 is_stmt 1 discriminator 4
	.loc 1 392 3799 is_stmt 0 discriminator 4
	sw	t3,0(a0)
	.loc 1 392 3912 is_stmt 1 discriminator 4
	.loc 1 392 3929 is_stmt 0 discriminator 4
	sw	zero,0(a1)
	.loc 1 392 4021 is_stmt 1 discriminator 4
	.loc 1 392 4037 is_stmt 0 discriminator 4
	sw	a5,0(t5)
	.loc 1 392 0 is_stmt 1 discriminator 4
	sw	s0,0(a2)
	.loc 1 392 0 discriminator 4
	lw	a5,40(sp)
	li	t0,8
	sw	t3,0(a5)
	.loc 1 392 0 discriminator 4
	sw	zero,0(a3)
	.loc 1 392 0 discriminator 4
	lw	a4,48(sp)
	li	a5,48
	sw	a5,0(a4)
	.loc 1 392 0 discriminator 4
	lw	t2,52(sp)
	li	a4,3
	li	a5,191
	sw	a4,0(t2)
	.loc 1 392 0 discriminator 4
	sw	a5,0(t1)
	.loc 1 392 0 discriminator 4
	lw	a5,0(sp)
	li	t2,5
	sw	zero,0(a5)
	.loc 1 392 0 discriminator 4
	sw	t0,0(s11)
	.loc 1 392 0 discriminator 4
	sw	t2,0(s10)
	.loc 1 392 0 discriminator 4
	li	t2,47
	sw	t2,0(s9)
	.loc 1 392 0 discriminator 4
	sw	zero,0(s8)
	.loc 1 392 0 discriminator 4
	sw	s1,0(s7)
	.loc 1 392 0 discriminator 4
	sw	s0,0(s6)
	.loc 1 392 0 discriminator 4
	sw	s0,0(s5)
	.loc 1 392 0 discriminator 4
	sw	zero,0(s4)
	.loc 1 392 0 discriminator 4
.LVL109:
	.loc 1 392 0 discriminator 4
	sw	zero,0(s3)
	.loc 1 392 0 discriminator 4
	.loc 1 392 0 discriminator 4
	lw	a4,120(sp)
	sw	a4,0(s2)
.LBE85:
	.loc 1 392 0 discriminator 4
	.loc 1 392 0 discriminator 4
	lw	a5,56(sp)
	lw	a4,100(sp)
	sw	a4,0(a5)
	j	.L79
.LVL110:
.L126:
	.loc 1 268 10
	.loc 1 269 10
	.loc 1 249 11 is_stmt 0
	li	a5,1
.LVL111:
	sw	a5,132(sp)
	.loc 1 269 22
	lw	a5,104(sp)
	.loc 1 270 16
	add	s4,s4,s9
.LVL112:
	.loc 1 258 14
	li	s7,8
.LVL113:
	.loc 1 269 22
	mul	a5,a5,s9
	.loc 1 268 12
	sub	s9,a4,s9
.LVL114:
	.loc 1 269 15
	lw	a4,136(sp)
	add	a5,a4,a5
	sw	a5,136(sp)
.LVL115:
	.loc 1 270 10 is_stmt 1
	j	.L5
.LVL116:
.L7:
	mv	a2,a5
.LVL117:
	.loc 1 296 11
	.loc 1 318 11
	.loc 1 318 49 is_stmt 0 discriminator 1
	lw	a5,36(sp)
	beq	a2,a5,.L27
	.loc 1 331 7 is_stmt 1
	.loc 1 333 14 is_stmt 0
	li	s3,4096
	.loc 1 331 9
	beq	a4,a5,.L137
.L122:
	.loc 1 331 47 discriminator 1
	beq	a3,a5,.L138
.L44:
	.loc 1 336 14 is_stmt 1
	.loc 1 337 11 is_stmt 0
	addi	s3,s3,1472
	.loc 1 336 16
	beq	a4,a3,.L12
	.loc 1 339 11
	li	s3,8192
	addi	s3,s3,-1888
.L12:
	.loc 1 346 1 is_stmt 1
	.loc 1 346 2
	.loc 1 346 18 is_stmt 0
	li	a4,1015828480
.LVL118:
	li	a5,-2147483648
	addi	a4,a4,772
	sw	a4,20(a5)
.LVL119:
	j	.L45
.LVL120:
.L31:
	.loc 1 331 7 is_stmt 1
	.loc 1 335 14 is_stmt 0
	li	s3,4096
	.loc 1 331 9
	beq	a4,a5,.L115
	.loc 1 331 47 discriminator 1
	beq	a3,a5,.L139
.L115:
	.loc 1 337 11
	addi	s3,s3,1472
	.loc 1 336 16
	beq	a3,a4,.L42
	.loc 1 339 11
	li	s3,8192
	addi	s3,s3,-1888
.L42:
.LVL121:
	.loc 1 344 1 is_stmt 1
	.loc 1 344 2
	.loc 1 344 18 is_stmt 0
	li	a4,1015828480
.LVL122:
	li	a5,-2147483648
	addi	a4,a4,260
	sw	a4,20(a5)
.LVL123:
.L45:
	.loc 1 348 4 is_stmt 1
	.loc 1 348 6 is_stmt 0
	lw	a5,76(sp)
	beq	a5,zero,.L8
.L17:
	.loc 1 351 1 is_stmt 1
	.loc 1 351 2
	.loc 1 351 18 is_stmt 0
	li	a4,1015828480
	li	a5,-2147483648
	addi	a4,a4,1796
	sw	a4,20(a5)
	j	.L47
.LVL124:
.L130:
	.loc 1 331 7 is_stmt 1
	.loc 1 333 14 is_stmt 0
	li	s3,4096
	.loc 1 331 9
	bne	a4,a5,.L122
	j	.L44
.LVL125:
.L134:
	.loc 1 391 13 is_stmt 1
.LBB86:
	.loc 1 394 3
	.loc 1 394 191
	.loc 1 394 207 is_stmt 0
	li	a7,192
	sw	a7,0(t5)
	.loc 1 394 279 is_stmt 1
	.loc 1 394 295 is_stmt 0
	sw	s0,0(a6)
	.loc 1 394 301 is_stmt 1
	.loc 1 394 318 is_stmt 0
	li	t3,1535
	sw	t3,0(a0)
	.loc 1 394 415 is_stmt 1
	.loc 1 394 432 is_stmt 0
	sw	zero,0(a1)
	.loc 1 394 504 is_stmt 1
	.loc 1 394 521 is_stmt 0
	li	t3,48
	sw	t3,0(s11)
	.loc 1 394 575 is_stmt 1
	.loc 1 394 592 is_stmt 0
	sw	t1,0(s10)
	.loc 1 394 598 is_stmt 1
	.loc 1 394 615 is_stmt 0
	li	t3,191
	sw	t3,0(s9)
	.loc 1 394 691 is_stmt 1
	.loc 1 394 708 is_stmt 0
	sw	zero,0(s8)
	.loc 1 394 762 is_stmt 1
	.loc 1 394 779 is_stmt 0
	li	t3,8
	sw	t3,0(a2)
	.loc 1 394 802 is_stmt 1
	.loc 1 394 819 is_stmt 0
	sw	t4,0(a3)
	.loc 1 394 825 is_stmt 1
	.loc 1 394 842 is_stmt 0
	li	t3,47
	sw	t3,0(a4)
	.loc 1 394 900 is_stmt 1
	.loc 1 394 917 is_stmt 0
	sw	zero,0(a5)
	.loc 1 394 940 is_stmt 1
	.loc 1 394 956 is_stmt 0
	sw	s1,0(s7)
	.loc 1 394 967 is_stmt 1
	.loc 1 394 983 is_stmt 0
	sw	s0,0(s6)
	.loc 1 394 989 is_stmt 1
	.loc 1 394 1006 is_stmt 0
	sw	s0,0(s5)
	.loc 1 394 1029 is_stmt 1
	.loc 1 394 1046 is_stmt 0
	sw	zero,0(s4)
	.loc 1 394 1055 is_stmt 1
.LVL126:
	.loc 1 394 1220
	.loc 1 394 1236 is_stmt 0
	sw	zero,0(s3)
	.loc 1 394 1265 is_stmt 1
	.loc 1 394 1266
	.loc 1 394 1283 is_stmt 0
	li	t3,1536
	sw	t3,0(t2)
	.loc 1 394 1322 is_stmt 1
	.loc 1 394 1339 is_stmt 0
	lw	t3,0(sp)
.LBE86:
.LBB87:
	.loc 1 394 1663
	li	a7,383
.LBE87:
.LBB88:
	.loc 1 394 1339
	sw	t3,0(s2)
.LBE88:
.LBB89:
	.loc 1 394 1372 is_stmt 1
.LVL127:
	.loc 1 394 1417
	.loc 1 394 1434 is_stmt 0
	li	t3,4096
	sw	t3,0(s11)
	.loc 1 394 1446 is_stmt 1
	.loc 1 394 1486 is_stmt 0
	li	t3,16384
	.loc 1 394 1463
	sw	t1,0(s10)
	.loc 1 394 1469 is_stmt 1
	.loc 1 394 1486 is_stmt 0
	addi	t3,t3,-1
	sw	t3,0(s9)
	.loc 1 394 1514 is_stmt 1
	.loc 1 394 1531 is_stmt 0
	sw	zero,0(s8)
	.loc 1 394 1543 is_stmt 1
	.loc 1 394 1560 is_stmt 0
	sw	t4,0(a3)
	.loc 1 394 1608 is_stmt 1
	.loc 1 394 1625 is_stmt 0
	sw	t0,0(a2)
	.loc 1 394 1646 is_stmt 1
	.loc 1 394 1663 is_stmt 0
	sw	a7,0(a4)
	.loc 1 394 1668 is_stmt 1
	.loc 1 394 1685 is_stmt 0
	sw	zero,0(a5)
	.loc 1 394 1688 is_stmt 1
	.loc 1 394 1704 is_stmt 0
	sw	s0,0(s6)
	.loc 1 394 1735 is_stmt 1
	.loc 1 394 1751 is_stmt 0
	li	t3,8
	sw	t3,0(s7)
	.loc 1 394 1766 is_stmt 1
	.loc 1 394 1783 is_stmt 0
	sw	a7,0(s5)
	.loc 1 394 1788 is_stmt 1
	.loc 1 394 1805 is_stmt 0
	sw	zero,0(s4)
	.loc 1 394 1808 is_stmt 1
	.loc 1 394 1824 is_stmt 0
	sw	s0,0(a6)
	.loc 1 394 1862 is_stmt 1
	.loc 1 394 1878 is_stmt 0
	sw	s1,0(t5)
	.loc 1 394 1889 is_stmt 1
	.loc 1 394 1906 is_stmt 0
	sw	a7,0(a0)
	.loc 1 394 1911 is_stmt 1
	.loc 1 394 1947 is_stmt 0
	li	t0,524288
	.loc 1 394 1928
	sw	zero,0(a1)
	.loc 1 394 1931 is_stmt 1
	.loc 1 394 1947 is_stmt 0
	addi	t0,t0,400
	.loc 1 394 2045
	li	t3,1032192
	.loc 1 394 1947
	sw	t0,0(s3)
	.loc 1 394 2028 is_stmt 1
	.loc 1 394 2045 is_stmt 0
	addi	t3,t3,1181
	sw	t3,0(s2)
.LBE89:
	.loc 1 394 2077 is_stmt 1
	.loc 1 394 2078
	.loc 1 394 2094 is_stmt 0 discriminator 4
	lw	t0,64(sp)
	sw	t0,0(t6)
.LBB90:
	.loc 1 394 2196 is_stmt 1 discriminator 4
.LVL128:
	.loc 1 394 2305 is_stmt 0 discriminator 4
	lw	t0,60(sp)
	sw	t0,0(s11)
	.loc 1 394 2337 discriminator 4
	sw	zero,0(s10)
	.loc 1 394 2360 discriminator 4
	lw	t0,96(sp)
	sw	t0,0(s9)
	.loc 1 394 2402 discriminator 4
	lw	t0,92(sp)
	sw	t0,0(s8)
	.loc 1 394 2256 discriminator 4
	lw	t0,32(sp)
	.loc 1 394 2433 discriminator 4
	sw	s1,0(s7)
	.loc 1 394 2256 discriminator 4
	addi	t3,t0,-1
	.loc 1 394 2275 discriminator 4
	lw	t0,4(sp)
	sub	t3,t3,t0
.LVL129:
	.loc 1 394 2288 is_stmt 1 discriminator 4
	.loc 1 394 2320 discriminator 4
	.loc 1 394 2343 discriminator 4
	.loc 1 394 2385 discriminator 4
	.loc 1 394 2417 discriminator 4
	.loc 1 394 2444 discriminator 4
	.loc 1 394 2460 is_stmt 0 discriminator 4
	sw	t3,0(s6)
	.loc 1 394 2466 is_stmt 1 discriminator 4
	.loc 1 394 2483 is_stmt 0 discriminator 4
	lw	a7,12(sp)
	.loc 1 394 2635 discriminator 4
	addi	t3,t3,1
.LVL130:
	.loc 1 394 2483 discriminator 4
	sw	a7,0(s5)
.LVL131:
	.loc 1 394 2498 is_stmt 1 discriminator 4
	.loc 1 394 2515 is_stmt 0 discriminator 4
	sw	t0,0(s4)
	.loc 1 394 2524 is_stmt 1 discriminator 4
.LVL132:
	.loc 1 394 2557 discriminator 4
	.loc 1 394 2573 is_stmt 0 discriminator 4
	lw	a7,36(sp)
	.loc 1 394 2665 discriminator 4
	li	t0,1036288
	addi	t0,t0,159
	.loc 1 394 2573 discriminator 4
	sw	a7,0(s3)
	.loc 1 394 2605 is_stmt 1 discriminator 4
	.loc 1 394 2606 discriminator 4
	.loc 1 394 2623 is_stmt 0 discriminator 4
	sw	t3,0(t2)
	.loc 1 394 2648 is_stmt 1 discriminator 4
	.loc 1 394 2665 is_stmt 0 discriminator 4
	sw	t0,0(s2)
.LBE90:
.LBB91:
	.loc 1 394 2698 is_stmt 1 discriminator 4
.LVL133:
	.loc 1 394 2886 discriminator 4
	.loc 1 394 2902 is_stmt 0 discriminator 4
	li	a7,192
	sw	a7,0(t5)
	.loc 1 394 2974 is_stmt 1 discriminator 4
	.loc 1 394 2990 is_stmt 0 discriminator 4
	sw	s0,0(a6)
	.loc 1 394 2996 is_stmt 1 discriminator 4
	.loc 1 394 3013 is_stmt 0 discriminator 4
	li	t3,1535
.LVL134:
	sw	t3,0(a0)
	.loc 1 394 3110 is_stmt 1 discriminator 4
	.loc 1 394 3127 is_stmt 0 discriminator 4
	sw	zero,0(a1)
	.loc 1 394 3199 is_stmt 1 discriminator 4
	.loc 1 394 3216 is_stmt 0 discriminator 4
	li	t3,48
	sw	t3,0(a2)
	.loc 1 394 3270 is_stmt 1 discriminator 4
	.loc 1 394 3287 is_stmt 0 discriminator 4
	sw	t1,0(a3)
	.loc 1 394 3293 is_stmt 1 discriminator 4
	.loc 1 394 3310 is_stmt 0 discriminator 4
	li	t3,191
	sw	t3,0(a4)
	.loc 1 394 3386 is_stmt 1 discriminator 4
	.loc 1 394 3403 is_stmt 0 discriminator 4
	sw	zero,0(a5)
	.loc 1 394 3457 is_stmt 1 discriminator 4
	.loc 1 394 3474 is_stmt 0 discriminator 4
	li	a5,8
	sw	a5,0(s11)
	.loc 1 394 3497 is_stmt 1 discriminator 4
	.loc 1 394 3514 is_stmt 0 discriminator 4
	sw	t4,0(s10)
	.loc 1 394 3520 is_stmt 1 discriminator 4
	.loc 1 394 3537 is_stmt 0 discriminator 4
	li	t3,47
	sw	t3,0(s9)
	.loc 1 394 3595 is_stmt 1 discriminator 4
	.loc 1 394 3612 is_stmt 0 discriminator 4
	sw	zero,0(s8)
	.loc 1 394 3635 is_stmt 1 discriminator 4
	.loc 1 394 3651 is_stmt 0 discriminator 4
	sw	s1,0(s7)
	.loc 1 394 3662 is_stmt 1 discriminator 4
	.loc 1 394 3678 is_stmt 0 discriminator 4
	sw	s0,0(s6)
	.loc 1 394 3684 is_stmt 1 discriminator 4
	.loc 1 394 3701 is_stmt 0 discriminator 4
	sw	s0,0(s5)
	.loc 1 394 3724 is_stmt 1 discriminator 4
	.loc 1 394 3741 is_stmt 0 discriminator 4
	sw	zero,0(s4)
	.loc 1 394 3750 is_stmt 1 discriminator 4
.LVL135:
	.loc 1 394 3915 discriminator 4
	.loc 1 394 3931 is_stmt 0 discriminator 4
	sw	zero,0(s3)
	.loc 1 394 3960 is_stmt 1 discriminator 4
	.loc 1 394 3961 discriminator 4
	.loc 1 394 3978 is_stmt 0 discriminator 4
	lw	a5,24(sp)
	sw	a5,0(s2)
.LBE91:
	.loc 1 394 4010 is_stmt 1 discriminator 4
	.loc 1 394 4011 discriminator 4
	.loc 1 394 4027 is_stmt 0 discriminator 4
	lw	a5,16(sp)
	sw	a5,0(t6)
	j	.L79
.LVL136:
.L136:
.LBB92:
	.loc 1 398 3 is_stmt 1
	.loc 1 398 236
	.loc 1 398 253 is_stmt 0
	lw	a4,48(sp)
	li	a5,512
	.loc 1 398 389
	li	t3,511
	.loc 1 398 253
	sw	a5,0(a4)
	.loc 1 398 349 is_stmt 1
	.loc 1 398 366 is_stmt 0
	lw	t2,52(sp)
	.loc 1 398 958
	li	t4,16
	.loc 1 398 366
	sw	zero,0(t2)
	.loc 1 398 372 is_stmt 1
	.loc 1 398 389 is_stmt 0
	sw	t3,0(t1)
	.loc 1 398 506 is_stmt 1
	.loc 1 398 523 is_stmt 0
	lw	a5,0(sp)
	sw	zero,0(a5)
	.loc 1 398 619 is_stmt 1
	.loc 1 398 635 is_stmt 0
	sw	t0,0(a7)
	.loc 1 398 710 is_stmt 1
	.loc 1 398 726 is_stmt 0
	sw	s0,0(a6)
	.loc 1 398 732 is_stmt 1
	.loc 1 398 749 is_stmt 0
	sw	t3,0(a0)
	.loc 1 398 849 is_stmt 1
	.loc 1 398 866 is_stmt 0
	sw	zero,0(a1)
	.loc 1 398 941 is_stmt 1
	.loc 1 398 958 is_stmt 0
	sw	t4,0(s11)
	.loc 1 398 1016 is_stmt 1
	.loc 1 398 1033 is_stmt 0
	li	t4,3
	sw	t4,0(s10)
	.loc 1 398 1039 is_stmt 1
	.loc 1 398 1056 is_stmt 0
	li	t4,63
	sw	t4,0(s9)
	.loc 1 398 1135 is_stmt 1
	.loc 1 398 1152 is_stmt 0
	sw	zero,0(s8)
	.loc 1 398 1210 is_stmt 1
	.loc 1 398 1226 is_stmt 0
	li	t4,8
	sw	t4,0(t5)
	.loc 1 398 1249 is_stmt 1
	.loc 1 398 1265 is_stmt 0
	sw	s1,0(a2)
	.loc 1 398 1271 is_stmt 1
	.loc 1 398 1288 is_stmt 0
	lw	a5,40(sp)
	li	t4,15
	sw	t4,0(a5)
	.loc 1 398 1350 is_stmt 1
	.loc 1 398 1367 is_stmt 0
	lw	a3,16(sp)
	.loc 1 398 1835
	li	a5,512
	.loc 1 398 1367
	sw	zero,0(a3)
	.loc 1 398 1390 is_stmt 1
	.loc 1 398 1406 is_stmt 0
	sw	s1,0(s7)
	.loc 1 398 1417 is_stmt 1
	.loc 1 398 1433 is_stmt 0
	sw	s0,0(s6)
	.loc 1 398 1439 is_stmt 1
	.loc 1 398 1456 is_stmt 0
	sw	s0,0(s5)
	.loc 1 398 1479 is_stmt 1
	.loc 1 398 1496 is_stmt 0
	sw	zero,0(s4)
	.loc 1 398 1505 is_stmt 1
.LVL137:
	.loc 1 398 1772
	.loc 1 398 1788 is_stmt 0
	sw	zero,0(s3)
	.loc 1 398 1817 is_stmt 1
	.loc 1 398 1818
	.loc 1 398 1835 is_stmt 0
	lw	t4,24(sp)
	sw	a5,0(t4)
	.loc 1 398 1881 is_stmt 1
	.loc 1 398 1898 is_stmt 0
	lw	a5,124(sp)
.LBE92:
.LBB93:
	.loc 1 398 2032
	li	t4,16384
.LBE93:
.LBB94:
	.loc 1 398 1898
	sw	a5,0(s2)
.LBE94:
.LBB95:
	.loc 1 398 1931 is_stmt 1
.LVL138:
	.loc 1 398 2015
	.loc 1 398 2032 is_stmt 0
	sw	t4,0(a4)
	.loc 1 398 2055 is_stmt 1
	.loc 1 398 2095 is_stmt 0
	addi	a5,t4,-1
	.loc 1 398 2072
	sw	t2,52(sp)
	sw	zero,0(t2)
	.loc 1 398 2078 is_stmt 1
	.loc 1 398 2095 is_stmt 0
	sw	a5,0(t1)
	.loc 1 398 2133 is_stmt 1
	.loc 1 398 2150 is_stmt 0
	lw	a5,0(sp)
	.loc 1 398 2219
	li	t4,3
	.loc 1 398 2150
	sw	zero,0(a5)
	.loc 1 398 2173 is_stmt 1
	.loc 1 398 2190 is_stmt 0
	li	a5,4096
	sw	a5,0(s11)
	.loc 1 398 2202 is_stmt 1
	.loc 1 398 2219 is_stmt 0
	sw	t4,0(s10)
	.loc 1 398 2225 is_stmt 1
	.loc 1 398 2242 is_stmt 0
	lw	a5,116(sp)
	.loc 1 398 2504
	li	t4,8
	.loc 1 398 2242
	sw	a5,0(s9)
	.loc 1 398 2265 is_stmt 1
	.loc 1 398 2282 is_stmt 0
	sw	zero,0(s8)
	.loc 1 398 2294 is_stmt 1
	.loc 1 398 2310 is_stmt 0
	sw	s1,0(a2)
	.loc 1 398 2362 is_stmt 1
	.loc 1 398 2378 is_stmt 0
	sw	t0,0(t5)
	.loc 1 398 2399 is_stmt 1
	.loc 1 398 2416 is_stmt 0
	lw	a5,40(sp)
	sw	t6,0(a5)
	.loc 1 398 2421 is_stmt 1
	.loc 1 398 2438 is_stmt 0
	sw	zero,0(a3)
	.loc 1 398 2441 is_stmt 1
	.loc 1 398 2457 is_stmt 0
	sw	s0,0(s6)
	.loc 1 398 2488 is_stmt 1
	.loc 1 398 2504 is_stmt 0
	sw	t4,0(s7)
	.loc 1 398 2519 is_stmt 1
	.loc 1 398 2536 is_stmt 0
	sw	t6,0(s5)
	.loc 1 398 2541 is_stmt 1
	.loc 1 398 2558 is_stmt 0
	sw	zero,0(s4)
	.loc 1 398 2561 is_stmt 1
	.loc 1 398 2577 is_stmt 0
	sw	s0,0(a6)
	.loc 1 398 2615 is_stmt 1
	.loc 1 398 2631 is_stmt 0
	sw	s1,0(a7)
	.loc 1 398 2642 is_stmt 1
	.loc 1 398 2659 is_stmt 0
	sw	t6,0(a0)
	.loc 1 398 2664 is_stmt 1
	.loc 1 398 2700 is_stmt 0
	li	t4,524288
	.loc 1 398 2681
	sw	zero,0(a1)
	.loc 1 398 2684 is_stmt 1
	.loc 1 398 2700 is_stmt 0
	addi	t4,t4,400
.LBE95:
.LBB96:
	.loc 1 398 3088 discriminator 4
	lw	t2,32(sp)
.LBE96:
.LBB97:
	.loc 1 398 2867
	li	a5,1032192
	.loc 1 398 2700
	sw	t4,0(s3)
	.loc 1 398 2850 is_stmt 1
.LBE97:
.LBB98:
	.loc 1 398 3107 is_stmt 0 discriminator 4
	lw	t4,4(sp)
.LBE98:
.LBB99:
	.loc 1 398 2867
	addi	a5,a5,1181
	sw	a5,144(sp)
	sw	a5,0(s2)
.LBE99:
.LBB100:
	.loc 1 398 3088 discriminator 4
	addi	t2,t2,-1
.LBE100:
	.loc 1 398 2899 is_stmt 1
	.loc 1 398 2900
	.loc 1 398 2916 is_stmt 0 discriminator 4
	lw	a5,56(sp)
.LBB101:
	.loc 1 398 3107 discriminator 4
	sub	t4,t2,t4
.LBE101:
	.loc 1 398 2916 discriminator 4
	lw	t2,64(sp)
.LBB102:
	.loc 1 398 3467 discriminator 4
	sw	t4,32(sp)
	addi	t4,t4,1
.LBE102:
	.loc 1 398 2916 discriminator 4
	sw	t2,0(a5)
.LBB103:
	.loc 1 398 3018 is_stmt 1 discriminator 4
.LVL139:
	.loc 1 398 3120 discriminator 4
	.loc 1 398 3470 is_stmt 0 discriminator 4
	lw	a5,184(sp)
	mul	t4,a5,t4
	sw	t4,140(sp)
	.loc 1 398 3137 discriminator 4
	lw	t2,60(sp)
	.loc 1 398 3470 discriminator 4
	mv	a5,t4
	.loc 1 398 3137 discriminator 4
	sw	t2,0(s11)
	.loc 1 398 3152 is_stmt 1 discriminator 4
	.loc 1 398 3169 is_stmt 0 discriminator 4
	lw	t2,172(sp)
	sw	t2,0(s10)
	.loc 1 398 3175 is_stmt 1 discriminator 4
	.loc 1 398 3192 is_stmt 0 discriminator 4
	lw	t2,96(sp)
	sw	t2,0(s9)
	.loc 1 398 3217 is_stmt 1 discriminator 4
	.loc 1 398 3234 is_stmt 0 discriminator 4
	lw	t2,92(sp)
	sw	t2,0(s8)
	.loc 1 398 3249 is_stmt 1 discriminator 4
	.loc 1 398 3265 is_stmt 0 discriminator 4
	sw	s1,0(s7)
	.loc 1 398 3276 is_stmt 1 discriminator 4
	.loc 1 398 3292 is_stmt 0 discriminator 4
	lw	t4,32(sp)
	sw	t4,0(s6)
	.loc 1 398 3298 is_stmt 1 discriminator 4
	.loc 1 398 3315 is_stmt 0 discriminator 4
	lw	t2,12(sp)
	sw	t2,0(s5)
	.loc 1 398 3330 is_stmt 1 discriminator 4
	.loc 1 398 3347 is_stmt 0 discriminator 4
	lw	t4,4(sp)
	sw	t4,0(s4)
	.loc 1 398 3356 is_stmt 1 discriminator 4
.LVL140:
	.loc 1 398 3389 discriminator 4
	.loc 1 398 3405 is_stmt 0 discriminator 4
	lw	t2,36(sp)
	sw	t2,0(s3)
	.loc 1 398 3437 is_stmt 1 discriminator 4
	.loc 1 398 3438 discriminator 4
	.loc 1 398 3455 is_stmt 0 discriminator 4
	lw	t4,24(sp)
	.loc 1 398 3497 discriminator 4
	li	t2,1036288
	.loc 1 398 3455 discriminator 4
	sw	a5,0(t4)
	.loc 1 398 3480 is_stmt 1 discriminator 4
	.loc 1 398 3497 is_stmt 0 discriminator 4
	addi	a5,t2,159
	sw	a5,148(sp)
	sw	a5,0(s2)
.LBE103:
.LBB104:
	.loc 1 398 3530 is_stmt 1 discriminator 4
.LVL141:
	.loc 1 398 3763 discriminator 4
	.loc 1 398 3779 is_stmt 0 discriminator 4
	li	t4,512
	sw	t4,0(a7)
	.loc 1 398 3875 is_stmt 1 discriminator 4
	.loc 1 398 3891 is_stmt 0 discriminator 4
	sw	zero,0(a6)
	.loc 1 398 3897 is_stmt 1 discriminator 4
	.loc 1 398 3914 is_stmt 0 discriminator 4
	sw	t3,0(a0)
	.loc 1 398 4031 is_stmt 1 discriminator 4
	.loc 1 398 4048 is_stmt 0 discriminator 4
	sw	zero,0(a1)
	.loc 1 398 0 is_stmt 1 discriminator 4
	sw	t0,0(t5)
	.loc 1 398 0 discriminator 4
	sw	s0,0(a2)
	.loc 1 398 0 discriminator 4
	lw	a5,40(sp)
	li	t4,16
	sw	t3,0(a5)
	.loc 1 398 0 discriminator 4
	sw	zero,0(a3)
	.loc 1 398 0 discriminator 4
	sw	t4,0(a4)
	.loc 1 398 0 discriminator 4
	lw	t2,52(sp)
	li	t4,3
	li	a4,63
	sw	t4,0(t2)
	.loc 1 398 0 discriminator 4
	sw	a4,0(t1)
	.loc 1 398 0 discriminator 4
	lw	a5,0(sp)
	li	t4,8
	sw	zero,0(a5)
	.loc 1 398 0 discriminator 4
	sw	t4,0(s11)
	.loc 1 398 0 discriminator 4
	sw	s1,0(s10)
	.loc 1 398 0 discriminator 4
	li	t4,15
	sw	t4,0(s9)
	.loc 1 398 0 discriminator 4
	sw	zero,0(s8)
	.loc 1 398 0 discriminator 4
	sw	s1,0(s7)
	.loc 1 398 0 discriminator 4
	sw	s0,0(s6)
	.loc 1 398 0 discriminator 4
	sw	s0,0(s5)
	.loc 1 398 0 discriminator 4
	sw	zero,0(s4)
	.loc 1 398 0 discriminator 4
.LVL142:
	.loc 1 398 0 discriminator 4
	sw	zero,0(s3)
	.loc 1 398 0 discriminator 4
	.loc 1 398 0 discriminator 4
	lw	a5,120(sp)
.LBE104:
	.loc 1 402 15 is_stmt 0
	li	t4,2
.LBB105:
	.loc 1 398 0 discriminator 4
	sw	a5,0(s2)
.LBE105:
	.loc 1 398 0 is_stmt 1 discriminator 4
	.loc 1 398 0 discriminator 4
	lw	a5,56(sp)
	lw	a4,100(sp)
	sw	a4,0(a5)
	.loc 1 402 13
	.loc 1 402 15 is_stmt 0
	lw	a5,76(sp)
	beq	a5,t4,.L79
	.loc 1 403 16 is_stmt 1
.LBB106:
	.loc 1 404 3
.LVL143:
	.loc 1 404 236
	.loc 1 404 253 is_stmt 0
	lw	t4,48(sp)
	li	a5,512
	.loc 1 404 958
	li	a4,16
	.loc 1 404 253
	sw	a5,0(t4)
	.loc 1 404 349 is_stmt 1
	.loc 1 404 366 is_stmt 0
	lw	a3,52(sp)
	sw	zero,0(a3)
	.loc 1 404 372 is_stmt 1
	.loc 1 404 389 is_stmt 0
	sw	t3,0(t1)
	.loc 1 404 506 is_stmt 1
	.loc 1 404 523 is_stmt 0
	lw	t2,0(sp)
	sw	zero,0(t2)
	.loc 1 404 619 is_stmt 1
	.loc 1 404 635 is_stmt 0
	sw	t0,0(a7)
	.loc 1 404 710 is_stmt 1
	.loc 1 404 726 is_stmt 0
	sw	s0,0(a6)
	.loc 1 404 732 is_stmt 1
	.loc 1 404 749 is_stmt 0
	sw	t3,0(a0)
	.loc 1 404 849 is_stmt 1
	.loc 1 404 866 is_stmt 0
	sw	zero,0(a1)
	.loc 1 404 941 is_stmt 1
	.loc 1 404 958 is_stmt 0
	sw	a4,0(s11)
	.loc 1 404 1016 is_stmt 1
	.loc 1 404 1033 is_stmt 0
	li	t2,3
	sw	t2,0(s10)
	.loc 1 404 1039 is_stmt 1
	.loc 1 404 1056 is_stmt 0
	li	t2,63
	sw	t2,0(s9)
	.loc 1 404 1135 is_stmt 1
	.loc 1 404 1152 is_stmt 0
	sw	zero,0(s8)
	.loc 1 404 1210 is_stmt 1
	.loc 1 404 1226 is_stmt 0
	li	t2,8
	sw	t2,0(t5)
	.loc 1 404 1249 is_stmt 1
	.loc 1 404 1265 is_stmt 0
	sw	s1,0(a2)
	.loc 1 404 1271 is_stmt 1
	.loc 1 404 1288 is_stmt 0
	lw	a5,40(sp)
	li	t2,15
	sw	t2,0(a5)
	.loc 1 404 1350 is_stmt 1
	.loc 1 404 1367 is_stmt 0
	lw	t2,16(sp)
	.loc 1 404 1835
	li	a5,512
	.loc 1 404 1367
	sw	zero,0(t2)
	.loc 1 404 1390 is_stmt 1
	.loc 1 404 1406 is_stmt 0
	sw	s1,0(s7)
	.loc 1 404 1417 is_stmt 1
	.loc 1 404 1433 is_stmt 0
	sw	s0,0(s6)
	.loc 1 404 1439 is_stmt 1
	.loc 1 404 1456 is_stmt 0
	sw	s0,0(s5)
	.loc 1 404 1479 is_stmt 1
	.loc 1 404 1496 is_stmt 0
	sw	zero,0(s4)
	.loc 1 404 1505 is_stmt 1
.LVL144:
	.loc 1 404 1772
	.loc 1 404 1788 is_stmt 0
	sw	zero,0(s3)
	.loc 1 404 1817 is_stmt 1
	.loc 1 404 1818
	.loc 1 404 1835 is_stmt 0
	lw	t2,24(sp)
	sw	a5,0(t2)
	.loc 1 404 1881 is_stmt 1
	.loc 1 404 1898 is_stmt 0
	lw	a5,124(sp)
.LBE106:
.LBB107:
	.loc 1 404 2032
	li	t2,16384
.LBE107:
.LBB108:
	.loc 1 404 1898
	sw	a5,0(s2)
.LBE108:
.LBB109:
	.loc 1 404 1931 is_stmt 1
.LVL145:
	.loc 1 404 2015
	.loc 1 404 2032 is_stmt 0
	sw	t4,48(sp)
	sw	t2,0(t4)
	.loc 1 404 2055 is_stmt 1
	.loc 1 404 2095 is_stmt 0
	li	t4,16384
	.loc 1 404 2072
	sw	a3,52(sp)
	.loc 1 404 2095
	addi	t4,t4,-1
	.loc 1 404 2072
	sw	zero,0(a3)
	.loc 1 404 2078 is_stmt 1
	.loc 1 404 2095 is_stmt 0
	sw	t4,0(t1)
	.loc 1 404 2133 is_stmt 1
	.loc 1 404 2150 is_stmt 0
	lw	t4,0(sp)
	.loc 1 404 2219
	li	t2,3
	.loc 1 404 2150
	sw	zero,0(t4)
	.loc 1 404 2173 is_stmt 1
	.loc 1 404 2190 is_stmt 0
	li	t4,4096
	sw	t4,0(s11)
	.loc 1 404 2202 is_stmt 1
	.loc 1 404 2219 is_stmt 0
	sw	t2,0(s10)
	.loc 1 404 2225 is_stmt 1
	.loc 1 404 2242 is_stmt 0
	lw	t4,116(sp)
	sw	t4,0(s9)
	.loc 1 404 2265 is_stmt 1
	.loc 1 404 2282 is_stmt 0
	sw	zero,0(s8)
	.loc 1 404 2294 is_stmt 1
	.loc 1 404 2310 is_stmt 0
	sw	s1,0(a2)
	.loc 1 404 2362 is_stmt 1
	.loc 1 404 2378 is_stmt 0
	sw	t0,0(t5)
	.loc 1 404 2399 is_stmt 1
	.loc 1 404 2416 is_stmt 0
	lw	a3,40(sp)
	.loc 1 404 2700
	li	t4,524288
	addi	t4,t4,528
	.loc 1 404 2416
	sw	t6,0(a3)
	.loc 1 404 2421 is_stmt 1
	.loc 1 404 2438 is_stmt 0
	lw	t2,16(sp)
.LBE109:
.LBB110:
	.loc 1 404 3780 discriminator 4
	li	a3,512
.LBE110:
.LBB111:
	.loc 1 404 2438
	sw	zero,0(t2)
	.loc 1 404 2441 is_stmt 1
	.loc 1 404 2457 is_stmt 0
	sw	s0,0(s6)
	.loc 1 404 2488 is_stmt 1
	.loc 1 404 2504 is_stmt 0
	li	t2,8
	sw	t2,0(s7)
	.loc 1 404 2519 is_stmt 1
	.loc 1 404 2536 is_stmt 0
	sw	t6,0(s5)
	.loc 1 404 2541 is_stmt 1
	.loc 1 404 2558 is_stmt 0
	sw	zero,0(s4)
	.loc 1 404 2561 is_stmt 1
	.loc 1 404 2577 is_stmt 0
	sw	s0,0(a6)
	.loc 1 404 2615 is_stmt 1
	.loc 1 404 2631 is_stmt 0
	sw	s1,0(a7)
	.loc 1 404 2642 is_stmt 1
	.loc 1 404 2659 is_stmt 0
	sw	t6,0(a0)
	.loc 1 404 2664 is_stmt 1
	.loc 1 404 2681 is_stmt 0
	sw	zero,0(a1)
	.loc 1 404 2684 is_stmt 1
	.loc 1 404 2700 is_stmt 0
	sw	t4,0(s3)
	.loc 1 404 2850 is_stmt 1
	.loc 1 404 2867 is_stmt 0
	lw	t2,144(sp)
	sw	t2,0(s2)
.LBE111:
	.loc 1 404 2899 is_stmt 1
	.loc 1 404 2900
	.loc 1 404 2916 is_stmt 0 discriminator 4
	lw	t4,56(sp)
	lw	t2,64(sp)
	sw	t2,0(t4)
.LBB112:
	.loc 1 404 3018 is_stmt 1 discriminator 4
.LVL146:
	.loc 1 404 3120 discriminator 4
	.loc 1 404 3137 is_stmt 0 discriminator 4
	lw	t4,60(sp)
	sw	t4,0(s11)
	.loc 1 404 3152 is_stmt 1 discriminator 4
	.loc 1 404 3169 is_stmt 0 discriminator 4
	lw	t2,172(sp)
	sw	t2,0(s10)
	.loc 1 404 3175 is_stmt 1 discriminator 4
	.loc 1 404 3192 is_stmt 0 discriminator 4
	lw	t4,96(sp)
	sw	t4,0(s9)
	.loc 1 404 3217 is_stmt 1 discriminator 4
	.loc 1 404 3234 is_stmt 0 discriminator 4
	lw	t2,92(sp)
	sw	t2,0(s8)
	.loc 1 404 3249 is_stmt 1 discriminator 4
	.loc 1 404 3265 is_stmt 0 discriminator 4
	sw	s1,0(s7)
	.loc 1 404 3276 is_stmt 1 discriminator 4
	.loc 1 404 3292 is_stmt 0 discriminator 4
	lw	t4,32(sp)
	sw	t4,0(s6)
	.loc 1 404 3298 is_stmt 1 discriminator 4
	.loc 1 404 3315 is_stmt 0 discriminator 4
	lw	t2,12(sp)
	sw	t2,0(s5)
	.loc 1 404 3330 is_stmt 1 discriminator 4
	.loc 1 404 3347 is_stmt 0 discriminator 4
	lw	t4,4(sp)
	sw	t4,0(s4)
	.loc 1 404 3356 is_stmt 1 discriminator 4
.LVL147:
	.loc 1 404 3389 discriminator 4
	.loc 1 404 3405 is_stmt 0 discriminator 4
	lw	t2,68(sp)
	sw	t2,0(s3)
	.loc 1 404 3438 is_stmt 1 discriminator 4
	.loc 1 404 3439 discriminator 4
	.loc 1 404 3456 is_stmt 0 discriminator 4
	lw	t2,24(sp)
	lw	t4,140(sp)
	sw	t4,0(t2)
	.loc 1 404 3481 is_stmt 1 discriminator 4
	.loc 1 404 3498 is_stmt 0 discriminator 4
	lw	t2,148(sp)
.LBE112:
.LBB113:
	.loc 1 404 0 discriminator 4
	li	t4,3
.LBE113:
.LBB114:
	.loc 1 404 3498 discriminator 4
	sw	t2,0(s2)
.LBE114:
.LBB115:
	.loc 1 404 3531 is_stmt 1 discriminator 4
.LVL148:
	.loc 1 404 3764 discriminator 4
	.loc 1 404 3780 is_stmt 0 discriminator 4
	sw	a3,0(a7)
	.loc 1 404 3876 is_stmt 1 discriminator 4
	.loc 1 404 3892 is_stmt 0 discriminator 4
	sw	zero,0(a6)
	.loc 1 404 3898 is_stmt 1 discriminator 4
	.loc 1 404 3915 is_stmt 0 discriminator 4
	sw	t3,0(a0)
	.loc 1 404 4032 is_stmt 1 discriminator 4
	.loc 1 404 4049 is_stmt 0 discriminator 4
	sw	zero,0(a1)
	.loc 1 404 0 is_stmt 1 discriminator 4
	sw	t0,0(t5)
	.loc 1 404 0 discriminator 4
	sw	s0,0(a2)
	.loc 1 404 0 discriminator 4
	lw	a3,40(sp)
	sw	t3,0(a3)
	.loc 1 404 0 discriminator 4
	lw	t2,16(sp)
	sw	zero,0(t2)
	.loc 1 404 0 discriminator 4
	lw	a3,48(sp)
	sw	a4,0(a3)
	.loc 1 404 0 discriminator 4
	lw	t2,52(sp)
	sw	t4,0(t2)
	.loc 1 404 0 discriminator 4
	li	t4,63
	sw	t4,0(t1)
	.loc 1 404 0 discriminator 4
	lw	t4,0(sp)
	sw	zero,0(t4)
	.loc 1 404 0 discriminator 4
	li	t4,8
	sw	t4,0(s11)
	.loc 1 404 0 discriminator 4
	sw	s1,0(s10)
	.loc 1 404 0 discriminator 4
	li	t4,15
	sw	t4,0(s9)
	.loc 1 404 0 discriminator 4
	sw	zero,0(s8)
	.loc 1 404 0 discriminator 4
	sw	s1,0(s7)
	.loc 1 404 0 discriminator 4
	sw	s0,0(s6)
	.loc 1 404 0 discriminator 4
	sw	s0,0(s5)
	.loc 1 404 0 discriminator 4
	sw	zero,0(s4)
	.loc 1 404 0 discriminator 4
.LVL149:
	.loc 1 404 0 discriminator 4
	sw	zero,0(s3)
	.loc 1 404 0 discriminator 4
	.loc 1 404 0 discriminator 4
	lw	t4,120(sp)
	sw	t4,0(s2)
.LBE115:
	.loc 1 404 0 discriminator 4
	.loc 1 404 0 discriminator 4
	lw	t4,56(sp)
	lw	t2,100(sp)
	sw	t2,0(t4)
.LBB116:
	.loc 1 405 3
.LVL150:
	.loc 1 405 236
	.loc 1 405 253 is_stmt 0
	mv	t4,a3
	li	a3,512
	sw	a3,0(t4)
	.loc 1 405 349 is_stmt 1
	.loc 1 405 366 is_stmt 0
	lw	t2,52(sp)
	sw	zero,0(t2)
	.loc 1 405 372 is_stmt 1
	.loc 1 405 389 is_stmt 0
	sw	t3,0(t1)
	.loc 1 405 506 is_stmt 1
	.loc 1 405 523 is_stmt 0
	lw	t2,0(sp)
	sw	zero,0(t2)
	.loc 1 405 619 is_stmt 1
	.loc 1 405 635 is_stmt 0
	sw	t0,0(a7)
	.loc 1 405 710 is_stmt 1
	.loc 1 405 726 is_stmt 0
	sw	s0,0(a6)
	.loc 1 405 732 is_stmt 1
	.loc 1 405 749 is_stmt 0
	sw	t3,0(a0)
	.loc 1 405 849 is_stmt 1
	.loc 1 405 866 is_stmt 0
	sw	zero,0(a1)
	.loc 1 405 941 is_stmt 1
	.loc 1 405 958 is_stmt 0
	sw	a4,124(sp)
	sw	a4,0(s11)
	.loc 1 405 1016 is_stmt 1
	.loc 1 405 1033 is_stmt 0
	li	t2,3
	sw	t2,0(s10)
	.loc 1 405 1039 is_stmt 1
	.loc 1 405 1056 is_stmt 0
	li	t2,63
	sw	t2,0(s9)
	.loc 1 405 1135 is_stmt 1
	.loc 1 405 1152 is_stmt 0
	sw	zero,0(s8)
	.loc 1 405 1210 is_stmt 1
	.loc 1 405 1226 is_stmt 0
	li	t2,8
	sw	t2,0(t5)
	.loc 1 405 1249 is_stmt 1
	.loc 1 405 1265 is_stmt 0
	sw	s1,0(a2)
	.loc 1 405 1271 is_stmt 1
	.loc 1 405 1288 is_stmt 0
	lw	a4,40(sp)
	li	t2,15
	sw	t2,0(a4)
	.loc 1 405 1350 is_stmt 1
	.loc 1 405 1367 is_stmt 0
	lw	t2,16(sp)
	sw	zero,0(t2)
	.loc 1 405 1390 is_stmt 1
	.loc 1 405 1406 is_stmt 0
	sw	s1,0(s7)
	.loc 1 405 1417 is_stmt 1
	.loc 1 405 1433 is_stmt 0
	sw	s0,0(s6)
	.loc 1 405 1439 is_stmt 1
	.loc 1 405 1456 is_stmt 0
	sw	s0,0(s5)
	.loc 1 405 1479 is_stmt 1
	.loc 1 405 1496 is_stmt 0
	sw	zero,0(s4)
	.loc 1 405 1505 is_stmt 1
.LVL151:
	.loc 1 405 1772
	.loc 1 405 1788 is_stmt 0
	sw	zero,0(s3)
	.loc 1 405 1817 is_stmt 1
	.loc 1 405 1818
	.loc 1 405 1835 is_stmt 0
	lw	t2,24(sp)
	sw	a3,0(t2)
	.loc 1 405 1881 is_stmt 1
	.loc 1 405 1898 is_stmt 0
	sw	a5,0(s2)
.LBE116:
.LBB117:
	.loc 1 405 1931 is_stmt 1
.LVL152:
	.loc 1 405 2015
	.loc 1 405 2032 is_stmt 0
	sw	t4,48(sp)
	li	t2,16384
	sw	t2,0(t4)
	.loc 1 405 2055 is_stmt 1
	.loc 1 405 2072 is_stmt 0
	lw	a3,52(sp)
	.loc 1 405 2095
	addi	a5,t2,-1
	.loc 1 405 2219
	li	t2,3
	.loc 1 405 2072
	sw	zero,0(a3)
	.loc 1 405 2078 is_stmt 1
	.loc 1 405 2095 is_stmt 0
	sw	a5,0(t1)
	.loc 1 405 2133 is_stmt 1
	.loc 1 405 2150 is_stmt 0
	lw	t4,0(sp)
	.loc 1 405 2190
	li	a5,4096
	.loc 1 405 2150
	sw	zero,0(t4)
	.loc 1 405 2173 is_stmt 1
	.loc 1 405 2190 is_stmt 0
	sw	a5,0(s11)
	.loc 1 405 2202 is_stmt 1
	.loc 1 405 2219 is_stmt 0
	sw	t2,0(s10)
	.loc 1 405 2225 is_stmt 1
	.loc 1 405 2242 is_stmt 0
	lw	a5,116(sp)
	.loc 1 405 2504
	li	t2,8
	.loc 1 405 2700
	li	t4,524288
	.loc 1 405 2242
	sw	a5,0(s9)
	.loc 1 405 2265 is_stmt 1
	.loc 1 405 2282 is_stmt 0
	sw	zero,0(s8)
	.loc 1 405 2294 is_stmt 1
	.loc 1 405 2310 is_stmt 0
	sw	s1,0(a2)
	.loc 1 405 2362 is_stmt 1
	.loc 1 405 2378 is_stmt 0
	sw	t0,0(t5)
	.loc 1 405 2399 is_stmt 1
	.loc 1 405 2416 is_stmt 0
	lw	a5,40(sp)
	.loc 1 405 2700
	addi	t4,t4,656
	.loc 1 405 2416
	sw	t6,0(a5)
	.loc 1 405 2421 is_stmt 1
	.loc 1 405 2438 is_stmt 0
	lw	a5,16(sp)
	sw	zero,0(a5)
	.loc 1 405 2441 is_stmt 1
	.loc 1 405 2457 is_stmt 0
	sw	s0,0(s6)
	.loc 1 405 2488 is_stmt 1
	.loc 1 405 2504 is_stmt 0
	sw	t2,0(s7)
	.loc 1 405 2519 is_stmt 1
	.loc 1 405 2536 is_stmt 0
	sw	t6,0(s5)
	.loc 1 405 2541 is_stmt 1
	.loc 1 405 2558 is_stmt 0
	sw	zero,0(s4)
	.loc 1 405 2561 is_stmt 1
	.loc 1 405 2577 is_stmt 0
	sw	s0,0(a6)
	.loc 1 405 2615 is_stmt 1
	.loc 1 405 2631 is_stmt 0
	sw	s1,0(a7)
	.loc 1 405 2642 is_stmt 1
	.loc 1 405 2659 is_stmt 0
	sw	t6,0(a0)
	.loc 1 405 2664 is_stmt 1
	.loc 1 405 2681 is_stmt 0
	sw	zero,0(a1)
	.loc 1 405 2684 is_stmt 1
	.loc 1 405 2700 is_stmt 0
	sw	t4,0(s3)
	.loc 1 405 2850 is_stmt 1
	.loc 1 405 2867 is_stmt 0
	lw	a5,144(sp)
.LBE117:
.LBB118:
	.loc 1 405 0 discriminator 4
	li	t2,8
.LBE118:
.LBB119:
	.loc 1 405 2867
	sw	a5,0(s2)
.LBE119:
	.loc 1 405 2899 is_stmt 1
	.loc 1 405 2900
	.loc 1 405 2916 is_stmt 0 discriminator 4
	lw	t6,56(sp)
	lw	a5,64(sp)
	sw	a5,0(t6)
.LBB120:
	.loc 1 405 3018 is_stmt 1 discriminator 4
.LVL153:
	.loc 1 405 3120 discriminator 4
	.loc 1 405 3137 is_stmt 0 discriminator 4
	lw	a5,60(sp)
	sw	a5,0(s11)
	.loc 1 405 3152 is_stmt 1 discriminator 4
	.loc 1 405 3169 is_stmt 0 discriminator 4
	lw	a5,172(sp)
	sw	a5,0(s10)
	.loc 1 405 3175 is_stmt 1 discriminator 4
	.loc 1 405 3192 is_stmt 0 discriminator 4
	lw	a5,96(sp)
	sw	a5,0(s9)
	.loc 1 405 3217 is_stmt 1 discriminator 4
	.loc 1 405 3234 is_stmt 0 discriminator 4
	lw	a5,92(sp)
	sw	a5,0(s8)
	.loc 1 405 3249 is_stmt 1 discriminator 4
	.loc 1 405 3265 is_stmt 0 discriminator 4
	sw	s1,0(s7)
	.loc 1 405 3276 is_stmt 1 discriminator 4
	.loc 1 405 3292 is_stmt 0 discriminator 4
	lw	a5,32(sp)
	sw	a5,0(s6)
	.loc 1 405 3298 is_stmt 1 discriminator 4
	.loc 1 405 3315 is_stmt 0 discriminator 4
	lw	a5,12(sp)
	sw	a5,0(s5)
	.loc 1 405 3330 is_stmt 1 discriminator 4
	.loc 1 405 3347 is_stmt 0 discriminator 4
	lw	a5,4(sp)
	sw	a5,0(s4)
	.loc 1 405 3356 is_stmt 1 discriminator 4
.LVL154:
	.loc 1 405 3389 discriminator 4
	.loc 1 405 3405 is_stmt 0 discriminator 4
	lw	a5,72(sp)
	sw	a5,0(s3)
	.loc 1 405 3438 is_stmt 1 discriminator 4
	.loc 1 405 3439 discriminator 4
	.loc 1 405 3456 is_stmt 0 discriminator 4
	lw	t6,24(sp)
	lw	a5,140(sp)
	sw	a5,0(t6)
	.loc 1 405 3481 is_stmt 1 discriminator 4
	.loc 1 405 3498 is_stmt 0 discriminator 4
	lw	a5,148(sp)
.LBE120:
.LBB121:
	.loc 1 405 3780 discriminator 4
	li	t6,512
.LBE121:
.LBB122:
	.loc 1 405 3498 discriminator 4
	sw	a5,0(s2)
.LBE122:
.LBB123:
	.loc 1 405 3531 is_stmt 1 discriminator 4
.LVL155:
	.loc 1 405 3764 discriminator 4
	.loc 1 405 3780 is_stmt 0 discriminator 4
	sw	t6,0(a7)
	.loc 1 405 3876 is_stmt 1 discriminator 4
	.loc 1 405 3892 is_stmt 0 discriminator 4
	sw	zero,0(a6)
	.loc 1 405 3898 is_stmt 1 discriminator 4
	.loc 1 405 3915 is_stmt 0 discriminator 4
	sw	t3,0(a0)
	.loc 1 405 4032 is_stmt 1 discriminator 4
	.loc 1 405 4049 is_stmt 0 discriminator 4
	sw	zero,0(a1)
	.loc 1 405 0 is_stmt 1 discriminator 4
	sw	t0,0(t5)
	.loc 1 405 0 discriminator 4
	sw	s0,0(a2)
	.loc 1 405 0 discriminator 4
	lw	a5,40(sp)
	sw	t3,0(a5)
	.loc 1 405 0 discriminator 4
	lw	a5,16(sp)
	sw	zero,0(a5)
	.loc 1 405 0 discriminator 4
	lw	t4,48(sp)
	lw	a4,124(sp)
	sw	a4,0(t4)
	.loc 1 405 0 discriminator 4
	li	t4,3
	sw	t4,0(a3)
	.loc 1 405 0 discriminator 4
	li	t4,63
	sw	t4,0(t1)
	.loc 1 405 0 discriminator 4
	lw	a5,0(sp)
	sw	zero,0(a5)
	.loc 1 405 0 discriminator 4
	sw	t2,0(s11)
	.loc 1 405 0 discriminator 4
	sw	s1,0(s10)
	.loc 1 405 0 discriminator 4
	li	t2,15
	sw	t2,0(s9)
	.loc 1 405 0 discriminator 4
	sw	zero,0(s8)
	.loc 1 405 0 discriminator 4
	sw	s1,0(s7)
	.loc 1 405 0 discriminator 4
	sw	s0,0(s6)
	.loc 1 405 0 discriminator 4
	sw	s0,0(s5)
	.loc 1 405 0 discriminator 4
	sw	zero,0(s4)
	.loc 1 405 0 discriminator 4
.LVL156:
	.loc 1 405 0 discriminator 4
	sw	zero,0(s3)
	.loc 1 405 0 discriminator 4
	.loc 1 405 0 discriminator 4
	lw	a5,120(sp)
	sw	a5,0(s2)
.LBE123:
	.loc 1 405 0 discriminator 4
	.loc 1 405 0 discriminator 4
	lw	t6,56(sp)
	lw	t2,100(sp)
	sw	t2,0(t6)
	j	.L79
.LVL157:
.L135:
	.loc 1 360 9 is_stmt 0
	lw	s1,208(sp)
	lw	a5,96(sp)
	lw	s2,204(sp)
	lw	s7,224(sp)
	.loc 1 360 17 is_stmt 1
	sub	a5,a5,s1
	sw	a5,96(sp)
	.loc 1 359 10 is_stmt 0
	lw	a5,92(sp)
	.loc 1 360 9
	lw	s0,220(sp)
	lw	s4,212(sp)
	.loc 1 359 10
	add	a5,a5,s1
	sw	a5,92(sp)
	lw	a5,128(sp)
	.loc 1 360 9
	add	s0,s0,s7
.LVL158:
	.loc 1 359 10 is_stmt 1
	.loc 1 360 9 is_stmt 0
	lw	s8,216(sp)
	sub	a5,a5,s2
	sw	a5,128(sp)
	.loc 1 359 10
	lw	a5,176(sp)
	add	a5,a5,s7
	sw	a5,176(sp)
	lw	a5,112(sp)
	add	a5,a5,s2
	sw	a5,112(sp)
	lw	a5,236(sp)
	bgt	a5,s0,.L52
.LVL159:
.L1:
	.loc 1 414 1
	lw	ra,316(sp)
	.cfi_remember_state
	.cfi_restore 1
	lw	s0,312(sp)
	.cfi_restore 8
	lw	s1,308(sp)
	.cfi_restore 9
	lw	s2,304(sp)
	.cfi_restore 18
	lw	s3,300(sp)
	.cfi_restore 19
	lw	s4,296(sp)
	.cfi_restore 20
	lw	s5,292(sp)
	.cfi_restore 21
	lw	s6,288(sp)
	.cfi_restore 22
	lw	s7,284(sp)
	.cfi_restore 23
	lw	s8,280(sp)
	.cfi_restore 24
	lw	s9,276(sp)
	.cfi_restore 25
	lw	s10,272(sp)
	.cfi_restore 26
	lw	s11,268(sp)
	.cfi_restore 27
	addi	sp,sp,320
	.cfi_def_cfa_offset 0
	jr	ra
.LVL160:
.L51:
	.cfi_restore_state
.LBB124:
	.loc 1 381 2093
	lw	a2,104(sp)
	mul	a4,s5,a2
	.loc 1 381 2157
	slli	a5,a4,1
	add	a5,a5,a4
	.loc 1 381 2177
	addi	a5,a5,-1
	sw	a5,124(sp)
	lw	a5,132(sp)
	.loc 1 381 2093
	sw	a4,120(sp)
	bne	a5,zero,.L53
	sub	a4,s5,s11
	mul	a4,a4,a2
	lw	a1,8(sp)
	lw	a5,0(sp)
.LBE124:
	.loc 1 358 9
	li	a3,0
	add	a0,s10,a1
	sw	a0,188(sp)
	lw	a0,60(sp)
	sub	a5,a5,s4
	sw	s10,184(sp)
	addi	a6,a0,-1
	addi	a4,a4,-1
	mul	a5,a5,a0
	sw	a4,140(sp)
.LBB125:
	.loc 1 381 2177
	sw	a4,128(sp)
.LBE125:
.LBB126:
	.loc 1 400 1526
	li	a4,16384
	addi	a4,a4,-1
	sw	a4,32(sp)
	sub	a4,a7,a1
	sw	a4,172(sp)
	lw	a4,204(sp)
	sw	a6,196(sp)
	addi	a5,a5,-1
	sub	a4,a4,a1
	sw	a4,176(sp)
.LBE126:
.LBB127:
	.loc 1 379 3051
	lw	a4,136(sp)
	sw	a5,44(sp)
	mul	a5,a0,s4
	add	a4,a4,s8
	sw	a4,180(sp)
	add	a6,s2,s10
	sw	a6,192(sp)
	addi	a6,a2,-1
	sw	a6,200(sp)
	lw	a6,84(sp)
	sw	s9,204(sp)
.LVL161:
	sw	s7,208(sp)
	mul	a4,a2,s11
	add	a6,s8,a6
	sw	a6,96(sp)
	slli	a6,a1,1
	sw	a5,40(sp)
	sw	a6,88(sp)
	mv	a5,a3
	mul	s11,s7,a0
	sw	a4,56(sp)
.LBE127:
.LBB128:
	.loc 1 381 2177
	sw	a4,132(sp)
	mul	s3,a2,s7
.LVL162:
.L60:
.LBE128:
	.loc 1 362 12 is_stmt 1
	lw	a4,188(sp)
	lw	a3,184(sp)
	.loc 1 361 12 is_stmt 0
	li	s0,0
	sw	a4,20(sp)
	lw	a4,196(sp)
.LBB129:
	.loc 1 366 2207
	sw	s8,0(sp)
.LBE129:
.LBB130:
	.loc 1 379 3051
	sw	s8,156(sp)
	sub	a4,a4,a3
	sw	a4,16(sp)
	lw	a3,192(sp)
	lw	a4,40(sp)
	sw	s11,160(sp)
	sw	a5,164(sp)
	add	a3,a3,a4
	sw	a3,28(sp)
	lw	a3,200(sp)
	sw	s0,4(sp)
	sw	s3,168(sp)
	sub	a3,a3,s8
	sw	a3,24(sp)
	lw	a3,172(sp)
	add	a3,a3,a4
	sw	a3,148(sp)
	lw	a3,176(sp)
	add	a4,a3,a4
	sw	a4,152(sp)
	lw	a3,56(sp)
	lw	a4,180(sp)
	add	a4,a4,a3
	sw	a4,144(sp)
	j	.L59
.LVL163:
.L54:
.LBE130:
	.loc 1 378 16 is_stmt 1
.LBB131:
	.loc 1 381 244 is_stmt 0
	li	a4,-2147483648
	addi	s5,a4,288
	sw	s5,48(sp)
	li	a4,512
	sw	a4,0(s5)
.LVL164:
	.loc 1 381 357
	li	a3,-2147483648
	sw	a3,52(sp)
	sw	a5,416(a3)
	.loc 1 381 380
	li	s9,-2147483648
	li	a3,1535
	sw	a3,1312(s9)
	.loc 1 381 506
	li	s1,-2147479552
	sw	zero,-1376(s1)
	.loc 1 381 619
	li	s8,-2147483648
	li	a4,64
	sw	a4,800(s8)
	.loc 1 381 711
	li	s0,-2147483648
	li	a4,7
	sw	a4,928(s0)
	.loc 1 381 734
	li	s7,-2147483648
	li	a2,511
	sw	a2,1440(s7)
	.loc 1 381 852
	li	ra,-2147479552
	sw	zero,-1248(ra)
	.loc 1 381 945
	li	s11,-2147483648
	li	a1,16
	sw	a1,1696(s11)
	.loc 1 381 1020
	li	s10,-2147483648
	li	a3,3
	sw	a3,1824(s10)
	.loc 1 381 1043
	li	t6,-2147483648
	li	a0,63
	sw	a0,1952(t6)
	.loc 1 381 1140
	li	t4,-2147479552
	sw	zero,-1120(t4)
	.loc 1 381 1215
	li	t2,-2147479552
	.loc 1 381 1020
	mv	s2,a3
	.loc 1 381 1215
	li	a3,8
	sw	a3,-2016(t2)
	.loc 1 381 1255
	li	t3,-2147479552
	li	a3,1
	sw	a3,-1888(t3)
	.loc 1 381 1278
	li	t0,-2147479552
	li	a6,15
	sw	a6,-1760(t0)
	.loc 1 381 1357
	li	t1,-2147479552
	sw	zero,-992(t1)
	.loc 1 381 1396
	li	a7,-2147483648
	sw	a3,1056(a7)
	.loc 1 381 1423
	li	a6,-2147483648
	sw	a4,672(a6)
	.loc 1 381 1446
	li	a0,-2147483648
	sw	a4,1568(a0)
	.loc 1 381 1827
	li	t5,-2147479552
	.loc 1 381 1486
	li	a1,-2147479552
	sw	zero,-864(a1)
	.loc 1 381 1780
	li	a2,-2147483648
	.loc 1 381 1827
	addi	s4,t5,-736
	.loc 1 381 1780
	sw	zero,544(a2)
	.loc 1 381 1827
	mv	s6,s4
	sw	s6,68(sp)
	li	s5,1536
	.loc 1 381 1890
	li	s4,1036288
	.loc 1 381 1827
	sw	s5,0(s6)
	.loc 1 381 1890
	addi	s4,s4,-1889
	sw	s4,-1632(t5)
.LBE131:
.LBB132:
	.loc 1 381 2082
	lw	s4,120(sp)
	.loc 1 381 2592
	li	s6,1036288
	addi	s6,s6,157
	.loc 1 381 2082
	sw	s4,1696(s11)
	.loc 1 381 2124
	sw	a5,1824(s10)
	.loc 1 381 2147
	lw	s4,124(sp)
	sw	s4,1952(t6)
	.loc 1 381 2197
	sw	zero,-1120(t4)
	.loc 1 381 2239
	lw	s4,104(sp)
	sw	s4,-2016(t2)
	.loc 1 381 2273
	sw	zero,-1888(t3)
	.loc 1 381 2296
	lw	s4,140(sp)
	sw	s4,-1760(t0)
	.loc 1 381 2342
	lw	s4,56(sp)
	sw	s4,-992(t1)
	.loc 1 381 2375
	sw	a3,1056(a7)
	.loc 1 381 2402
	sw	s3,672(a6)
	.loc 1 381 2425
	lw	s3,24(sp)
	sw	s3,1568(a0)
	.loc 1 381 2459
	lw	s3,0(sp)
	sw	s3,-864(a1)
.LBE132:
.LBB133:
	.loc 1 379 3051
	lw	s4,4(sp)
	lw	s3,144(sp)
	add	s3,s3,s4
.LBE133:
.LBB134:
	.loc 1 381 3 is_stmt 1
.LVL165:
	.loc 1 381 228
	.loc 1 381 341
	.loc 1 381 363
	.loc 1 381 489
	.loc 1 381 603
	.loc 1 381 695
	.loc 1 381 717
	.loc 1 381 835
	.loc 1 381 928
	.loc 1 381 1003
	.loc 1 381 1026
	.loc 1 381 1123
	.loc 1 381 1198
	.loc 1 381 1238
	.loc 1 381 1261
	.loc 1 381 1340
	.loc 1 381 1380
	.loc 1 381 1407
	.loc 1 381 1429
	.loc 1 381 1469
	.loc 1 381 1495
	.loc 1 381 1764
	.loc 1 381 1809
	.loc 1 381 1810
	.loc 1 381 1873
.LBE134:
.LBB135:
	.loc 1 381 1923
	.loc 1 381 2065
	.loc 1 381 2107
	.loc 1 381 2130
	.loc 1 381 2180
	.loc 1 381 2222
	.loc 1 381 2256
	.loc 1 381 2279
	.loc 1 381 2325
	.loc 1 381 2359
	.loc 1 381 2386
	.loc 1 381 2408
	.loc 1 381 2442
	.loc 1 381 2468
	.loc 1 381 2527
	.loc 1 381 2543 is_stmt 0
	sw	s3,544(a2)
.LVL166:
	.loc 1 381 2574 is_stmt 1
	.loc 1 381 2575
.LBE135:
	.loc 1 381 2641 is_stmt 0
	li	s4,393216
.LBB136:
	.loc 1 381 2592
	sw	s6,-1632(t5)
.LBE136:
	.loc 1 381 2624 is_stmt 1
	.loc 1 381 2625
	.loc 1 381 2641 is_stmt 0
	li	s3,-2147483648
	addi	s4,s4,17
	sw	s4,20(s3)
.LBB137:
	.loc 1 381 2731 is_stmt 1
.LVL167:
	.loc 1 381 2776
	.loc 1 381 2793 is_stmt 0
	li	s6,4096
	sw	s6,-2016(t2)
	.loc 1 381 2805 is_stmt 1
	.loc 1 381 2822 is_stmt 0
	sw	s2,-1888(t3)
	.loc 1 381 2828 is_stmt 1
	.loc 1 381 2845 is_stmt 0
	lw	s5,32(sp)
	.loc 1 381 2959
	li	s6,128
	.loc 1 381 2845
	sw	s5,-1760(t0)
	.loc 1 381 2873 is_stmt 1
	.loc 1 381 2890 is_stmt 0
	sw	zero,-992(t1)
	.loc 1 381 2902 is_stmt 1
	.loc 1 381 2918 is_stmt 0
	lw	s2,52(sp)
	sw	a5,416(s2)
	.loc 1 381 2943 is_stmt 1
	.loc 1 381 2959 is_stmt 0
	lw	s5,48(sp)
	.loc 1 381 3135
	li	s2,64
	.loc 1 381 2959
	sw	s6,0(s5)
	.loc 1 381 3007 is_stmt 1
	.loc 1 381 3024 is_stmt 0
	li	s6,383
	sw	s6,1312(s9)
	.loc 1 381 3029 is_stmt 1
	.loc 1 381 3046 is_stmt 0
	sw	zero,-1376(s1)
	.loc 1 381 3049 is_stmt 1
	.loc 1 381 3066 is_stmt 0
	sw	a3,1824(s10)
	.loc 1 381 3118 is_stmt 1
	.loc 1 381 3135 is_stmt 0
	sw	s2,1696(s11)
	.loc 1 381 3156 is_stmt 1
	.loc 1 381 3173 is_stmt 0
	sw	s6,1952(t6)
	.loc 1 381 3178 is_stmt 1
	.loc 1 381 3195 is_stmt 0
	sw	zero,-1120(t4)
	.loc 1 381 3198 is_stmt 1
	.loc 1 381 3261 is_stmt 0
	li	s2,8
	.loc 1 381 3214
	sw	a4,672(a6)
	.loc 1 381 3245 is_stmt 1
	.loc 1 381 3261 is_stmt 0
	sw	s2,1056(a7)
	.loc 1 381 3276 is_stmt 1
	.loc 1 381 3293 is_stmt 0
	sw	s6,1568(a0)
	.loc 1 381 3298 is_stmt 1
	.loc 1 381 3315 is_stmt 0
	sw	zero,-864(a1)
	.loc 1 381 3318 is_stmt 1
	.loc 1 381 3334 is_stmt 0
	sw	a4,928(s0)
	.loc 1 381 3372 is_stmt 1
	.loc 1 381 3388 is_stmt 0
	sw	a3,800(s8)
	.loc 1 381 3399 is_stmt 1
	.loc 1 381 3416 is_stmt 0
	sw	s6,1440(s7)
	.loc 1 381 3421 is_stmt 1
	.loc 1 381 3457 is_stmt 0
	li	s6,524288
	.loc 1 381 3438
	sw	zero,-1248(ra)
	.loc 1 381 3441 is_stmt 1
	.loc 1 381 3457 is_stmt 0
	addi	s6,s6,16
	sw	s6,544(a2)
	.loc 1 381 3584 is_stmt 1
	.loc 1 381 3601 is_stmt 0
	lw	s2,68(sp)
	li	s5,1536
	.loc 1 381 3766
	li	s6,1032192
	.loc 1 381 3601
	sw	s5,0(s2)
	.loc 1 381 3749 is_stmt 1
	.loc 1 381 3766 is_stmt 0
	addi	s6,s6,1183
	sw	s6,-1632(t5)
.LBE137:
.LBB138:
	.loc 1 381 3799 is_stmt 1
.LVL168:
	.loc 1 381 4024
	.loc 1 381 4040 is_stmt 0
	lw	s5,48(sp)
	li	s6,512
	sw	s6,0(s5)
	.loc 1 381 0 is_stmt 1
	lw	s2,52(sp)
	sw	a5,416(s2)
	.loc 1 381 0
	li	a5,1535
	sw	a5,1312(s9)
	.loc 1 381 0
	sw	zero,-1376(s1)
	.loc 1 381 0
	li	s2,64
	sw	s2,800(s8)
	.loc 1 381 0
	sw	a4,928(s0)
	.loc 1 381 0
	li	a5,511
	sw	a5,1440(s7)
	.loc 1 381 0
	sw	zero,-1248(ra)
	.loc 1 381 0
	li	a5,16
	sw	a5,-2016(t2)
	.loc 1 381 0
	li	s2,3
	sw	s2,-1888(t3)
	.loc 1 381 0
	li	a5,63
	sw	a5,-1760(t0)
	.loc 1 381 0
	sw	zero,-992(t1)
	.loc 1 381 0
	li	s2,8
	sw	s2,1696(s11)
	.loc 1 381 0
	sw	a3,1824(s10)
	.loc 1 381 0
	li	a5,15
	sw	a5,1952(t6)
	.loc 1 381 0
	sw	zero,-1120(t4)
	.loc 1 381 0
	sw	a3,1056(a7)
	.loc 1 381 0
	sw	a4,672(a6)
	.loc 1 381 0
	sw	a4,1568(a0)
	.loc 1 381 0
	li	a5,1036288
	sw	zero,-864(a1)
	.loc 1 381 0
.LVL169:
	.loc 1 381 0
	sw	zero,544(a2)
	.loc 1 381 0
	.loc 1 381 0
	addi	a5,a5,-1891
	sw	a5,-1632(t5)
.LBE138:
	.loc 1 381 0
	.loc 1 381 0
	sw	s4,20(s3)
	.loc 1 386 1
	.loc 1 386 2
	.loc 1 386 18 is_stmt 0
	lw	a4,108(sp)
	.loc 1 388 10
	li	a5,-2147483648
	.loc 1 386 18
	sw	a4,20(s3)
	.loc 1 388 10 is_stmt 1
	sw	zero,36(a5)
	.loc 1 388 10
	call	_taskYield
.LVL170:
	.loc 1 388 24 discriminator 1
	.loc 1 390 10
	.loc 1 390 12 is_stmt 0
	lw	a5,76(sp)
	bne	a5,zero,.L56
.LVL171:
.L55:
.LBB139:
	.loc 1 394 3 is_stmt 1
	.loc 1 394 191
	.loc 1 394 207 is_stmt 0
	li	s11,-2147483648
	li	a5,192
	sw	a5,800(s11)
	.loc 1 394 279 is_stmt 1
	.loc 1 394 295 is_stmt 0
	li	t2,-2147483648
	li	a5,7
	sw	a5,928(t2)
	.loc 1 394 301 is_stmt 1
	.loc 1 394 318 is_stmt 0
	li	s3,-2147483648
	li	a4,1535
	sw	a4,1440(s3)
	.loc 1 394 415 is_stmt 1
	.loc 1 394 432 is_stmt 0
	li	t0,-2147479552
	sw	zero,-1248(t0)
	.loc 1 394 504 is_stmt 1
	.loc 1 394 521 is_stmt 0
	li	t4,-2147479552
	li	a3,48
	sw	a3,-2016(t4)
	.loc 1 394 575 is_stmt 1
	.loc 1 394 592 is_stmt 0
	li	t3,-2147479552
	li	s9,3
	sw	s9,-1888(t3)
	.loc 1 394 598 is_stmt 1
	.loc 1 394 615 is_stmt 0
	li	t1,-2147479552
	li	a2,191
	sw	a2,-1760(t1)
	.loc 1 394 691 is_stmt 1
	.loc 1 394 708 is_stmt 0
	li	a0,-2147479552
	sw	zero,-992(a0)
	.loc 1 394 762 is_stmt 1
	.loc 1 394 779 is_stmt 0
	li	s2,-2147483648
	li	s8,8
	sw	s8,1696(s2)
	.loc 1 394 802 is_stmt 1
	.loc 1 394 819 is_stmt 0
	li	s1,-2147483648
	li	s7,5
	sw	s7,1824(s1)
	.loc 1 394 825 is_stmt 1
	.loc 1 394 842 is_stmt 0
	li	s0,-2147483648
	li	a1,47
	sw	a1,1952(s0)
	.loc 1 394 900 is_stmt 1
	.loc 1 394 917 is_stmt 0
	li	t6,-2147479552
	sw	zero,-1120(t6)
	.loc 1 394 940 is_stmt 1
	.loc 1 394 956 is_stmt 0
	li	a7,-2147483648
	li	s5,1
	sw	s5,1056(a7)
	.loc 1 394 967 is_stmt 1
	.loc 1 394 983 is_stmt 0
	li	a1,-2147483648
	sw	a5,672(a1)
	.loc 1 394 989 is_stmt 1
	.loc 1 394 1006 is_stmt 0
	li	a2,-2147483648
	sw	a5,1568(a2)
	.loc 1 394 1029 is_stmt 1
	.loc 1 394 1046 is_stmt 0
	li	a3,-2147479552
	sw	zero,-864(a3)
	.loc 1 394 1055 is_stmt 1
.LVL172:
	.loc 1 394 1220
	.loc 1 394 1236 is_stmt 0
	li	a4,-2147483648
	sw	zero,544(a4)
	.loc 1 394 1265 is_stmt 1
	.loc 1 394 1266
	.loc 1 394 1283 is_stmt 0
	li	s6,-2147479552
	li	s4,1536
	.loc 1 394 1339
	li	t5,1036288
	.loc 1 394 1283
	sw	s4,-736(s6)
	.loc 1 394 1322 is_stmt 1
	.loc 1 394 1339 is_stmt 0
	li	a6,-2147479552
	addi	t5,t5,-1889
	sw	t5,-1632(a6)
.LBE139:
.LBB140:
	.loc 1 394 1372 is_stmt 1
.LVL173:
	.loc 1 394 1417
	.loc 1 394 1434 is_stmt 0
	li	t5,4096
	sw	t5,-2016(t4)
	.loc 1 394 1446 is_stmt 1
	.loc 1 394 1463 is_stmt 0
	sw	s9,-1888(t3)
	.loc 1 394 1469 is_stmt 1
	.loc 1 394 1486 is_stmt 0
	lw	s4,32(sp)
	.loc 1 394 1625
	li	t5,64
	.loc 1 394 1486
	sw	s4,-1760(t1)
	.loc 1 394 1514 is_stmt 1
	.loc 1 394 1531 is_stmt 0
	sw	zero,-992(a0)
	.loc 1 394 1543 is_stmt 1
	.loc 1 394 1560 is_stmt 0
	sw	s7,1824(s1)
	.loc 1 394 1608 is_stmt 1
	.loc 1 394 1625 is_stmt 0
	sw	t5,1696(s2)
	.loc 1 394 1646 is_stmt 1
	.loc 1 394 1663 is_stmt 0
	li	t5,383
	sw	t5,1952(s0)
	.loc 1 394 1668 is_stmt 1
	.loc 1 394 1685 is_stmt 0
	sw	zero,-1120(t6)
	.loc 1 394 1688 is_stmt 1
	.loc 1 394 1704 is_stmt 0
	sw	a5,672(a1)
	.loc 1 394 1735 is_stmt 1
	.loc 1 394 1751 is_stmt 0
	sw	s8,1056(a7)
	.loc 1 394 1766 is_stmt 1
	.loc 1 394 1783 is_stmt 0
	sw	t5,1568(a2)
	.loc 1 394 1788 is_stmt 1
	.loc 1 394 1805 is_stmt 0
	sw	zero,-864(a3)
	.loc 1 394 1808 is_stmt 1
	.loc 1 394 1824 is_stmt 0
	sw	a5,928(t2)
	.loc 1 394 1862 is_stmt 1
	.loc 1 394 1878 is_stmt 0
	sw	s5,800(s11)
	.loc 1 394 1889 is_stmt 1
	.loc 1 394 1906 is_stmt 0
	sw	t5,1440(s3)
	.loc 1 394 1911 is_stmt 1
	.loc 1 394 1947 is_stmt 0
	li	s4,524288
	.loc 1 394 1928
	sw	zero,-1248(t0)
	.loc 1 394 1931 is_stmt 1
	.loc 1 394 1947 is_stmt 0
	addi	s4,s4,400
	.loc 1 394 2045
	li	t5,1032192
	.loc 1 394 1947
	sw	s4,544(a4)
	.loc 1 394 2028 is_stmt 1
	.loc 1 394 2045 is_stmt 0
	addi	t5,t5,1181
	sw	t5,-1632(a6)
.LBE140:
	.loc 1 394 2077 is_stmt 1
	.loc 1 394 2078
	.loc 1 394 2094 is_stmt 0 discriminator 4
	lw	s10,64(sp)
	li	s4,-2147483648
	sw	s10,20(s4)
.LBB141:
	.loc 1 394 2196 is_stmt 1 discriminator 4
.LVL174:
	.loc 1 394 2305 is_stmt 0 discriminator 4
	lw	s10,60(sp)
	sw	s10,-2016(t4)
	.loc 1 394 2337 discriminator 4
	sw	zero,-1888(t3)
	.loc 1 394 2360 discriminator 4
	lw	s10,44(sp)
	sw	s10,-1760(t1)
	.loc 1 394 2402 discriminator 4
	lw	s10,40(sp)
	sw	s10,-992(a0)
	.loc 1 394 2256 discriminator 4
	lw	s10,20(sp)
	.loc 1 394 2433 discriminator 4
	sw	s5,1056(a7)
	.loc 1 394 2256 discriminator 4
	addi	t5,s10,-1
	.loc 1 394 2275 discriminator 4
	lw	s10,12(sp)
	sub	t5,t5,s10
.LVL175:
	.loc 1 394 2288 is_stmt 1 discriminator 4
	.loc 1 394 2320 discriminator 4
	.loc 1 394 2343 discriminator 4
	.loc 1 394 2385 discriminator 4
	.loc 1 394 2417 discriminator 4
	.loc 1 394 2444 discriminator 4
	.loc 1 394 2460 is_stmt 0 discriminator 4
	sw	t5,672(a1)
	.loc 1 394 2466 is_stmt 1 discriminator 4
	.loc 1 394 2483 is_stmt 0 discriminator 4
	lw	s7,16(sp)
	.loc 1 394 2635 discriminator 4
	addi	t5,t5,1
.LVL176:
	.loc 1 394 2483 discriminator 4
	sw	s7,1568(a2)
.LVL177:
	.loc 1 394 2498 is_stmt 1 discriminator 4
	.loc 1 394 2515 is_stmt 0 discriminator 4
	sw	s10,-864(a3)
	.loc 1 394 2524 is_stmt 1 discriminator 4
.LVL178:
	.loc 1 394 2557 discriminator 4
	.loc 1 394 2573 is_stmt 0 discriminator 4
	lw	s7,28(sp)
	.loc 1 394 2665 discriminator 4
	li	s10,1036288
	addi	s10,s10,159
	.loc 1 394 2573 discriminator 4
	sw	s7,544(a4)
	.loc 1 394 2605 is_stmt 1 discriminator 4
	.loc 1 394 2606 discriminator 4
	.loc 1 394 2623 is_stmt 0 discriminator 4
	sw	t5,-736(s6)
	.loc 1 394 2648 is_stmt 1 discriminator 4
	.loc 1 394 2665 is_stmt 0 discriminator 4
	sw	s10,-1632(a6)
.LBE141:
.LBB142:
	.loc 1 394 2698 is_stmt 1 discriminator 4
.LVL179:
	.loc 1 394 2886 discriminator 4
	.loc 1 394 2902 is_stmt 0 discriminator 4
	li	t5,192
.LVL180:
	sw	t5,800(s11)
	.loc 1 394 2974 is_stmt 1 discriminator 4
	.loc 1 394 2990 is_stmt 0 discriminator 4
	sw	a5,928(t2)
	.loc 1 394 2996 is_stmt 1 discriminator 4
	.loc 1 394 3013 is_stmt 0 discriminator 4
	li	t5,1535
	sw	t5,1440(s3)
	.loc 1 394 3110 is_stmt 1 discriminator 4
	.loc 1 394 3127 is_stmt 0 discriminator 4
	sw	zero,-1248(t0)
	.loc 1 394 3199 is_stmt 1 discriminator 4
	.loc 1 394 3216 is_stmt 0 discriminator 4
	li	t5,48
	sw	t5,1696(s2)
	.loc 1 394 3270 is_stmt 1 discriminator 4
	.loc 1 394 3287 is_stmt 0 discriminator 4
	sw	s9,1824(s1)
	.loc 1 394 3293 is_stmt 1 discriminator 4
	.loc 1 394 3310 is_stmt 0 discriminator 4
	li	t5,191
	sw	t5,1952(s0)
	.loc 1 394 3386 is_stmt 1 discriminator 4
	.loc 1 394 3403 is_stmt 0 discriminator 4
	sw	zero,-1120(t6)
	.loc 1 394 3457 is_stmt 1 discriminator 4
	.loc 1 394 3514 is_stmt 0 discriminator 4
	li	s7,5
	.loc 1 394 3474 discriminator 4
	sw	s8,-2016(t4)
	.loc 1 394 3497 is_stmt 1 discriminator 4
	.loc 1 394 3514 is_stmt 0 discriminator 4
	sw	s7,-1888(t3)
	.loc 1 394 3520 is_stmt 1 discriminator 4
	.loc 1 394 3537 is_stmt 0 discriminator 4
	li	t3,47
	sw	t3,-1760(t1)
	.loc 1 394 3595 is_stmt 1 discriminator 4
	.loc 1 394 3612 is_stmt 0 discriminator 4
	sw	zero,-992(a0)
	.loc 1 394 3635 is_stmt 1 discriminator 4
	.loc 1 394 3651 is_stmt 0 discriminator 4
	sw	s5,1056(a7)
	.loc 1 394 3662 is_stmt 1 discriminator 4
	.loc 1 394 3678 is_stmt 0 discriminator 4
	sw	a5,672(a1)
	.loc 1 394 3684 is_stmt 1 discriminator 4
	.loc 1 394 3701 is_stmt 0 discriminator 4
	sw	a5,1568(a2)
	.loc 1 394 3724 is_stmt 1 discriminator 4
	.loc 1 394 3741 is_stmt 0 discriminator 4
	sw	zero,-864(a3)
	.loc 1 394 3750 is_stmt 1 discriminator 4
.LVL181:
	.loc 1 394 3915 discriminator 4
	.loc 1 394 3978 is_stmt 0 discriminator 4
	li	a7,1036288
	.loc 1 394 3931 discriminator 4
	sw	zero,544(a4)
	.loc 1 394 3960 is_stmt 1 discriminator 4
	.loc 1 394 3961 discriminator 4
	.loc 1 394 3978 is_stmt 0 discriminator 4
	addi	a7,a7,-1891
.LBE142:
	.loc 1 394 4027 discriminator 4
	li	a5,393216
	addi	a5,a5,17
.LBB143:
	.loc 1 394 3978 discriminator 4
	sw	a7,-1632(a6)
.LBE143:
	.loc 1 394 4010 is_stmt 1 discriminator 4
	.loc 1 394 4011 discriminator 4
	.loc 1 394 4027 is_stmt 0 discriminator 4
	sw	a5,20(s4)
.LVL182:
.L57:
	.loc 1 363 21 is_stmt 1
	.loc 1 363 12 is_stmt 0
	lw	a5,84(sp)
	.loc 1 362 12
	lw	a3,0(sp)
	lw	a2,12(sp)
	.loc 1 363 12
	lw	a4,4(sp)
	.loc 1 362 12
	add	a3,a3,a5
	sw	a3,0(sp)
	lw	a3,88(sp)
	.loc 1 363 12
	add	a4,a4,a5
	sw	a4,4(sp)
.LVL183:
	.loc 1 362 12 is_stmt 1
	add	a3,a3,a2
	sw	a3,20(sp)
	lw	a2,16(sp)
	lw	a3,8(sp)
	sub	a2,a2,a3
	sw	a2,16(sp)
	lw	a2,28(sp)
	add	a3,a2,a3
	sw	a3,28(sp)
	lw	a3,24(sp)
	sub	a5,a3,a5
	sw	a5,24(sp)
	lw	a5,80(sp)
	ble	a5,a4,.L140
.LVL184:
.L59:
.LBB144:
	.loc 1 366 1959 is_stmt 0
	lw	a5,96(sp)
	lw	a4,20(sp)
	lw	a3,8(sp)
	addi	s3,a5,-1
	lw	a5,4(sp)
	sub	a4,a4,a3
	sw	a4,12(sp)
.LVL185:
.LBE144:
	.loc 1 364 10 is_stmt 1
.LBB145:
	.loc 1 366 1982 is_stmt 0
	lw	a4,0(sp)
.LVL186:
	.loc 1 366 1959
	add	s3,s3,a5
.LBE145:
	.loc 1 371 15
	li	a5,2
.LVL187:
.LBB146:
	.loc 1 366 1982
	sub	s3,s3,a4
.LBE146:
	.loc 1 371 13 is_stmt 1
	.loc 1 371 15 is_stmt 0
	lw	a4,36(sp)
	bne	a4,a5,.L54
	.loc 1 372 16 is_stmt 1
.LBB147:
	.loc 1 375 211 is_stmt 0
	li	s1,-2147483648
	li	s7,64
	sw	s7,800(s1)
.LVL188:
	.loc 1 375 303
	li	a5,7
	li	t2,-2147483648
	sw	a5,928(t2)
	.loc 1 375 326
	li	s0,-2147483648
	li	a4,511
	sw	a4,1440(s0)
	.loc 1 375 444
	li	t0,-2147479552
	sw	zero,-1248(t0)
	.loc 1 375 537
	li	s10,-2147483648
	li	a3,16
	sw	a3,1696(s10)
	.loc 1 375 612
	li	s9,-2147483648
	li	s6,3
	sw	s6,1824(s9)
	.loc 1 375 635
	li	s8,-2147483648
	li	a2,63
	sw	a2,1952(s8)
	.loc 1 375 732
	li	t6,-2147479552
	sw	zero,-1120(t6)
	.loc 1 375 807
	li	t5,-2147479552
	li	s5,8
	sw	s5,-2016(t5)
	.loc 1 375 847
	li	a4,1
	li	t1,-2147479552
	sw	a4,-1888(t1)
	.loc 1 375 870
	li	t4,-2147479552
	li	a1,15
	sw	a1,-1760(t4)
	.loc 1 375 949
	li	a7,-2147479552
	sw	zero,-992(a7)
	.loc 1 375 988
	li	a6,-2147483648
	sw	a4,1056(a6)
	.loc 1 375 1015
	li	a0,-2147483648
	sw	a5,672(a0)
	.loc 1 375 1038
	li	a1,-2147483648
	sw	a5,1568(a1)
	.loc 1 375 1078
	li	a2,-2147479552
	sw	zero,-864(a2)
	.loc 1 375 1276
	li	a3,-2147483648
	sw	zero,544(a3)
	.loc 1 375 1323
	li	s4,-2147479552
	li	s11,512
	.loc 1 375 1379
	li	ra,1036288
	.loc 1 375 1323
	sw	s11,-736(s4)
	.loc 1 375 1379
	li	t3,-2147479552
	addi	ra,ra,-1889
	sw	ra,-1632(t3)
.LBE147:
.LBB148:
	.loc 1 375 1540
	lw	ra,104(sp)
	sw	ra,-2016(t5)
	.loc 1 375 1574
	sw	zero,-1888(t1)
	.loc 1 375 1597
	lw	ra,128(sp)
	sw	ra,-1760(t4)
	.loc 1 375 1643
	lw	ra,132(sp)
	sw	ra,-992(a7)
	.loc 1 375 1676
	sw	a4,1056(a6)
	.loc 1 375 1703
	sw	s3,672(a0)
	.loc 1 375 1726
	lw	s2,24(sp)
	.loc 1 375 1869
	li	s3,1036288
	addi	s3,s3,157
	.loc 1 375 1726
	sw	s2,1568(a1)
.LBE148:
.LBB149:
	.loc 1 373 2353
	lw	s2,136(sp)
	add	ra,s2,ra
.LBE149:
.LBB150:
	.loc 1 375 1760
	lw	s2,0(sp)
.LBE150:
.LBB151:
	.loc 1 373 2353
	add	ra,ra,s2
.LBE151:
.LBB152:
	.loc 1 375 1760
	sw	s2,-864(a2)
.LBE152:
.LBB153:
	.loc 1 375 3 is_stmt 1
.LVL189:
	.loc 1 375 195
	.loc 1 375 287
	.loc 1 375 309
	.loc 1 375 427
	.loc 1 375 520
	.loc 1 375 595
	.loc 1 375 618
	.loc 1 375 715
	.loc 1 375 790
	.loc 1 375 830
	.loc 1 375 853
	.loc 1 375 932
	.loc 1 375 972
	.loc 1 375 999
	.loc 1 375 1021
	.loc 1 375 1061
	.loc 1 375 1087
	.loc 1 375 1260
	.loc 1 375 1305
	.loc 1 375 1306
	.loc 1 375 1362
.LBE153:
.LBB154:
	.loc 1 375 1412
	.loc 1 375 1523
	.loc 1 375 1557
	.loc 1 375 1580
	.loc 1 375 1626
	.loc 1 375 1660
	.loc 1 375 1687
	.loc 1 375 1709
	.loc 1 375 1743
	.loc 1 375 1769
	.loc 1 375 1804
	.loc 1 375 1820 is_stmt 0
	sw	ra,544(a3)
.LVL190:
	.loc 1 375 1851 is_stmt 1
	.loc 1 375 1852
.LBE154:
	.loc 1 375 1918 is_stmt 0
	li	s2,393216
.LBB155:
	.loc 1 375 1869
	sw	s3,-1632(t3)
.LBE155:
	.loc 1 375 1901 is_stmt 1
	.loc 1 375 1902
	.loc 1 375 1918 is_stmt 0
	li	ra,-2147483648
	addi	s2,s2,17
	sw	s2,20(ra)
.LBB156:
	.loc 1 375 2008 is_stmt 1
.LVL191:
	.loc 1 375 2053
	.loc 1 375 2070 is_stmt 0
	li	s3,4096
	sw	s3,-2016(t5)
	.loc 1 375 2082 is_stmt 1
	.loc 1 375 2099 is_stmt 0
	sw	s6,-1888(t1)
	.loc 1 375 2105 is_stmt 1
	.loc 1 375 2122 is_stmt 0
	lw	s3,32(sp)
	sw	s3,-1760(t4)
	.loc 1 375 2150 is_stmt 1
	.loc 1 375 2167 is_stmt 0
	sw	zero,-992(a7)
	.loc 1 375 2179 is_stmt 1
	.loc 1 375 2196 is_stmt 0
	sw	a4,1824(s9)
	.loc 1 375 2248 is_stmt 1
	.loc 1 375 2265 is_stmt 0
	sw	s7,1696(s10)
	.loc 1 375 2286 is_stmt 1
	.loc 1 375 2303 is_stmt 0
	li	s3,383
	sw	s3,1952(s8)
	.loc 1 375 2308 is_stmt 1
	.loc 1 375 2325 is_stmt 0
	sw	zero,-1120(t6)
	.loc 1 375 2328 is_stmt 1
	.loc 1 375 2344 is_stmt 0
	sw	a5,672(a0)
	.loc 1 375 2375 is_stmt 1
	.loc 1 375 2391 is_stmt 0
	sw	s5,1056(a6)
	.loc 1 375 2406 is_stmt 1
	.loc 1 375 2423 is_stmt 0
	sw	s3,1568(a1)
	.loc 1 375 2428 is_stmt 1
	.loc 1 375 2445 is_stmt 0
	sw	zero,-864(a2)
	.loc 1 375 2448 is_stmt 1
	.loc 1 375 2464 is_stmt 0
	sw	a5,928(t2)
	.loc 1 375 2502 is_stmt 1
	.loc 1 375 2518 is_stmt 0
	sw	a4,800(s1)
	.loc 1 375 2529 is_stmt 1
	.loc 1 375 2546 is_stmt 0
	sw	s3,1440(s0)
	.loc 1 375 2551 is_stmt 1
	.loc 1 375 2587 is_stmt 0
	li	s3,524288
	.loc 1 375 2568
	sw	zero,-1248(t0)
	.loc 1 375 2571 is_stmt 1
	.loc 1 375 2587 is_stmt 0
	addi	s3,s3,16
	sw	s3,544(a3)
	.loc 1 375 2714 is_stmt 1
	.loc 1 375 2876 is_stmt 0
	li	s3,1032192
	.loc 1 375 2731
	sw	s11,-736(s4)
	.loc 1 375 2859 is_stmt 1
	.loc 1 375 2876 is_stmt 0
	addi	s3,s3,1183
	sw	s3,-1632(t3)
.LBE156:
.LBB157:
	.loc 1 375 2909 is_stmt 1
.LVL192:
	.loc 1 375 3101
	.loc 1 375 3117 is_stmt 0
	sw	s7,800(s1)
	.loc 1 375 3193 is_stmt 1
	.loc 1 375 3209 is_stmt 0
	sw	a5,928(t2)
	.loc 1 375 3215 is_stmt 1
	.loc 1 375 3232 is_stmt 0
	li	t2,511
	sw	t2,1440(s0)
	.loc 1 375 3333 is_stmt 1
	.loc 1 375 3350 is_stmt 0
	sw	zero,-1248(t0)
	.loc 1 375 3426 is_stmt 1
	.loc 1 375 3443 is_stmt 0
	li	t0,16
	sw	t0,-2016(t5)
	.loc 1 375 3501 is_stmt 1
	.loc 1 375 3518 is_stmt 0
	sw	s6,-1888(t1)
	.loc 1 375 3524 is_stmt 1
	.loc 1 375 3541 is_stmt 0
	li	t1,63
	sw	t1,-1760(t4)
	.loc 1 375 3621 is_stmt 1
	.loc 1 375 3638 is_stmt 0
	sw	zero,-992(a7)
	.loc 1 375 3696 is_stmt 1
	.loc 1 375 3713 is_stmt 0
	sw	s5,1696(s10)
	.loc 1 375 3736 is_stmt 1
	.loc 1 375 3776 is_stmt 0
	li	a7,15
	.loc 1 375 3753
	sw	a4,1824(s9)
	.loc 1 375 3759 is_stmt 1
	.loc 1 375 3776 is_stmt 0
	sw	a7,1952(s8)
	.loc 1 375 3838 is_stmt 1
	.loc 1 375 3855 is_stmt 0
	sw	zero,-1120(t6)
	.loc 1 375 3878 is_stmt 1
	.loc 1 375 3894 is_stmt 0
	sw	a4,1056(a6)
	.loc 1 375 3905 is_stmt 1
	.loc 1 375 3921 is_stmt 0
	sw	a5,672(a0)
	.loc 1 375 3927 is_stmt 1
	.loc 1 375 3944 is_stmt 0
	sw	a5,1568(a1)
	.loc 1 375 3967 is_stmt 1
	.loc 1 375 3984 is_stmt 0
	sw	zero,-864(a2)
	.loc 1 375 3993 is_stmt 1
.LVL193:
	.loc 1 375 0
	li	a5,1036288
	sw	zero,544(a3)
	.loc 1 375 0
	.loc 1 375 0
	addi	a5,a5,-1891
	sw	a5,-1632(t3)
.LBE157:
	.loc 1 375 0
	.loc 1 375 0
	sw	s2,20(ra)
	.loc 1 386 1
	.loc 1 386 2
	.loc 1 386 18 is_stmt 0
	lw	a4,108(sp)
	.loc 1 388 10
	li	a5,-2147483648
	.loc 1 386 18
	sw	a4,20(ra)
	.loc 1 388 10 is_stmt 1
	sw	zero,36(a5)
	.loc 1 388 10
	call	_taskYield
.LVL194:
	.loc 1 388 24 discriminator 1
	.loc 1 390 10
	.loc 1 390 12 is_stmt 0
	lw	a5,76(sp)
	beq	a5,zero,.L55
.LVL195:
.L56:
.LBB158:
	.loc 1 400 3 is_stmt 1
	.loc 1 400 195
	.loc 1 400 211 is_stmt 0
	li	s2,-2147483648
	li	s5,64
	sw	s5,800(s2)
	.loc 1 400 287 is_stmt 1
	.loc 1 400 303 is_stmt 0
	li	a5,7
	li	s1,-2147483648
	sw	a5,928(s1)
	.loc 1 400 309 is_stmt 1
	.loc 1 400 326 is_stmt 0
	li	s11,-2147483648
	li	a4,511
	sw	a4,1440(s11)
	.loc 1 400 427 is_stmt 1
	.loc 1 400 444 is_stmt 0
	li	s0,-2147479552
	sw	zero,-1248(s0)
	.loc 1 400 520 is_stmt 1
	.loc 1 400 537 is_stmt 0
	li	t5,-2147479552
	li	s10,16
	sw	s10,-2016(t5)
	.loc 1 400 595 is_stmt 1
	.loc 1 400 612 is_stmt 0
	li	t4,-2147479552
	li	s4,3
	sw	s4,-1888(t4)
	.loc 1 400 618 is_stmt 1
	.loc 1 400 635 is_stmt 0
	li	t3,-2147479552
	li	a3,63
	sw	a3,-1760(t3)
	.loc 1 400 715 is_stmt 1
	.loc 1 400 732 is_stmt 0
	li	t1,-2147479552
	sw	zero,-992(t1)
	.loc 1 400 790 is_stmt 1
	.loc 1 400 807 is_stmt 0
	li	s9,-2147483648
	li	s3,8
	sw	s3,1696(s9)
	.loc 1 400 830 is_stmt 1
	.loc 1 400 847 is_stmt 0
	li	a4,1
	li	t2,-2147483648
	sw	a4,1824(t2)
	.loc 1 400 853 is_stmt 1
	.loc 1 400 870 is_stmt 0
	li	t0,-2147483648
	li	a2,15
	sw	a2,1952(t0)
	.loc 1 400 932 is_stmt 1
	.loc 1 400 949 is_stmt 0
	li	t6,-2147479552
	sw	zero,-1120(t6)
	.loc 1 400 972 is_stmt 1
	.loc 1 400 988 is_stmt 0
	li	a7,-2147483648
	sw	a4,1056(a7)
	.loc 1 400 999 is_stmt 1
	.loc 1 400 1015 is_stmt 0
	li	a6,-2147483648
	sw	a5,672(a6)
	.loc 1 400 1021 is_stmt 1
	.loc 1 400 1038 is_stmt 0
	li	a0,-2147483648
	sw	a5,1568(a0)
	.loc 1 400 1061 is_stmt 1
	.loc 1 400 1078 is_stmt 0
	li	a1,-2147479552
	sw	zero,-864(a1)
	.loc 1 400 1087 is_stmt 1
.LVL196:
	.loc 1 400 1260
	.loc 1 400 1276 is_stmt 0
	li	a2,-2147483648
	.loc 1 400 1323
	li	s6,-2147479552
	.loc 1 400 1276
	sw	zero,544(a2)
	.loc 1 400 1305 is_stmt 1
	.loc 1 400 1306
	.loc 1 400 1323 is_stmt 0
	addi	s8,s6,-736
	.loc 1 400 1379
	li	s6,1036288
	.loc 1 400 1323
	sw	s8,48(sp)
	.loc 1 400 1379
	mv	s7,s6
	.loc 1 400 1323
	li	s6,512
	sw	s6,0(s8)
	.loc 1 400 1362 is_stmt 1
	.loc 1 400 1379 is_stmt 0
	addi	s7,s7,-1889
	sw	s7,92(sp)
	li	a3,-2147479552
	sw	s7,-1632(a3)
.LBE158:
.LBB159:
	.loc 1 400 1412 is_stmt 1
.LVL197:
	.loc 1 400 1457
	.loc 1 400 1474 is_stmt 0
	li	s6,4096
	sw	s6,-2016(t5)
	.loc 1 400 1486 is_stmt 1
	.loc 1 400 1503 is_stmt 0
	sw	s4,-1888(t4)
	.loc 1 400 1509 is_stmt 1
	.loc 1 400 1526 is_stmt 0
	lw	s6,32(sp)
	.loc 1 400 1991
	li	s7,524288
	addi	s7,s7,400
	.loc 1 400 1526
	sw	s6,-1760(t3)
	.loc 1 400 1554 is_stmt 1
	.loc 1 400 1571 is_stmt 0
	sw	zero,-992(t1)
	.loc 1 400 1583 is_stmt 1
	.loc 1 400 1600 is_stmt 0
	sw	a4,1824(t2)
	.loc 1 400 1652 is_stmt 1
	.loc 1 400 1669 is_stmt 0
	sw	s5,1696(s9)
	.loc 1 400 1690 is_stmt 1
	.loc 1 400 1707 is_stmt 0
	li	s6,383
	sw	s6,1952(t0)
	.loc 1 400 1712 is_stmt 1
	.loc 1 400 1729 is_stmt 0
	sw	zero,-1120(t6)
	.loc 1 400 1732 is_stmt 1
	.loc 1 400 1748 is_stmt 0
	sw	a5,672(a6)
	.loc 1 400 1779 is_stmt 1
	.loc 1 400 1795 is_stmt 0
	sw	s3,1056(a7)
	.loc 1 400 1810 is_stmt 1
	.loc 1 400 1827 is_stmt 0
	sw	s6,1568(a0)
	.loc 1 400 1832 is_stmt 1
	.loc 1 400 1849 is_stmt 0
	sw	zero,-864(a1)
	.loc 1 400 1852 is_stmt 1
	.loc 1 400 1868 is_stmt 0
	sw	a5,928(s1)
	.loc 1 400 1906 is_stmt 1
	.loc 1 400 1922 is_stmt 0
	sw	a4,800(s2)
	.loc 1 400 1933 is_stmt 1
	.loc 1 400 1950 is_stmt 0
	sw	s6,1440(s11)
	.loc 1 400 1955 is_stmt 1
	.loc 1 400 1972 is_stmt 0
	sw	zero,-1248(s0)
	.loc 1 400 1975 is_stmt 1
	.loc 1 400 2136 is_stmt 0
	li	s8,1032192
	.loc 1 400 1991
	sw	s7,544(a2)
	.loc 1 400 2119 is_stmt 1
	.loc 1 400 2136 is_stmt 0
	addi	s8,s8,1181
	sw	s8,100(sp)
	sw	s8,-1632(a3)
.LBE159:
	.loc 1 400 2168 is_stmt 1
	.loc 1 400 2169
	.loc 1 400 2185 is_stmt 0 discriminator 4
	lw	s7,64(sp)
	li	s6,-2147483648
	sw	s6,52(sp)
	sw	s7,20(s6)
.LBB160:
	.loc 1 400 2287 is_stmt 1 discriminator 4
.LVL198:
	.loc 1 400 2396 is_stmt 0 discriminator 4
	lw	s7,60(sp)
.LBE160:
.LBB161:
	.loc 1 400 211
	addi	s2,s2,800
	.loc 1 400 326
	addi	s11,s11,1440
.LBE161:
.LBB162:
	.loc 1 400 2396 discriminator 4
	sw	s7,-2016(t5)
	.loc 1 400 2428 discriminator 4
	sw	zero,-1888(t4)
	.loc 1 400 2451 discriminator 4
	lw	s8,44(sp)
.LBE162:
.LBB163:
	.loc 1 400 807
	addi	s9,s9,1696
	.loc 1 400 870
	addi	t0,t0,1952
.LBE163:
.LBB164:
	.loc 1 400 2451 discriminator 4
	sw	s8,-1760(t3)
	.loc 1 400 2493 discriminator 4
	lw	s8,40(sp)
.LBE164:
.LBB165:
	.loc 1 400 537
	addi	t5,t5,-2016
	.loc 1 400 612
	addi	t4,t4,-1888
.LBE165:
.LBB166:
	.loc 1 400 2493 discriminator 4
	sw	s8,-992(t1)
	.loc 1 400 2347 discriminator 4
	lw	s7,20(sp)
	.loc 1 400 2524 discriminator 4
	sw	a4,1056(a7)
	.loc 1 400 2366 discriminator 4
	lw	s6,12(sp)
	.loc 1 400 2347 discriminator 4
	addi	s8,s7,-1
.LVL199:
	.loc 1 400 2379 is_stmt 1 discriminator 4
	.loc 1 400 2411 discriminator 4
	.loc 1 400 2434 discriminator 4
	.loc 1 400 2476 discriminator 4
	.loc 1 400 2508 discriminator 4
	.loc 1 400 2535 discriminator 4
.LBE166:
.LBB167:
	.loc 1 400 635 is_stmt 0
	addi	t3,t3,-1760
.LBE167:
.LBB168:
	.loc 1 400 2366 discriminator 4
	sub	s8,s8,s6
	.loc 1 400 2551 discriminator 4
	sw	s8,672(a6)
	.loc 1 400 2557 is_stmt 1 discriminator 4
	.loc 1 400 2574 is_stmt 0 discriminator 4
	lw	s7,16(sp)
.LBE168:
.LBB169:
	.loc 1 400 1379
	addi	a3,a3,-1632
	.loc 1 400 732
	addi	t1,t1,-992
.LBE169:
.LBB170:
	.loc 1 400 2574 discriminator 4
	sw	s7,1568(a0)
	.loc 1 400 2589 is_stmt 1 discriminator 4
	.loc 1 400 2606 is_stmt 0 discriminator 4
	sw	s6,12(sp)
	sw	s6,-864(a1)
	.loc 1 400 2615 is_stmt 1 discriminator 4
.LVL200:
	.loc 1 400 2648 discriminator 4
	.loc 1 400 2664 is_stmt 0 discriminator 4
	lw	s7,28(sp)
.LBE170:
.LBB171:
	.loc 1 400 988
	addi	a7,a7,1056
	.loc 1 400 1015
	addi	a6,a6,672
.LBE171:
.LBB172:
	.loc 1 400 2664 discriminator 4
	sw	s7,544(a2)
	.loc 1 400 2696 is_stmt 1 discriminator 4
	.loc 1 400 2697 discriminator 4
	.loc 1 400 2714 is_stmt 0 discriminator 4
	lw	s6,48(sp)
	.loc 1 400 2726 discriminator 4
	sw	s8,68(sp)
	addi	s8,s8,1
	.loc 1 400 2714 discriminator 4
	sw	s8,72(sp)
	.loc 1 400 2756 discriminator 4
	li	s7,1036288
	.loc 1 400 2714 discriminator 4
	sw	s8,0(s6)
	.loc 1 400 2739 is_stmt 1 discriminator 4
	.loc 1 400 2756 is_stmt 0 discriminator 4
	addi	s8,s7,159
	sw	s8,112(sp)
	sw	s8,0(a3)
.LBE172:
.LBB173:
	.loc 1 400 2789 is_stmt 1 discriminator 4
.LVL201:
	.loc 1 400 2981 discriminator 4
	.loc 1 400 2997 is_stmt 0 discriminator 4
	sw	s5,0(s2)
	.loc 1 400 3073 is_stmt 1 discriminator 4
	.loc 1 400 3089 is_stmt 0 discriminator 4
	sw	a5,928(s1)
	.loc 1 400 3095 is_stmt 1 discriminator 4
	.loc 1 400 3112 is_stmt 0 discriminator 4
	li	s8,511
	sw	s8,0(s11)
	.loc 1 400 3213 is_stmt 1 discriminator 4
	.loc 1 400 3230 is_stmt 0 discriminator 4
	sw	zero,-1248(s0)
	.loc 1 400 3306 is_stmt 1 discriminator 4
	.loc 1 400 3323 is_stmt 0 discriminator 4
	sw	s10,0(s9)
	.loc 1 400 3381 is_stmt 1 discriminator 4
	.loc 1 400 3398 is_stmt 0 discriminator 4
	sw	s4,1824(t2)
	.loc 1 400 3404 is_stmt 1 discriminator 4
	.loc 1 400 3421 is_stmt 0 discriminator 4
	li	s8,63
	sw	s8,0(t0)
	.loc 1 400 3501 is_stmt 1 discriminator 4
	.loc 1 400 3518 is_stmt 0 discriminator 4
	sw	zero,-1120(t6)
	.loc 1 400 3576 is_stmt 1 discriminator 4
	.loc 1 400 3593 is_stmt 0 discriminator 4
	sw	s3,0(t5)
	.loc 1 400 3616 is_stmt 1 discriminator 4
	.loc 1 400 3633 is_stmt 0 discriminator 4
	sw	a4,0(t4)
	.loc 1 400 3639 is_stmt 1 discriminator 4
	.loc 1 400 3656 is_stmt 0 discriminator 4
	li	s8,15
	sw	s8,0(t3)
	.loc 1 400 3718 is_stmt 1 discriminator 4
	.loc 1 400 3735 is_stmt 0 discriminator 4
	sw	zero,0(t1)
	.loc 1 400 3758 is_stmt 1 discriminator 4
	.loc 1 400 3774 is_stmt 0 discriminator 4
	sw	a4,0(a7)
	.loc 1 400 3785 is_stmt 1 discriminator 4
	.loc 1 400 3801 is_stmt 0 discriminator 4
	sw	a5,0(a6)
	.loc 1 400 3807 is_stmt 1 discriminator 4
	.loc 1 400 3824 is_stmt 0 discriminator 4
	sw	a5,1568(a0)
	.loc 1 400 3847 is_stmt 1 discriminator 4
	.loc 1 400 3864 is_stmt 0 discriminator 4
	sw	zero,-864(a1)
	.loc 1 400 3873 is_stmt 1 discriminator 4
.LVL202:
	.loc 1 400 4046 discriminator 4
	.loc 1 400 0 is_stmt 0 discriminator 4
	li	s10,1036288
	.loc 1 400 4062 discriminator 4
	sw	zero,544(a2)
	.loc 1 400 4091 is_stmt 1 discriminator 4
	.loc 1 400 4092 discriminator 4
	.loc 1 400 0 is_stmt 0 discriminator 4
	addi	s10,s10,-1891
	sw	s10,116(sp)
	sw	s10,0(a3)
.LBE173:
	.loc 1 400 0 is_stmt 1 discriminator 4
	.loc 1 400 0 discriminator 4
	lw	s7,52(sp)
	li	s8,393216
	addi	s8,s8,17
	sw	s8,20(s7)
	.loc 1 402 13
	.loc 1 402 15 is_stmt 0
	lw	s10,76(sp)
	.loc 1 400 2185 discriminator 4
	addi	s7,s7,20
	mv	s6,s7
	.loc 1 402 15
	li	s7,2
.LBB174:
	.loc 1 400 1038
	addi	a0,a0,1568
	.loc 1 400 1078
	addi	a1,a1,-864
	.loc 1 400 1276
	addi	a2,a2,544
	.loc 1 400 303
	addi	s1,s1,928
	.loc 1 400 444
	addi	s0,s0,-1248
	.loc 1 400 847
	addi	t2,t2,1824
	.loc 1 400 949
	addi	t6,t6,-1120
.LBE174:
	.loc 1 402 15
	beq	s10,s7,.L57
	.loc 1 403 16 is_stmt 1
.LBB175:
	.loc 1 407 3
.LVL203:
	.loc 1 407 195
	.loc 1 407 211 is_stmt 0
	sw	s5,0(s2)
	.loc 1 407 287 is_stmt 1
	.loc 1 407 303 is_stmt 0
	sw	a5,0(s1)
	.loc 1 407 309 is_stmt 1
	.loc 1 407 326 is_stmt 0
	li	s10,511
	sw	s10,0(s11)
	.loc 1 407 427 is_stmt 1
	.loc 1 407 444 is_stmt 0
	sw	zero,0(s0)
	.loc 1 407 520 is_stmt 1
	.loc 1 407 537 is_stmt 0
	li	s10,16
	sw	s10,0(t5)
	.loc 1 407 595 is_stmt 1
	.loc 1 407 612 is_stmt 0
	sw	s4,0(t4)
	.loc 1 407 618 is_stmt 1
	.loc 1 407 635 is_stmt 0
	li	s10,63
	sw	s10,0(t3)
	.loc 1 407 715 is_stmt 1
	.loc 1 407 732 is_stmt 0
	sw	zero,0(t1)
	.loc 1 407 790 is_stmt 1
	.loc 1 407 807 is_stmt 0
	sw	s3,0(s9)
	.loc 1 407 830 is_stmt 1
	.loc 1 407 847 is_stmt 0
	sw	a4,0(t2)
	.loc 1 407 853 is_stmt 1
	.loc 1 407 870 is_stmt 0
	li	s10,15
	sw	s10,0(t0)
	.loc 1 407 932 is_stmt 1
	.loc 1 407 949 is_stmt 0
	sw	zero,0(t6)
	.loc 1 407 972 is_stmt 1
	.loc 1 407 988 is_stmt 0
	sw	a4,0(a7)
	.loc 1 407 999 is_stmt 1
	.loc 1 407 1015 is_stmt 0
	sw	a5,0(a6)
	.loc 1 407 1021 is_stmt 1
	.loc 1 407 1038 is_stmt 0
	sw	a5,0(a0)
	.loc 1 407 1061 is_stmt 1
	.loc 1 407 1078 is_stmt 0
	sw	zero,0(a1)
	.loc 1 407 1087 is_stmt 1
.LVL204:
	.loc 1 407 1260
	.loc 1 407 1276 is_stmt 0
	sw	zero,0(a2)
	.loc 1 407 1305 is_stmt 1
	.loc 1 407 1306
	.loc 1 407 1323 is_stmt 0
	lw	s10,48(sp)
	li	s7,512
	sw	s7,0(s10)
	.loc 1 407 1362 is_stmt 1
	.loc 1 407 1379 is_stmt 0
	lw	s7,92(sp)
	sw	s7,0(a3)
.LBE175:
.LBB176:
	.loc 1 407 1412 is_stmt 1
.LVL205:
	.loc 1 407 1457
	.loc 1 407 1474 is_stmt 0
	li	s7,4096
	sw	s7,0(t5)
	.loc 1 407 1486 is_stmt 1
	.loc 1 407 1503 is_stmt 0
	sw	s4,0(t4)
	.loc 1 407 1509 is_stmt 1
	.loc 1 407 1526 is_stmt 0
	lw	s10,32(sp)
	.loc 1 407 1707
	li	s7,383
	.loc 1 407 1526
	sw	s10,0(t3)
	.loc 1 407 1554 is_stmt 1
	.loc 1 407 1571 is_stmt 0
	sw	zero,0(t1)
	.loc 1 407 1583 is_stmt 1
	.loc 1 407 1600 is_stmt 0
	sw	a4,0(t2)
	.loc 1 407 1652 is_stmt 1
	.loc 1 407 1669 is_stmt 0
	sw	s5,0(s9)
	.loc 1 407 1690 is_stmt 1
	.loc 1 407 1707 is_stmt 0
	sw	s7,0(t0)
	.loc 1 407 1712 is_stmt 1
	.loc 1 407 1729 is_stmt 0
	sw	zero,0(t6)
	.loc 1 407 1732 is_stmt 1
	.loc 1 407 1748 is_stmt 0
	sw	a5,0(a6)
	.loc 1 407 1779 is_stmt 1
	.loc 1 407 1795 is_stmt 0
	sw	s3,0(a7)
	.loc 1 407 1810 is_stmt 1
	.loc 1 407 1827 is_stmt 0
	sw	s7,0(a0)
	.loc 1 407 1832 is_stmt 1
	.loc 1 407 1849 is_stmt 0
	sw	zero,0(a1)
	.loc 1 407 1852 is_stmt 1
	.loc 1 407 1868 is_stmt 0
	sw	a5,0(s1)
	.loc 1 407 1906 is_stmt 1
	.loc 1 407 1922 is_stmt 0
	sw	a4,0(s2)
	.loc 1 407 1933 is_stmt 1
	.loc 1 407 1950 is_stmt 0
	sw	s7,0(s11)
	.loc 1 407 1955 is_stmt 1
	.loc 1 407 1991 is_stmt 0
	li	s10,524288
	.loc 1 407 1972
	sw	zero,0(s0)
	.loc 1 407 1975 is_stmt 1
	.loc 1 407 1991 is_stmt 0
	addi	s10,s10,528
	sw	s10,0(a2)
	.loc 1 407 2119 is_stmt 1
	.loc 1 407 2136 is_stmt 0
	lw	s10,100(sp)
	sw	s10,0(a3)
.LBE176:
	.loc 1 407 2168 is_stmt 1
	.loc 1 407 2169
	.loc 1 407 2185 is_stmt 0 discriminator 4
	lw	s10,64(sp)
	sw	s10,0(s6)
.LBB177:
	.loc 1 407 2287 is_stmt 1 discriminator 4
.LVL206:
	.loc 1 407 2379 discriminator 4
	.loc 1 407 2396 is_stmt 0 discriminator 4
	lw	s7,60(sp)
	sw	s7,0(t5)
	.loc 1 407 2411 is_stmt 1 discriminator 4
	.loc 1 407 2428 is_stmt 0 discriminator 4
	sw	zero,0(t4)
	.loc 1 407 2434 is_stmt 1 discriminator 4
	.loc 1 407 2451 is_stmt 0 discriminator 4
	lw	s10,44(sp)
	sw	s10,0(t3)
	.loc 1 407 2476 is_stmt 1 discriminator 4
	.loc 1 407 2493 is_stmt 0 discriminator 4
	lw	s10,40(sp)
	sw	s10,0(t1)
	.loc 1 407 2508 is_stmt 1 discriminator 4
	.loc 1 407 2524 is_stmt 0 discriminator 4
	sw	a4,0(a7)
	.loc 1 407 2535 is_stmt 1 discriminator 4
	.loc 1 407 2551 is_stmt 0 discriminator 4
	lw	s10,68(sp)
	sw	s10,0(a6)
	.loc 1 407 2557 is_stmt 1 discriminator 4
	.loc 1 407 2574 is_stmt 0 discriminator 4
	lw	s10,16(sp)
	sw	s10,0(a0)
	.loc 1 407 2589 is_stmt 1 discriminator 4
	.loc 1 407 2606 is_stmt 0 discriminator 4
	lw	s7,12(sp)
	sw	s7,0(a1)
	.loc 1 407 2615 is_stmt 1 discriminator 4
.LVL207:
	.loc 1 407 2648 discriminator 4
	lw	s10,148(sp)
	lw	s7,20(sp)
	add	s7,s10,s7
	.loc 1 407 2664 is_stmt 0 discriminator 4
	sw	s7,0(a2)
	.loc 1 407 2697 is_stmt 1 discriminator 4
	.loc 1 407 2698 discriminator 4
	.loc 1 407 2715 is_stmt 0 discriminator 4
	lw	s7,72(sp)
	lw	s10,48(sp)
	sw	s7,0(s10)
	.loc 1 407 2740 is_stmt 1 discriminator 4
	.loc 1 407 2757 is_stmt 0 discriminator 4
	lw	s10,112(sp)
	sw	s10,0(a3)
.LBE177:
.LBB178:
	.loc 1 407 2790 is_stmt 1 discriminator 4
.LVL208:
	.loc 1 407 2982 discriminator 4
	.loc 1 407 2998 is_stmt 0 discriminator 4
	sw	s5,0(s2)
	.loc 1 407 3074 is_stmt 1 discriminator 4
	.loc 1 407 3113 is_stmt 0 discriminator 4
	li	s10,511
	.loc 1 407 3090 discriminator 4
	sw	a5,0(s1)
	.loc 1 407 3096 is_stmt 1 discriminator 4
	.loc 1 407 3113 is_stmt 0 discriminator 4
	sw	s10,0(s11)
	.loc 1 407 3214 is_stmt 1 discriminator 4
	.loc 1 407 3231 is_stmt 0 discriminator 4
	sw	zero,0(s0)
	.loc 1 407 3307 is_stmt 1 discriminator 4
	.loc 1 407 3324 is_stmt 0 discriminator 4
	li	s10,16
	sw	s10,0(s9)
	.loc 1 407 3382 is_stmt 1 discriminator 4
	.loc 1 407 3399 is_stmt 0 discriminator 4
	sw	s4,0(t2)
	.loc 1 407 3405 is_stmt 1 discriminator 4
	.loc 1 407 3422 is_stmt 0 discriminator 4
	li	s10,63
	sw	s10,0(t0)
	.loc 1 407 3502 is_stmt 1 discriminator 4
	.loc 1 407 3519 is_stmt 0 discriminator 4
	sw	zero,0(t6)
	.loc 1 407 3577 is_stmt 1 discriminator 4
	.loc 1 407 3594 is_stmt 0 discriminator 4
	sw	s3,0(t5)
	.loc 1 407 3617 is_stmt 1 discriminator 4
	.loc 1 407 3634 is_stmt 0 discriminator 4
	sw	a4,0(t4)
	.loc 1 407 3640 is_stmt 1 discriminator 4
	.loc 1 407 3657 is_stmt 0 discriminator 4
	li	s10,15
	sw	s10,0(t3)
	.loc 1 407 3719 is_stmt 1 discriminator 4
	.loc 1 407 3736 is_stmt 0 discriminator 4
	sw	zero,0(t1)
	.loc 1 407 3759 is_stmt 1 discriminator 4
	.loc 1 407 3775 is_stmt 0 discriminator 4
	sw	a4,0(a7)
	.loc 1 407 3786 is_stmt 1 discriminator 4
	.loc 1 407 3802 is_stmt 0 discriminator 4
	sw	a5,0(a6)
	.loc 1 407 3808 is_stmt 1 discriminator 4
	.loc 1 407 3825 is_stmt 0 discriminator 4
	sw	a5,0(a0)
	.loc 1 407 3848 is_stmt 1 discriminator 4
	.loc 1 407 3865 is_stmt 0 discriminator 4
	sw	zero,0(a1)
	.loc 1 407 3874 is_stmt 1 discriminator 4
.LVL209:
	.loc 1 407 4047 discriminator 4
	.loc 1 407 4063 is_stmt 0 discriminator 4
	sw	zero,0(a2)
	.loc 1 407 4092 is_stmt 1 discriminator 4
	.loc 1 407 4093 discriminator 4
	.loc 1 407 3657 is_stmt 0 discriminator 4
	mv	s7,s10
	.loc 1 407 0 discriminator 4
	lw	s10,116(sp)
	sw	s10,0(a3)
.LBE178:
	.loc 1 407 0 is_stmt 1 discriminator 4
	.loc 1 407 0 discriminator 4
	sw	s6,52(sp)
	sw	s8,0(s6)
.LBB179:
	.loc 1 408 3
.LVL210:
	.loc 1 408 195
	.loc 1 408 211 is_stmt 0
	sw	s5,0(s2)
	.loc 1 408 287 is_stmt 1
	.loc 1 408 303 is_stmt 0
	sw	a5,0(s1)
	.loc 1 408 309 is_stmt 1
	.loc 1 408 326 is_stmt 0
	li	s10,511
	sw	s10,0(s11)
	.loc 1 408 427 is_stmt 1
	.loc 1 408 444 is_stmt 0
	sw	zero,0(s0)
	.loc 1 408 520 is_stmt 1
	.loc 1 408 537 is_stmt 0
	li	s10,16
	sw	s10,0(t5)
	.loc 1 408 595 is_stmt 1
	.loc 1 408 612 is_stmt 0
	sw	s4,0(t4)
	.loc 1 408 618 is_stmt 1
	.loc 1 408 635 is_stmt 0
	li	s10,63
	sw	s10,0(t3)
	.loc 1 408 715 is_stmt 1
	.loc 1 408 732 is_stmt 0
	sw	zero,0(t1)
	.loc 1 408 790 is_stmt 1
	.loc 1 408 807 is_stmt 0
	sw	s3,0(s9)
	.loc 1 408 830 is_stmt 1
	.loc 1 408 847 is_stmt 0
	sw	a4,0(t2)
	.loc 1 408 853 is_stmt 1
	.loc 1 408 870 is_stmt 0
	sw	s7,0(t0)
	.loc 1 408 932 is_stmt 1
	.loc 1 408 949 is_stmt 0
	sw	zero,0(t6)
	.loc 1 408 972 is_stmt 1
	.loc 1 408 988 is_stmt 0
	sw	a4,0(a7)
	.loc 1 408 999 is_stmt 1
	.loc 1 408 1015 is_stmt 0
	sw	a5,0(a6)
	.loc 1 408 1021 is_stmt 1
	.loc 1 408 1038 is_stmt 0
	sw	a5,0(a0)
	.loc 1 408 1061 is_stmt 1
	.loc 1 408 1078 is_stmt 0
	sw	zero,0(a1)
	.loc 1 408 1087 is_stmt 1
.LVL211:
	.loc 1 408 1260
	.loc 1 408 1276 is_stmt 0
	sw	zero,0(a2)
	.loc 1 408 1305 is_stmt 1
	.loc 1 408 1306
	.loc 1 408 1323 is_stmt 0
	lw	s10,48(sp)
	li	s7,512
.LBE179:
.LBB180:
	.loc 1 408 1707
	li	s6,383
.LBE180:
.LBB181:
	.loc 1 408 1323
	sw	s7,0(s10)
	.loc 1 408 1362 is_stmt 1
	.loc 1 408 1379 is_stmt 0
	lw	s7,92(sp)
	sw	s7,0(a3)
.LBE181:
.LBB182:
	.loc 1 408 1412 is_stmt 1
.LVL212:
	.loc 1 408 1457
	.loc 1 408 1474 is_stmt 0
	li	s7,4096
	sw	s7,0(t5)
	.loc 1 408 1486 is_stmt 1
	.loc 1 408 1503 is_stmt 0
	sw	s4,0(t4)
	.loc 1 408 1509 is_stmt 1
	.loc 1 408 1526 is_stmt 0
	lw	s7,32(sp)
	sw	s7,0(t3)
	.loc 1 408 1554 is_stmt 1
	.loc 1 408 1571 is_stmt 0
	sw	zero,0(t1)
	.loc 1 408 1583 is_stmt 1
	.loc 1 408 1600 is_stmt 0
	sw	a4,0(t2)
	.loc 1 408 1652 is_stmt 1
	.loc 1 408 1669 is_stmt 0
	sw	s5,0(s9)
	.loc 1 408 1690 is_stmt 1
	.loc 1 408 1707 is_stmt 0
	sw	s6,0(t0)
	.loc 1 408 1712 is_stmt 1
	.loc 1 408 1729 is_stmt 0
	sw	zero,0(t6)
	.loc 1 408 1732 is_stmt 1
	.loc 1 408 1748 is_stmt 0
	sw	a5,0(a6)
	.loc 1 408 1779 is_stmt 1
	.loc 1 408 1795 is_stmt 0
	sw	s3,0(a7)
	.loc 1 408 1810 is_stmt 1
	.loc 1 408 1827 is_stmt 0
	sw	s6,0(a0)
	.loc 1 408 1832 is_stmt 1
	.loc 1 408 1849 is_stmt 0
	sw	zero,0(a1)
	.loc 1 408 1852 is_stmt 1
	.loc 1 408 1868 is_stmt 0
	sw	a5,0(s1)
	.loc 1 408 1906 is_stmt 1
	.loc 1 408 1922 is_stmt 0
	sw	a4,0(s2)
	.loc 1 408 1933 is_stmt 1
	.loc 1 408 1950 is_stmt 0
	sw	s6,0(s11)
	.loc 1 408 1955 is_stmt 1
	.loc 1 408 1991 is_stmt 0
	li	s6,524288
	.loc 1 408 1972
	sw	zero,0(s0)
	.loc 1 408 1975 is_stmt 1
	.loc 1 408 1991 is_stmt 0
	addi	s6,s6,656
	sw	s6,0(a2)
	.loc 1 408 2119 is_stmt 1
	.loc 1 408 2136 is_stmt 0
	lw	s6,100(sp)
	sw	s6,0(a3)
.LBE182:
	.loc 1 408 2168 is_stmt 1
	.loc 1 408 2169
	.loc 1 408 2185 is_stmt 0 discriminator 4
	lw	s6,64(sp)
	lw	s7,52(sp)
	sw	s6,0(s7)
.LBB183:
	.loc 1 408 2287 is_stmt 1 discriminator 4
.LVL213:
	.loc 1 408 2379 discriminator 4
	.loc 1 408 2396 is_stmt 0 discriminator 4
	lw	s6,60(sp)
	sw	s6,0(t5)
	.loc 1 408 2411 is_stmt 1 discriminator 4
	.loc 1 408 2428 is_stmt 0 discriminator 4
	sw	zero,0(t4)
	.loc 1 408 2434 is_stmt 1 discriminator 4
	.loc 1 408 2451 is_stmt 0 discriminator 4
	lw	s6,44(sp)
	sw	s6,0(t3)
	.loc 1 408 2476 is_stmt 1 discriminator 4
	.loc 1 408 2493 is_stmt 0 discriminator 4
	lw	s6,40(sp)
	sw	s6,0(t1)
	.loc 1 408 2508 is_stmt 1 discriminator 4
	.loc 1 408 2524 is_stmt 0 discriminator 4
	sw	a4,0(a7)
	.loc 1 408 2535 is_stmt 1 discriminator 4
	.loc 1 408 2551 is_stmt 0 discriminator 4
	lw	s6,68(sp)
	sw	s6,0(a6)
	.loc 1 408 2557 is_stmt 1 discriminator 4
	.loc 1 408 2574 is_stmt 0 discriminator 4
	lw	s6,16(sp)
	sw	s6,0(a0)
	.loc 1 408 2589 is_stmt 1 discriminator 4
	.loc 1 408 2606 is_stmt 0 discriminator 4
	lw	s7,12(sp)
	sw	s7,0(a1)
	.loc 1 408 2615 is_stmt 1 discriminator 4
.LVL214:
	.loc 1 408 2648 discriminator 4
	lw	s7,20(sp)
	lw	s6,152(sp)
	add	s6,s6,s7
	.loc 1 408 2664 is_stmt 0 discriminator 4
	sw	s6,0(a2)
	.loc 1 408 2697 is_stmt 1 discriminator 4
	.loc 1 408 2698 discriminator 4
	.loc 1 408 2715 is_stmt 0 discriminator 4
	lw	s7,72(sp)
	sw	s7,0(s10)
	.loc 1 408 2740 is_stmt 1 discriminator 4
	.loc 1 408 2757 is_stmt 0 discriminator 4
	lw	s6,112(sp)
.LBE183:
.LBB184:
	.loc 1 408 3113 discriminator 4
	li	s10,511
.LBE184:
.LBB185:
	.loc 1 408 2757 discriminator 4
	sw	s6,0(a3)
.LBE185:
.LBB186:
	.loc 1 408 2790 is_stmt 1 discriminator 4
.LVL215:
	.loc 1 408 2982 discriminator 4
	.loc 1 408 2998 is_stmt 0 discriminator 4
	sw	s5,0(s2)
	.loc 1 408 3074 is_stmt 1 discriminator 4
	.loc 1 408 3090 is_stmt 0 discriminator 4
	sw	a5,0(s1)
	.loc 1 408 3096 is_stmt 1 discriminator 4
	.loc 1 408 3113 is_stmt 0 discriminator 4
	sw	s10,0(s11)
	.loc 1 408 3214 is_stmt 1 discriminator 4
	.loc 1 408 3231 is_stmt 0 discriminator 4
	sw	zero,0(s0)
	.loc 1 408 3307 is_stmt 1 discriminator 4
	.loc 1 408 3324 is_stmt 0 discriminator 4
	li	s10,16
	sw	s10,0(s9)
	.loc 1 408 3382 is_stmt 1 discriminator 4
	.loc 1 408 3399 is_stmt 0 discriminator 4
	sw	s4,0(t2)
	.loc 1 408 3405 is_stmt 1 discriminator 4
	.loc 1 408 3422 is_stmt 0 discriminator 4
	li	s10,63
	sw	s10,0(t0)
	.loc 1 408 3502 is_stmt 1 discriminator 4
	.loc 1 408 3519 is_stmt 0 discriminator 4
	sw	zero,0(t6)
	.loc 1 408 3577 is_stmt 1 discriminator 4
	.loc 1 408 3594 is_stmt 0 discriminator 4
	sw	s3,0(t5)
	.loc 1 408 3617 is_stmt 1 discriminator 4
	.loc 1 408 3634 is_stmt 0 discriminator 4
	sw	a4,0(t4)
	.loc 1 408 3640 is_stmt 1 discriminator 4
	.loc 1 408 3657 is_stmt 0 discriminator 4
	li	s10,15
	sw	s10,0(t3)
	.loc 1 408 3719 is_stmt 1 discriminator 4
	.loc 1 408 3736 is_stmt 0 discriminator 4
	sw	zero,0(t1)
	.loc 1 408 3759 is_stmt 1 discriminator 4
	.loc 1 408 3775 is_stmt 0 discriminator 4
	sw	a4,0(a7)
	.loc 1 408 3786 is_stmt 1 discriminator 4
	.loc 1 408 3802 is_stmt 0 discriminator 4
	sw	a5,0(a6)
	.loc 1 408 3808 is_stmt 1 discriminator 4
	.loc 1 408 3825 is_stmt 0 discriminator 4
	sw	a5,0(a0)
	.loc 1 408 3848 is_stmt 1 discriminator 4
	.loc 1 408 3865 is_stmt 0 discriminator 4
	sw	zero,0(a1)
	.loc 1 408 3874 is_stmt 1 discriminator 4
.LVL216:
	.loc 1 408 4047 discriminator 4
	.loc 1 408 4063 is_stmt 0 discriminator 4
	sw	zero,0(a2)
	.loc 1 408 4092 is_stmt 1 discriminator 4
	.loc 1 408 4093 discriminator 4
	.loc 1 408 0 is_stmt 0 discriminator 4
	lw	s10,116(sp)
	sw	s10,0(a3)
.LBE186:
	.loc 1 408 0 is_stmt 1 discriminator 4
	.loc 1 408 0 discriminator 4
	lw	s6,52(sp)
	sw	s8,0(s6)
	j	.L57
.LVL217:
.L140:
	.loc 1 360 9 is_stmt 0
	lw	a4,208(sp)
.LVL218:
	lw	a5,164(sp)
	lw	s11,160(sp)
	lw	s3,168(sp)
	.loc 1 360 17 is_stmt 1
	.loc 1 360 9 is_stmt 0
	add	a5,a5,a4
.LVL219:
	.loc 1 359 10 is_stmt 1
	lw	a4,44(sp)
	.loc 1 360 9 is_stmt 0
	lw	s8,156(sp)
	sub	a4,a4,s11
	sw	a4,44(sp)
	.loc 1 359 10
	lw	a4,40(sp)
	add	a4,a4,s11
	sw	a4,40(sp)
	lw	a4,56(sp)
	add	a4,a4,s3
	sw	a4,56(sp)
	lw	a4,140(sp)
	sub	a4,a4,s3
	sw	a4,140(sp)
	lw	a4,132(sp)
	add	a4,a4,s3
	sw	a4,132(sp)
	lw	a4,128(sp)
	sub	a4,a4,s3
	sw	a4,128(sp)
	lw	a4,204(sp)
	bgt	a4,a5,.L60
	j	.L1
.LVL220:
.L53:
	sub	a5,s5,s11
	mul	a5,a5,a2
	lw	a4,0(sp)
	lw	a6,8(sp)
	lw	a1,60(sp)
	sub	s0,a4,s4
	add	a4,s7,s11
	addi	a0,a4,-1
	add	a4,s10,a6
	mv	a3,a2
	sw	a4,188(sp)
	addi	a5,a5,-1
	addi	a4,a1,-1
	sw	a5,168(sp)
.LBB187:
	.loc 1 381 2177
	sw	a5,176(sp)
	add	a5,s2,s10
	sw	a4,196(sp)
	sw	a5,192(sp)
	mul	a4,s0,a1
	addi	a5,a3,-1
	sw	a5,200(sp)
	lw	a5,84(sp)
.LBE187:
	.loc 1 373 2446
	li	s6,-2147483648
	.loc 1 358 9
	li	a2,0
	add	a5,s8,a5
	sw	a5,96(sp)
	slli	a5,a6,1
	sw	a5,88(sp)
.LBB188:
	.loc 1 379 3051
	lw	a5,136(sp)
	mul	t1,a3,s11
.LBE188:
	.loc 1 373 2446
	addi	s6,s6,20
.LBB189:
	.loc 1 379 3051
	add	a5,a5,s8
	sw	a5,236(sp)
	addi	a5,a4,-1
	sw	a5,92(sp)
.LBE189:
.LBB190:
	.loc 1 373 2847
	li	a5,16777216
	addi	a5,a5,-1
	sw	a5,56(sp)
	sw	a7,240(sp)
	mul	a6,s7,a1
	sw	t1,128(sp)
.LBE190:
.LBB191:
	.loc 1 381 2177
	sw	t1,180(sp)
	sw	s10,244(sp)
	sw	s9,248(sp)
	sw	s11,252(sp)
	mv	s1,a2
.LVL221:
	mv	s2,a0
.LVL222:
	sw	s6,20(sp)
	mul	a5,a1,s4
	mv	s3,a6
	mul	a1,a3,s7
	sw	a5,68(sp)
	mv	s0,a1
.LVL223:
.L70:
.LBE191:
	.loc 1 362 12 is_stmt 1
	mv	a5,s4
.LVL224:
	.loc 1 360 20 is_stmt 0
	add	s4,s4,s7
.LVL225:
	addi	a3,s4,-1
.LBB192:
	.loc 1 392 2951 discriminator 4
	sub	a3,a3,a5
	lw	a2,8(sp)
	lw	a5,240(sp)
	lw	a1,244(sp)
	lw	a4,252(sp)
	sub	a5,a5,a2
	lw	a2,188(sp)
	add	a4,s1,a4
	sub	a4,s2,a4
	sw	a2,28(sp)
	lw	a2,196(sp)
	sw	a4,140(sp)
.LBE192:
.LBB193:
	.loc 1 366 1959
	lw	a4,96(sp)
	sub	a2,a2,a1
	sw	a2,12(sp)
	lw	a1,192(sp)
	lw	a2,68(sp)
	addi	a4,a4,-1
	sw	a4,100(sp)
	add	a1,a1,a2
	sw	a1,16(sp)
	lw	a1,200(sp)
.LBE193:
.LBB194:
	.loc 1 379 3051
	lw	a4,236(sp)
	add	a5,a5,a2
	sub	a1,a1,s8
	sw	a1,24(sp)
	lw	a1,128(sp)
.LBE194:
.LBB195:
	.loc 1 392 2951 discriminator 4
	sw	a3,112(sp)
.LBE195:
.LBB196:
	.loc 1 366 2207
	sw	s8,0(sp)
.LBE196:
.LBB197:
	.loc 1 379 3051
	add	a4,a4,a1
	sw	a4,172(sp)
.LBE197:
.LBB198:
	.loc 1 392 3353 discriminator 4
	addi	a4,a3,1
.LBE198:
	.loc 1 361 12
	sw	zero,4(sp)
.LBB199:
	.loc 1 392 3353 discriminator 4
	sw	a4,116(sp)
	sw	a5,184(sp)
	sw	s3,208(sp)
	sw	s4,212(sp)
	sw	s8,216(sp)
	sw	s1,220(sp)
	sw	s0,224(sp)
	sw	s2,228(sp)
	sw	s7,232(sp)
	j	.L67
.LVL226:
.L108:
.LBE199:
	.loc 1 378 16 is_stmt 1
.LBB200:
	.loc 1 379 285 is_stmt 0
	li	s8,-2147483648
	li	a3,1536
	sw	a3,32(s8)
.LVL227:
	.loc 1 379 405
	li	s7,-2147483648
	sw	zero,160(s7)
	.loc 1 379 427
	li	s6,-2147483648
	li	a2,1535
	sw	a2,1184(s6)
	.loc 1 379 569
	li	s5,-2147479552
	.loc 1 379 689
	li	a1,-2147483648
	.loc 1 379 569
	sw	zero,-1504(s5)
	.loc 1 379 689
	addi	a1,a1,288
	sw	a1,32(sp)
	li	a0,192
	sw	a0,0(a1)
	.loc 1 379 285
	mv	s2,a3
	.loc 1 379 788
	li	s4,-2147483648
	li	a3,7
	sw	a3,416(s4)
	.loc 1 379 811
	li	s10,-2147483648
	sw	a2,1312(s10)
	.loc 1 379 1035
	li	a6,-2147483648
	.loc 1 379 936
	li	s9,-2147479552
	sw	zero,-1376(s9)
	.loc 1 379 1035
	addi	s11,a6,800
	sw	s11,40(sp)
	li	a0,64
	sw	a0,800(a6)
	.loc 1 379 1126
	li	a2,-2147483648
	sw	a2,44(sp)
	sw	a4,928(a2)
	.loc 1 379 1149
	addi	a6,a6,1440
	sw	a6,48(sp)
	li	a7,191
	sw	a7,0(a6)
	.loc 1 379 1253
	li	a2,-2147479552
	sw	a2,52(sp)
	sw	zero,-1248(a2)
	.loc 1 379 1345
	li	s1,-2147483648
	li	t1,16
	sw	t1,1696(s1)
	.loc 1 379 1420
	li	s0,-2147483648
	li	a7,3
	sw	a7,1824(s0)
	.loc 1 379 1443
	li	ra,-2147483648
	li	t3,63
	sw	t3,1952(ra)
	.loc 1 379 1539
	li	t5,-2147479552
	sw	zero,-1120(t5)
	.loc 1 379 1614
	li	t2,-2147479552
	li	t1,8
	sw	t1,-2016(t2)
	.loc 1 379 1654
	li	a2,1
	li	t4,-2147479552
	sw	a2,-1888(t4)
	.loc 1 379 1677
	li	t0,-2147479552
	li	t6,15
	sw	t6,-1760(t0)
	.loc 1 379 1756
	li	t3,-2147479552
	sw	zero,-992(t3)
	.loc 1 379 1795
	li	t1,-2147483648
	sw	a2,1056(t1)
	.loc 1 379 1822
	li	a7,-2147483648
	sw	a3,672(a7)
	.loc 1 379 1845
	li	a6,-2147483648
	sw	a3,1568(a6)
	.loc 1 379 1885
	li	a0,-2147479552
	.loc 1 379 2267
	li	a1,-2147483648
	.loc 1 379 1885
	sw	zero,-864(a0)
	.loc 1 379 2314
	li	s3,-2147479552
	.loc 1 379 2267
	sw	zero,544(a1)
	.loc 1 379 2314
	sw	s3,72(sp)
	.loc 1 379 2384
	li	s11,1036288
	li	t6,-2147479552
	.loc 1 379 2314
	sw	s2,-736(s3)
	.loc 1 379 2384
	addi	s11,s11,-1889
	sw	s11,-1632(t6)
.LBE200:
.LBB201:
	.loc 1 379 2585
	lw	s2,120(sp)
.LBE201:
.LBB202:
	.loc 1 379 3335
	li	s3,16384
.LBE202:
.LBB203:
	.loc 1 379 2585
	sw	s2,-2016(t2)
	.loc 1 379 2627
	sw	a4,-1888(t4)
	.loc 1 379 2650
	lw	s2,124(sp)
	sw	s2,-1760(t0)
	.loc 1 379 2700
	sw	zero,-992(t3)
	.loc 1 379 2742
	lw	s2,104(sp)
	sw	s2,1696(s1)
	.loc 1 379 2776
	lw	s2,140(sp)
	sw	s2,1824(s0)
	.loc 1 379 2799
	lw	s2,168(sp)
	sw	s2,1952(ra)
	.loc 1 379 2845
	lw	s2,128(sp)
	sw	s2,-1120(t5)
	.loc 1 379 2878
	sw	a2,1056(t1)
	.loc 1 379 2905
	sw	a5,672(a7)
	.loc 1 379 2928
	lw	s2,24(sp)
	sw	s2,1568(a6)
	.loc 1 379 2962
	lw	s2,0(sp)
	sw	s2,-864(a0)
	.loc 1 379 3051
	lw	s2,172(sp)
	lw	a5,4(sp)
	add	s11,s2,a5
.LBE203:
.LBB204:
	.loc 1 379 3 is_stmt 1
.LVL228:
	.loc 1 379 269
	.loc 1 379 389
	.loc 1 379 411
	.loc 1 379 552
	.loc 1 379 673
	.loc 1 379 772
	.loc 1 379 794
	.loc 1 379 919
	.loc 1 379 1019
	.loc 1 379 1110
	.loc 1 379 1132
	.loc 1 379 1236
	.loc 1 379 1328
	.loc 1 379 1403
	.loc 1 379 1426
	.loc 1 379 1522
	.loc 1 379 1597
	.loc 1 379 1637
	.loc 1 379 1660
	.loc 1 379 1739
	.loc 1 379 1779
	.loc 1 379 1806
	.loc 1 379 1828
	.loc 1 379 1868
	.loc 1 379 1894
	.loc 1 379 2251
	.loc 1 379 2296
	.loc 1 379 2297
	.loc 1 379 2367
.LBE204:
.LBB205:
	.loc 1 379 2417
	.loc 1 379 2568
	.loc 1 379 2610
	.loc 1 379 2633
	.loc 1 379 2683
	.loc 1 379 2725
	.loc 1 379 2759
	.loc 1 379 2782
	.loc 1 379 2828
	.loc 1 379 2862
	.loc 1 379 2889
	.loc 1 379 2911
	.loc 1 379 2945
	.loc 1 379 2971
	.loc 1 379 3030
	.loc 1 379 3095 is_stmt 0
	li	a5,1036288
.LVL229:
	.loc 1 379 3046
	sw	s11,544(a1)
.LVL230:
	.loc 1 379 3077 is_stmt 1
	.loc 1 379 3078
	.loc 1 379 3095 is_stmt 0
	addi	a5,a5,157
	sw	a5,-1632(t6)
.LBE205:
	.loc 1 379 3127 is_stmt 1
	.loc 1 379 3128
	.loc 1 379 3144 is_stmt 0
	lw	a5,20(sp)
	li	s2,393216
	addi	s2,s2,17
	sw	s2,132(sp)
	sw	s2,0(a5)
.LBB206:
	.loc 1 379 3234 is_stmt 1
.LVL231:
	.loc 1 379 3318
	.loc 1 379 3335 is_stmt 0
	sw	s3,1696(s1)
	.loc 1 379 3358 is_stmt 1
	.loc 1 379 3375 is_stmt 0
	sw	zero,1824(s0)
	.loc 1 379 3381 is_stmt 1
	.loc 1 379 3398 is_stmt 0
	addi	s3,s3,-1
	sw	s3,1952(ra)
	.loc 1 379 3436 is_stmt 1
	.loc 1 379 3453 is_stmt 0
	sw	zero,-1120(t5)
	.loc 1 379 3476 is_stmt 1
	.loc 1 379 3493 is_stmt 0
	li	a5,4096
	sw	a5,-2016(t2)
	.loc 1 379 3505 is_stmt 1
	.loc 1 379 3522 is_stmt 0
	li	a5,3
	sw	a5,-1888(t4)
	.loc 1 379 3528 is_stmt 1
	.loc 1 379 3545 is_stmt 0
	lw	s3,56(sp)
	.loc 1 379 3654
	li	a5,128
	.loc 1 379 3545
	sw	s3,-1760(t0)
	.loc 1 379 3568 is_stmt 1
	.loc 1 379 3585 is_stmt 0
	sw	zero,-992(t3)
	.loc 1 379 3597 is_stmt 1
	.loc 1 379 3613 is_stmt 0
	sw	a4,416(s4)
	.loc 1 379 3638 is_stmt 1
	.loc 1 379 3654 is_stmt 0
	lw	s11,32(sp)
	sw	a5,0(s11)
	.loc 1 379 3702 is_stmt 1
	.loc 1 379 3719 is_stmt 0
	li	a5,383
	sw	a5,1312(s10)
	.loc 1 379 3724 is_stmt 1
	.loc 1 379 3741 is_stmt 0
	sw	zero,-1376(s9)
	.loc 1 379 3744 is_stmt 1
	.loc 1 379 3760 is_stmt 0
	lw	s2,44(sp)
	sw	a2,928(s2)
	.loc 1 379 3812 is_stmt 1
	.loc 1 379 3828 is_stmt 0
	lw	s11,40(sp)
	li	s2,64
	sw	s2,0(s11)
	.loc 1 379 3849 is_stmt 1
	.loc 1 379 3866 is_stmt 0
	lw	s2,48(sp)
	.loc 1 379 3954
	li	s11,8
	.loc 1 379 3866
	sw	a5,0(s2)
	.loc 1 379 3871 is_stmt 1
	.loc 1 379 3888 is_stmt 0
	lw	s2,52(sp)
	sw	zero,-1248(s2)
	.loc 1 379 3891 is_stmt 1
	.loc 1 379 3907 is_stmt 0
	sw	a3,672(a7)
	.loc 1 379 3938 is_stmt 1
	.loc 1 379 3954 is_stmt 0
	sw	s11,1056(t1)
	.loc 1 379 3969 is_stmt 1
	.loc 1 379 3986 is_stmt 0
	sw	a5,1568(a6)
	.loc 1 379 3991 is_stmt 1
	.loc 1 379 4008 is_stmt 0
	sw	zero,-864(a0)
	.loc 1 379 4011 is_stmt 1
	.loc 1 379 4027 is_stmt 0
	sw	a3,160(s7)
	.loc 1 379 4065 is_stmt 1
	.loc 1 379 4081 is_stmt 0
	sw	a2,32(s8)
	.loc 1 379 4092 is_stmt 1
	.loc 1 379 0 is_stmt 0
	sw	a5,1184(s6)
	.loc 1 379 0 is_stmt 1
	li	s11,524288
	sw	zero,-1504(s5)
	.loc 1 379 0
	addi	s11,s11,16
	sw	s11,544(a1)
	.loc 1 379 0
	lw	s3,72(sp)
	li	s2,1536
	li	a5,1032192
	sw	s2,-736(s3)
	.loc 1 379 0
	addi	a5,a5,1183
	sw	a5,-1632(t6)
.LBE206:
.LBB207:
	.loc 1 379 0
.LVL232:
	.loc 1 379 0
	sw	s2,1696(s1)
	.loc 1 379 0
	sw	zero,1824(s0)
	.loc 1 379 0
	li	a5,1535
	sw	a5,1952(ra)
	.loc 1 379 0
	sw	zero,-1120(t5)
	.loc 1 379 0
	li	t5,192
	sw	t5,32(s8)
	.loc 1 379 0
	sw	a3,160(s7)
	.loc 1 379 0
	sw	a5,1184(s6)
	.loc 1 379 0
	sw	zero,-1504(s5)
	.loc 1 379 0
	lw	a5,32(sp)
	li	s2,64
	li	t5,191
	sw	s2,0(a5)
	.loc 1 379 0
	sw	a4,416(s4)
	.loc 1 379 0
	sw	t5,1312(s10)
	.loc 1 379 0
	sw	zero,-1376(s9)
	.loc 1 379 0
	li	t5,16
	sw	t5,-2016(t2)
	.loc 1 379 0
	li	a4,3
	sw	a4,-1888(t4)
	.loc 1 379 0
	li	t4,63
	sw	t4,-1760(t0)
	.loc 1 379 0
	sw	zero,-992(t3)
	.loc 1 379 0
	lw	s11,40(sp)
	li	a4,8
	sw	a4,0(s11)
	.loc 1 379 0
	lw	a4,44(sp)
	sw	a2,928(a4)
	.loc 1 379 0
	lw	a5,48(sp)
	li	a4,15
	sw	a4,0(a5)
	.loc 1 379 0
	lw	a5,52(sp)
	sw	zero,-1248(a5)
	.loc 1 379 0
	sw	a2,1056(t1)
	.loc 1 379 0
	sw	a3,672(a7)
	.loc 1 379 0
	sw	a3,1568(a6)
	.loc 1 379 0
	sw	zero,-864(a0)
	.loc 1 379 0
.LVL233:
	.loc 1 379 0
	li	a5,1036288
	sw	zero,544(a1)
	.loc 1 379 0
	.loc 1 379 0
	addi	a5,a5,-1891
	sw	a5,-1632(t6)
.LBE207:
	.loc 1 379 0
	.loc 1 379 0
	lw	a5,20(sp)
	lw	s2,132(sp)
	sw	s2,0(a5)
.LVL234:
.L69:
	.loc 1 386 18 is_stmt 0
	lw	a4,108(sp)
	lw	s9,20(sp)
	.loc 1 388 10
	li	a5,-2147483648
.LBB208:
	.loc 1 392 249
	li	s8,-2147483648
.LBE208:
	.loc 1 386 18
	sw	a4,0(s9)
	.loc 1 388 10
	sw	zero,36(a5)
	lw	a4,8(sp)
	lw	a5,28(sp)
	sub	s1,a5,a4
	sw	s1,32(sp)
	.loc 1 386 1 is_stmt 1
	.loc 1 386 2
	.loc 1 388 10
	.loc 1 388 10
	call	_taskYield
.LVL235:
	.loc 1 388 24 discriminator 1
	.loc 1 390 10
	.loc 1 390 12 is_stmt 0
	lw	a4,76(sp)
	beq	a4,zero,.L63
.LBB209:
	.loc 1 398 3 is_stmt 1
.LVL236:
	.loc 1 398 236
	.loc 1 398 253 is_stmt 0
	li	s7,512
	sw	s7,1696(s8)
	.loc 1 398 349 is_stmt 1
	.loc 1 398 366 is_stmt 0
	li	a5,-2147483648
	sw	a5,40(sp)
	sw	zero,1824(a5)
	.loc 1 398 372 is_stmt 1
	.loc 1 398 389 is_stmt 0
	li	t2,-2147483648
	li	t6,511
	sw	t6,1952(t2)
	.loc 1 398 506 is_stmt 1
	.loc 1 398 523 is_stmt 0
	li	t0,-2147479552
	sw	zero,-1120(t0)
	.loc 1 398 619 is_stmt 1
	.loc 1 398 635 is_stmt 0
	li	s6,-2147483648
	li	a5,64
	sw	a5,288(s6)
	.loc 1 398 710 is_stmt 1
	.loc 1 398 726 is_stmt 0
	li	s5,-2147483648
	.loc 1 398 635
	mv	s9,a5
	.loc 1 398 726
	li	a5,7
	sw	a5,416(s5)
	.loc 1 398 732 is_stmt 1
	.loc 1 398 749 is_stmt 0
	li	s4,-2147483648
	sw	t6,1312(s4)
	.loc 1 398 849 is_stmt 1
	.loc 1 398 866 is_stmt 0
	li	s3,-2147479552
	sw	s3,44(sp)
	sw	zero,-1376(s3)
	.loc 1 398 941 is_stmt 1
	.loc 1 398 958 is_stmt 0
	li	t5,-2147479552
	li	a4,16
	sw	a4,-2016(t5)
	.loc 1 398 1016 is_stmt 1
	.loc 1 398 1033 is_stmt 0
	li	t4,-2147479552
	li	s0,3
	sw	s0,-1888(t4)
	.loc 1 398 1039 is_stmt 1
	.loc 1 398 1056 is_stmt 0
	li	t3,-2147479552
	li	a3,63
	sw	a3,-1760(t3)
	.loc 1 398 1135 is_stmt 1
	.loc 1 398 1152 is_stmt 0
	li	t1,-2147479552
	sw	zero,-992(t1)
	.loc 1 398 1210 is_stmt 1
	.loc 1 398 1226 is_stmt 0
	li	s11,-2147483648
	li	a4,8
	sw	a4,800(s11)
	.loc 1 398 1249 is_stmt 1
	.loc 1 398 1265 is_stmt 0
	li	a3,-2147483648
	sw	a3,48(sp)
	li	a4,1
	sw	a4,928(a3)
	.loc 1 398 1271 is_stmt 1
	.loc 1 398 1288 is_stmt 0
	li	s10,-2147483648
	li	a2,15
	sw	a2,1440(s10)
	.loc 1 398 1350 is_stmt 1
	.loc 1 398 1367 is_stmt 0
	li	a3,-2147479552
	sw	a3,52(sp)
	sw	zero,-1248(a3)
	.loc 1 398 1390 is_stmt 1
	.loc 1 398 1406 is_stmt 0
	li	a7,-2147483648
	sw	a4,1056(a7)
	.loc 1 398 1417 is_stmt 1
	.loc 1 398 1433 is_stmt 0
	li	a6,-2147483648
	sw	a5,672(a6)
	.loc 1 398 1439 is_stmt 1
	.loc 1 398 1456 is_stmt 0
	li	a0,-2147483648
	sw	a5,1568(a0)
	.loc 1 398 1479 is_stmt 1
	.loc 1 398 1496 is_stmt 0
	li	a1,-2147479552
	sw	zero,-864(a1)
	.loc 1 398 1505 is_stmt 1
.LVL237:
	.loc 1 398 1772
	.loc 1 398 1788 is_stmt 0
	li	a2,-2147483648
	sw	zero,544(a2)
	.loc 1 398 1817 is_stmt 1
	.loc 1 398 1818
	.loc 1 398 1835 is_stmt 0
	li	s2,-2147479552
	sw	s2,72(sp)
	.loc 1 398 1898
	li	s3,1036288
	.loc 1 398 1835
	sw	s7,-736(s2)
	.loc 1 398 1881 is_stmt 1
	.loc 1 398 1898 is_stmt 0
	addi	s2,s3,-1889
	sw	s2,148(sp)
	sw	s2,-1632(a3)
.LBE209:
.LBB210:
	.loc 1 398 1931 is_stmt 1
.LVL238:
	.loc 1 398 2015
	.loc 1 398 2032 is_stmt 0
	li	s7,16384
	sw	s7,1696(s8)
	.loc 1 398 2055 is_stmt 1
	.loc 1 398 2072 is_stmt 0
	lw	s2,40(sp)
	.loc 1 398 2095
	addi	s3,s7,-1
	.loc 1 398 2190
	li	s7,4096
	.loc 1 398 2072
	sw	zero,1824(s2)
	.loc 1 398 2078 is_stmt 1
	.loc 1 398 2095 is_stmt 0
	sw	s3,1952(t2)
	.loc 1 398 2133 is_stmt 1
	.loc 1 398 2150 is_stmt 0
	sw	zero,-1120(t0)
	.loc 1 398 2173 is_stmt 1
	.loc 1 398 2190 is_stmt 0
	sw	s7,-2016(t5)
	.loc 1 398 2202 is_stmt 1
	.loc 1 398 2219 is_stmt 0
	sw	s0,-1888(t4)
	.loc 1 398 2225 is_stmt 1
	.loc 1 398 2242 is_stmt 0
	lw	s7,56(sp)
.LBE210:
.LBB211:
	.loc 1 398 635
	addi	s6,s6,288
	.loc 1 398 1226
	addi	s11,s11,800
.LBE211:
.LBB212:
	.loc 1 398 2242
	sw	s7,-1760(t3)
	.loc 1 398 2265 is_stmt 1
	.loc 1 398 2282 is_stmt 0
	sw	zero,-992(t1)
	.loc 1 398 2294 is_stmt 1
	.loc 1 398 2310 is_stmt 0
	lw	s2,48(sp)
	.loc 1 398 2504
	li	s7,8
.LBE212:
.LBB213:
	.loc 1 398 1288
	addi	s10,s10,1440
.LBE213:
.LBB214:
	.loc 1 398 2310
	sw	a4,928(s2)
	.loc 1 398 2362 is_stmt 1
	.loc 1 398 2378 is_stmt 0
	sw	s9,0(s11)
	.loc 1 398 2399 is_stmt 1
	.loc 1 398 2416 is_stmt 0
	li	s2,383
	sw	s2,0(s10)
	.loc 1 398 2421 is_stmt 1
	.loc 1 398 2438 is_stmt 0
	lw	s3,52(sp)
	.loc 1 398 2700
	li	s9,524288
	addi	s9,s9,400
	.loc 1 398 2438
	sw	zero,-1248(s3)
	.loc 1 398 2441 is_stmt 1
	.loc 1 398 2457 is_stmt 0
	sw	a5,672(a6)
	.loc 1 398 2488 is_stmt 1
	.loc 1 398 2504 is_stmt 0
	sw	s7,1056(a7)
	.loc 1 398 2519 is_stmt 1
	.loc 1 398 2536 is_stmt 0
	sw	s2,1568(a0)
	.loc 1 398 2541 is_stmt 1
	.loc 1 398 2558 is_stmt 0
	sw	zero,-864(a1)
	.loc 1 398 2561 is_stmt 1
	.loc 1 398 2577 is_stmt 0
	sw	a5,416(s5)
	.loc 1 398 2615 is_stmt 1
	.loc 1 398 2631 is_stmt 0
	sw	a4,0(s6)
	.loc 1 398 2642 is_stmt 1
	.loc 1 398 2659 is_stmt 0
	sw	s2,1312(s4)
	.loc 1 398 2664 is_stmt 1
	.loc 1 398 2681 is_stmt 0
	lw	s7,44(sp)
	.loc 1 398 2867
	li	s3,1032192
.LBE214:
.LBB215:
	.loc 1 398 253
	addi	s8,s8,1696
.LBE215:
.LBB216:
	.loc 1 398 2681
	sw	zero,-1376(s7)
	.loc 1 398 2684 is_stmt 1
	.loc 1 398 2700 is_stmt 0
	sw	s9,544(a2)
	.loc 1 398 2850 is_stmt 1
.LBE216:
.LBB217:
	.loc 1 398 3107 is_stmt 0 discriminator 4
	lw	s7,28(sp)
.LBE217:
.LBB218:
	.loc 1 398 958
	addi	t5,t5,-2016
	.loc 1 398 1033
	addi	t4,t4,-1888
.LBE218:
.LBB219:
	.loc 1 398 3107 discriminator 4
	addi	s9,s7,-1
	sub	s2,s9,s1
.LBE219:
.LBB220:
	.loc 1 398 2867
	addi	s9,s3,1181
	sw	s9,152(sp)
	sw	s9,-1632(a3)
.LBE220:
	.loc 1 398 2899 is_stmt 1
	.loc 1 398 2900
	.loc 1 398 2916 is_stmt 0 discriminator 4
	lw	s7,20(sp)
	lw	s3,64(sp)
.LBB221:
	.loc 1 398 3467 discriminator 4
	addi	s9,s2,1
.LBE221:
.LBB222:
	.loc 1 398 1056
	addi	t3,t3,-1760
.LBE222:
	.loc 1 398 2916 discriminator 4
	sw	s3,0(s7)
.LBB223:
	.loc 1 398 3018 is_stmt 1 discriminator 4
.LVL239:
	.loc 1 398 3120 discriminator 4
	.loc 1 398 3470 is_stmt 0 discriminator 4
	lw	s3,116(sp)
.LBE223:
.LBB224:
	.loc 1 398 1898
	addi	a3,a3,-1632
	.loc 1 398 1152
	addi	t1,t1,-992
.LBE224:
.LBB225:
	.loc 1 398 3470 discriminator 4
	mul	s3,s9,s3
	.loc 1 398 3137 discriminator 4
	lw	s9,60(sp)
.LBE225:
.LBB226:
	.loc 1 398 1406
	addi	a7,a7,1056
	.loc 1 398 1433
	addi	a6,a6,672
.LBE226:
.LBB227:
	.loc 1 398 3137 discriminator 4
	sw	s9,0(t5)
.LVL240:
	.loc 1 398 3152 is_stmt 1 discriminator 4
	.loc 1 398 3169 is_stmt 0 discriminator 4
	lw	s7,112(sp)
.LBE227:
.LBB228:
	.loc 1 398 1456
	addi	a0,a0,1568
	.loc 1 398 1496
	addi	a1,a1,-864
.LBE228:
.LBB229:
	.loc 1 398 3169 discriminator 4
	sw	s7,0(t4)
	.loc 1 398 3175 is_stmt 1 discriminator 4
	.loc 1 398 3192 is_stmt 0 discriminator 4
	lw	s9,92(sp)
.LBE229:
.LBB230:
	.loc 1 398 3779 discriminator 4
	li	s7,512
.LBE230:
.LBB231:
	.loc 1 398 1788
	addi	a2,a2,544
.LBE231:
.LBB232:
	.loc 1 398 3192 discriminator 4
	sw	s9,0(t3)
	.loc 1 398 3217 is_stmt 1 discriminator 4
	.loc 1 398 3234 is_stmt 0 discriminator 4
	lw	s9,68(sp)
.LBE232:
.LBB233:
	.loc 1 398 389
	addi	t2,t2,1952
	.loc 1 398 523
	addi	t0,t0,-1120
.LBE233:
.LBB234:
	.loc 1 398 3234 discriminator 4
	sw	s9,0(t1)
	.loc 1 398 3249 is_stmt 1 discriminator 4
	.loc 1 398 3265 is_stmt 0 discriminator 4
	sw	a4,0(a7)
	.loc 1 398 3276 is_stmt 1 discriminator 4
	.loc 1 398 3292 is_stmt 0 discriminator 4
	sw	s2,144(sp)
	sw	s2,0(a6)
	.loc 1 398 3298 is_stmt 1 discriminator 4
	.loc 1 398 3315 is_stmt 0 discriminator 4
	lw	s2,12(sp)
.LBE234:
.LBB235:
	.loc 1 398 0 discriminator 4
	li	s9,64
.LBE235:
.LBB236:
	.loc 1 398 726
	addi	s5,s5,416
.LBE236:
.LBB237:
	.loc 1 398 3315 discriminator 4
	sw	s2,0(a0)
	.loc 1 398 3330 is_stmt 1 discriminator 4
	.loc 1 398 3347 is_stmt 0 discriminator 4
	sw	s1,32(sp)
	sw	s1,0(a1)
	.loc 1 398 3356 is_stmt 1 discriminator 4
.LVL241:
	.loc 1 398 3389 discriminator 4
	.loc 1 398 3405 is_stmt 0 discriminator 4
	lw	s1,16(sp)
.LBE237:
.LBB238:
	.loc 1 398 749
	addi	s4,s4,1312
.LBE238:
.LBB239:
	.loc 1 398 3405 discriminator 4
	sw	s1,0(a2)
.LVL242:
	.loc 1 398 3437 is_stmt 1 discriminator 4
	.loc 1 398 3438 discriminator 4
	.loc 1 398 3455 is_stmt 0 discriminator 4
	lw	s2,72(sp)
	sw	s3,132(sp)
	.loc 1 398 3497 discriminator 4
	li	s1,1036288
	.loc 1 398 3455 discriminator 4
	sw	s3,-736(s2)
	.loc 1 398 3480 is_stmt 1 discriminator 4
	.loc 1 398 3497 is_stmt 0 discriminator 4
	addi	s1,s1,159
	sw	s1,156(sp)
	sw	s1,0(a3)
.LBE239:
.LBB240:
	.loc 1 398 3530 is_stmt 1 discriminator 4
.LVL243:
	.loc 1 398 3763 discriminator 4
	.loc 1 398 3779 is_stmt 0 discriminator 4
	sw	s7,0(s6)
	.loc 1 398 3875 is_stmt 1 discriminator 4
	.loc 1 398 3891 is_stmt 0 discriminator 4
	sw	zero,0(s5)
	.loc 1 398 3897 is_stmt 1 discriminator 4
	.loc 1 398 3914 is_stmt 0 discriminator 4
	sw	t6,0(s4)
	.loc 1 398 4031 is_stmt 1 discriminator 4
	.loc 1 398 4048 is_stmt 0 discriminator 4
	lw	s1,44(sp)
.LBE240:
.LBB241:
	.loc 1 398 1835
	addi	s2,s2,-736
.LBE241:
.LBB242:
	.loc 1 398 4048 discriminator 4
	sw	zero,-1376(s1)
	.loc 1 398 0 is_stmt 1 discriminator 4
	sw	s9,0(s11)
	.loc 1 398 0 discriminator 4
	lw	s1,48(sp)
	sw	a5,928(s1)
	.loc 1 398 0 discriminator 4
	sw	t6,0(s10)
	.loc 1 398 0 discriminator 4
	lw	s3,52(sp)
	li	s1,16
	sw	zero,-1248(s3)
	.loc 1 398 0 discriminator 4
	sw	s1,0(s8)
	.loc 1 398 0 discriminator 4
	lw	s9,40(sp)
	li	s3,1036288
	addi	s3,s3,-1891
	sw	s0,1824(s9)
	.loc 1 398 0 discriminator 4
	li	s9,63
	sw	s9,0(t2)
	.loc 1 398 0 discriminator 4
	sw	zero,0(t0)
	.loc 1 398 0 discriminator 4
	li	s9,8
	sw	s9,0(t5)
	.loc 1 398 0 discriminator 4
	sw	a4,0(t4)
	.loc 1 398 0 discriminator 4
	li	s9,15
	sw	s9,0(t3)
	.loc 1 398 0 discriminator 4
	sw	zero,0(t1)
	.loc 1 398 0 discriminator 4
	sw	a4,0(a7)
	.loc 1 398 0 discriminator 4
	sw	a5,0(a6)
	.loc 1 398 0 discriminator 4
	sw	a5,0(a0)
	.loc 1 398 0 discriminator 4
	sw	zero,0(a1)
	.loc 1 398 0 discriminator 4
.LVL244:
	.loc 1 398 0 discriminator 4
	sw	zero,0(a2)
	.loc 1 398 0 discriminator 4
	.loc 1 398 0 discriminator 4
	sw	s3,160(sp)
	sw	s3,0(a3)
.LBE242:
	.loc 1 398 0 discriminator 4
	.loc 1 398 0 discriminator 4
	li	s9,393216
	addi	s3,s9,17
	lw	s9,20(sp)
	sw	s3,164(sp)
	sw	s3,0(s9)
	.loc 1 402 13
.LBB243:
	.loc 1 398 366 is_stmt 0
	lw	s3,40(sp)
.LBE243:
	.loc 1 402 15
	li	s9,2
.LBB244:
	.loc 1 398 366
	addi	s3,s3,1824
	sw	s3,40(sp)
	.loc 1 398 866
	lw	s3,44(sp)
	addi	s3,s3,-1376
	sw	s3,44(sp)
	.loc 1 398 1265
	lw	s3,48(sp)
	addi	s3,s3,928
	sw	s3,48(sp)
	.loc 1 398 1367
	lw	s3,52(sp)
	addi	s3,s3,-1248
	sw	s3,52(sp)
	.loc 1 398 1835
	mv	s3,s2
.LBE244:
	.loc 1 402 15
	lw	s2,76(sp)
	beq	s2,s9,.L65
	.loc 1 403 16 is_stmt 1
.LBB245:
	.loc 1 404 3
.LVL245:
	.loc 1 404 236
	.loc 1 404 253 is_stmt 0
	sw	s7,0(s8)
	.loc 1 404 349 is_stmt 1
	.loc 1 404 366 is_stmt 0
	lw	s9,40(sp)
	sw	zero,0(s9)
	.loc 1 404 372 is_stmt 1
	.loc 1 404 389 is_stmt 0
	sw	t6,0(t2)
	.loc 1 404 506 is_stmt 1
	.loc 1 404 523 is_stmt 0
	sw	zero,0(t0)
	.loc 1 404 619 is_stmt 1
	.loc 1 404 635 is_stmt 0
	li	s9,64
	sw	s9,0(s6)
	.loc 1 404 710 is_stmt 1
	.loc 1 404 726 is_stmt 0
	sw	a5,0(s5)
	.loc 1 404 732 is_stmt 1
	.loc 1 404 749 is_stmt 0
	sw	t6,0(s4)
	.loc 1 404 849 is_stmt 1
	.loc 1 404 866 is_stmt 0
	lw	s2,44(sp)
	sw	zero,0(s2)
	.loc 1 404 941 is_stmt 1
	.loc 1 404 958 is_stmt 0
	sw	s1,0(t5)
	.loc 1 404 1016 is_stmt 1
	.loc 1 404 1033 is_stmt 0
	sw	s0,0(t4)
	.loc 1 404 1039 is_stmt 1
	.loc 1 404 1056 is_stmt 0
	li	s1,63
	sw	s1,0(t3)
	.loc 1 404 1135 is_stmt 1
	.loc 1 404 1152 is_stmt 0
	sw	zero,0(t1)
	.loc 1 404 1210 is_stmt 1
	.loc 1 404 1226 is_stmt 0
	li	s1,8
	sw	s1,0(s11)
	.loc 1 404 1249 is_stmt 1
	.loc 1 404 1265 is_stmt 0
	lw	s1,48(sp)
	sw	a4,0(s1)
	.loc 1 404 1271 is_stmt 1
	.loc 1 404 1288 is_stmt 0
	li	s1,15
	sw	s1,0(s10)
	.loc 1 404 1350 is_stmt 1
	.loc 1 404 1367 is_stmt 0
	lw	s1,52(sp)
	sw	zero,0(s1)
	.loc 1 404 1390 is_stmt 1
	.loc 1 404 1406 is_stmt 0
	sw	a4,0(a7)
	.loc 1 404 1417 is_stmt 1
	.loc 1 404 1433 is_stmt 0
	sw	a5,0(a6)
	.loc 1 404 1439 is_stmt 1
	.loc 1 404 1456 is_stmt 0
	sw	a5,0(a0)
	.loc 1 404 1479 is_stmt 1
	.loc 1 404 1496 is_stmt 0
	sw	zero,0(a1)
	.loc 1 404 1505 is_stmt 1
.LVL246:
	.loc 1 404 1772
	.loc 1 404 1788 is_stmt 0
	sw	zero,0(a2)
	.loc 1 404 1817 is_stmt 1
	.loc 1 404 1818
	.loc 1 404 1835 is_stmt 0
	sw	s3,72(sp)
	sw	s7,0(s3)
	.loc 1 404 1881 is_stmt 1
	.loc 1 404 1898 is_stmt 0
	lw	s2,148(sp)
.LBE245:
.LBB246:
	.loc 1 404 2032
	li	s1,16384
.LBE246:
.LBB247:
	.loc 1 404 1898
	sw	s2,0(a3)
.LBE247:
.LBB248:
	.loc 1 404 1931 is_stmt 1
.LVL247:
	.loc 1 404 2015
	.loc 1 404 2032 is_stmt 0
	sw	s1,0(s8)
	.loc 1 404 2055 is_stmt 1
	.loc 1 404 2072 is_stmt 0
	lw	s3,40(sp)
	.loc 1 404 2095
	addi	s2,s1,-1
	.loc 1 404 2072
	sw	zero,0(s3)
	.loc 1 404 2078 is_stmt 1
	.loc 1 404 2095 is_stmt 0
	sw	s2,0(t2)
	.loc 1 404 2133 is_stmt 1
	.loc 1 404 2150 is_stmt 0
	sw	zero,0(t0)
	.loc 1 404 2173 is_stmt 1
	.loc 1 404 2190 is_stmt 0
	li	s2,4096
	sw	s2,0(t5)
	.loc 1 404 2202 is_stmt 1
	.loc 1 404 2219 is_stmt 0
	sw	s0,0(t4)
	.loc 1 404 2225 is_stmt 1
	.loc 1 404 2242 is_stmt 0
	lw	s2,56(sp)
	sw	s2,0(t3)
	.loc 1 404 2265 is_stmt 1
	.loc 1 404 2282 is_stmt 0
	sw	zero,0(t1)
	.loc 1 404 2294 is_stmt 1
	.loc 1 404 2310 is_stmt 0
	lw	s3,48(sp)
	.loc 1 404 2416
	li	s2,383
	.loc 1 404 2310
	sw	a4,0(s3)
	.loc 1 404 2362 is_stmt 1
	.loc 1 404 2378 is_stmt 0
	sw	s9,0(s11)
	.loc 1 404 2399 is_stmt 1
	.loc 1 404 2416 is_stmt 0
	sw	s2,0(s10)
	.loc 1 404 2421 is_stmt 1
	.loc 1 404 2438 is_stmt 0
	lw	s1,52(sp)
	.loc 1 404 2700
	li	s9,524288
	addi	s9,s9,528
	.loc 1 404 2438
	sw	zero,0(s1)
	.loc 1 404 2441 is_stmt 1
	.loc 1 404 2457 is_stmt 0
	sw	a5,0(a6)
	.loc 1 404 2488 is_stmt 1
	.loc 1 404 2504 is_stmt 0
	li	s1,8
	sw	s1,0(a7)
	.loc 1 404 2519 is_stmt 1
	.loc 1 404 2536 is_stmt 0
	sw	s2,0(a0)
	.loc 1 404 2541 is_stmt 1
	.loc 1 404 2558 is_stmt 0
	sw	zero,0(a1)
	.loc 1 404 2561 is_stmt 1
	.loc 1 404 2577 is_stmt 0
	sw	a5,0(s5)
	.loc 1 404 2615 is_stmt 1
	.loc 1 404 2631 is_stmt 0
	sw	a4,0(s6)
	.loc 1 404 2642 is_stmt 1
	.loc 1 404 2659 is_stmt 0
	sw	s2,0(s4)
	.loc 1 404 2664 is_stmt 1
	.loc 1 404 2681 is_stmt 0
	lw	s2,44(sp)
	sw	zero,0(s2)
	.loc 1 404 2684 is_stmt 1
	.loc 1 404 2700 is_stmt 0
	sw	s9,0(a2)
	.loc 1 404 2850 is_stmt 1
	.loc 1 404 2867 is_stmt 0
	lw	s9,152(sp)
	sw	s9,0(a3)
.LBE248:
	.loc 1 404 2899 is_stmt 1
	.loc 1 404 2900
	.loc 1 404 2916 is_stmt 0 discriminator 4
	lw	s9,20(sp)
	lw	s3,64(sp)
	sw	s3,0(s9)
.LBB249:
	.loc 1 404 3018 is_stmt 1 discriminator 4
.LVL248:
	.loc 1 404 3120 discriminator 4
	.loc 1 404 3137 is_stmt 0 discriminator 4
	lw	s3,60(sp)
	sw	s3,0(t5)
	.loc 1 404 3152 is_stmt 1 discriminator 4
	.loc 1 404 3169 is_stmt 0 discriminator 4
	lw	s3,112(sp)
	sw	s3,0(t4)
	.loc 1 404 3175 is_stmt 1 discriminator 4
	.loc 1 404 3192 is_stmt 0 discriminator 4
	lw	s3,92(sp)
	sw	s3,0(t3)
	.loc 1 404 3217 is_stmt 1 discriminator 4
	.loc 1 404 3234 is_stmt 0 discriminator 4
	lw	s2,68(sp)
	sw	s2,0(t1)
	.loc 1 404 3249 is_stmt 1 discriminator 4
	.loc 1 404 3265 is_stmt 0 discriminator 4
	sw	a4,0(a7)
	.loc 1 404 3276 is_stmt 1 discriminator 4
	.loc 1 404 3292 is_stmt 0 discriminator 4
	lw	s2,144(sp)
	sw	s2,0(a6)
	.loc 1 404 3298 is_stmt 1 discriminator 4
	.loc 1 404 3315 is_stmt 0 discriminator 4
	lw	s9,12(sp)
	sw	s9,0(a0)
	.loc 1 404 3330 is_stmt 1 discriminator 4
	.loc 1 404 3347 is_stmt 0 discriminator 4
	lw	s1,32(sp)
	sw	s1,0(a1)
	.loc 1 404 3356 is_stmt 1 discriminator 4
.LVL249:
	.loc 1 404 3389 discriminator 4
	lw	s1,28(sp)
	lw	s9,184(sp)
	add	s9,s9,s1
	.loc 1 404 3405 is_stmt 0 discriminator 4
	sw	s9,0(a2)
	.loc 1 404 3438 is_stmt 1 discriminator 4
	.loc 1 404 3439 discriminator 4
	.loc 1 404 3456 is_stmt 0 discriminator 4
	lw	s2,72(sp)
	lw	s3,132(sp)
	sw	s3,0(s2)
	.loc 1 404 3481 is_stmt 1 discriminator 4
	.loc 1 404 3498 is_stmt 0 discriminator 4
	lw	s3,156(sp)
	sw	s3,0(a3)
.LBE249:
.LBB250:
	.loc 1 404 3531 is_stmt 1 discriminator 4
.LVL250:
	.loc 1 404 3764 discriminator 4
	.loc 1 404 3780 is_stmt 0 discriminator 4
	sw	s7,0(s6)
	.loc 1 404 3876 is_stmt 1 discriminator 4
	.loc 1 404 3892 is_stmt 0 discriminator 4
	sw	zero,0(s5)
	.loc 1 404 3898 is_stmt 1 discriminator 4
	.loc 1 404 3915 is_stmt 0 discriminator 4
	sw	t6,0(s4)
	.loc 1 404 4032 is_stmt 1 discriminator 4
	.loc 1 404 4049 is_stmt 0 discriminator 4
	lw	s9,44(sp)
	sw	zero,0(s9)
	.loc 1 404 0 is_stmt 1 discriminator 4
	li	s9,64
	sw	s9,0(s11)
	.loc 1 404 0 discriminator 4
	lw	s9,48(sp)
	sw	a5,0(s9)
	.loc 1 404 0 discriminator 4
	sw	t6,0(s10)
	.loc 1 404 0 discriminator 4
	lw	s1,52(sp)
	li	s9,16
	sw	zero,0(s1)
	.loc 1 404 0 discriminator 4
	sw	s9,0(s8)
	.loc 1 404 0 discriminator 4
	lw	s3,40(sp)
	li	s1,8
	li	s9,15
	sw	s0,0(s3)
	.loc 1 404 0 discriminator 4
	li	s0,63
	sw	s0,0(t2)
	.loc 1 404 0 discriminator 4
	sw	zero,0(t0)
	.loc 1 404 0 discriminator 4
	sw	s1,0(t5)
	.loc 1 404 0 discriminator 4
	sw	a4,0(t4)
	.loc 1 404 0 discriminator 4
	sw	s9,0(t3)
	.loc 1 404 0 discriminator 4
	sw	zero,0(t1)
	.loc 1 404 0 discriminator 4
	sw	a4,0(a7)
	.loc 1 404 0 discriminator 4
	sw	a5,0(a6)
	.loc 1 404 0 discriminator 4
	sw	a5,0(a0)
	.loc 1 404 0 discriminator 4
	sw	zero,0(a1)
	.loc 1 404 0 discriminator 4
.LVL251:
	.loc 1 404 0 discriminator 4
	sw	zero,0(a2)
	.loc 1 404 0 discriminator 4
	.loc 1 404 0 discriminator 4
	lw	s0,160(sp)
	mv	s3,s1
.LBE250:
.LBB251:
	.loc 1 405 1056 is_stmt 0
	li	s1,63
.LBE251:
.LBB252:
	.loc 1 404 0 discriminator 4
	sw	s0,0(a3)
.LBE252:
	.loc 1 404 0 is_stmt 1 discriminator 4
	.loc 1 404 0 discriminator 4
	lw	s9,20(sp)
	lw	s0,164(sp)
	sw	s0,0(s9)
.LBB253:
	.loc 1 405 3
.LVL252:
	.loc 1 405 236
	.loc 1 405 253 is_stmt 0
	sw	s7,0(s8)
	.loc 1 405 349 is_stmt 1
	.loc 1 405 366 is_stmt 0
	lw	s0,40(sp)
	sw	zero,0(s0)
	.loc 1 405 372 is_stmt 1
	.loc 1 405 389 is_stmt 0
	sw	t6,0(t2)
	.loc 1 405 506 is_stmt 1
	.loc 1 405 523 is_stmt 0
	sw	zero,0(t0)
	.loc 1 405 619 is_stmt 1
	.loc 1 405 635 is_stmt 0
	li	s0,64
	sw	s0,0(s6)
	.loc 1 405 710 is_stmt 1
	.loc 1 405 726 is_stmt 0
	sw	a5,0(s5)
	.loc 1 405 732 is_stmt 1
	.loc 1 405 749 is_stmt 0
	sw	t6,0(s4)
	.loc 1 405 849 is_stmt 1
	.loc 1 405 866 is_stmt 0
	lw	s0,44(sp)
	sw	zero,0(s0)
	.loc 1 405 941 is_stmt 1
	.loc 1 405 958 is_stmt 0
	li	s0,16
	sw	s0,0(t5)
	.loc 1 405 1016 is_stmt 1
	.loc 1 405 1033 is_stmt 0
	li	s0,3
	sw	s0,0(t4)
	.loc 1 405 1039 is_stmt 1
	.loc 1 405 1056 is_stmt 0
	sw	s1,0(t3)
	.loc 1 405 1135 is_stmt 1
	.loc 1 405 1152 is_stmt 0
	sw	zero,0(t1)
	.loc 1 405 1210 is_stmt 1
	.loc 1 405 1226 is_stmt 0
	sw	s3,0(s11)
	.loc 1 405 1249 is_stmt 1
	.loc 1 405 1265 is_stmt 0
	lw	s1,48(sp)
	sw	a4,0(s1)
	.loc 1 405 1271 is_stmt 1
	.loc 1 405 1288 is_stmt 0
	li	s1,15
	sw	s1,0(s10)
	.loc 1 405 1350 is_stmt 1
	.loc 1 405 1367 is_stmt 0
	lw	s1,52(sp)
	sw	zero,0(s1)
	.loc 1 405 1390 is_stmt 1
	.loc 1 405 1406 is_stmt 0
	sw	a4,0(a7)
	.loc 1 405 1417 is_stmt 1
	.loc 1 405 1433 is_stmt 0
	sw	a5,0(a6)
	.loc 1 405 1439 is_stmt 1
	.loc 1 405 1456 is_stmt 0
	sw	a5,0(a0)
	.loc 1 405 1479 is_stmt 1
	.loc 1 405 1496 is_stmt 0
	sw	zero,0(a1)
	.loc 1 405 1505 is_stmt 1
.LVL253:
	.loc 1 405 1772
	.loc 1 405 1788 is_stmt 0
	sw	zero,0(a2)
	.loc 1 405 1817 is_stmt 1
	.loc 1 405 1818
	.loc 1 405 1835 is_stmt 0
	sw	s2,72(sp)
	sw	s7,0(s2)
	.loc 1 405 1881 is_stmt 1
	.loc 1 405 1898 is_stmt 0
	lw	s7,148(sp)
	sw	s7,0(a3)
.LBE253:
.LBB254:
	.loc 1 405 1931 is_stmt 1
.LVL254:
	.loc 1 405 2015
	.loc 1 405 2032 is_stmt 0
	li	s7,16384
	sw	s7,0(s8)
	.loc 1 405 2055 is_stmt 1
	.loc 1 405 2072 is_stmt 0
	lw	s2,40(sp)
	.loc 1 405 2095
	addi	s7,s7,-1
	.loc 1 405 2072
	sw	zero,0(s2)
	.loc 1 405 2078 is_stmt 1
	.loc 1 405 2095 is_stmt 0
	sw	s7,0(t2)
	.loc 1 405 2133 is_stmt 1
	.loc 1 405 2150 is_stmt 0
	sw	zero,0(t0)
	.loc 1 405 2173 is_stmt 1
	.loc 1 405 2190 is_stmt 0
	li	s7,4096
	sw	s7,0(t5)
	.loc 1 405 2202 is_stmt 1
	.loc 1 405 2219 is_stmt 0
	sw	s0,0(t4)
	.loc 1 405 2225 is_stmt 1
	.loc 1 405 2242 is_stmt 0
	lw	s7,56(sp)
	.loc 1 405 2378
	li	s0,64
	.loc 1 405 2242
	sw	s7,0(t3)
	.loc 1 405 2265 is_stmt 1
	.loc 1 405 2282 is_stmt 0
	sw	zero,0(t1)
	.loc 1 405 2294 is_stmt 1
	.loc 1 405 2310 is_stmt 0
	lw	s7,48(sp)
	sw	a4,0(s7)
	.loc 1 405 2362 is_stmt 1
	.loc 1 405 2378 is_stmt 0
	sw	s0,0(s11)
	.loc 1 405 2399 is_stmt 1
	.loc 1 405 2416 is_stmt 0
	li	s0,383
	sw	s0,0(s10)
	.loc 1 405 2421 is_stmt 1
	.loc 1 405 2438 is_stmt 0
	sw	s1,52(sp)
	sw	zero,0(s1)
	.loc 1 405 2441 is_stmt 1
	.loc 1 405 2457 is_stmt 0
	sw	a5,0(a6)
	.loc 1 405 2488 is_stmt 1
	.loc 1 405 2504 is_stmt 0
	sw	s3,0(a7)
	.loc 1 405 2519 is_stmt 1
	.loc 1 405 2536 is_stmt 0
	sw	s0,0(a0)
	.loc 1 405 2541 is_stmt 1
	.loc 1 405 2558 is_stmt 0
	sw	zero,0(a1)
	.loc 1 405 2561 is_stmt 1
	.loc 1 405 2577 is_stmt 0
	sw	a5,0(s5)
	.loc 1 405 2615 is_stmt 1
	.loc 1 405 2631 is_stmt 0
	sw	a4,0(s6)
	.loc 1 405 2642 is_stmt 1
	.loc 1 405 2659 is_stmt 0
	sw	s0,0(s4)
	.loc 1 405 2664 is_stmt 1
	.loc 1 405 2681 is_stmt 0
	lw	s2,44(sp)
	.loc 1 405 2700
	li	s7,524288
	addi	s7,s7,656
	.loc 1 405 2681
	sw	zero,0(s2)
	.loc 1 405 2684 is_stmt 1
	.loc 1 405 2700 is_stmt 0
	sw	s7,0(a2)
	.loc 1 405 2850 is_stmt 1
	.loc 1 405 2867 is_stmt 0
	lw	s7,152(sp)
	sw	s7,0(a3)
.LBE254:
	.loc 1 405 2899 is_stmt 1
	.loc 1 405 2900
	.loc 1 405 2916 is_stmt 0 discriminator 4
	lw	s3,64(sp)
	sw	s3,0(s9)
.LBB255:
	.loc 1 405 3018 is_stmt 1 discriminator 4
.LVL255:
	.loc 1 405 3120 discriminator 4
	.loc 1 405 3137 is_stmt 0 discriminator 4
	lw	s3,60(sp)
	sw	s3,0(t5)
	.loc 1 405 3152 is_stmt 1 discriminator 4
	.loc 1 405 3169 is_stmt 0 discriminator 4
	lw	s3,112(sp)
	sw	s3,0(t4)
	.loc 1 405 3175 is_stmt 1 discriminator 4
	.loc 1 405 3192 is_stmt 0 discriminator 4
	lw	s3,92(sp)
	sw	s3,0(t3)
	.loc 1 405 3217 is_stmt 1 discriminator 4
	.loc 1 405 3234 is_stmt 0 discriminator 4
	lw	s0,68(sp)
	sw	s0,0(t1)
	.loc 1 405 3249 is_stmt 1 discriminator 4
	.loc 1 405 3265 is_stmt 0 discriminator 4
	sw	a4,0(a7)
	.loc 1 405 3276 is_stmt 1 discriminator 4
	lw	s2,8(sp)
	lw	s7,204(sp)
	sub	s7,s7,s2
	.loc 1 405 3292 is_stmt 0 discriminator 4
	lw	s2,144(sp)
	add	s7,s7,s0
.LBE255:
.LBB256:
	.loc 1 405 0 discriminator 4
	li	s0,64
.LBE256:
.LBB257:
	.loc 1 405 3292 discriminator 4
	sw	s2,0(a6)
	.loc 1 405 3298 is_stmt 1 discriminator 4
	.loc 1 405 3315 is_stmt 0 discriminator 4
	lw	s2,12(sp)
	sw	s2,0(a0)
	.loc 1 405 3330 is_stmt 1 discriminator 4
	.loc 1 405 3347 is_stmt 0 discriminator 4
	lw	s1,32(sp)
	sw	s1,0(a1)
	.loc 1 405 3356 is_stmt 1 discriminator 4
.LVL256:
	.loc 1 405 3389 discriminator 4
	lw	s1,28(sp)
	add	s7,s7,s1
	.loc 1 405 3405 is_stmt 0 discriminator 4
	sw	s7,0(a2)
	.loc 1 405 3438 is_stmt 1 discriminator 4
	.loc 1 405 3439 discriminator 4
	.loc 1 405 3456 is_stmt 0 discriminator 4
	lw	s2,72(sp)
	lw	s3,132(sp)
.LBE257:
.LBB258:
	.loc 1 405 3780 discriminator 4
	li	s7,512
.LBE258:
.LBB259:
	.loc 1 405 3456 discriminator 4
	sw	s3,0(s2)
	.loc 1 405 3481 is_stmt 1 discriminator 4
	.loc 1 405 3498 is_stmt 0 discriminator 4
	lw	s3,156(sp)
	sw	s3,0(a3)
.LBE259:
.LBB260:
	.loc 1 405 3531 is_stmt 1 discriminator 4
.LVL257:
	.loc 1 405 3764 discriminator 4
	.loc 1 405 3780 is_stmt 0 discriminator 4
	sw	s7,0(s6)
	.loc 1 405 3876 is_stmt 1 discriminator 4
	.loc 1 405 3892 is_stmt 0 discriminator 4
	sw	zero,0(s5)
	.loc 1 405 3898 is_stmt 1 discriminator 4
	.loc 1 405 3915 is_stmt 0 discriminator 4
	sw	t6,0(s4)
	.loc 1 405 4032 is_stmt 1 discriminator 4
	.loc 1 405 4049 is_stmt 0 discriminator 4
	lw	s2,44(sp)
	sw	zero,0(s2)
	.loc 1 405 0 is_stmt 1 discriminator 4
	sw	s0,0(s11)
	.loc 1 405 0 discriminator 4
	lw	s0,48(sp)
	sw	a5,0(s0)
	.loc 1 405 0 discriminator 4
	sw	t6,0(s10)
	.loc 1 405 0 discriminator 4
	lw	s1,52(sp)
	li	t6,16
	li	s0,3
	sw	zero,0(s1)
	.loc 1 405 0 discriminator 4
	sw	t6,0(s8)
	.loc 1 405 0 discriminator 4
	lw	t6,40(sp)
	li	s1,8
	sw	s0,0(t6)
	.loc 1 405 0 discriminator 4
	li	s0,63
	sw	s0,0(t2)
	.loc 1 405 0 discriminator 4
	sw	zero,0(t0)
	.loc 1 405 0 discriminator 4
	sw	s1,0(t5)
	.loc 1 405 0 discriminator 4
	sw	a4,0(t4)
	.loc 1 405 0 discriminator 4
	li	s1,15
	sw	s1,0(t3)
	.loc 1 405 0 discriminator 4
	sw	zero,0(t1)
	.loc 1 405 0 discriminator 4
	sw	a4,0(a7)
	.loc 1 405 0 discriminator 4
	sw	a5,0(a6)
	.loc 1 405 0 discriminator 4
	sw	a5,0(a0)
	.loc 1 405 0 discriminator 4
	sw	zero,0(a1)
	.loc 1 405 0 discriminator 4
.LVL258:
	.loc 1 405 0 discriminator 4
	sw	zero,0(a2)
	.loc 1 405 0 discriminator 4
	.loc 1 405 0 discriminator 4
	lw	s0,160(sp)
	sw	s0,0(a3)
.LBE260:
	.loc 1 405 0 discriminator 4
	.loc 1 405 0 discriminator 4
	lw	s0,164(sp)
	sw	s0,0(s9)
.LVL259:
.L65:
	.loc 1 363 21
	.loc 1 363 12 is_stmt 0
	lw	a5,84(sp)
	.loc 1 362 12
	lw	a3,0(sp)
	lw	a2,32(sp)
	.loc 1 363 12
	lw	a4,4(sp)
	.loc 1 362 12
	add	a3,a3,a5
	sw	a3,0(sp)
	lw	a3,88(sp)
	.loc 1 363 12
	add	a4,a4,a5
	sw	a4,4(sp)
.LVL260:
	.loc 1 362 12 is_stmt 1
	add	a3,a3,a2
	sw	a3,28(sp)
	lw	a2,12(sp)
	lw	a3,8(sp)
	sub	a2,a2,a3
	sw	a2,12(sp)
	lw	a2,16(sp)
	add	a3,a2,a3
	sw	a3,16(sp)
	lw	a3,24(sp)
	sub	a5,a3,a5
	sw	a5,24(sp)
	lw	a5,80(sp)
	bge	a4,a5,.L141
.LVL261:
.L67:
	.loc 1 364 10
.LBB261:
	.loc 1 366 1959 is_stmt 0
	lw	a4,4(sp)
	lw	a5,100(sp)
	.loc 1 366 1982
	lw	a3,0(sp)
	.loc 1 366 1959
	add	a5,a5,a4
	.loc 1 366 1982
	sub	a5,a5,a3
.LBE261:
	.loc 1 371 13 is_stmt 1
	.loc 1 371 15 is_stmt 0
	lw	a3,36(sp)
	li	a4,2
	bne	a3,a4,.L108
	.loc 1 372 16 is_stmt 1
.LBB262:
	.loc 1 373 252 is_stmt 0
	li	s9,512
	li	s3,-2147483648
	sw	s9,288(s3)
.LVL262:
	.loc 1 373 364
	li	s2,-2147483648
	sw	zero,416(s2)
	.loc 1 373 387
	li	s1,-2147483648
	li	a3,511
	sw	a3,1312(s1)
	.loc 1 373 521
	li	s7,-2147479552
	sw	zero,-1376(s7)
	.loc 1 373 633
	li	s8,-2147483648
	li	s11,64
	sw	s11,800(s8)
	.loc 1 373 724
	li	a4,7
	li	s0,-2147483648
	sw	a4,928(s0)
	.loc 1 373 747
	li	ra,-2147483648
	sw	a3,1440(ra)
	.loc 1 373 864
	li	t2,-2147479552
	sw	zero,-1248(t2)
	.loc 1 373 956
	li	s6,-2147483648
	li	a2,16
	sw	a2,1696(s6)
	.loc 1 373 1031
	li	s5,-2147483648
	li	a2,3
	sw	a2,1824(s5)
	.loc 1 373 1054
	li	s4,-2147483648
	li	a1,63
	sw	a1,1952(s4)
	.loc 1 373 1150
	li	a3,-2147479552
	sw	a3,32(sp)
	sw	zero,-1120(a3)
	.loc 1 373 1225
	li	t6,-2147479552
	li	a1,8
	sw	a1,-2016(t6)
	.loc 1 373 1265
	li	a3,1
	li	t3,-2147479552
	sw	a3,-1888(t3)
	.loc 1 373 1288
	li	t5,-2147479552
	li	a0,15
	sw	a0,-1760(t5)
	.loc 1 373 1367
	li	t1,-2147479552
	sw	zero,-992(t1)
	.loc 1 373 1406
	li	a7,-2147483648
	sw	a3,1056(a7)
	.loc 1 373 1433
	li	a6,-2147483648
	sw	a4,672(a6)
	.loc 1 373 1456
	li	a0,-2147483648
	sw	a4,1568(a0)
	.loc 1 373 1496
	li	a1,-2147479552
	sw	zero,-864(a1)
	.loc 1 373 1788
	li	a2,-2147483648
	sw	zero,544(a2)
	.loc 1 373 1835
	li	t4,-2147479552
	sw	t4,40(sp)
	.loc 1 373 1898
	li	s11,1036288
	.loc 1 373 1835
	sw	s9,-736(t4)
	.loc 1 373 1898
	addi	s11,s11,-1889
	sw	s11,-1632(t4)
.LBE262:
.LBB263:
	.loc 1 373 2068
	lw	t0,104(sp)
	.loc 1 373 2397
	li	s11,1036288
	addi	s11,s11,157
	.loc 1 373 2068
	sw	t0,-2016(t6)
	.loc 1 373 2102
	lw	t0,140(sp)
	sw	t0,-1888(t3)
	.loc 1 373 2125
	lw	t0,176(sp)
	sw	t0,-1760(t5)
	.loc 1 373 2171
	lw	t0,180(sp)
	sw	t0,-992(t1)
	.loc 1 373 2204
	sw	a3,1056(a7)
	.loc 1 373 2231
	sw	a5,672(a6)
	.loc 1 373 2254
	lw	s10,24(sp)
	sw	s10,1568(a0)
	.loc 1 373 2353
	lw	s10,136(sp)
	add	a5,s10,t0
	.loc 1 373 2288
	lw	t0,0(sp)
.LBE263:
	.loc 1 373 2446
	li	s10,393216
	addi	s10,s10,17
.LBB264:
	.loc 1 373 2288
	sw	t0,-864(a1)
	.loc 1 373 2353
	add	a5,a5,t0
.LBE264:
.LBB265:
	.loc 1 373 3 is_stmt 1
.LVL263:
	.loc 1 373 236
	.loc 1 373 348
	.loc 1 373 370
	.loc 1 373 504
	.loc 1 373 617
	.loc 1 373 708
	.loc 1 373 730
	.loc 1 373 847
	.loc 1 373 939
	.loc 1 373 1014
	.loc 1 373 1037
	.loc 1 373 1133
	.loc 1 373 1208
	.loc 1 373 1248
	.loc 1 373 1271
	.loc 1 373 1350
	.loc 1 373 1390
	.loc 1 373 1417
	.loc 1 373 1439
	.loc 1 373 1479
	.loc 1 373 1505
	.loc 1 373 1772
	.loc 1 373 1817
	.loc 1 373 1818
	.loc 1 373 1881
.LBE265:
.LBB266:
	.loc 1 373 1931
	.loc 1 373 2051
	.loc 1 373 2085
	.loc 1 373 2108
	.loc 1 373 2154
	.loc 1 373 2188
	.loc 1 373 2215
	.loc 1 373 2237
	.loc 1 373 2271
	.loc 1 373 2297
	.loc 1 373 2332
	.loc 1 373 2348 is_stmt 0
	sw	a5,544(a2)
.LVL264:
	.loc 1 373 2379 is_stmt 1
	.loc 1 373 2380
	.loc 1 373 2397 is_stmt 0
	sw	s11,-1632(t4)
.LBE266:
	.loc 1 373 2429 is_stmt 1
	.loc 1 373 2430
	.loc 1 373 2446 is_stmt 0
	lw	t0,20(sp)
.LBB267:
	.loc 1 373 2637
	li	s11,16384
	.loc 1 373 2795
	li	a5,4096
.LBE267:
	.loc 1 373 2446
	sw	s10,0(t0)
.LBB268:
	.loc 1 373 2536 is_stmt 1
.LVL265:
	.loc 1 373 2620
	.loc 1 373 2637 is_stmt 0
	sw	s11,1696(s6)
	.loc 1 373 2660 is_stmt 1
	.loc 1 373 2677 is_stmt 0
	sw	zero,1824(s5)
	.loc 1 373 2683 is_stmt 1
	.loc 1 373 2700 is_stmt 0
	addi	s11,s11,-1
	sw	s11,1952(s4)
	.loc 1 373 2738 is_stmt 1
	.loc 1 373 2755 is_stmt 0
	lw	t0,32(sp)
	sw	zero,-1120(t0)
	.loc 1 373 2778 is_stmt 1
	.loc 1 373 2795 is_stmt 0
	sw	a5,-2016(t6)
	.loc 1 373 2807 is_stmt 1
	.loc 1 373 2824 is_stmt 0
	li	a5,3
	sw	a5,-1888(t3)
	.loc 1 373 2830 is_stmt 1
	.loc 1 373 2847 is_stmt 0
	lw	s11,56(sp)
	.loc 1 373 3021
	li	a5,383
	.loc 1 373 3109
	li	t0,8
	.loc 1 373 2847
	sw	s11,-1760(t5)
	.loc 1 373 2870 is_stmt 1
	.loc 1 373 2887 is_stmt 0
	sw	zero,-992(t1)
	.loc 1 373 2899 is_stmt 1
	.loc 1 373 2915 is_stmt 0
	sw	a3,928(s0)
	.loc 1 373 2967 is_stmt 1
	.loc 1 373 2983 is_stmt 0
	li	s11,64
	sw	s11,800(s8)
	.loc 1 373 3004 is_stmt 1
	.loc 1 373 3021 is_stmt 0
	sw	a5,1440(ra)
	.loc 1 373 3026 is_stmt 1
	.loc 1 373 3043 is_stmt 0
	sw	zero,-1248(t2)
	.loc 1 373 3046 is_stmt 1
	.loc 1 373 3062 is_stmt 0
	sw	a4,672(a6)
	.loc 1 373 3093 is_stmt 1
	.loc 1 373 3109 is_stmt 0
	sw	t0,1056(a7)
	.loc 1 373 3124 is_stmt 1
	.loc 1 373 3141 is_stmt 0
	sw	a5,1568(a0)
	.loc 1 373 3146 is_stmt 1
	.loc 1 373 3163 is_stmt 0
	sw	zero,-864(a1)
	.loc 1 373 3166 is_stmt 1
	.loc 1 373 3182 is_stmt 0
	sw	a4,416(s2)
	.loc 1 373 3220 is_stmt 1
	.loc 1 373 3236 is_stmt 0
	sw	a3,288(s3)
	.loc 1 373 3247 is_stmt 1
	.loc 1 373 3264 is_stmt 0
	sw	a5,1312(s1)
	.loc 1 373 3269 is_stmt 1
	.loc 1 373 3305 is_stmt 0
	li	a5,524288
	addi	a5,a5,16
	.loc 1 373 3286
	sw	zero,-1376(s7)
	.loc 1 373 3289 is_stmt 1
	.loc 1 373 3305 is_stmt 0
	sw	a5,544(a2)
	.loc 1 373 3454 is_stmt 1
	.loc 1 373 3471 is_stmt 0
	lw	t0,40(sp)
	.loc 1 373 3623
	li	a5,1032192
	addi	a5,a5,1183
	.loc 1 373 3471
	sw	s9,-736(t0)
	.loc 1 373 3606 is_stmt 1
	.loc 1 373 3623 is_stmt 0
	sw	a5,-1632(t4)
.LBE268:
.LBB269:
	.loc 1 373 3656 is_stmt 1
.LVL266:
	.loc 1 373 3889
	.loc 1 373 3906 is_stmt 0
	sw	s9,1696(s6)
	.loc 1 373 4002 is_stmt 1
	.loc 1 373 4019 is_stmt 0
	sw	zero,1824(s5)
	.loc 1 373 4025 is_stmt 1
	.loc 1 373 4042 is_stmt 0
	li	a5,511
	sw	a5,1952(s4)
	.loc 1 373 0 is_stmt 1
	lw	t0,32(sp)
	sw	zero,-1120(t0)
	.loc 1 373 0
	sw	s11,288(s3)
	.loc 1 373 0
	sw	a4,416(s2)
	.loc 1 373 0
	sw	a5,1312(s1)
	.loc 1 373 0
	sw	zero,-1376(s7)
	.loc 1 373 0
	li	s1,16
	sw	s1,-2016(t6)
	.loc 1 373 0
	li	a5,3
	sw	a5,-1888(t3)
	.loc 1 373 0
	li	a5,63
	sw	a5,-1760(t5)
	.loc 1 373 0
	sw	zero,-992(t1)
	.loc 1 373 0
	li	t0,8
	sw	t0,800(s8)
	.loc 1 373 0
	sw	a3,928(s0)
	.loc 1 373 0
	li	a5,15
	sw	a5,1440(ra)
	.loc 1 373 0
	sw	zero,-1248(t2)
	.loc 1 373 0
	sw	a3,1056(a7)
	.loc 1 373 0
	sw	a4,672(a6)
	.loc 1 373 0
	sw	a4,1568(a0)
	.loc 1 373 0
	sw	zero,-864(a1)
	.loc 1 373 0
.LVL267:
	.loc 1 373 0
	li	a5,1036288
	sw	zero,544(a2)
	.loc 1 373 0
	.loc 1 373 0
	addi	a5,a5,-1891
	sw	a5,-1632(t4)
.LBE269:
	.loc 1 373 0
	.loc 1 373 0
	lw	t0,20(sp)
	sw	s10,0(t0)
	j	.L69
.LVL268:
.L63:
	.loc 1 391 13
.LBB270:
	.loc 1 392 249 is_stmt 0
	li	s10,1536
	sw	s10,1696(s8)
	.loc 1 392 358
	li	s1,-2147483648
	sw	zero,1824(s1)
	.loc 1 392 381
	li	s5,1535
	li	s0,-2147483648
	sw	s5,1952(s0)
	.loc 1 392 511
	li	a5,-2147479552
	sw	a5,40(sp)
	sw	zero,-1120(a5)
	.loc 1 392 619
	li	s3,-2147483648
	li	a5,192
	sw	a5,288(s3)
	.loc 1 392 706
	li	a3,-2147483648
	sw	a3,44(sp)
	li	a5,7
	sw	a5,416(a3)
	.loc 1 392 729
	li	a4,-2147483648
	sw	a4,48(sp)
	sw	s5,1312(a4)
	.loc 1 392 842
	li	t5,-2147479552
	sw	zero,-1376(t5)
	.loc 1 392 930
	li	t3,-2147479552
	li	a4,48
	sw	a4,-2016(t3)
	.loc 1 392 1001
	li	t1,-2147479552
	li	a4,3
	sw	a4,-1888(t1)
	.loc 1 392 1024
	li	s7,-2147479552
	li	a3,191
	sw	a3,-1760(s7)
	.loc 1 392 1116
	li	a0,-2147479552
	sw	zero,-992(a0)
	.loc 1 392 1186
	li	s11,-2147483648
	li	a3,8
	sw	a3,800(s11)
	.loc 1 392 1225
	li	s9,-2147483648
	li	a2,5
	sw	a2,928(s9)
	.loc 1 392 1248
	li	s2,-2147483648
	li	a1,47
	sw	a1,1440(s2)
	.loc 1 392 1323
	li	t4,-2147479552
	sw	zero,-1248(t4)
	.loc 1 392 1362
	li	a7,-2147483648
	li	s4,1
	sw	s4,1056(a7)
	.loc 1 392 1389
	li	a1,-2147483648
	sw	a5,672(a1)
	.loc 1 392 1225
	mv	t2,a2
	.loc 1 392 1412
	li	a2,-2147483648
	sw	a5,1568(a2)
	.loc 1 392 1452
	li	a3,-2147479552
	sw	zero,-864(a3)
	.loc 1 392 1732
	li	a4,-2147483648
	sw	zero,544(a4)
	.loc 1 392 1779
	li	t6,-2147479552
	sw	t6,52(sp)
	.loc 1 392 1842
	li	s6,1036288
	.loc 1 392 1779
	sw	s10,-736(t6)
	.loc 1 392 1842
	li	a6,-2147479552
	addi	s6,s6,-1889
	sw	s6,-1632(a6)
.LBE270:
.LBB271:
	.loc 1 392 1976
	li	s6,16384
	sw	s6,1696(s8)
	.loc 1 392 2016
	sw	zero,1824(s1)
	.loc 1 392 2039
	addi	t0,s6,-1
	sw	t0,1952(s0)
	.loc 1 392 2094
	lw	t0,40(sp)
	.loc 1 392 2134
	li	s6,4096
	.loc 1 392 2318
	li	s10,64
	.loc 1 392 2094
	sw	zero,-1120(t0)
	.loc 1 392 2134
	sw	s6,-2016(t3)
	.loc 1 392 2163
	li	s6,3
	sw	s6,-1888(t1)
	.loc 1 392 2186
	lw	t0,56(sp)
	.loc 1 392 2356
	li	s6,383
	.loc 1 392 2186
	sw	t0,-1760(s7)
	.loc 1 392 2226
	sw	zero,-992(a0)
	.loc 1 392 2254
	sw	t2,928(s9)
	.loc 1 392 2318
	sw	s10,800(s11)
	.loc 1 392 2356
	sw	s6,1440(s2)
	.loc 1 392 2378
	sw	zero,-1248(t4)
	.loc 1 392 2397
	sw	a5,672(a1)
	.loc 1 392 2444
	li	s10,8
	sw	s10,1056(a7)
	.loc 1 392 2476
	sw	s6,1568(a2)
	.loc 1 392 2498
	sw	zero,-864(a3)
	.loc 1 392 2517
	lw	t2,44(sp)
	.loc 1 392 2760
	li	s10,1032192
	addi	s10,s10,1181
	.loc 1 392 2517
	sw	a5,416(t2)
	.loc 1 392 2571
	sw	s4,288(s3)
	.loc 1 392 2599
	lw	t6,48(sp)
	sw	s6,1312(t6)
	.loc 1 392 2640
	li	s6,524288
	.loc 1 392 2621
	sw	zero,-1376(t5)
	.loc 1 392 2640
	addi	s6,s6,400
.LBE271:
.LBB272:
	.loc 1 392 2981 discriminator 4
	lw	t0,28(sp)
.LBE272:
.LBB273:
	.loc 1 392 2640
	sw	s6,544(a4)
.LBE273:
.LBB274:
	.loc 1 392 3000 discriminator 4
	lw	t6,32(sp)
	.loc 1 392 2981 discriminator 4
	addi	t0,t0,-1
.LBE274:
.LBB275:
	.loc 1 392 2760
	sw	s10,-1632(a6)
.LBE275:
	.loc 1 392 2809 discriminator 4
	lw	t2,64(sp)
.LBB276:
	.loc 1 392 3000 discriminator 4
	sub	s6,t0,t6
.LBE276:
.LBB277:
	.loc 1 392 3 is_stmt 1
.LVL269:
	.loc 1 392 232
	.loc 1 392 341
	.loc 1 392 364
	.loc 1 392 494
	.loc 1 392 603
	.loc 1 392 690
	.loc 1 392 712
	.loc 1 392 825
	.loc 1 392 913
	.loc 1 392 984
	.loc 1 392 1007
	.loc 1 392 1099
	.loc 1 392 1170
	.loc 1 392 1209
	.loc 1 392 1231
	.loc 1 392 1306
	.loc 1 392 1346
	.loc 1 392 1373
	.loc 1 392 1395
	.loc 1 392 1435
	.loc 1 392 1461
	.loc 1 392 1716
	.loc 1 392 1761
	.loc 1 392 1762
	.loc 1 392 1825
.LBE277:
.LBB278:
	.loc 1 392 1875
	.loc 1 392 1959
	.loc 1 392 1999
	.loc 1 392 2022
	.loc 1 392 2077
	.loc 1 392 2117
	.loc 1 392 2146
	.loc 1 392 2169
	.loc 1 392 2209
	.loc 1 392 2238
	.loc 1 392 2302
	.loc 1 392 2339
	.loc 1 392 2361
	.loc 1 392 2381
	.loc 1 392 2428
	.loc 1 392 2459
	.loc 1 392 2481
	.loc 1 392 2501
	.loc 1 392 2555
	.loc 1 392 2582
	.loc 1 392 2604
	.loc 1 392 2624
	.loc 1 392 2743
.LBE278:
	.loc 1 392 2792
	.loc 1 392 2793
	.loc 1 392 2809 is_stmt 0 discriminator 4
	lw	t0,20(sp)
.LBB279:
	.loc 1 392 3360 discriminator 4
	addi	s10,s6,1
.LBE279:
	.loc 1 392 2809 discriminator 4
	sw	t2,0(t0)
.LBB280:
	.loc 1 392 2911 is_stmt 1 discriminator 4
.LVL270:
	.loc 1 392 3013 discriminator 4
	.loc 1 392 3363 is_stmt 0 discriminator 4
	lw	t2,116(sp)
	mul	s10,t2,s10
	.loc 1 392 3030 discriminator 4
	lw	t2,60(sp)
	sw	t2,-2016(t3)
.LVL271:
	.loc 1 392 3045 is_stmt 1 discriminator 4
	.loc 1 392 3062 is_stmt 0 discriminator 4
	lw	t2,112(sp)
	sw	t2,-1888(t1)
	.loc 1 392 3068 is_stmt 1 discriminator 4
	.loc 1 392 3085 is_stmt 0 discriminator 4
	lw	t2,92(sp)
	sw	t2,-1760(s7)
	.loc 1 392 3110 is_stmt 1 discriminator 4
	.loc 1 392 3127 is_stmt 0 discriminator 4
	lw	t2,68(sp)
	sw	t2,-992(a0)
	.loc 1 392 3142 is_stmt 1 discriminator 4
	.loc 1 392 3158 is_stmt 0 discriminator 4
	sw	s4,1056(a7)
	.loc 1 392 3169 is_stmt 1 discriminator 4
	.loc 1 392 3185 is_stmt 0 discriminator 4
	sw	s6,672(a1)
	.loc 1 392 3191 is_stmt 1 discriminator 4
	.loc 1 392 3208 is_stmt 0 discriminator 4
	lw	t2,12(sp)
	.loc 1 392 3390 discriminator 4
	li	s6,1036288
	addi	s6,s6,159
	.loc 1 392 3208 discriminator 4
	sw	t2,1568(a2)
	.loc 1 392 3223 is_stmt 1 discriminator 4
	.loc 1 392 3240 is_stmt 0 discriminator 4
	sw	t6,-864(a3)
	.loc 1 392 3249 is_stmt 1 discriminator 4
.LVL272:
	.loc 1 392 3282 discriminator 4
	.loc 1 392 3298 is_stmt 0 discriminator 4
	lw	t2,16(sp)
	sw	t2,544(a4)
	.loc 1 392 3330 is_stmt 1 discriminator 4
	.loc 1 392 3331 discriminator 4
	.loc 1 392 3348 is_stmt 0 discriminator 4
	lw	t6,52(sp)
	sw	s10,-736(t6)
	.loc 1 392 3373 is_stmt 1 discriminator 4
	.loc 1 392 3390 is_stmt 0 discriminator 4
	sw	s6,-1632(a6)
.LBE280:
.LBB281:
	.loc 1 392 3423 is_stmt 1 discriminator 4
.LVL273:
	.loc 1 392 3652 discriminator 4
	.loc 1 392 3668 is_stmt 0 discriminator 4
	li	s10,1536
	sw	s10,288(s3)
	.loc 1 392 3760 is_stmt 1 discriminator 4
	.loc 1 392 3776 is_stmt 0 discriminator 4
	lw	t2,44(sp)
	.loc 1 392 0 discriminator 4
	li	s6,3
	li	s10,8
	.loc 1 392 3776 discriminator 4
	sw	zero,416(t2)
	.loc 1 392 3782 is_stmt 1 discriminator 4
	.loc 1 392 3799 is_stmt 0 discriminator 4
	lw	t6,48(sp)
	sw	s5,1312(t6)
	.loc 1 392 3912 is_stmt 1 discriminator 4
	.loc 1 392 3929 is_stmt 0 discriminator 4
	sw	zero,-1376(t5)
	.loc 1 392 4021 is_stmt 1 discriminator 4
	.loc 1 392 4037 is_stmt 0 discriminator 4
	li	t5,192
	sw	t5,800(s11)
	.loc 1 392 0 is_stmt 1 discriminator 4
	sw	a5,928(s9)
	.loc 1 392 0 discriminator 4
	sw	s5,1440(s2)
	.loc 1 392 0 discriminator 4
	sw	zero,-1248(t4)
	.loc 1 392 0 discriminator 4
	li	t4,48
	sw	t4,1696(s8)
	.loc 1 392 0 discriminator 4
	sw	s6,1824(s1)
	.loc 1 392 0 discriminator 4
	li	t4,191
	sw	t4,1952(s0)
	.loc 1 392 0 discriminator 4
	lw	t4,40(sp)
	sw	zero,-1120(t4)
	.loc 1 392 0 discriminator 4
	sw	s10,-2016(t3)
	.loc 1 392 0 discriminator 4
	li	s10,5
	sw	s10,-1888(t1)
	.loc 1 392 0 discriminator 4
	li	t1,47
	sw	t1,-1760(s7)
	.loc 1 392 0 discriminator 4
	sw	zero,-992(a0)
	.loc 1 392 0 discriminator 4
	sw	s4,1056(a7)
	.loc 1 392 0 discriminator 4
	sw	a5,672(a1)
	.loc 1 392 0 discriminator 4
	sw	a5,1568(a2)
	.loc 1 392 0 discriminator 4
	sw	zero,-864(a3)
	.loc 1 392 0 discriminator 4
.LVL274:
	.loc 1 392 0 discriminator 4
	li	a7,1036288
	sw	zero,544(a4)
	.loc 1 392 0 discriminator 4
	.loc 1 392 0 discriminator 4
	addi	a7,a7,-1891
.LBE281:
	li	a5,393216
.LBB282:
	sw	a7,-1632(a6)
.LBE282:
	.loc 1 392 0 discriminator 4
	.loc 1 392 0 discriminator 4
	addi	a5,a5,17
	sw	a5,0(t0)
	j	.L65
.LVL275:
.L141:
	lw	s3,208(sp)
	lw	a5,92(sp)
	lw	s0,224(sp)
	lw	s7,232(sp)
	.loc 1 360 17
	sub	a5,a5,s3
	sw	a5,92(sp)
	.loc 1 359 10 is_stmt 0
	lw	a5,68(sp)
	lw	s1,220(sp)
	lw	s2,228(sp)
	add	a5,a5,s3
	sw	a5,68(sp)
	lw	a5,128(sp)
	.loc 1 360 9
	add	s1,s1,s7
.LVL276:
	.loc 1 359 10 is_stmt 1
	lw	s4,212(sp)
	add	a5,a5,s0
	sw	a5,128(sp)
	lw	a5,168(sp)
	lw	s8,216(sp)
	add	s2,s2,s7
	sub	a5,a5,s0
	sw	a5,168(sp)
	lw	a5,180(sp)
	add	a5,a5,s0
	sw	a5,180(sp)
	lw	a5,176(sp)
	sub	a5,a5,s0
	sw	a5,176(sp)
	lw	a5,248(sp)
	bgt	a5,s1,.L70
	j	.L1
.LVL277:
.L129:
	.loc 1 286 7
	.loc 1 286 9 is_stmt 0
	beq	a4,a5,.L15
	.loc 1 286 47 discriminator 1
	beq	a3,a5,.L142
.L15:
	.loc 1 291 14 is_stmt 1
	.loc 1 344 18 is_stmt 0
	li	a5,-2147483648
	.loc 1 291 16
	beq	a4,a3,.L143
	.loc 1 294 10 is_stmt 1
.LVL278:
	.loc 1 343 4
	.loc 1 344 1
	.loc 1 344 2
	.loc 1 344 18 is_stmt 0
	li	a4,1015828480
.LVL279:
	addi	a4,a4,260
	.loc 1 294 11
	li	s3,4096
	.loc 1 344 18
	sw	a4,20(a5)
.LVL280:
	.loc 1 348 4 is_stmt 1
	.loc 1 294 11 is_stmt 0
	addi	s3,s3,-512
	j	.L17
.LVL281:
.L131:
	.loc 1 297 7 is_stmt 1
	.loc 1 297 9 is_stmt 0
	beq	a4,a5,.L20
	.loc 1 297 47 discriminator 1
	beq	a3,a5,.L144
.L20:
	.loc 1 302 14 is_stmt 1
	.loc 1 346 18 is_stmt 0
	li	a5,-2147483648
	.loc 1 302 16
	beq	a4,a3,.L145
	.loc 1 305 10 is_stmt 1
.LVL282:
	.loc 1 343 4
	.loc 1 346 1
	.loc 1 346 2
	.loc 1 346 18 is_stmt 0
	li	a4,1015828480
.LVL283:
	addi	a4,a4,772
	.loc 1 305 11
	li	s3,4096
	.loc 1 346 18
	sw	a4,20(a5)
.LVL284:
	.loc 1 348 4 is_stmt 1
	.loc 1 305 11 is_stmt 0
	addi	s3,s3,352
	j	.L8
.LVL285:
.L32:
	.loc 1 324 10 is_stmt 1
	.loc 1 343 4
	.loc 1 344 1
	.loc 1 344 2
	.loc 1 344 18 is_stmt 0
	li	a4,1015828480
.LVL286:
	addi	a4,a4,260
	.loc 1 324 11
	li	s3,8192
	.loc 1 344 18
	sw	a4,20(a5)
.LVL287:
	.loc 1 348 4 is_stmt 1
	.loc 1 324 11 is_stmt 0
	addi	s3,s3,-1216
	j	.L17
.LVL288:
.L137:
	.loc 1 336 14 is_stmt 1
	.loc 1 336 16 is_stmt 0
	beq	a3,a5,.L119
	.loc 1 346 1 is_stmt 1
	.loc 1 346 2
	.loc 1 346 18 is_stmt 0
	li	a5,-2147483648
.L118:
	li	a4,1015828480
.LVL289:
	addi	a4,a4,772
	.loc 1 339 11
	li	s3,8192
	.loc 1 346 18
	sw	a4,20(a5)
.LVL290:
	.loc 1 348 4 is_stmt 1
	.loc 1 339 11 is_stmt 0
	addi	s3,s3,-1888
	j	.L17
.LVL291:
.L23:
	.loc 1 318 11 is_stmt 1
	.loc 1 320 11
	.loc 1 325 11
	.loc 1 325 48 is_stmt 0 discriminator 1
	bne	a2,a5,.L146
	.loc 1 326 7 is_stmt 1
	.loc 1 346 18 is_stmt 0
	li	a5,-2147483648
	.loc 1 326 9
	bne	a4,zero,.L36
	.loc 1 346 1 is_stmt 1
	.loc 1 346 2
	.loc 1 346 18 is_stmt 0
	li	a4,1015828480
.LVL292:
	addi	a4,a4,772
	.loc 1 327 11
	li	s3,8192
	.loc 1 346 18
	sw	a4,20(a5)
.LVL293:
	.loc 1 348 4 is_stmt 1
	.loc 1 327 11 is_stmt 0
	addi	s3,s3,-1440
	j	.L17
.LVL294:
.L27:
	.loc 1 343 4 is_stmt 1
	.loc 1 346 1
	.loc 1 346 2
	.loc 1 346 18 is_stmt 0
	li	a4,1015828480
.LVL295:
	li	a5,-2147483648
	addi	a4,a4,772
	.loc 1 319 8
	li	s3,8192
	.loc 1 346 18
	sw	a4,20(a5)
.LVL296:
	.loc 1 348 4 is_stmt 1
	.loc 1 319 8 is_stmt 0
	addi	s3,s3,-1696
	j	.L17
.LVL297:
.L144:
	.loc 1 298 10 is_stmt 1
	.loc 1 346 18 is_stmt 0
	li	a5,-2147483648
	.loc 1 298 12
	bne	a4,zero,.L21
.LVL298:
	.loc 1 343 4 is_stmt 1
	.loc 1 346 1
	.loc 1 346 2
	.loc 1 346 18 is_stmt 0
	li	a4,1015828480
.LVL299:
	addi	a4,a4,772
	.loc 1 299 14
	li	s3,4096
	.loc 1 346 18
	sw	a4,20(a5)
.LVL300:
	.loc 1 348 4 is_stmt 1
	.loc 1 299 14 is_stmt 0
	addi	s3,s3,-320
	j	.L8
.LVL301:
.L142:
	.loc 1 287 10 is_stmt 1
	.loc 1 344 18 is_stmt 0
	li	a5,-2147483648
	.loc 1 287 12
	bne	a4,zero,.L16
.LVL302:
	.loc 1 343 4 is_stmt 1
	.loc 1 344 1
	.loc 1 344 2
	.loc 1 344 18 is_stmt 0
	li	a4,1015828480
.LVL303:
	addi	a4,a4,260
	.loc 1 288 14
	li	s3,4096
	.loc 1 344 18
	sw	a4,20(a5)
.LVL304:
	.loc 1 348 4 is_stmt 1
	.loc 1 288 14 is_stmt 0
	addi	s3,s3,-1152
	j	.L17
.LVL305:
.L139:
	.loc 1 332 10 is_stmt 1
	.loc 1 335 14 is_stmt 0
	addi	s3,s3,1888
	.loc 1 332 12
	bne	a4,zero,.L42
	.loc 1 333 14
	li	s3,4096
	addi	s3,s3,1568
	j	.L42
.LVL306:
.L138:
	.loc 1 332 10 is_stmt 1
	.loc 1 333 14 is_stmt 0
	addi	s3,s3,1568
	.loc 1 332 12
	beq	a4,zero,.L12
	.loc 1 335 14
	li	s3,4096
	addi	s3,s3,1888
	j	.L12
.LVL307:
.L143:
	.loc 1 343 4 is_stmt 1
	.loc 1 344 1
	.loc 1 344 2
	.loc 1 344 18 is_stmt 0
	li	a4,1015828480
.LVL308:
	addi	a4,a4,260
	.loc 1 292 11
	li	s3,4096
	.loc 1 344 18
	sw	a4,20(a5)
.LVL309:
	.loc 1 348 4 is_stmt 1
	.loc 1 292 11 is_stmt 0
	addi	s3,s3,-1248
	j	.L17
.LVL310:
.L36:
	.loc 1 329 10 is_stmt 1
	.loc 1 343 4
	.loc 1 346 1
	.loc 1 346 2
	.loc 1 346 18 is_stmt 0
	li	a4,1015828480
.LVL311:
	addi	a4,a4,772
	.loc 1 329 11
	li	s3,8192
	.loc 1 346 18
	sw	a4,20(a5)
.LVL312:
	.loc 1 348 4 is_stmt 1
	.loc 1 329 11 is_stmt 0
	addi	s3,s3,-992
	j	.L17
.LVL313:
.L145:
	.loc 1 343 4 is_stmt 1
	.loc 1 346 1
	.loc 1 346 2
	.loc 1 346 18 is_stmt 0
	li	a4,1015828480
.LVL314:
	addi	a4,a4,772
	.loc 1 303 11
	li	s3,4096
	.loc 1 346 18
	sw	a4,20(a5)
.LVL315:
	.loc 1 348 4 is_stmt 1
	.loc 1 303 11 is_stmt 0
	addi	s3,s3,-416
	j	.L8
.LVL316:
.L133:
	.loc 1 242 10 is_stmt 1
	.loc 1 244 15 is_stmt 0
	lw	a3,136(sp)
	lw	a2,80(sp)
.LVL317:
	sub	a4,s0,a4
.LVL318:
	.loc 1 243 10 is_stmt 1
	.loc 1 244 10
	.loc 1 242 12 is_stmt 0
	mul	a5,a4,a5
.LVL319:
	.loc 1 244 15
	add	a3,a3,a2
	sw	a3,136(sp)
.LVL320:
	.loc 1 245 10 is_stmt 1
	.loc 1 245 16 is_stmt 0
	lw	a3,60(sp)
.LVL321:
	.loc 1 227 12
	li	s5,1
	.loc 1 236 9
	li	s9,1
	.loc 1 245 16
	add	s2,s2,a3
.LVL322:
	.loc 1 238 10
	li	a3,1
	sw	a3,0(sp)
	.loc 1 232 15
	sw	a1,8(sp)
	.loc 1 243 13
	mul	a3,a4,a6
.LVL323:
	.loc 1 223 11
	sw	zero,132(sp)
	.loc 1 229 12
	li	s11,0
	.loc 1 228 12
	li	s8,0
	.loc 1 239 13
	li	s4,0
	.loc 1 240 13
	li	s10,0
	.loc 1 242 12
	sw	a5,80(sp)
	.loc 1 243 13
	sw	a3,60(sp)
	j	.L5
.LVL324:
.L21:
	.loc 1 301 13 is_stmt 1
	.loc 1 343 4
	.loc 1 346 1
	.loc 1 346 2
	.loc 1 346 18 is_stmt 0
	li	a4,1015828480
.LVL325:
	addi	a4,a4,772
	sw	a4,20(a5)
.LVL326:
	.loc 1 348 4 is_stmt 1
	.loc 1 301 14 is_stmt 0
	li	s3,4096
	j	.L8
.LVL327:
.L26:
	.loc 1 343 4 is_stmt 1
	.loc 1 346 1
	.loc 1 346 2
	.loc 1 346 18 is_stmt 0
	li	a4,1015828480
.LVL328:
	addi	a4,a4,772
	.loc 1 314 11
	li	s3,4096
	.loc 1 346 18
	sw	a4,20(a5)
.LVL329:
	.loc 1 348 4 is_stmt 1
	.loc 1 314 11 is_stmt 0
	addi	s3,s3,480
	j	.L17
.LVL330:
.L146:
	.loc 1 331 7 is_stmt 1
	.loc 1 331 9 is_stmt 0
	beq	a4,a5,.L147
	.loc 1 331 47 discriminator 1
	beq	a3,a5,.L148
	.loc 1 336 14 is_stmt 1
	.loc 1 339 11 is_stmt 0
	li	s3,8192
	addi	s3,s3,-1888
	.loc 1 336 16
	bne	a4,a3,.L12
.L119:
	.loc 1 346 1 is_stmt 1
	.loc 1 346 2
	.loc 1 346 18 is_stmt 0
	li	a5,-2147483648
.L120:
	li	a4,1015828480
.LVL331:
	addi	a4,a4,772
	.loc 1 337 11
	li	s3,4096
	.loc 1 346 18
	sw	a4,20(a5)
.LVL332:
	.loc 1 348 4 is_stmt 1
	.loc 1 337 11 is_stmt 0
	addi	s3,s3,1472
	j	.L17
.LVL333:
.L132:
	.loc 1 309 10 is_stmt 1
	.loc 1 346 18 is_stmt 0
	li	a5,-2147483648
	.loc 1 309 12
	beq	a4,zero,.L25
	.loc 1 312 13 is_stmt 1
.LVL334:
	.loc 1 343 4
	.loc 1 346 1
	.loc 1 346 2
	.loc 1 346 18 is_stmt 0
	li	a4,1015828480
.LVL335:
	addi	a4,a4,772
	.loc 1 312 14
	li	s3,4096
	.loc 1 346 18
	sw	a4,20(a5)
.LVL336:
	.loc 1 348 4 is_stmt 1
	.loc 1 312 14 is_stmt 0
	addi	s3,s3,960
	j	.L17
.LVL337:
.L16:
	.loc 1 290 13 is_stmt 1
	.loc 1 343 4
	.loc 1 344 1
	.loc 1 344 2
	.loc 1 344 18 is_stmt 0
	li	a4,1015828480
.LVL338:
	addi	a4,a4,260
	.loc 1 290 14
	li	s3,4096
	.loc 1 344 18
	sw	a4,20(a5)
.LVL339:
	.loc 1 348 4 is_stmt 1
	.loc 1 290 14 is_stmt 0
	addi	s3,s3,-832
	j	.L17
.LVL340:
.L148:
	.loc 1 332 10 is_stmt 1
	.loc 1 332 12 is_stmt 0
	bne	a4,zero,.L149
	.loc 1 346 1 is_stmt 1
	.loc 1 346 2
	.loc 1 346 18 is_stmt 0
	li	a4,1015828480
.LVL341:
	li	a5,-2147483648
	addi	a4,a4,772
	.loc 1 333 14
	li	s3,4096
	.loc 1 346 18
	sw	a4,20(a5)
.LVL342:
	.loc 1 348 4 is_stmt 1
	.loc 1 333 14 is_stmt 0
	addi	s3,s3,1568
	j	.L17
.LVL343:
.L149:
	.loc 1 346 1 is_stmt 1
	.loc 1 346 2
	.loc 1 346 18 is_stmt 0
	li	a4,1015828480
.LVL344:
	li	a5,-2147483648
	addi	a4,a4,772
	.loc 1 335 14
	li	s3,4096
	.loc 1 346 18
	sw	a4,20(a5)
.LVL345:
	.loc 1 348 4 is_stmt 1
	.loc 1 335 14 is_stmt 0
	addi	s3,s3,1888
	j	.L17
.LVL346:
.L147:
	.loc 1 336 14 is_stmt 1
	.loc 1 346 18 is_stmt 0
	li	a5,-2147483648
	.loc 1 336 16
	bne	a3,a4,.L118
	j	.L120
.L25:
.LVL347:
	.loc 1 343 4 is_stmt 1
	.loc 1 346 1
	.loc 1 346 2
	.loc 1 346 18 is_stmt 0
	li	a4,1015828480
.LVL348:
	addi	a4,a4,772
	.loc 1 310 14
	li	s3,4096
	.loc 1 346 18
	sw	a4,20(a5)
.LVL349:
	.loc 1 348 4 is_stmt 1
	.loc 1 310 14 is_stmt 0
	addi	s3,s3,640
	j	.L17
	.cfi_endproc
.LFE1:
	.size	copy, .-copy
	.align	2
	.type	yuyv2rgb, @function
yuyv2rgb:
.LFB0:
	.loc 1 71 40 is_stmt 1
	.cfi_startproc
.LVL350:
	.loc 1 72 4
	.loc 1 71 40 is_stmt 0
	addi	sp,sp,-288
	.cfi_def_cfa_offset 288
	sw	s0,280(sp)
	sw	s7,252(sp)
	sw	ra,284(sp)
	sw	s1,276(sp)
	sw	s8,248(sp)
	.loc 1 85 28
	lw	t3,52(a0)
	.cfi_offset 8, -8
	.cfi_offset 23, -36
	.cfi_offset 1, -4
	.cfi_offset 9, -12
	.cfi_offset 24, -40
	.loc 1 86 9
	lw	s1,28(a0)
	.loc 1 71 40
	sw	a0,24(sp)
.LVL351:
	.loc 1 73 4 is_stmt 1
	.loc 1 74 4
	.loc 1 75 4
	.loc 1 76 4
	.loc 1 77 4
	.loc 1 78 4
	.loc 1 79 4
	.loc 1 80 4
	.loc 1 81 4
	.loc 1 82 4
	.loc 1 83 4
	.loc 1 85 4
	.loc 1 85 84 is_stmt 0 discriminator 1
	snez	s0,t3
	neg	s0,s0
	andi	s0,s0,-2
	.loc 1 87 12
	andi	a5,s1,1
	.loc 1 71 40
	mv	s7,a1
	.loc 1 85 84 discriminator 1
	addi	s0,s0,3
.LVL352:
	.loc 1 86 4 is_stmt 1
	.loc 1 87 4
	.loc 1 87 6 is_stmt 0
	bne	a5,zero,.L193
.LVL353:
.L152:
	.loc 1 89 4 is_stmt 1
	.loc 1 92 23 is_stmt 0
	lw	a3,24(sp)
	lw	a4,12(a3)
	.loc 1 93 23
	lw	a0,16(a3)
	.loc 1 92 11
	lw	t4,20(a3)
	.loc 1 90 9
	lw	a2,32(a3)
	.loc 1 93 11
	lw	a7,24(a3)
	.loc 1 104 12
	lw	a5,0(a3)
	.loc 1 105 13
	lw	a1,4(a3)
	.loc 1 96 8
	mul	a6,a4,a0
	.loc 1 89 9
	slli	a3,s1,1
.LVL354:
	.loc 1 90 4 is_stmt 1
	.loc 1 92 4
	.loc 1 92 6 is_stmt 0
	beq	t4,a4,.L194
.L153:
	.loc 1 117 7 is_stmt 1
.LVL355:
	.loc 1 118 7
	.loc 1 119 7
	.loc 1 120 7
	.loc 1 120 12 is_stmt 0
	slli	t4,t4,1
	sw	t4,92(sp)
.LVL356:
	.loc 1 121 7 is_stmt 1
	.loc 1 122 7
	.loc 1 123 7
	.loc 1 124 7
	.loc 1 124 15 is_stmt 0
	slli	t4,s0,7
.LVL357:
	.loc 1 129 9
	srli	t1,a0,31
	.loc 1 124 15
	sw	t4,44(sp)
.LVL358:
	.loc 1 125 7 is_stmt 1
	.loc 1 126 7
	.loc 1 127 7
	.loc 1 128 7
	.loc 1 128 9 is_stmt 0
	slli	t4,a4,1
.LVL359:
	.loc 1 129 9
	add	t1,t1,a0
	.loc 1 130 10
	mul	t6,a4,s0
	.loc 1 128 9
	sw	t4,88(sp)
.LVL360:
	.loc 1 129 7 is_stmt 1
	.loc 1 132 9 is_stmt 0
	li	t5,1
	.loc 1 129 9
	srai	s8,t1,1
.LVL361:
	.loc 1 130 7 is_stmt 1
	.loc 1 131 7
	.loc 1 132 7
	.loc 1 117 11 is_stmt 0
	li	t4,1
.LVL362:
	.loc 1 130 10
	sw	t6,56(sp)
.LVL363:
	.loc 1 132 9
	beq	s7,t5,.L195
	.loc 1 122 14
	li	a4,256
.LVL364:
	.loc 1 123 14
	li	s7,8
.LVL365:
	.loc 1 122 14
	sw	a4,40(sp)
	slli	t1,a6,1
.LVL366:
.L154:
	.loc 1 140 4 is_stmt 1
	.loc 1 141 18 is_stmt 0
	li	a4,-2147483648
	li	a0,1015808000
	.loc 1 140 6
	bne	t3,zero,.L155
	.loc 1 141 1 is_stmt 1
	.loc 1 141 2
	.loc 1 141 18 is_stmt 0
	addi	a0,a0,4
	sw	a0,20(a4)
.LVL367:
.L156:
	.loc 1 145 4 is_stmt 1
	.loc 1 145 11 is_stmt 0
	add	a6,a6,a1
.LVL368:
	.loc 1 146 4 is_stmt 1
	.loc 1 146 11 is_stmt 0
	add	t1,t1,a1
.LVL369:
	.loc 1 147 4 is_stmt 1
	.loc 1 148 10
	ble	s8,zero,.L150
.LBB283:
	.loc 1 185 2521 is_stmt 0
	lw	t3,56(sp)
	lw	a4,88(sp)
	sw	s6,256(sp)
	.cfi_offset 22, -32
	mul	s6,s8,t3
	ble	a4,zero,.L191
	sw	s2,272(sp)
	sw	s3,268(sp)
	sw	s4,264(sp)
	sw	s5,260(sp)
	sw	s9,244(sp)
	sw	s10,240(sp)
	sw	s11,236(sp)
	.cfi_offset 18, -16
	.cfi_offset 19, -20
	.cfi_offset 20, -24
	.cfi_offset 21, -28
	.cfi_offset 25, -44
	.cfi_offset 26, -48
	.cfi_offset 27, -52
	bne	t4,zero,.L196
	lw	t3,92(sp)
	sub	a4,a7,a2
.LBE283:
.LBB284:
	.loc 1 156 1205
	li	t4,4096
.LVL370:
	mul	a0,t3,a2
	mv	a7,t3
.LVL371:
	addi	a2,t3,-1
.LVL372:
	lw	t3,44(sp)
	.loc 1 156 1261
	li	t5,1036288
	.loc 1 156 200
	li	s9,-2147483648
	sub	a6,a6,t3
.LVL373:
	sw	a6,140(sp)
	sub	a6,t1,t3
	sw	a6,144(sp)
	mul	a4,a4,a7
	addi	a6,s6,-1
	sw	a6,72(sp)
	mv	a6,a7
	lw	a7,40(sp)
	sub	a1,a1,t3
.LVL374:
	sw	a1,124(sp)
	sub	a0,a0,a7
	add	a1,a0,a5
	sub	s10,a7,a5
	mul	s4,a6,s7
	lw	a5,56(sp)
.LVL375:
	sw	a1,116(sp)
	addi	s9,s9,800
	addi	s11,a5,-1
	add	a1,a7,a3
	sub	a3,a2,a3
.LVL376:
	sw	s8,168(sp)
	sw	a1,128(sp)
	sw	a3,164(sp)
	mul	s2,a5,s7
	addi	a5,a4,-1
	sw	a5,120(sp)
	slli	a5,a7,1
	sw	a5,96(sp)
	.loc 1 156 1205
	addi	a5,t4,-2048
	sw	a5,136(sp)
	.loc 1 156 1261
	addi	a5,t5,-1889
	sw	a5,48(sp)
.LBE284:
.LBB285:
	.loc 1 156 2004
	li	a5,16384
	addi	a5,a5,-1
.LBE285:
.LBB286:
	.loc 1 185 2521
	sw	zero,76(sp)
.LBE286:
	.loc 1 147 9
	li	s3,0
.LBB287:
	.loc 1 156 2004
	sw	a5,52(sp)
	sw	s7,172(sp)
	mv	s8,s9
.LVL377:
	sw	s10,176(sp)
	sw	s11,180(sp)
.LVL378:
.L166:
.LBE287:
	.loc 1 151 10 is_stmt 1
	.loc 1 149 9 is_stmt 0
	lw	a4,172(sp)
.LBB288:
	.loc 1 156 1529
	lw	a3,116(sp)
.LBE288:
.LBB289:
	.loc 1 156 791
	li	s10,-2147479552
.LBE289:
	.loc 1 149 9
	add	s3,s3,a4
.LVL379:
.LBB290:
	.loc 1 156 1529
	lw	a4,176(sp)
.LBE290:
.LBB291:
	.loc 1 156 1205
	li	a5,-2147479552
	.loc 1 156 1261
	li	s9,-2147479552
.LBE291:
.LBB292:
	.loc 1 156 1529
	add	a4,a4,a3
	sw	a4,132(sp)
.LBE292:
.LBB293:
	.loc 1 175 3069
	lw	a4,180(sp)
.LBE293:
.LBB294:
	.loc 1 156 791
	addi	s10,s10,-1760
	.loc 1 156 1205
	addi	a5,a5,-736
.LBE294:
.LBB295:
	.loc 1 175 3069
	sw	a4,12(sp)
	lw	a4,164(sp)
	sw	s4,156(sp)
	sw	s6,20(sp)
	sw	a4,28(sp)
.LBE295:
	.loc 1 150 17
	sw	zero,16(sp)
.LBB296:
	.loc 1 175 3069
	lw	a4,128(sp)
.LBE296:
.LBB297:
	.loc 1 156 1205
	sw	a5,36(sp)
	.loc 1 156 1261
	addi	s9,s9,-1632
	sw	s3,148(sp)
	sw	s6,152(sp)
	sw	s2,160(sp)
	mv	s4,s10
	j	.L165
.LVL380:
.L161:
.LBE297:
	.loc 1 160 13 is_stmt 1
	.loc 1 160 15 is_stmt 0
	lw	a5,24(sp)
	lw	a5,56(a5)
	beq	a5,s1,.L170
	.loc 1 163 1 is_stmt 1
	.loc 1 163 2
	.loc 1 163 18 is_stmt 0
	li	a5,1015824384
	addi	a5,a5,-508
	sw	a5,0(a4)
.L169:
	.loc 1 172 10 is_stmt 1
	li	a5,-2147483648
	sw	zero,36(a5)
	.loc 1 172 10
	call	_taskYield
.LVL381:
	.loc 1 172 24 discriminator 1
	.loc 1 173 10
.LBB298:
	.loc 1 175 2842 is_stmt 0
	lw	a3,16(sp)
	lw	a5,44(sp)
	add	s3,a5,a3
	.loc 1 175 2835
	addi	a4,s3,-1
.LBE298:
	.loc 1 173 12
	lw	a5,24(sp)
.LBB299:
	.loc 1 175 2854
	sub	a4,a4,a3
	.loc 1 175 3157
	lw	a3,124(sp)
.LBE299:
	.loc 1 173 12
	lw	a5,52(a5)
.LBB300:
	.loc 1 175 2854
	sw	a4,64(sp)
	.loc 1 175 3157
	add	a3,s3,a3
	.loc 1 175 3214
	addi	a4,a4,1
	.loc 1 175 3157
	sw	a3,80(sp)
	.loc 1 175 3214
	sw	a4,60(sp)
.LBE300:
	.loc 1 173 12
	bne	a5,zero,.L197
	.loc 1 174 13 is_stmt 1
.LBB301:
	.loc 1 177 3
.LVL382:
	.loc 1 177 183
	.loc 1 177 199 is_stmt 0
	li	a5,384
	sw	a5,0(s8)
	.loc 1 177 263 is_stmt 1
	.loc 1 177 279 is_stmt 0
	li	t3,-2147483648
	li	a5,7
	.loc 1 177 302
	li	s11,4096
	.loc 1 177 279
	sw	a5,928(t3)
	.loc 1 177 285 is_stmt 1
	.loc 1 177 302 is_stmt 0
	li	s10,-2147483648
	addi	s11,s11,-1025
	sw	s11,1440(s10)
	.loc 1 177 391 is_stmt 1
	.loc 1 177 408 is_stmt 0
	li	t1,-2147479552
	sw	zero,-1248(t1)
	.loc 1 177 472 is_stmt 1
	.loc 1 177 489 is_stmt 0
	li	s5,-2147479552
	li	a4,96
	sw	a4,-2016(s5)
	.loc 1 177 535 is_stmt 1
	.loc 1 177 552 is_stmt 0
	li	s6,-2147479552
	li	s1,3
	sw	s1,-1888(s6)
	.loc 1 177 558 is_stmt 1
	.loc 1 177 575 is_stmt 0
	li	a3,383
	sw	a3,0(s4)
	.loc 1 177 643 is_stmt 1
	.loc 1 177 660 is_stmt 0
	li	a0,-2147479552
	sw	zero,-992(a0)
	.loc 1 177 706 is_stmt 1
	.loc 1 177 723 is_stmt 0
	li	s7,-2147483648
	li	s0,8
	sw	s0,1696(s7)
	.loc 1 177 744 is_stmt 1
	.loc 1 177 761 is_stmt 0
	li	t5,-2147483648
	li	t6,11
	sw	t6,1824(t5)
	.loc 1 177 767 is_stmt 1
	.loc 1 177 784 is_stmt 0
	li	t4,-2147483648
	li	a2,95
	sw	a2,1952(t4)
	.loc 1 177 834 is_stmt 1
	.loc 1 177 851 is_stmt 0
	li	a7,-2147479552
	sw	zero,-1120(a7)
	.loc 1 177 872 is_stmt 1
	.loc 1 177 888 is_stmt 0
	li	a6,-2147483648
	li	t0,1
	sw	t0,1056(a6)
	.loc 1 177 899 is_stmt 1
	.loc 1 177 915 is_stmt 0
	li	a1,-2147483648
	sw	a5,672(a1)
	.loc 1 177 921 is_stmt 1
	.loc 1 177 938 is_stmt 0
	li	a2,-2147483648
	sw	a5,1568(a2)
	.loc 1 177 959 is_stmt 1
	.loc 1 177 976 is_stmt 0
	li	a3,-2147479552
	sw	zero,-864(a3)
	.loc 1 177 985 is_stmt 1
.LVL383:
	.loc 1 177 1132
	.loc 1 177 1148 is_stmt 0
	li	a4,-2147483648
	sw	zero,544(a4)
	.loc 1 177 1177 is_stmt 1
	.loc 1 177 1178
	.loc 1 177 1195 is_stmt 0
	lw	t2,36(sp)
	li	t6,4096
	addi	t6,t6,-1024
	sw	t6,0(t2)
	.loc 1 177 1234 is_stmt 1
	.loc 1 177 1251 is_stmt 0
	lw	t6,48(sp)
.LBE301:
.LBB302:
	.loc 1 177 1567
	li	s2,767
.LBE302:
.LBB303:
	.loc 1 177 1251
	sw	t6,0(s9)
.LBE303:
.LBB304:
	.loc 1 177 1284 is_stmt 1
.LVL384:
	.loc 1 177 1329
.LBE304:
.LBB305:
	.loc 1 177 302 is_stmt 0
	li	t6,4096
.LBE305:
.LBB306:
	.loc 1 177 1346
	sw	t6,-2016(s5)
	.loc 1 177 1358 is_stmt 1
	.loc 1 177 1375 is_stmt 0
	sw	s1,-1888(s6)
	.loc 1 177 1381 is_stmt 1
	.loc 1 177 1398 is_stmt 0
	lw	t6,52(sp)
	sw	t6,0(s4)
	.loc 1 177 1426 is_stmt 1
	.loc 1 177 1443 is_stmt 0
	sw	zero,-992(a0)
	.loc 1 177 1455 is_stmt 1
	.loc 1 177 1472 is_stmt 0
	li	t6,11
	sw	t6,1824(t5)
	.loc 1 177 1514 is_stmt 1
	.loc 1 177 1531 is_stmt 0
	li	t6,64
	sw	t6,1696(s7)
	.loc 1 177 1550 is_stmt 1
	.loc 1 177 1567 is_stmt 0
	sw	s2,1952(t4)
	.loc 1 177 1572 is_stmt 1
	.loc 1 177 1589 is_stmt 0
	sw	zero,-1120(a7)
	.loc 1 177 1592 is_stmt 1
	.loc 1 177 1608 is_stmt 0
	sw	a5,672(a1)
	.loc 1 177 1637 is_stmt 1
	.loc 1 177 1653 is_stmt 0
	sw	s0,1056(a6)
	.loc 1 177 1668 is_stmt 1
	.loc 1 177 1685 is_stmt 0
	sw	s2,1568(a2)
	.loc 1 177 1690 is_stmt 1
	.loc 1 177 1707 is_stmt 0
	sw	zero,-864(a3)
	.loc 1 177 1710 is_stmt 1
	.loc 1 177 1726 is_stmt 0
	sw	a5,928(t3)
	.loc 1 177 1764 is_stmt 1
	.loc 1 177 1780 is_stmt 0
	sw	t0,0(s8)
	.loc 1 177 1791 is_stmt 1
	.loc 1 177 1808 is_stmt 0
	sw	s2,1440(s10)
	.loc 1 177 1813 is_stmt 1
	.loc 1 177 1849 is_stmt 0
	li	t6,524288
	.loc 1 177 1830
	sw	zero,-1248(t1)
	.loc 1 177 1833 is_stmt 1
	.loc 1 177 1849 is_stmt 0
	addi	t6,t6,528
	.loc 1 177 1945
	li	s2,1032192
	.loc 1 177 1849
	sw	t6,544(a4)
	.loc 1 177 1928 is_stmt 1
	.loc 1 177 1945 is_stmt 0
	addi	t6,s2,1181
	sw	t6,0(s9)
.LBE306:
	.loc 1 177 1977 is_stmt 1
	.loc 1 177 1978
	.loc 1 177 1994 is_stmt 0
	li	t6,-2147483648
	addi	t6,t6,20
	li	s2,65536
	sw	t6,32(sp)
	addi	s2,s2,17
	sw	s2,0(t6)
.LBB307:
	.loc 1 177 2082 is_stmt 1
.LVL385:
	.loc 1 177 2174
	.loc 1 177 2191 is_stmt 0
	lw	t6,56(sp)
	.loc 1 177 2551
	li	s2,1036288
	addi	s2,s2,159
	.loc 1 177 2191
	sw	t6,-2016(s5)
.LVL386:
	.loc 1 177 2206 is_stmt 1
	.loc 1 177 2223 is_stmt 0
	sw	zero,-1888(s6)
	.loc 1 177 2229 is_stmt 1
	.loc 1 177 2246 is_stmt 0
	lw	t6,72(sp)
	sw	t6,0(s4)
	.loc 1 177 2271 is_stmt 1
	.loc 1 177 2288 is_stmt 0
	lw	t6,76(sp)
	sw	t6,-992(a0)
	.loc 1 177 2303 is_stmt 1
	.loc 1 177 2319 is_stmt 0
	sw	t0,1056(a6)
	.loc 1 177 2330 is_stmt 1
	.loc 1 177 2346 is_stmt 0
	lw	t6,64(sp)
	sw	t6,672(a1)
	.loc 1 177 2352 is_stmt 1
	.loc 1 177 2369 is_stmt 0
	lw	t6,12(sp)
	sw	t6,1568(a2)
	.loc 1 177 2384 is_stmt 1
	.loc 1 177 2401 is_stmt 0
	lw	t6,16(sp)
	sw	t6,-864(a3)
	.loc 1 177 2410 is_stmt 1
.LVL387:
	.loc 1 177 2443
	.loc 1 177 2459 is_stmt 0
	lw	t6,80(sp)
	sw	t6,544(a4)
	.loc 1 177 2491 is_stmt 1
	.loc 1 177 2492
	.loc 1 177 2509 is_stmt 0
	mv	t6,t2
	lw	t2,60(sp)
	sw	t2,0(t6)
	.loc 1 177 2534 is_stmt 1
	.loc 1 177 2551 is_stmt 0
	sw	s2,0(s9)
.LBE307:
.LBB308:
	.loc 1 177 2584 is_stmt 1
.LVL388:
	.loc 1 177 2764
	.loc 1 177 2780 is_stmt 0
	li	s2,384
	sw	s2,0(s8)
	.loc 1 177 2844 is_stmt 1
	.loc 1 177 2860 is_stmt 0
	sw	a5,928(t3)
	.loc 1 177 2866 is_stmt 1
	.loc 1 177 2883 is_stmt 0
	sw	s11,1440(s10)
	.loc 1 177 2972 is_stmt 1
	.loc 1 177 2989 is_stmt 0
	sw	zero,-1248(t1)
	.loc 1 177 3053 is_stmt 1
	.loc 1 177 3070 is_stmt 0
	li	t1,96
	sw	t1,1696(s7)
	.loc 1 177 3116 is_stmt 1
	.loc 1 177 3133 is_stmt 0
	sw	s1,1824(t5)
	.loc 1 177 3139 is_stmt 1
	.loc 1 177 3156 is_stmt 0
	li	t1,383
	sw	t1,1952(t4)
	.loc 1 177 3224 is_stmt 1
	.loc 1 177 3241 is_stmt 0
	sw	zero,-1120(a7)
	.loc 1 177 3287 is_stmt 1
	.loc 1 177 3304 is_stmt 0
	sw	s0,-2016(s5)
	.loc 1 177 3325 is_stmt 1
	.loc 1 177 3342 is_stmt 0
	li	a7,11
	sw	a7,-1888(s6)
	.loc 1 177 3348 is_stmt 1
	.loc 1 177 3365 is_stmt 0
	li	a7,95
	sw	a7,0(s4)
	.loc 1 177 3415 is_stmt 1
	.loc 1 177 3432 is_stmt 0
	sw	zero,-992(a0)
	.loc 1 177 3453 is_stmt 1
	.loc 1 177 3469 is_stmt 0
	sw	t0,1056(a6)
	.loc 1 177 3480 is_stmt 1
	.loc 1 177 3496 is_stmt 0
	sw	a5,672(a1)
	.loc 1 177 3502 is_stmt 1
	.loc 1 177 3519 is_stmt 0
	sw	a5,1568(a2)
	.loc 1 177 3540 is_stmt 1
	.loc 1 177 3557 is_stmt 0
	sw	zero,-864(a3)
	.loc 1 177 3566 is_stmt 1
.LVL389:
	.loc 1 177 3713
	.loc 1 177 3776 is_stmt 0
	li	a6,1036288
	.loc 1 177 3729
	sw	zero,544(a4)
	.loc 1 177 3758 is_stmt 1
	.loc 1 177 3759
	.loc 1 177 3776 is_stmt 0
	addi	a6,a6,-1891
	sw	a6,0(s9)
.LBE308:
	.loc 1 177 3808 is_stmt 1
	.loc 1 177 3809
	.loc 1 177 3825 is_stmt 0
	lw	t6,32(sp)
	li	a5,393216
	addi	a5,a5,17
	sw	a5,0(t6)
.LVL390:
.L167:
	.loc 1 152 19 is_stmt 1
	.loc 1 151 10
	lw	a3,28(sp)
	lw	a2,40(sp)
	lw	a5,96(sp)
	lw	a4,68(sp)
	sub	a3,a3,a2
	sw	a3,28(sp)
	lw	a2,12(sp)
	lw	a3,44(sp)
	add	a4,a5,a4
	lw	a5,128(sp)
	sub	a2,a2,a3
	sw	a2,12(sp)
	lw	a2,20(sp)
	sub	a5,a4,a5
	sub	a3,a2,a3
	sw	a3,20(sp)
	lw	a3,88(sp)
	ble	a3,a5,.L198
.LVL391:
.LBB309:
	.loc 1 175 2842 is_stmt 0
	sw	s3,16(sp)
.LVL392:
.L165:
.LBE309:
	.loc 1 153 10 is_stmt 1
.LBB310:
	.loc 1 156 200 is_stmt 0
	li	s6,256
	sw	s6,0(s8)
	.loc 1 156 281
	li	a5,7
	li	t6,-2147483648
	sw	a5,928(t6)
	.loc 1 156 304
	li	s0,-2147483648
	li	a3,2047
	sw	a3,1440(s0)
	.loc 1 156 411
	li	t5,-2147479552
	sw	zero,-1248(t5)
	.loc 1 156 493
	li	ra,-2147483648
	li	s5,64
	sw	s5,1696(ra)
	.loc 1 156 557
	li	t2,-2147483648
	li	s7,3
	sw	s7,1824(t2)
	.loc 1 156 580
	li	t0,-2147483648
	li	a3,255
	sw	a3,1952(t0)
	.loc 1 156 666
	li	t4,-2147479552
	sw	zero,-1120(t4)
	.loc 1 156 730
	li	t3,-2147479552
	li	s3,8
	sw	s3,-2016(t3)
	.loc 1 156 768
	li	a7,-2147479552
	sw	a5,-1888(a7)
	.loc 1 156 791
	li	a2,63
	sw	a2,0(s4)
	.loc 1 156 859
	li	a6,-2147479552
	sw	zero,-992(a6)
	.loc 1 156 896
	li	t1,-2147483648
	li	s1,1
	sw	s1,1056(t1)
	.loc 1 156 923
	li	a0,-2147483648
	sw	a5,672(a0)
	.loc 1 156 946
	li	a1,-2147483648
	sw	a5,1568(a1)
	.loc 1 156 984
	li	a2,-2147479552
	sw	zero,-864(a2)
	.loc 1 156 1158
	li	a3,-2147483648
	sw	zero,544(a3)
	.loc 1 156 1205
	lw	s10,36(sp)
	lw	s11,136(sp)
.LBE310:
.LBB311:
	.loc 1 154 1853
	addi	s2,a4,-1
.LBE311:
.LBB312:
	.loc 1 156 1205
	sw	s11,0(s10)
	.loc 1 156 1261
	lw	s6,48(sp)
	sw	s6,0(s9)
.LBE312:
.LBB313:
	.loc 1 156 1422
	lw	s6,92(sp)
	sw	s6,-2016(t3)
	.loc 1 156 1456
	sw	zero,-1888(a7)
	.loc 1 156 1479
	lw	s6,120(sp)
	sw	s6,0(s4)
	.loc 1 156 1525
	lw	s6,132(sp)
	sw	s6,-992(a6)
	lw	s6,40(sp)
	sub	s6,a4,s6
	sw	s6,68(sp)
.LBE313:
.LBB314:
	.loc 1 154 1876
	sub	s2,s2,s6
.LBE314:
.LBB315:
	.loc 1 156 1558
	sw	s1,1056(t1)
	.loc 1 156 1585
	sw	s2,672(a0)
	.loc 1 156 1608
	lw	s2,28(sp)
	sw	s2,1568(a1)
	.loc 1 156 1642
	sw	s6,-864(a2)
.LBE315:
.LBB316:
	.loc 1 154 2191
	lw	s6,116(sp)
.LBE316:
	.loc 1 156 1800
	li	s2,393216
	addi	s2,s2,17
.LBB317:
	.loc 1 154 2191
	add	a4,a4,s6
.LBE317:
.LBB318:
	.loc 1 156 3 is_stmt 1
.LVL393:
	.loc 1 156 184
	.loc 1 156 265
	.loc 1 156 287
	.loc 1 156 394
	.loc 1 156 476
	.loc 1 156 540
	.loc 1 156 563
	.loc 1 156 649
	.loc 1 156 713
	.loc 1 156 751
	.loc 1 156 774
	.loc 1 156 842
	.loc 1 156 880
	.loc 1 156 907
	.loc 1 156 929
	.loc 1 156 967
	.loc 1 156 993
	.loc 1 156 1142
	.loc 1 156 1187
	.loc 1 156 1188
	.loc 1 156 1244
.LBE318:
.LBB319:
	.loc 1 156 1294
	.loc 1 156 1405
	.loc 1 156 1439
	.loc 1 156 1462
	.loc 1 156 1508
	.loc 1 156 1542
	.loc 1 156 1569
	.loc 1 156 1591
	.loc 1 156 1625
	.loc 1 156 1651
	.loc 1 156 1686
	.loc 1 156 1751 is_stmt 0
	li	s6,1036288
	.loc 1 156 1702
	sw	a4,544(a3)
	.loc 1 156 1733 is_stmt 1
	.loc 1 156 1734
	.loc 1 156 1751 is_stmt 0
	addi	s6,s6,157
.LBE319:
	.loc 1 156 1800
	li	a4,-2147483648
.LBB320:
	.loc 1 156 1751
	sw	s6,0(s9)
.LBE320:
	.loc 1 156 1783 is_stmt 1
	.loc 1 156 1784
	.loc 1 156 1800 is_stmt 0
	sw	s2,20(a4)
.LBB321:
	.loc 1 156 1890 is_stmt 1
.LVL394:
	.loc 1 156 1935
.LBE321:
.LBB322:
	.loc 1 156 1205 is_stmt 0
	li	s6,4096
.LBE322:
.LBB323:
	.loc 1 156 1952
	sw	s6,-2016(t3)
	.loc 1 156 1964 is_stmt 1
	.loc 1 156 1981 is_stmt 0
	sw	s7,-1888(a7)
	.loc 1 156 1987 is_stmt 1
	.loc 1 156 2004 is_stmt 0
	lw	s6,52(sp)
.LBE323:
	.loc 1 156 1800
	addi	a4,a4,20
.LBB324:
	.loc 1 156 2004
	sw	s6,0(s4)
	.loc 1 156 2032 is_stmt 1
	.loc 1 156 2049 is_stmt 0
	sw	zero,-992(a6)
	.loc 1 156 2061 is_stmt 1
	.loc 1 156 2078 is_stmt 0
	sw	a5,1824(t2)
	.loc 1 156 2121 is_stmt 1
	.loc 1 156 2138 is_stmt 0
	sw	s5,1696(ra)
	.loc 1 156 2157 is_stmt 1
	.loc 1 156 2174 is_stmt 0
	li	s6,511
	sw	s6,1952(t0)
	.loc 1 156 2179 is_stmt 1
	.loc 1 156 2196 is_stmt 0
	sw	zero,-1120(t4)
	.loc 1 156 2199 is_stmt 1
	.loc 1 156 2215 is_stmt 0
	sw	a5,672(a0)
	.loc 1 156 2244 is_stmt 1
	.loc 1 156 2260 is_stmt 0
	sw	s3,1056(t1)
	.loc 1 156 2275 is_stmt 1
	.loc 1 156 2292 is_stmt 0
	sw	s6,1568(a1)
	.loc 1 156 2297 is_stmt 1
	.loc 1 156 2314 is_stmt 0
	sw	zero,-864(a2)
	.loc 1 156 2317 is_stmt 1
	.loc 1 156 2333 is_stmt 0
	sw	a5,928(t6)
	.loc 1 156 2371 is_stmt 1
	.loc 1 156 2387 is_stmt 0
	sw	s1,0(s8)
	.loc 1 156 2398 is_stmt 1
	.loc 1 156 2415 is_stmt 0
	sw	s6,1440(s0)
	.loc 1 156 2420 is_stmt 1
	.loc 1 156 2456 is_stmt 0
	li	s6,524288
	.loc 1 156 2437
	sw	zero,-1248(t5)
	.loc 1 156 2440 is_stmt 1
	.loc 1 156 2456 is_stmt 0
	addi	s6,s6,16
	sw	s6,544(a3)
	.loc 1 156 2534 is_stmt 1
	.loc 1 156 2685 is_stmt 0
	li	s6,1032192
	.loc 1 156 2551
	sw	s11,0(s10)
	.loc 1 156 2668 is_stmt 1
	.loc 1 156 2685 is_stmt 0
	addi	s6,s6,1183
	sw	s6,0(s9)
.LBE324:
.LBB325:
	.loc 1 156 2718 is_stmt 1
.LVL395:
	.loc 1 156 2899
	.loc 1 156 2915 is_stmt 0
	li	s6,256
	sw	s6,0(s8)
	.loc 1 156 2980 is_stmt 1
	.loc 1 156 2996 is_stmt 0
	sw	a5,928(t6)
	.loc 1 156 3002 is_stmt 1
	.loc 1 156 3019 is_stmt 0
	li	t6,2047
	sw	t6,1440(s0)
	.loc 1 156 3109 is_stmt 1
	.loc 1 156 3126 is_stmt 0
	sw	zero,-1248(t5)
	.loc 1 156 3191 is_stmt 1
	.loc 1 156 3208 is_stmt 0
	sw	s5,-2016(t3)
	.loc 1 156 3255 is_stmt 1
	.loc 1 156 3272 is_stmt 0
	sw	s7,-1888(a7)
	.loc 1 156 3278 is_stmt 1
	.loc 1 156 3295 is_stmt 0
	li	a7,255
	sw	a7,0(s4)
	.loc 1 156 3364 is_stmt 1
	.loc 1 156 3381 is_stmt 0
	sw	zero,-992(a6)
	.loc 1 156 3428 is_stmt 1
	.loc 1 156 3445 is_stmt 0
	sw	s3,1696(ra)
	.loc 1 156 3466 is_stmt 1
	.loc 1 156 3483 is_stmt 0
	sw	a5,1824(t2)
	.loc 1 156 3489 is_stmt 1
	.loc 1 156 3506 is_stmt 0
	li	a6,63
	sw	a6,1952(t0)
	.loc 1 156 3557 is_stmt 1
	.loc 1 156 3574 is_stmt 0
	sw	zero,-1120(t4)
	.loc 1 156 3595 is_stmt 1
	.loc 1 156 3611 is_stmt 0
	sw	s1,1056(t1)
	.loc 1 156 3622 is_stmt 1
	.loc 1 156 3638 is_stmt 0
	sw	a5,672(a0)
	.loc 1 156 3644 is_stmt 1
	.loc 1 156 3661 is_stmt 0
	sw	a5,1568(a1)
	.loc 1 156 3682 is_stmt 1
	.loc 1 156 3699 is_stmt 0
	sw	zero,-864(a2)
	.loc 1 156 3708 is_stmt 1
.LVL396:
	.loc 1 156 3857
	.loc 1 156 3920 is_stmt 0
	li	t1,1036288
	.loc 1 156 3873
	sw	zero,544(a3)
	.loc 1 156 3902 is_stmt 1
	.loc 1 156 3903
	.loc 1 156 3920 is_stmt 0
	addi	t1,t1,-1891
	sw	t1,0(s9)
.LBE325:
	.loc 1 156 3952 is_stmt 1
	.loc 1 156 3953
	.loc 1 158 18 is_stmt 0
	li	a5,1015812096
	.loc 1 156 3969
	sw	s2,0(a4)
	.loc 1 158 1 is_stmt 1
	.loc 1 158 2
	.loc 1 158 18 is_stmt 0
	addi	a5,a5,-1788
	sw	a5,0(a4)
	.loc 1 159 10 is_stmt 1
	.loc 1 159 12 is_stmt 0
	lw	a5,24(sp)
	lw	a5,52(a5)
	beq	a5,zero,.L161
	.loc 1 166 13 is_stmt 1
	.loc 1 166 15 is_stmt 0
	lw	a5,24(sp)
	lw	a5,56(a5)
	beq	a5,s1,.L168
	.loc 1 169 1 is_stmt 1
	.loc 1 169 2
	.loc 1 169 18 is_stmt 0
	li	a5,1015828480
	addi	a5,a5,-2044
	sw	a5,0(a4)
	j	.L169
.LVL397:
.L200:
	lw	s4,188(sp)
	lw	a5,104(sp)
	lw	s5,184(sp)
	lw	s6,196(sp)
	sub	a5,a5,s4
	sw	a5,104(sp)
	.loc 1 148 10
	lw	a5,108(sp)
	lw	s3,192(sp)
	lw	s0,200(sp)
	.loc 1 149 17 is_stmt 1
	.loc 1 148 10
	add	a5,a5,s4
	sw	a5,108(sp)
	lw	a5,180(sp)
	sub	s6,s6,s4
	add	a5,a5,s4
	sw	a5,180(sp)
	lw	a5,176(sp)
	add	a5,a5,s4
	sw	a5,176(sp)
	lw	a5,152(sp)
	add	a5,a5,s4
	sw	a5,152(sp)
	lw	a5,144(sp)
	add	a5,a5,s5
	sw	a5,144(sp)
	lw	a5,148(sp)
	sub	a5,a5,s5
	sw	a5,148(sp)
	lw	a5,208(sp)
	bgt	a5,s3,.L160
	lw	s2,272(sp)
	.cfi_restore 18
	lw	s3,268(sp)
	.cfi_restore 19
	lw	s4,264(sp)
	.cfi_restore 20
	lw	s5,260(sp)
	.cfi_restore 21
	lw	s6,256(sp)
	.cfi_restore 22
	lw	s9,244(sp)
	.cfi_restore 25
	lw	s10,240(sp)
	.cfi_restore 26
	lw	s11,236(sp)
	.cfi_restore 27
.LVL398:
.L150:
	.loc 1 192 1 is_stmt 0
	lw	ra,284(sp)
	.cfi_restore 1
	lw	s0,280(sp)
	.cfi_restore 8
	lw	s1,276(sp)
	.cfi_restore 9
	lw	s7,252(sp)
	.cfi_restore 23
	lw	s8,248(sp)
	.cfi_restore 24
	addi	sp,sp,288
	.cfi_def_cfa_offset 0
	jr	ra
.LVL399:
.L196:
	.cfi_def_cfa_offset 288
	.cfi_offset 1, -4
	.cfi_offset 8, -8
	.cfi_offset 9, -12
	.cfi_offset 18, -16
	.cfi_offset 19, -20
	.cfi_offset 20, -24
	.cfi_offset 21, -28
	.cfi_offset 22, -32
	.cfi_offset 23, -36
	.cfi_offset 24, -40
	.cfi_offset 25, -44
	.cfi_offset 26, -48
	.cfi_offset 27, -52
	addi	t4,s6,-1
.LVL400:
	sw	t4,104(sp)
	lw	t4,44(sp)
	lw	a0,92(sp)
	sub	a4,a7,a2
	sub	a6,a6,t4
.LVL401:
	addi	a7,a0,-1
.LVL402:
	sw	a6,180(sp)
	mv	a6,a0
	mul	a0,a0,a2
	sub	t1,t1,t4
.LVL403:
	sw	t1,176(sp)
	lw	t1,40(sp)
.LBB326:
	.loc 1 154 966
	li	t5,-2147483648
	sub	a1,a1,t4
.LVL404:
	sub	s10,t1,a5
	sw	a1,152(sp)
	add	a1,t1,a3
	sw	a1,156(sp)
	mul	a4,a4,a6
	sub	a0,a0,t1
	add	a5,a0,a5
.LVL405:
	sw	a5,144(sp)
	sub	a5,a2,s7
	sw	a5,204(sp)
	addi	a5,t5,1952
	sw	a5,20(sp)
.LBE326:
.LBB327:
	.loc 1 154 2685
	li	a5,16777216
	addi	a5,a5,-1
	mul	s4,s7,t3
	sub	s9,a7,a3
	addi	s11,t3,-1
	slli	a1,t1,1
	sw	a5,76(sp)
	addi	a5,a4,-1
.LBE327:
.LBB328:
	.loc 1 185 2521
	sw	zero,108(sp)
.LBE328:
	.loc 1 147 9
	li	s3,0
	sw	a1,96(sp)
	sw	a5,148(sp)
	mul	s5,a6,s7
	sw	s8,208(sp)
	sw	s9,212(sp)
	mv	s0,s7
.LVL406:
	sw	s10,216(sp)
	sw	s11,220(sp)
.LVL407:
.L160:
	.loc 1 151 10 is_stmt 1
.LBB329:
	.loc 1 156 1529 is_stmt 0
	lw	a1,216(sp)
	lw	a0,144(sp)
	lw	a5,204(sp)
	sw	s3,168(sp)
	add	a1,a1,a0
	sw	a1,160(sp)
.LBE329:
.LBB330:
	.loc 1 175 3069
	lw	a1,220(sp)
.LBE330:
	.loc 1 149 9
	add	s3,s3,s0
.LVL408:
	add	a4,a5,s3
.LBB331:
	.loc 1 175 3069
	sw	a1,48(sp)
	lw	a1,212(sp)
	add	a5,s0,a4
	lw	s7,156(sp)
.LBE331:
.LBB332:
	.loc 1 154 241
	li	a3,-2147483648
	addi	a3,a3,288
	.loc 1 154 1153
	li	a2,-2147479552
	.loc 1 154 1176
	li	s11,-2147479552
.LBE332:
.LBB333:
	.loc 1 154 1795
	addi	a5,a5,-1
	.loc 1 154 1818
	sub	a5,a5,a4
.LBE333:
.LBB334:
	.loc 1 175 3069
	sw	a1,64(sp)
.LBE334:
.LBB335:
	.loc 1 154 241
	sw	a3,28(sp)
	addi	a1,s3,-1
	.loc 1 154 1153
	addi	a3,a2,-1888
	.loc 1 154 1176
	addi	s11,s11,-1760
.LBE335:
.LBB336:
	.loc 1 175 3069
	sw	s6,52(sp)
.LBE336:
	.loc 1 150 17
	sw	zero,60(sp)
	sw	a1,172(sp)
.LBB337:
	.loc 1 154 1818
	sw	a5,164(sp)
	sw	s5,184(sp)
	sw	s4,188(sp)
	sw	s3,192(sp)
	sw	s6,196(sp)
	mv	a4,s7
	sw	s0,200(sp)
	sw	s11,16(sp)
	sw	a3,12(sp)
	j	.L177
.LVL409:
.L201:
.LBE337:
	.loc 1 160 13 is_stmt 1
	.loc 1 160 15 is_stmt 0
	lw	a5,56(a4)
	beq	a5,s3,.L199
	.loc 1 163 1 is_stmt 1
	.loc 1 163 2
	.loc 1 163 18 is_stmt 0
	lw	a4,32(sp)
	li	a5,1015824384
	addi	a5,a5,-508
	sw	a5,0(a4)
.L173:
	.loc 1 172 10 is_stmt 1
	li	a5,-2147483648
	sw	zero,36(a5)
	.loc 1 172 10
	call	_taskYield
.LVL410:
	.loc 1 172 24 discriminator 1
	.loc 1 173 10
.LBB338:
	.loc 1 175 2842 is_stmt 0
	lw	a5,44(sp)
	lw	s9,60(sp)
	.loc 1 175 3157
	lw	a2,152(sp)
	.loc 1 175 2842
	add	a3,a5,s9
.LBE338:
	.loc 1 173 12
	lw	a5,24(sp)
.LBB339:
	.loc 1 175 2835
	addi	a4,a3,-1
	.loc 1 175 2854
	sub	a4,a4,s9
.LBE339:
	.loc 1 173 12
	lw	a5,52(a5)
.LBB340:
	.loc 1 175 2842
	sw	a3,72(sp)
	.loc 1 175 3157
	add	a3,a2,a3
	.loc 1 175 3214
	addi	a2,a4,1
	.loc 1 175 3157
	sw	a3,112(sp)
	.loc 1 175 3214
	sw	a4,80(sp)
	sw	a2,116(sp)
.LBE340:
	.loc 1 173 12
	bne	a5,zero,.L175
	.loc 1 174 13 is_stmt 1
.LBB341:
	.loc 1 175 3
.LVL411:
	.loc 1 175 224
	.loc 1 175 241 is_stmt 0
	li	s0,4096
	li	s3,-2147483648
	addi	s0,s0,-1024
	sw	s0,1696(s3)
	.loc 1 175 325 is_stmt 1
	.loc 1 175 342 is_stmt 0
	li	t0,-2147483648
	sw	zero,1824(t0)
	.loc 1 175 348 is_stmt 1
	.loc 1 175 365 is_stmt 0
	lw	s6,20(sp)
	li	s4,4096
	addi	s4,s4,-1025
	sw	s4,0(s6)
	.loc 1 175 470 is_stmt 1
	.loc 1 175 487 is_stmt 0
	li	t6,-2147479552
	sw	zero,-1120(t6)
	.loc 1 175 571 is_stmt 1
	.loc 1 175 587 is_stmt 0
	lw	s11,28(sp)
	li	a1,384
	.loc 1 175 666
	li	a5,7
	.loc 1 175 587
	sw	a1,0(s11)
	.loc 1 175 650 is_stmt 1
	.loc 1 175 666 is_stmt 0
	li	t5,-2147483648
	sw	a5,416(t5)
	.loc 1 175 672 is_stmt 1
	.loc 1 175 689 is_stmt 0
	li	a4,-2147483648
	sw	a4,32(sp)
	sw	s4,1312(a4)
	.loc 1 175 777 is_stmt 1
	.loc 1 175 794 is_stmt 0
	li	t3,-2147479552
	sw	zero,-1376(t3)
	.loc 1 175 857 is_stmt 1
	.loc 1 175 874 is_stmt 0
	li	s10,-2147479552
	li	a0,96
	sw	a0,-2016(s10)
	.loc 1 175 920 is_stmt 1
	.loc 1 175 937 is_stmt 0
	lw	t1,12(sp)
	li	a1,3
	.loc 1 175 960
	li	a6,383
	.loc 1 175 937
	sw	a1,0(t1)
	.loc 1 175 943 is_stmt 1
	.loc 1 175 960 is_stmt 0
	lw	a4,16(sp)
	.loc 1 175 1044
	li	a0,-2147479552
	.loc 1 175 937
	mv	s2,a1
	.loc 1 175 960
	sw	a6,0(a4)
	.loc 1 175 1027 is_stmt 1
	.loc 1 175 1044 is_stmt 0
	sw	zero,-992(a0)
	.loc 1 175 1090 is_stmt 1
	.loc 1 175 1106 is_stmt 0
	li	s7,-2147483648
	li	a1,8
	sw	a1,800(s7)
	.loc 1 175 1127 is_stmt 1
	.loc 1 175 1143 is_stmt 0
	li	s5,-2147483648
	li	a6,11
	sw	a6,928(s5)
	.loc 1 175 1149 is_stmt 1
	.loc 1 175 1166 is_stmt 0
	li	s8,-2147483648
	li	a7,95
	sw	a7,1440(s8)
	.loc 1 175 1216 is_stmt 1
	.loc 1 175 1233 is_stmt 0
	li	t1,-2147479552
	sw	zero,-1248(t1)
	.loc 1 175 1254 is_stmt 1
	.loc 1 175 1270 is_stmt 0
	li	a7,-2147483648
	li	s1,1
	sw	s1,1056(a7)
	.loc 1 175 1281 is_stmt 1
	.loc 1 175 1297 is_stmt 0
	li	a1,-2147483648
	sw	a5,672(a1)
	.loc 1 175 1303 is_stmt 1
	.loc 1 175 1320 is_stmt 0
	li	a2,-2147483648
	sw	a5,1568(a2)
	.loc 1 175 1341 is_stmt 1
	.loc 1 175 1358 is_stmt 0
	li	a3,-2147479552
	sw	zero,-864(a3)
	.loc 1 175 1367 is_stmt 1
.LVL412:
	.loc 1 175 1596
	.loc 1 175 1612 is_stmt 0
	li	a4,-2147483648
	.loc 1 175 1659
	li	t2,-2147479552
	.loc 1 175 1612
	sw	zero,544(a4)
	.loc 1 175 1641 is_stmt 1
	.loc 1 175 1642
	.loc 1 175 1659 is_stmt 0
	mv	t4,t2
	sw	t4,36(sp)
	.loc 1 175 1722
	li	t2,1036288
	.loc 1 175 1659
	sw	s0,-736(t4)
	.loc 1 175 1705 is_stmt 1
	.loc 1 175 1722 is_stmt 0
	li	a6,-2147479552
	addi	t2,t2,-1889
	sw	t2,-1632(a6)
.LBE341:
.LBB342:
	.loc 1 175 1755 is_stmt 1
.LVL413:
	.loc 1 175 1839
	.loc 1 175 1856 is_stmt 0
	li	t2,16384
	sw	t2,1696(s3)
	.loc 1 175 1879 is_stmt 1
	.loc 1 175 1896 is_stmt 0
	sw	zero,1824(t0)
	.loc 1 175 1902 is_stmt 1
	.loc 1 175 1919 is_stmt 0
	sw	s6,20(sp)
	addi	t2,t2,-1
	sw	t2,0(s6)
	.loc 1 175 1957 is_stmt 1
	.loc 1 175 1974 is_stmt 0
	sw	zero,-1120(t6)
	.loc 1 175 1997 is_stmt 1
.LBE342:
.LBB343:
	.loc 1 175 241 is_stmt 0
	li	t2,4096
.LBE343:
.LBB344:
	.loc 1 175 2014
	sw	t2,-2016(s10)
	.loc 1 175 2026 is_stmt 1
	.loc 1 175 2043 is_stmt 0
	mv	t2,s2
	lw	s2,12(sp)
	.loc 1 175 2314
	li	s6,8
	.loc 1 175 2043
	sw	t2,0(s2)
	.loc 1 175 2049 is_stmt 1
	.loc 1 175 2066 is_stmt 0
	lw	t2,76(sp)
	lw	t4,16(sp)
	.loc 1 175 2134
	li	s2,11
	.loc 1 175 2066
	sw	t2,0(t4)
	.loc 1 175 2089 is_stmt 1
	.loc 1 175 2106 is_stmt 0
	sw	zero,-992(a0)
	.loc 1 175 2118 is_stmt 1
	.loc 1 175 2134 is_stmt 0
	sw	s2,928(s5)
	.loc 1 175 2176 is_stmt 1
	.loc 1 175 2192 is_stmt 0
	li	s2,64
	sw	s2,800(s7)
	.loc 1 175 2211 is_stmt 1
	.loc 1 175 2228 is_stmt 0
	li	t2,767
	sw	t2,1440(s8)
	.loc 1 175 2233 is_stmt 1
	.loc 1 175 2250 is_stmt 0
	sw	zero,-1248(t1)
	.loc 1 175 2253 is_stmt 1
	.loc 1 175 2269 is_stmt 0
	sw	a5,672(a1)
	.loc 1 175 2298 is_stmt 1
	.loc 1 175 2314 is_stmt 0
	sw	s6,1056(a7)
	.loc 1 175 2329 is_stmt 1
	.loc 1 175 2346 is_stmt 0
	sw	t2,1568(a2)
	.loc 1 175 2351 is_stmt 1
	.loc 1 175 2368 is_stmt 0
	sw	zero,-864(a3)
	.loc 1 175 2371 is_stmt 1
	.loc 1 175 2387 is_stmt 0
	sw	a5,416(t5)
	.loc 1 175 2425 is_stmt 1
	.loc 1 175 2441 is_stmt 0
	sw	s11,28(sp)
	sw	s1,0(s11)
	.loc 1 175 2452 is_stmt 1
	.loc 1 175 2469 is_stmt 0
	lw	s6,32(sp)
	sw	t2,1312(s6)
	.loc 1 175 2474 is_stmt 1
	.loc 1 175 2510 is_stmt 0
	li	t2,524288
	.loc 1 175 2491
	sw	zero,-1376(t3)
	.loc 1 175 2494 is_stmt 1
	.loc 1 175 2510 is_stmt 0
	addi	t2,t2,528
	sw	t2,544(a4)
	.loc 1 175 2611 is_stmt 1
.LBE344:
.LBB345:
	.loc 1 175 2805 is_stmt 0
	lw	t4,172(sp)
	lw	s11,168(sp)
.LBE345:
.LBB346:
	.loc 1 175 2628
	li	s6,1032192
	addi	s6,s6,1181
.LBE346:
.LBB347:
	.loc 1 175 2805
	sub	s2,t4,s11
.LBE347:
	.loc 1 175 2677
	li	t4,65536
.LBB348:
	.loc 1 175 2628
	sw	s6,-1632(a6)
.LBE348:
	.loc 1 175 2660 is_stmt 1
	.loc 1 175 2661
	.loc 1 175 2677 is_stmt 0
	li	t2,-2147483648
	addi	t4,t4,17
	sw	t4,20(t2)
.LBB349:
	.loc 1 175 2765 is_stmt 1
.LVL414:
	.loc 1 175 2867
	.loc 1 175 3217 is_stmt 0
	lw	s11,116(sp)
	.loc 1 175 3207
	addi	s6,s2,1
	.loc 1 175 3217
	mul	s6,s6,s11
	.loc 1 175 2884
	lw	s11,56(sp)
	sw	s11,-2016(s10)
.LVL415:
	.loc 1 175 2899 is_stmt 1
	.loc 1 175 2916 is_stmt 0
	lw	s11,12(sp)
	sw	s2,0(s11)
	.loc 1 175 2922 is_stmt 1
	.loc 1 175 2939 is_stmt 0
	lw	s11,104(sp)
	lw	t4,16(sp)
	sw	s11,0(t4)
	.loc 1 175 2964 is_stmt 1
	.loc 1 175 2981 is_stmt 0
	lw	s11,108(sp)
	sw	s11,-992(a0)
	.loc 1 175 2996 is_stmt 1
	.loc 1 175 3012 is_stmt 0
	sw	s1,1056(a7)
	.loc 1 175 3023 is_stmt 1
	.loc 1 175 3039 is_stmt 0
	lw	s2,80(sp)
.LVL416:
	sw	s2,672(a1)
	.loc 1 175 3045 is_stmt 1
	.loc 1 175 3062 is_stmt 0
	lw	s11,48(sp)
	sw	s11,1568(a2)
	.loc 1 175 3077 is_stmt 1
	.loc 1 175 3094 is_stmt 0
	sw	s9,-864(a3)
	.loc 1 175 3103 is_stmt 1
.LVL417:
	.loc 1 175 3136
	.loc 1 175 3152 is_stmt 0
	lw	s2,112(sp)
	sw	s2,544(a4)
	.loc 1 175 3184 is_stmt 1
	.loc 1 175 3185
	.loc 1 175 3202 is_stmt 0
	lw	t4,36(sp)
	.loc 1 175 3244
	li	s2,1036288
	addi	s2,s2,159
	.loc 1 175 3202
	sw	s6,-736(t4)
	.loc 1 175 3227 is_stmt 1
	.loc 1 175 3244 is_stmt 0
	sw	s2,-1632(a6)
.LBE349:
.LBB350:
	.loc 1 175 3277 is_stmt 1
.LVL418:
	.loc 1 175 3498
	.loc 1 175 3514 is_stmt 0
	lw	s11,28(sp)
	.loc 1 175 0
	li	s2,3
	.loc 1 175 3514
	sw	s0,0(s11)
	.loc 1 175 3598 is_stmt 1
	.loc 1 175 3614 is_stmt 0
	sw	zero,416(t5)
	.loc 1 175 3620 is_stmt 1
	.loc 1 175 3637 is_stmt 0
	lw	t5,32(sp)
	sw	s4,1312(t5)
	.loc 1 175 3742 is_stmt 1
	.loc 1 175 3759 is_stmt 0
	sw	zero,-1376(t3)
	.loc 1 175 3843 is_stmt 1
	.loc 1 175 3859 is_stmt 0
	li	t3,384
	sw	t3,800(s7)
	.loc 1 175 3922 is_stmt 1
	.loc 1 175 3938 is_stmt 0
	sw	a5,928(s5)
	.loc 1 175 3944 is_stmt 1
	.loc 1 175 3961 is_stmt 0
	sw	s4,1440(s8)
	.loc 1 175 4049 is_stmt 1
	.loc 1 175 4066 is_stmt 0
	sw	zero,-1248(t1)
	.loc 1 175 0 is_stmt 1
	li	t1,96
	sw	t1,1696(s3)
	.loc 1 175 0
	sw	s2,1824(t0)
	.loc 1 175 0
	lw	s6,20(sp)
	li	t1,383
	li	s2,11
	sw	t1,0(s6)
	.loc 1 175 0
	sw	zero,-1120(t6)
	.loc 1 175 0
	li	s6,8
	sw	s6,-2016(s10)
	.loc 1 175 0
	lw	t1,12(sp)
	sw	s2,0(t1)
	.loc 1 175 0
	lw	t3,16(sp)
	li	t1,95
	sw	t1,0(t3)
	.loc 1 175 0
	sw	zero,-992(a0)
	.loc 1 175 0
	sw	s1,1056(a7)
	.loc 1 175 0
	sw	a5,672(a1)
	.loc 1 175 0
	sw	a5,1568(a2)
	.loc 1 175 0
	sw	zero,-864(a3)
	.loc 1 175 0
.LVL419:
	.loc 1 175 0
	li	a7,1036288
	sw	zero,544(a4)
	.loc 1 175 0
	.loc 1 175 0
	addi	a7,a7,-1891
.LBE350:
	li	a5,393216
.LBB351:
	sw	a7,-1632(a6)
.LBE351:
	.loc 1 175 0
	.loc 1 175 0
	addi	a5,a5,17
	sw	a5,20(t2)
.LVL420:
.L176:
	.loc 1 152 19
	.loc 1 151 10
	lw	a3,64(sp)
	lw	a2,40(sp)
	lw	a5,96(sp)
	lw	a4,100(sp)
	sub	a3,a3,a2
	sw	a3,64(sp)
	lw	a2,48(sp)
	lw	a3,44(sp)
	add	a4,a5,a4
	lw	a5,156(sp)
	sub	a2,a2,a3
	sw	a2,48(sp)
	lw	a2,52(sp)
	sub	a5,a4,a5
	sub	a3,a2,a3
	sw	a3,52(sp)
	lw	a3,88(sp)
	ble	a3,a5,.L200
.LVL421:
	lw	a5,72(sp)
	sw	a5,60(sp)
.LVL422:
.L177:
	.loc 1 153 10
.LBB352:
	.loc 1 154 241 is_stmt 0
	lw	s9,28(sp)
	li	s10,4096
	addi	s10,s10,-2048
	sw	s10,0(s9)
	.loc 1 154 342
	li	s1,-2147483648
	sw	zero,416(s1)
	.loc 1 154 365
	li	s6,2047
	li	s0,-2147483648
	sw	s6,1312(s0)
	.loc 1 154 488
	li	ra,-2147479552
	sw	zero,-1376(ra)
	.loc 1 154 589
	li	s7,-2147483648
	li	a5,256
	sw	a5,800(s7)
	.loc 1 154 669
	li	t2,-2147483648
	li	a5,7
	sw	a5,928(t2)
	.loc 1 154 692
	li	t0,-2147483648
	sw	s6,1440(t0)
	.loc 1 154 798
	li	t6,-2147479552
	sw	zero,-1248(t6)
	.loc 1 154 879
	li	s2,-2147483648
	li	a3,64
	sw	a3,1696(s2)
	.loc 1 154 943
	li	s8,-2147483648
	li	a2,3
	sw	a2,1824(s8)
	.loc 1 154 966
	lw	a1,20(sp)
	li	a0,255
	.loc 1 154 1051
	li	t5,-2147479552
	.loc 1 154 966
	sw	a0,0(a1)
	.loc 1 154 1051
	sw	zero,-1120(t5)
	.loc 1 154 1115
	li	t3,-2147479552
	li	a0,8
	sw	a0,-2016(t3)
	.loc 1 154 1153
	lw	t4,12(sp)
	.loc 1 154 1176
	li	a7,63
	.loc 1 154 1244
	li	a6,-2147479552
	.loc 1 154 1153
	sw	a5,0(t4)
	.loc 1 154 1176
	lw	s11,16(sp)
	.loc 1 154 1281
	li	t1,-2147483648
	li	s3,1
	.loc 1 154 1176
	sw	a7,0(s11)
	.loc 1 154 1244
	sw	zero,-992(a6)
	.loc 1 154 1281
	sw	s3,1056(t1)
	.loc 1 154 1308
	li	a0,-2147483648
	sw	a5,672(a0)
	.loc 1 154 1331
	li	a1,-2147483648
	sw	a5,1568(a1)
	.loc 1 154 1369
	li	a2,-2147479552
	sw	zero,-864(a2)
	.loc 1 154 1626
	li	a3,-2147483648
	sw	zero,544(a3)
	.loc 1 154 1673
	li	s4,-2147479552
	.loc 1 154 1736
	li	t4,1036288
	.loc 1 154 1673
	sw	s10,-736(s4)
	.loc 1 154 1736
	li	a7,-2147479552
	addi	t4,t4,-1889
	sw	t4,-1632(a7)
.LBE352:
.LBB353:
	.loc 1 154 1906
	lw	s5,92(sp)
	sw	s5,-2016(t3)
	.loc 1 154 1940
	lw	t4,12(sp)
	lw	s5,164(sp)
	sw	s5,0(t4)
	.loc 1 154 1963
	lw	s5,148(sp)
.LBE353:
.LBB354:
	.loc 1 154 3 is_stmt 1
.LVL423:
	.loc 1 154 225
	.loc 1 154 326
	.loc 1 154 348
	.loc 1 154 471
	.loc 1 154 573
	.loc 1 154 653
	.loc 1 154 675
	.loc 1 154 781
	.loc 1 154 862
	.loc 1 154 926
	.loc 1 154 949
	.loc 1 154 1034
	.loc 1 154 1098
	.loc 1 154 1136
	.loc 1 154 1159
	.loc 1 154 1227
	.loc 1 154 1265
	.loc 1 154 1292
	.loc 1 154 1314
	.loc 1 154 1352
	.loc 1 154 1378
	.loc 1 154 1610
	.loc 1 154 1655
	.loc 1 154 1656
	.loc 1 154 1719
.LBE354:
.LBB355:
	.loc 1 154 1769
	.loc 1 154 1889
	.loc 1 154 1923
	.loc 1 154 1946
	.loc 1 154 1992
	.loc 1 154 2026
	.loc 1 154 2053
	.loc 1 154 2075
	.loc 1 154 2109
	.loc 1 154 2135
	.loc 1 154 2170
	.loc 1 154 1963 is_stmt 0
	sw	s11,16(sp)
	.loc 1 154 1853
	addi	t4,a4,-1
	.loc 1 154 1963
	sw	s5,0(s11)
	.loc 1 154 2009
	lw	s5,160(sp)
	sw	s5,-992(a6)
	lw	s5,40(sp)
	sub	s5,a4,s5
	sw	s5,100(sp)
	.loc 1 154 2042
	sw	s3,1056(t1)
	.loc 1 154 1876
	sub	t4,t4,s5
	.loc 1 154 2069
	sw	t4,672(a0)
	.loc 1 154 2092
	lw	s11,64(sp)
.LBE355:
	.loc 1 154 2284
	li	t4,-2147483648
	addi	t4,t4,20
.LBB356:
	.loc 1 154 2092
	sw	s11,1568(a1)
	.loc 1 154 2126
	sw	s5,-864(a2)
	.loc 1 154 2191
	lw	s5,144(sp)
	add	s5,s5,a4
	mv	s11,s5
	.loc 1 154 2235
	li	a4,1036288
	.loc 1 154 2186
	sw	s11,544(a3)
	.loc 1 154 2217 is_stmt 1
	.loc 1 154 2218
	.loc 1 154 2235 is_stmt 0
	addi	a4,a4,157
	sw	a4,-1632(a7)
.LBE356:
	.loc 1 154 2267 is_stmt 1
	.loc 1 154 2268
	.loc 1 154 2284 is_stmt 0
	li	s5,393216
	sw	t4,32(sp)
	addi	s5,s5,17
	sw	s5,0(t4)
.LBB357:
	.loc 1 154 2374 is_stmt 1
.LVL424:
	.loc 1 154 2458
	.loc 1 154 2475 is_stmt 0
	li	t4,16384
	sw	t4,1696(s2)
	.loc 1 154 2498 is_stmt 1
	.loc 1 154 2515 is_stmt 0
	sw	zero,1824(s8)
	.loc 1 154 2521 is_stmt 1
	.loc 1 154 2538 is_stmt 0
	lw	a4,20(sp)
	addi	s11,t4,-1
	.loc 1 154 2934
	li	t4,8
	.loc 1 154 2538
	sw	s11,0(a4)
	.loc 1 154 2576 is_stmt 1
	.loc 1 154 2593 is_stmt 0
	sw	zero,-1120(t5)
	.loc 1 154 2616 is_stmt 1
.LBE357:
.LBB358:
	.loc 1 154 241 is_stmt 0
	li	a4,4096
.LBE358:
.LBB359:
	.loc 1 154 2633
	sw	a4,-2016(t3)
	.loc 1 154 2645 is_stmt 1
	.loc 1 154 2662 is_stmt 0
	lw	s11,12(sp)
	li	a4,3
	sw	a4,0(s11)
	.loc 1 154 2668 is_stmt 1
	.loc 1 154 2685 is_stmt 0
	lw	s11,76(sp)
	lw	a4,16(sp)
	sw	s11,0(a4)
	.loc 1 154 2708 is_stmt 1
	.loc 1 154 2725 is_stmt 0
	sw	zero,-992(a6)
	.loc 1 154 2737 is_stmt 1
	.loc 1 154 2753 is_stmt 0
	sw	a5,928(t2)
	.loc 1 154 2796 is_stmt 1
	.loc 1 154 2812 is_stmt 0
	li	a4,64
	mv	s11,a4
	sw	a4,800(s7)
	.loc 1 154 2831 is_stmt 1
	.loc 1 154 2848 is_stmt 0
	li	a4,511
	sw	a4,1440(t0)
	.loc 1 154 2853 is_stmt 1
	.loc 1 154 2870 is_stmt 0
	sw	zero,-1248(t6)
	.loc 1 154 2873 is_stmt 1
	.loc 1 154 2889 is_stmt 0
	sw	a5,672(a0)
	.loc 1 154 2918 is_stmt 1
	.loc 1 154 2934 is_stmt 0
	sw	t4,1056(t1)
	.loc 1 154 2949 is_stmt 1
	.loc 1 154 2966 is_stmt 0
	sw	a4,1568(a1)
	.loc 1 154 2971 is_stmt 1
	.loc 1 154 2988 is_stmt 0
	sw	zero,-864(a2)
	.loc 1 154 2991 is_stmt 1
	.loc 1 154 3007 is_stmt 0
	sw	a5,416(s1)
	.loc 1 154 3045 is_stmt 1
	.loc 1 154 3061 is_stmt 0
	sw	s3,0(s9)
	.loc 1 154 3072 is_stmt 1
	.loc 1 154 3089 is_stmt 0
	sw	a4,1312(s0)
	.loc 1 154 3094 is_stmt 1
	.loc 1 154 3130 is_stmt 0
	li	a4,524288
	.loc 1 154 3111
	sw	zero,-1376(ra)
	.loc 1 154 3114 is_stmt 1
	.loc 1 154 3130 is_stmt 0
	addi	a4,a4,16
	sw	a4,544(a3)
	.loc 1 154 3230 is_stmt 1
	.loc 1 154 3388 is_stmt 0
	li	a4,1032192
	.loc 1 154 3247
	sw	s10,-736(s4)
	.loc 1 154 3371 is_stmt 1
	.loc 1 154 3388 is_stmt 0
	addi	a4,a4,1183
	sw	a4,-1632(a7)
.LBE359:
.LBB360:
	.loc 1 154 3421 is_stmt 1
.LVL425:
	.loc 1 154 3643
	.loc 1 154 3660 is_stmt 0
	sw	s10,1696(s2)
	.loc 1 154 3745 is_stmt 1
	.loc 1 154 3762 is_stmt 0
	sw	zero,1824(s8)
	.loc 1 154 3768 is_stmt 1
	.loc 1 154 3785 is_stmt 0
	lw	s2,20(sp)
	.loc 1 154 0
	li	a4,3
	.loc 1 154 3785
	sw	s6,0(s2)
	.loc 1 154 3891 is_stmt 1
	.loc 1 154 3908 is_stmt 0
	sw	zero,-1120(t5)
	.loc 1 154 3993 is_stmt 1
	.loc 1 154 4009 is_stmt 0
	li	t5,256
	sw	t5,0(s9)
	.loc 1 154 4073 is_stmt 1
	.loc 1 154 4089 is_stmt 0
	sw	a5,416(s1)
	.loc 1 154 4095 is_stmt 1
	.loc 1 154 0 is_stmt 0
	sw	s6,1312(s0)
	.loc 1 154 0 is_stmt 1
	sw	zero,-1376(ra)
	.loc 1 154 0
	sw	s11,-2016(t3)
	.loc 1 154 0
	lw	t3,12(sp)
	sw	a4,0(t3)
	.loc 1 154 0
	lw	s11,16(sp)
	li	a4,255
	sw	a4,0(s11)
	.loc 1 154 0
	sw	zero,-992(a6)
	.loc 1 154 0
	sw	t4,800(s7)
	.loc 1 154 0
	sw	a5,928(t2)
	.loc 1 154 0
	li	a4,63
	sw	a4,1440(t0)
	.loc 1 154 0
	sw	zero,-1248(t6)
	.loc 1 154 0
	sw	s3,1056(t1)
	.loc 1 154 0
	sw	a5,672(a0)
	.loc 1 154 0
	sw	a5,1568(a1)
	.loc 1 154 0
	sw	zero,-864(a2)
	.loc 1 154 0
.LVL426:
	.loc 1 154 0
	li	a5,1036288
	sw	zero,544(a3)
	.loc 1 154 0
	.loc 1 154 0
	addi	a5,a5,-1891
	sw	a5,-1632(a7)
.LBE360:
	.loc 1 154 0
	.loc 1 154 0
	lw	t4,32(sp)
	.loc 1 158 18 is_stmt 0
	li	a5,1015812096
	addi	a5,a5,-1788
	.loc 1 154 0
	sw	s5,0(t4)
	.loc 1 158 1 is_stmt 1
	.loc 1 158 2
	.loc 1 158 18 is_stmt 0
	sw	a5,0(t4)
	.loc 1 159 10 is_stmt 1
	.loc 1 159 12 is_stmt 0
	lw	a4,24(sp)
	lw	a5,52(a4)
	beq	a5,zero,.L201
	.loc 1 166 13 is_stmt 1
	.loc 1 166 15 is_stmt 0
	lw	a5,56(a4)
	beq	a5,s3,.L202
	.loc 1 169 1 is_stmt 1
	.loc 1 169 2
	.loc 1 169 18 is_stmt 0
	lw	a4,32(sp)
	li	a5,1015828480
	addi	a5,a5,-2044
	sw	a5,0(a4)
	j	.L173
.LVL427:
.L197:
	.loc 1 180 13 is_stmt 1
.LBB361:
	.loc 1 185 200 is_stmt 0
	li	s6,128
	sw	s6,0(s8)
	.loc 1 185 281
	li	a5,7
	li	t2,-2147483648
	sw	a5,928(t2)
	.loc 1 185 304
	li	s2,-2147483648
	li	s5,1023
	sw	s5,1440(s2)
	.loc 1 185 411
	li	t0,-2147479552
	sw	zero,-1248(t0)
	.loc 1 185 493
	li	t3,-2147479552
	li	a4,32
	sw	a4,-2016(t3)
	.loc 1 185 557
	li	a7,-2147479552
	li	a4,3
	sw	a4,-1888(a7)
	.loc 1 185 580
	li	a3,127
	sw	a3,0(s4)
	.loc 1 185 666
	li	a6,-2147479552
	sw	zero,-992(a6)
	.loc 1 185 730
	li	s11,-2147483648
	li	s0,8
	sw	s0,1696(s11)
	.loc 1 185 768
	li	t6,-2147483648
	sw	a4,1824(t6)
	.loc 1 185 791
	li	s10,-2147483648
	li	a2,31
	sw	a2,1952(s10)
	.loc 1 185 859
	li	t5,-2147479552
	sw	zero,-1120(t5)
	.loc 1 185 896
	li	t1,-2147483648
	li	t4,1
	sw	t4,1056(t1)
	.loc 1 185 923
	li	a0,-2147483648
	sw	a5,672(a0)
	.loc 1 185 946
	li	a1,-2147483648
	sw	a5,1568(a1)
	.loc 1 185 984
	li	a2,-2147479552
	sw	zero,-864(a2)
	.loc 1 185 1158
	li	a3,-2147483648
	sw	zero,544(a3)
	.loc 1 185 1205
	lw	s1,36(sp)
	li	s7,1024
.LBE361:
.LBB362:
	.loc 1 185 1992
	li	s5,1032192
.LBE362:
.LBB363:
	.loc 1 185 1205
	sw	s7,0(s1)
	.loc 1 185 1261
	lw	s1,48(sp)
	sw	s1,0(s9)
.LBE363:
.LBB364:
	.loc 1 185 1356
	li	s1,4096
	sw	s1,-2016(t3)
	.loc 1 185 1385
	sw	a4,-1888(a7)
	.loc 1 185 1408
	lw	s7,52(sp)
	.loc 1 185 1578
	li	s1,767
	.loc 1 185 1408
	sw	s7,0(s4)
	.loc 1 185 1453
	sw	zero,-992(a6)
	.loc 1 185 1482
	sw	a4,1824(t6)
	.loc 1 185 1542
	li	s7,64
	sw	s7,1696(s11)
	.loc 1 185 1578
	sw	s1,1952(s10)
	.loc 1 185 1600
	sw	zero,-1120(t5)
	.loc 1 185 1619
	sw	a5,672(a0)
	.loc 1 185 1664
	sw	s0,1056(t1)
	.loc 1 185 1696
	sw	s1,1568(a1)
	.loc 1 185 1718
	sw	zero,-864(a2)
	.loc 1 185 1737
	sw	a5,928(t2)
	.loc 1 185 1791
	sw	t4,0(s8)
	.loc 1 185 1819
	sw	s1,1440(s2)
	.loc 1 185 1860
	li	s7,524288
	.loc 1 185 1841
	sw	zero,-1248(t0)
	.loc 1 185 1860
	addi	s7,s7,528
	sw	s7,544(a3)
.LBE364:
	.loc 1 185 2041
	li	s7,-2147483648
	mv	s1,s7
.LBB365:
	.loc 1 185 1992
	addi	s7,s5,1181
	sw	s7,84(sp)
.LBE365:
	.loc 1 185 2041
	li	s5,65536
.LBB366:
	.loc 1 185 1992
	sw	s7,0(s9)
.LBE366:
	.loc 1 185 2041
	addi	s7,s1,20
	addi	s1,s5,17
	sw	s1,100(sp)
	sw	s7,32(sp)
	sw	s1,0(s7)
.LBB367:
	.loc 1 185 2238
	lw	s7,56(sp)
	sw	s7,-2016(t3)
	.loc 1 185 2270
	sw	zero,-1888(a7)
	.loc 1 185 2293
	lw	s7,72(sp)
	sw	s7,0(s4)
	.loc 1 185 2335
	lw	s7,76(sp)
	sw	s7,-992(a6)
	.loc 1 185 2366
	sw	t4,1056(t1)
	.loc 1 185 2393
	lw	s7,64(sp)
	sw	s7,672(a0)
	.loc 1 185 2416
	lw	s7,12(sp)
	sw	s7,1568(a1)
	.loc 1 185 2448
	lw	s1,16(sp)
	.loc 1 185 2507
	li	s7,-2147479552
	.loc 1 185 2448
	sw	s1,-864(a2)
	.loc 1 185 2507
	lw	s1,20(sp)
	sw	s7,104(sp)
	sw	s1,-96(s7)
	.loc 1 185 2561
	lw	s5,80(sp)
	sw	s5,544(a3)
	.loc 1 185 2653
	li	s5,1036288
	mv	s1,s5
	.loc 1 185 2611
	lw	s7,36(sp)
	lw	s5,60(sp)
	sw	s5,0(s7)
	.loc 1 185 2653
	addi	s5,s1,159
	sw	s5,80(sp)
	sw	s5,0(s9)
.LBE367:
.LBB368:
	.loc 1 185 2883
	sw	s6,0(s8)
	.loc 1 185 2964
	sw	a5,928(t2)
	.loc 1 185 2987
	li	s5,1023
	sw	s5,1440(s2)
	.loc 1 185 3094
	sw	zero,-1248(t0)
	.loc 1 185 3176
	li	s7,32
	sw	s7,1696(s11)
	.loc 1 185 3240
	sw	a4,1824(t6)
	.loc 1 185 3263
	li	s7,127
	sw	s7,1952(s10)
	.loc 1 185 3349
	sw	zero,-1120(t5)
	.loc 1 185 3413
	sw	s0,-2016(t3)
	.loc 1 185 3451
	sw	a4,-1888(a7)
	.loc 1 185 3474
	li	s7,31
	sw	s7,0(s4)
	.loc 1 185 3542
	sw	zero,-992(a6)
	.loc 1 185 3579
	sw	t4,1056(t1)
	.loc 1 185 3606
	sw	a5,672(a0)
	.loc 1 185 3629
	sw	a5,1568(a1)
	.loc 1 185 3667
	sw	zero,-864(a2)
	.loc 1 185 3888
	li	s5,1036288
	.loc 1 185 3841
	sw	zero,544(a3)
	.loc 1 185 3888
	addi	s5,s5,-1891
	sw	s5,108(sp)
	sw	s5,0(s9)
	.loc 1 185 3474
	mv	s1,s7
.LBE368:
	.loc 1 185 3937
	li	s7,393216
	addi	s5,s7,17
	lw	s7,32(sp)
	sw	s5,112(sp)
	sw	s5,0(s7)
.LBB369:
	.loc 1 186 200
	sw	s6,0(s8)
	.loc 1 186 281
	sw	a5,928(t2)
	.loc 1 186 304
	li	s5,1023
	sw	s5,1440(s2)
	.loc 1 186 411
	sw	zero,-1248(t0)
	.loc 1 186 493
	li	s7,32
	sw	s7,-2016(t3)
	.loc 1 186 557
	sw	a4,-1888(a7)
	.loc 1 186 580
	li	s7,127
	sw	s7,0(s4)
	.loc 1 186 666
	sw	zero,-992(a6)
	.loc 1 186 730
	sw	s0,1696(s11)
	.loc 1 186 768
	sw	a4,1824(t6)
	.loc 1 186 791
	sw	s1,1952(s10)
	.loc 1 186 859
	sw	zero,-1120(t5)
	.loc 1 186 896
	sw	t4,1056(t1)
	.loc 1 186 923
	sw	a5,672(a0)
	.loc 1 186 946
	sw	a5,1568(a1)
	.loc 1 186 984
	sw	zero,-864(a2)
	.loc 1 186 1158
	sw	zero,544(a3)
	.loc 1 186 1205
	lw	s7,36(sp)
	li	s1,1024
.LBE369:
.LBB370:
	.loc 1 186 1860
	li	s5,524288
.LBE370:
.LBB371:
	.loc 1 186 1205
	sw	s1,0(s7)
	.loc 1 186 1261
	lw	s1,48(sp)
.LBE371:
.LBB372:
	.loc 1 186 1860
	addi	s5,s5,784
.LBE372:
.LBB373:
	.loc 1 186 1261
	sw	s1,0(s9)
.LBE373:
.LBB374:
	.loc 1 186 1356
	li	s1,4096
	sw	s1,-2016(t3)
	.loc 1 186 1385
	sw	a4,-1888(a7)
	.loc 1 186 1408
	lw	s1,52(sp)
	sw	s1,0(s4)
	.loc 1 186 1453
	sw	zero,-992(a6)
	.loc 1 186 1482
	sw	a4,1824(t6)
	.loc 1 186 1542
	li	s1,64
	sw	s1,1696(s11)
	.loc 1 186 1578
	li	s1,767
	sw	s1,1952(s10)
	.loc 1 186 1600
	sw	zero,-1120(t5)
	.loc 1 186 1619
	sw	a5,672(a0)
	.loc 1 186 1664
	sw	s0,1056(t1)
	.loc 1 186 1696
	sw	s1,1568(a1)
	.loc 1 186 1718
	sw	zero,-864(a2)
	.loc 1 186 1737
	sw	a5,928(t2)
	.loc 1 186 1791
	sw	t4,0(s8)
	.loc 1 186 1819
	sw	s1,1440(s2)
	.loc 1 186 1841
	sw	zero,-1248(t0)
	.loc 1 186 1860
	sw	s5,544(a3)
	.loc 1 186 1992
	lw	s1,84(sp)
	sw	s1,0(s9)
.LBE374:
	.loc 1 186 2041
	lw	s1,100(sp)
	lw	s5,32(sp)
	sw	s1,0(s5)
.LBB375:
	.loc 1 186 2238
	lw	s1,56(sp)
	sw	s1,-2016(t3)
	.loc 1 186 2270
	sw	zero,-1888(a7)
	.loc 1 186 2293
	lw	s1,72(sp)
	sw	s1,0(s4)
	.loc 1 186 2335
	lw	s1,76(sp)
	sw	s1,-992(a6)
	.loc 1 186 2366
	sw	t4,1056(t1)
	.loc 1 186 2393
	lw	s1,64(sp)
	sw	s1,672(a0)
	.loc 1 186 2416
	lw	s1,12(sp)
	sw	s1,1568(a1)
	.loc 1 186 2448
	lw	s1,16(sp)
	sw	s1,-864(a2)
	.loc 1 186 2507
	lw	s1,104(sp)
	lw	s5,20(sp)
	sw	s5,-96(s1)
.LBE375:
.LBB376:
	.loc 1 182 3263
	lw	s5,140(sp)
.LBE376:
.LBB377:
	.loc 1 186 2612
	mv	s1,s7
.LBE377:
.LBB378:
	.loc 1 182 3263
	add	s5,s3,s5
.LBE378:
.LBB379:
	.loc 1 186 2561
	sw	s5,544(a3)
	.loc 1 186 2612
	lw	s5,60(sp)
	sw	s5,0(s7)
	.loc 1 186 2654
	lw	s5,80(sp)
.LBE379:
.LBB380:
	.loc 1 186 3177
	li	s7,32
.LBE380:
.LBB381:
	.loc 1 186 2654
	sw	s5,0(s9)
.LBE381:
.LBB382:
	.loc 1 186 2884
	sw	s6,0(s8)
	.loc 1 186 2965
	sw	a5,928(t2)
	.loc 1 186 2988
	li	s5,1023
	sw	s5,1440(s2)
	.loc 1 186 3095
	sw	zero,-1248(t0)
	.loc 1 186 3177
	sw	s7,1696(s11)
	.loc 1 186 3241
	sw	a4,1824(t6)
	.loc 1 186 3264
	li	s7,127
	sw	s7,1952(s10)
	.loc 1 186 3350
	sw	zero,-1120(t5)
	.loc 1 186 3414
	sw	s0,-2016(t3)
	.loc 1 186 3452
	sw	a4,-1888(a7)
	.loc 1 186 3475
	li	s7,31
	sw	s7,0(s4)
	.loc 1 186 3543
	sw	zero,-992(a6)
	.loc 1 186 3580
	sw	t4,1056(t1)
	.loc 1 186 3607
	sw	a5,672(a0)
	.loc 1 186 3630
	sw	a5,1568(a1)
	.loc 1 186 3668
	sw	zero,-864(a2)
	.loc 1 186 3842
	sw	zero,544(a3)
	.loc 1 186 3889
	lw	s5,108(sp)
	sw	s5,0(s9)
.LBE382:
	.loc 1 186 3938
	lw	s5,112(sp)
	lw	s7,32(sp)
	sw	s5,0(s7)
.LBB383:
	.loc 1 187 200
	sw	s6,0(s8)
	.loc 1 187 281
	sw	a5,928(t2)
	.loc 1 187 304
	li	s5,1023
	sw	s5,1440(s2)
	.loc 1 187 411
	sw	zero,-1248(t0)
	.loc 1 187 493
	li	s7,32
	sw	s7,-2016(t3)
	.loc 1 187 557
	sw	a4,-1888(a7)
	.loc 1 187 580
	li	s7,127
	sw	s7,0(s4)
	.loc 1 187 666
	sw	zero,-992(a6)
	.loc 1 187 730
	sw	s0,1696(s11)
	.loc 1 187 768
	sw	a4,1824(t6)
	.loc 1 187 791
	li	s7,31
	sw	s7,1952(s10)
	.loc 1 187 859
	sw	zero,-1120(t5)
	.loc 1 187 896
	sw	t4,1056(t1)
	.loc 1 187 923
	sw	a5,672(a0)
	.loc 1 187 946
	sw	a5,1568(a1)
	.loc 1 187 984
	sw	zero,-864(a2)
	.loc 1 187 1205
	mv	s7,s1
	.loc 1 187 1158
	sw	zero,544(a3)
	.loc 1 187 1205
	li	s1,1024
	sw	s1,0(s7)
	.loc 1 187 1261
	lw	s1,48(sp)
	sw	s1,0(s9)
.LBE383:
.LBB384:
	.loc 1 187 1356
	li	s1,4096
	sw	s1,-2016(t3)
	.loc 1 187 1385
	sw	a4,-1888(a7)
	.loc 1 187 1408
	lw	s1,52(sp)
	sw	s1,0(s4)
	.loc 1 187 1453
	sw	zero,-992(a6)
	.loc 1 187 1482
	sw	a4,1824(t6)
	.loc 1 187 1542
	li	s1,64
	sw	s1,1696(s11)
	.loc 1 187 1578
	li	s1,767
	sw	s1,1952(s10)
	.loc 1 187 1600
	sw	zero,-1120(t5)
	.loc 1 187 1619
	sw	a5,672(a0)
	.loc 1 187 1664
	sw	s0,1056(t1)
	.loc 1 187 1696
	sw	s1,1568(a1)
	.loc 1 187 1718
	sw	zero,-864(a2)
	.loc 1 187 1737
	sw	a5,928(t2)
	.loc 1 187 1791
	sw	t4,0(s8)
	.loc 1 187 1819
	sw	s1,1440(s2)
	.loc 1 187 1860
	li	s1,524288
	.loc 1 187 1841
	sw	zero,-1248(t0)
	.loc 1 187 1860
	addi	s1,s1,1040
	sw	s1,544(a3)
	.loc 1 187 1992
	lw	s1,84(sp)
	sw	s1,0(s9)
.LBE384:
	.loc 1 187 2041
	lw	s1,100(sp)
	lw	s5,32(sp)
	sw	s1,0(s5)
.LBB385:
	.loc 1 187 2238
	lw	s1,56(sp)
	sw	s1,-2016(t3)
	.loc 1 187 2270
	sw	zero,-1888(a7)
	.loc 1 187 2293
	lw	s1,72(sp)
	sw	s1,0(s4)
	.loc 1 187 2335
	lw	s1,76(sp)
	sw	s1,-992(a6)
	.loc 1 187 2366
	sw	t4,1056(t1)
	.loc 1 187 2393
	lw	s1,64(sp)
	sw	s1,672(a0)
	.loc 1 187 2416
	lw	s1,12(sp)
	sw	s1,1568(a1)
	.loc 1 187 2448
	lw	s1,16(sp)
	sw	s1,-864(a2)
	.loc 1 187 2507
	lw	s1,104(sp)
	lw	s5,20(sp)
	sw	s5,-96(s1)
.LBE385:
.LBB386:
	.loc 1 183 3263
	lw	s1,144(sp)
	add	s1,s3,s1
.LBE386:
.LBB387:
	.loc 1 185 3 is_stmt 1
.LVL428:
	.loc 1 185 184
	.loc 1 185 265
	.loc 1 185 287
	.loc 1 185 394
	.loc 1 185 476
	.loc 1 185 540
	.loc 1 185 563
	.loc 1 185 649
	.loc 1 185 713
	.loc 1 185 751
	.loc 1 185 774
	.loc 1 185 842
	.loc 1 185 880
	.loc 1 185 907
	.loc 1 185 929
	.loc 1 185 967
	.loc 1 185 993
	.loc 1 185 1142
	.loc 1 185 1187
	.loc 1 185 1188
	.loc 1 185 1244
.LBE387:
.LBB388:
	.loc 1 185 1294
	.loc 1 185 1339
	.loc 1 185 1368
	.loc 1 185 1391
	.loc 1 185 1436
	.loc 1 185 1465
	.loc 1 185 1525
	.loc 1 185 1561
	.loc 1 185 1583
	.loc 1 185 1603
	.loc 1 185 1648
	.loc 1 185 1679
	.loc 1 185 1701
	.loc 1 185 1721
	.loc 1 185 1775
	.loc 1 185 1802
	.loc 1 185 1824
	.loc 1 185 1844
	.loc 1 185 1975
.LBE388:
	.loc 1 185 2024
	.loc 1 185 2025
.LBB389:
	.loc 1 185 2129
	.loc 1 185 2221
	.loc 1 185 2253
	.loc 1 185 2276
	.loc 1 185 2318
	.loc 1 185 2350
	.loc 1 185 2377
	.loc 1 185 2399
	.loc 1 185 2431
	.loc 1 185 2457
	.loc 1 185 2490
	.loc 1 185 2544
	.loc 1 185 2545
	.loc 1 185 2593
	.loc 1 185 2594
	.loc 1 185 2636
.LBE389:
.LBB390:
	.loc 1 185 2686
	.loc 1 185 2867
	.loc 1 185 2948
	.loc 1 185 2970
	.loc 1 185 3077
	.loc 1 185 3159
	.loc 1 185 3223
	.loc 1 185 3246
	.loc 1 185 3332
	.loc 1 185 3396
	.loc 1 185 3434
	.loc 1 185 3457
	.loc 1 185 3525
	.loc 1 185 3563
	.loc 1 185 3590
	.loc 1 185 3612
	.loc 1 185 3650
	.loc 1 185 3676
	.loc 1 185 3825
	.loc 1 185 3870
	.loc 1 185 3871
.LBE390:
	.loc 1 185 3920
	.loc 1 185 3921
.LBB391:
	.loc 1 186 3
	.loc 1 186 184
	.loc 1 186 265
	.loc 1 186 287
	.loc 1 186 394
	.loc 1 186 476
	.loc 1 186 540
	.loc 1 186 563
	.loc 1 186 649
	.loc 1 186 713
	.loc 1 186 751
	.loc 1 186 774
	.loc 1 186 842
	.loc 1 186 880
	.loc 1 186 907
	.loc 1 186 929
	.loc 1 186 967
	.loc 1 186 993
	.loc 1 186 1142
	.loc 1 186 1187
	.loc 1 186 1188
	.loc 1 186 1244
.LBE391:
.LBB392:
	.loc 1 186 1294
	.loc 1 186 1339
	.loc 1 186 1368
	.loc 1 186 1391
	.loc 1 186 1436
	.loc 1 186 1465
	.loc 1 186 1525
	.loc 1 186 1561
	.loc 1 186 1583
	.loc 1 186 1603
	.loc 1 186 1648
	.loc 1 186 1679
	.loc 1 186 1701
	.loc 1 186 1721
	.loc 1 186 1775
	.loc 1 186 1802
	.loc 1 186 1824
	.loc 1 186 1844
	.loc 1 186 1975
.LBE392:
	.loc 1 186 2024
	.loc 1 186 2025
.LBB393:
	.loc 1 186 2129
	.loc 1 186 2221
	.loc 1 186 2253
	.loc 1 186 2276
	.loc 1 186 2318
	.loc 1 186 2350
	.loc 1 186 2377
	.loc 1 186 2399
	.loc 1 186 2431
	.loc 1 186 2457
	.loc 1 186 2490
	.loc 1 186 2544
	.loc 1 186 2545
	.loc 1 186 2594
	.loc 1 186 2595
	.loc 1 186 2637
.LBE393:
.LBB394:
	.loc 1 186 2687
	.loc 1 186 2868
	.loc 1 186 2949
	.loc 1 186 2971
	.loc 1 186 3078
	.loc 1 186 3160
	.loc 1 186 3224
	.loc 1 186 3247
	.loc 1 186 3333
	.loc 1 186 3397
	.loc 1 186 3435
	.loc 1 186 3458
	.loc 1 186 3526
	.loc 1 186 3564
	.loc 1 186 3591
	.loc 1 186 3613
	.loc 1 186 3651
	.loc 1 186 3677
	.loc 1 186 3826
	.loc 1 186 3871
	.loc 1 186 3872
.LBE394:
	.loc 1 186 3921
	.loc 1 186 3922
.LBB395:
	.loc 1 187 3
	.loc 1 187 184
	.loc 1 187 265
	.loc 1 187 287
	.loc 1 187 394
	.loc 1 187 476
	.loc 1 187 540
	.loc 1 187 563
	.loc 1 187 649
	.loc 1 187 713
	.loc 1 187 751
	.loc 1 187 774
	.loc 1 187 842
	.loc 1 187 880
	.loc 1 187 907
	.loc 1 187 929
	.loc 1 187 967
	.loc 1 187 993
	.loc 1 187 1142
	.loc 1 187 1187
	.loc 1 187 1188
	.loc 1 187 1244
.LBE395:
.LBB396:
	.loc 1 187 1294
	.loc 1 187 1339
	.loc 1 187 1368
	.loc 1 187 1391
	.loc 1 187 1436
	.loc 1 187 1465
	.loc 1 187 1525
	.loc 1 187 1561
	.loc 1 187 1583
	.loc 1 187 1603
	.loc 1 187 1648
	.loc 1 187 1679
	.loc 1 187 1701
	.loc 1 187 1721
	.loc 1 187 1775
	.loc 1 187 1802
	.loc 1 187 1824
	.loc 1 187 1844
	.loc 1 187 1975
.LBE396:
	.loc 1 187 2024
	.loc 1 187 2025
.LBB397:
	.loc 1 187 2129
	.loc 1 187 2221
	.loc 1 187 2253
	.loc 1 187 2276
	.loc 1 187 2318
	.loc 1 187 2350
	.loc 1 187 2377
	.loc 1 187 2399
	.loc 1 187 2431
	.loc 1 187 2457
	.loc 1 187 2490
	.loc 1 187 2544
	.loc 1 187 2545
	.loc 1 187 2561 is_stmt 0
	sw	s1,544(a3)
.LVL429:
	.loc 1 187 2594 is_stmt 1
	.loc 1 187 2595
	.loc 1 187 2612 is_stmt 0
	lw	s5,60(sp)
	sw	s5,0(s7)
	.loc 1 187 2637 is_stmt 1
	.loc 1 187 2654 is_stmt 0
	lw	s5,80(sp)
.LBE397:
.LBB398:
	.loc 1 187 3177
	li	s7,32
.LBE398:
.LBB399:
	.loc 1 187 2654
	sw	s5,0(s9)
.LBE399:
.LBB400:
	.loc 1 187 2687 is_stmt 1
.LVL430:
	.loc 1 187 2868
	.loc 1 187 2884 is_stmt 0
	sw	s6,0(s8)
	.loc 1 187 2949 is_stmt 1
	.loc 1 187 2965 is_stmt 0
	sw	a5,928(t2)
	.loc 1 187 2971 is_stmt 1
	.loc 1 187 2988 is_stmt 0
	li	t2,1023
	sw	t2,1440(s2)
	.loc 1 187 3078 is_stmt 1
	.loc 1 187 3095 is_stmt 0
	sw	zero,-1248(t0)
	.loc 1 187 3160 is_stmt 1
	.loc 1 187 3177 is_stmt 0
	sw	s7,1696(s11)
	.loc 1 187 3224 is_stmt 1
	.loc 1 187 3241 is_stmt 0
	sw	a4,1824(t6)
	.loc 1 187 3247 is_stmt 1
	.loc 1 187 3264 is_stmt 0
	li	s7,127
	sw	s7,1952(s10)
	.loc 1 187 3333 is_stmt 1
	.loc 1 187 3350 is_stmt 0
	sw	zero,-1120(t5)
	.loc 1 187 3397 is_stmt 1
	.loc 1 187 3414 is_stmt 0
	sw	s0,-2016(t3)
	.loc 1 187 3435 is_stmt 1
	.loc 1 187 3452 is_stmt 0
	sw	a4,-1888(a7)
	.loc 1 187 3458 is_stmt 1
	.loc 1 187 3475 is_stmt 0
	li	s7,31
	sw	s7,0(s4)
	.loc 1 187 3526 is_stmt 1
	.loc 1 187 3543 is_stmt 0
	sw	zero,-992(a6)
	.loc 1 187 3564 is_stmt 1
	.loc 1 187 3580 is_stmt 0
	sw	t4,1056(t1)
	.loc 1 187 3591 is_stmt 1
	.loc 1 187 3607 is_stmt 0
	sw	a5,672(a0)
	.loc 1 187 3613 is_stmt 1
	.loc 1 187 3630 is_stmt 0
	sw	a5,1568(a1)
	.loc 1 187 3651 is_stmt 1
	.loc 1 187 3668 is_stmt 0
	sw	zero,-864(a2)
	.loc 1 187 3677 is_stmt 1
.LVL431:
	.loc 1 187 3826
	.loc 1 187 3842 is_stmt 0
	sw	zero,544(a3)
	.loc 1 187 3871 is_stmt 1
	.loc 1 187 3872
	.loc 1 187 3889 is_stmt 0
	lw	s5,108(sp)
	sw	s5,0(s9)
.LBE400:
	.loc 1 187 3921 is_stmt 1
	.loc 1 187 3922
	.loc 1 187 3938 is_stmt 0
	lw	s5,112(sp)
	lw	s7,32(sp)
	sw	s5,0(s7)
	j	.L167
.LVL432:
.L175:
	.loc 1 180 13 is_stmt 1
.LBB401:
	.loc 1 181 242 is_stmt 0
	li	s8,-2147483648
	li	s4,1024
	sw	s4,1696(s8)
	.loc 1 181 344
	li	s2,-2147483648
	sw	zero,1824(s2)
	.loc 1 181 367
	lw	s5,20(sp)
	li	t4,1023
	.loc 1 181 490
	li	a5,-2147479552
	.loc 1 181 367
	sw	t4,0(s5)
	.loc 1 181 490
	sw	a5,32(sp)
	sw	zero,-1120(a5)
	.loc 1 181 591
	lw	s7,28(sp)
	li	a5,128
	.loc 1 181 671
	li	s0,-2147483648
	.loc 1 181 591
	sw	a5,0(s7)
	.loc 1 181 671
	li	a5,7
	sw	a5,416(s0)
	.loc 1 181 694
	li	t2,-2147483648
	sw	t4,1312(t2)
	.loc 1 181 800
	li	a4,-2147479552
	sw	a4,36(sp)
	sw	zero,-1376(a4)
	.loc 1 181 881
	li	s10,-2147479552
	li	a4,32
	sw	a4,-2016(s10)
	.loc 1 181 945
	lw	s9,12(sp)
	li	a4,3
	.loc 1 181 968
	li	a3,127
	.loc 1 181 945
	sw	a4,0(s9)
	.loc 1 181 968
	lw	t0,16(sp)
	.loc 1 181 1053
	li	a6,-2147479552
	.loc 1 181 1116
	li	s3,-2147483648
	.loc 1 181 968
	sw	a3,0(t0)
	.loc 1 181 1053
	sw	zero,-992(a6)
	.loc 1 181 1116
	li	a3,8
	sw	a3,800(s3)
	.loc 1 181 1153
	li	t6,-2147483648
	sw	a4,928(t6)
	.loc 1 181 1176
	li	s6,-2147483648
	li	a2,31
	sw	a2,1440(s6)
	.loc 1 181 1244
	li	t5,-2147479552
	.loc 1 181 1281
	li	t1,-2147483648
	.loc 1 181 1244
	sw	zero,-1248(t5)
	.loc 1 181 1281
	li	t3,1
	.loc 1 181 1308
	li	a0,-2147483648
	.loc 1 181 1281
	sw	t3,1056(t1)
	.loc 1 181 1331
	li	a1,-2147483648
	.loc 1 181 1308
	sw	a5,672(a0)
	.loc 1 181 1369
	li	a2,-2147479552
	.loc 1 181 1331
	sw	a5,1568(a1)
	.loc 1 181 1369
	sw	zero,-864(a2)
	.loc 1 181 1116
	mv	s1,a3
	.loc 1 181 1626
	li	a3,-2147483648
	.loc 1 181 1673
	li	a7,-2147479552
	.loc 1 181 1626
	sw	zero,544(a3)
	.loc 1 181 1673
	sw	a7,84(sp)
	.loc 1 181 1736
	li	t0,1036288
	addi	s11,t0,-1889
	.loc 1 181 1673
	sw	s4,-736(a7)
	.loc 1 181 1736
	sw	s11,-1632(a7)
.LBE401:
.LBB402:
	.loc 1 181 1870
	li	s9,16384
	sw	s9,1696(s8)
	.loc 1 181 1933
	addi	t0,s9,-1
	.loc 1 181 1910
	sw	zero,1824(s2)
	.loc 1 181 1933
	sw	s5,20(sp)
	sw	t0,0(s5)
	.loc 1 181 1988
	lw	s5,32(sp)
	sw	zero,-1120(s5)
	.loc 1 181 2028
	li	s5,4096
	sw	s5,-2016(s10)
	.loc 1 181 2057
	lw	s9,12(sp)
	sw	a4,0(s9)
	.loc 1 181 2080
	lw	s5,76(sp)
	lw	t0,16(sp)
	.loc 1 181 2207
	li	s9,64
	.loc 1 181 2080
	sw	s5,0(t0)
	.loc 1 181 2120
	sw	zero,-992(a6)
	.loc 1 181 2148
	sw	a4,928(t6)
	.loc 1 181 2207
	sw	s9,800(s3)
	.loc 1 181 2243
	li	s5,767
	sw	s5,1440(s6)
	.loc 1 181 2265
	sw	zero,-1248(t5)
	.loc 1 181 2284
	sw	a5,672(a0)
	.loc 1 181 2329
	sw	s1,1056(t1)
	.loc 1 181 2361
	sw	s5,1568(a1)
	.loc 1 181 2383
	sw	zero,-864(a2)
	.loc 1 181 2402
	sw	a5,416(s0)
	.loc 1 181 2456
	sw	s7,28(sp)
	sw	t3,0(s7)
	.loc 1 181 2484
	sw	s5,1312(t2)
	.loc 1 181 2506
	lw	s1,36(sp)
	.loc 1 181 2525
	li	s7,524288
	addi	s7,s7,528
	.loc 1 181 2506
	sw	zero,-1376(s1)
	.loc 1 181 2679
	li	t0,1032192
	.loc 1 181 2525
	sw	s7,544(a3)
	.loc 1 181 2679
	addi	s7,t0,1181
	sw	s7,120(sp)
.LBE402:
	.loc 1 181 2728
	li	s1,-2147483648
	li	t0,65536
.LBB403:
	.loc 1 181 2679
	sw	s7,-1632(a7)
.LBE403:
	.loc 1 181 2728
	addi	s1,s1,20
	addi	s7,t0,17
	sw	s7,124(sp)
	sw	s1,68(sp)
	sw	s7,0(s1)
.LBB404:
	.loc 1 181 3313
	lw	t0,172(sp)
	lw	s1,168(sp)
	.loc 1 181 2935
	lw	s9,56(sp)
	.loc 1 181 3313
	sub	s7,t0,s1
	.loc 1 181 2935
	sw	s9,-2016(s10)
	.loc 1 181 3323
	lw	s1,116(sp)
	.loc 1 181 3313
	addi	t0,s7,1
	.loc 1 181 2967
	sw	s7,116(sp)
	.loc 1 181 3323
	mul	s9,t0,s1
	.loc 1 181 2967
	lw	s1,12(sp)
	sw	s7,0(s1)
	.loc 1 181 2990
	lw	s1,104(sp)
	lw	t0,16(sp)
	sw	s1,0(t0)
	.loc 1 181 3032
	lw	s7,108(sp)
	sw	s7,-992(a6)
	.loc 1 181 3063
	sw	t3,1056(t1)
	.loc 1 181 3090
	lw	s7,80(sp)
	sw	s7,672(a0)
	.loc 1 181 3113
	lw	s7,48(sp)
	sw	s7,1568(a1)
	.loc 1 181 3145
	lw	t0,60(sp)
	.loc 1 181 3204
	li	s7,-2147479552
	.loc 1 181 3145
	sw	t0,-864(a2)
	.loc 1 181 3204
	lw	t0,52(sp)
	sw	s7,128(sp)
	sw	t0,-96(s7)
	.loc 1 181 3258
	lw	t0,112(sp)
	sw	t0,544(a3)
	.loc 1 181 3308
	lw	s7,84(sp)
	sw	s9,112(sp)
	.loc 1 181 3350
	li	t0,1036288
	.loc 1 181 3308
	sw	s9,-736(s7)
	.loc 1 181 3350
	addi	t0,t0,159
	sw	t0,132(sp)
	sw	t0,-1632(a7)
.LBE404:
.LBB405:
	.loc 1 181 3621
	lw	s7,28(sp)
	.loc 1 181 3969
	li	s9,128
	.loc 1 181 3621
	sw	s4,0(s7)
	.loc 1 181 3722
	sw	zero,416(s0)
	.loc 1 181 3745
	sw	t4,1312(t2)
	.loc 1 181 3868
	lw	s7,36(sp)
	sw	zero,-1376(s7)
	.loc 1 181 3969
	sw	s9,800(s3)
	.loc 1 181 4049
	sw	a5,928(t6)
	.loc 1 181 4072
	sw	t4,1440(s6)
	.loc 1 181 0
	sw	zero,-1248(t5)
	li	s7,32
	sw	s7,1696(s8)
	sw	a4,1824(s2)
	lw	s7,20(sp)
	li	s9,127
	sw	s9,0(s7)
	lw	s9,32(sp)
	sw	zero,-1120(s9)
	li	s9,8
	sw	s9,-2016(s10)
	lw	s9,12(sp)
	sw	a4,0(s9)
	lw	t0,16(sp)
	li	s9,31
	sw	s9,0(t0)
	sw	zero,-992(a6)
	sw	t3,1056(t1)
	sw	a5,672(a0)
	sw	a5,1568(a1)
	sw	zero,-864(a2)
	li	t0,1036288
	sw	zero,544(a3)
	addi	t0,t0,-1891
	sw	t0,136(sp)
	sw	t0,-1632(a7)
.LBE405:
	li	s9,393216
	addi	t0,s9,17
	lw	s9,68(sp)
	sw	t0,140(sp)
	sw	t0,0(s9)
.LBB406:
	.loc 1 182 242
	sw	s4,1696(s8)
	.loc 1 182 344
	sw	zero,1824(s2)
	.loc 1 182 367
	sw	t4,0(s7)
	.loc 1 182 490
	lw	s9,32(sp)
	.loc 1 182 367
	mv	t0,s7
	.loc 1 182 490
	sw	zero,-1120(s9)
	.loc 1 182 591
	lw	s7,28(sp)
	li	s9,128
	sw	s9,0(s7)
	.loc 1 182 671
	sw	a5,416(s0)
	.loc 1 182 694
	sw	t4,1312(t2)
	.loc 1 182 800
	lw	s7,36(sp)
	.loc 1 182 881
	li	s9,32
	.loc 1 182 800
	sw	zero,-1376(s7)
	.loc 1 182 881
	sw	s9,-2016(s10)
	.loc 1 182 945
	lw	s7,12(sp)
	sw	a4,0(s7)
	.loc 1 182 968
	lw	s9,16(sp)
	li	s7,127
	sw	s7,0(s9)
	.loc 1 182 1053
	sw	zero,-992(a6)
	.loc 1 182 1116
	li	s9,8
	sw	s9,800(s3)
	.loc 1 182 1153
	sw	a4,928(t6)
	.loc 1 182 1176
	li	s7,31
	sw	s7,1440(s6)
	.loc 1 182 1244
	sw	zero,-1248(t5)
	.loc 1 182 1281
	sw	t3,1056(t1)
	.loc 1 182 1308
	sw	a5,672(a0)
	.loc 1 182 1331
	sw	a5,1568(a1)
	.loc 1 182 1369
	sw	zero,-864(a2)
	.loc 1 182 1626
	sw	zero,544(a3)
	.loc 1 182 1673
	lw	s9,84(sp)
.LBE406:
.LBB407:
	.loc 1 182 1933
	mv	s7,t0
.LBE407:
.LBB408:
	.loc 1 182 1673
	sw	s4,-736(s9)
	.loc 1 182 1736
	sw	s11,-1632(a7)
.LBE408:
.LBB409:
	.loc 1 182 1870
	li	s9,16384
	sw	s9,1696(s8)
	.loc 1 182 1910
	sw	zero,1824(s2)
	.loc 1 182 1933
	sw	t0,20(sp)
	addi	t0,s9,-1
	sw	t0,0(s7)
	.loc 1 182 1988
	lw	t0,32(sp)
	.loc 1 182 2028
	li	s7,4096
	.loc 1 182 1988
	sw	zero,-1120(t0)
	.loc 1 182 2028
	sw	s7,-2016(s10)
	.loc 1 182 2057
	lw	s7,12(sp)
	.loc 1 182 2525
	li	t0,524288
	addi	t0,t0,784
	.loc 1 182 2057
	sw	a4,0(s7)
	.loc 1 182 2080
	lw	s7,76(sp)
	lw	s9,16(sp)
	sw	s7,0(s9)
	.loc 1 182 2120
	sw	zero,-992(a6)
	.loc 1 182 2148
	sw	a4,928(t6)
	.loc 1 182 2207
	li	s9,64
	sw	s9,800(s3)
	.loc 1 182 2243
	sw	s5,1440(s6)
	.loc 1 182 2265
	sw	zero,-1248(t5)
	.loc 1 182 2284
	sw	a5,672(a0)
	.loc 1 182 2329
	li	s9,8
	sw	s9,1056(t1)
	.loc 1 182 2361
	sw	s5,1568(a1)
	.loc 1 182 2383
	sw	zero,-864(a2)
	.loc 1 182 2402
	sw	a5,416(s0)
	.loc 1 182 2456
	lw	s7,28(sp)
	sw	t3,0(s7)
	.loc 1 182 2484
	sw	s5,1312(t2)
	.loc 1 182 2506
	lw	s9,36(sp)
	sw	zero,-1376(s9)
	.loc 1 182 2525
	sw	t0,544(a3)
	.loc 1 182 2679
	lw	s9,120(sp)
	sw	s9,-1632(a7)
.LBE409:
	.loc 1 182 2728
	lw	s9,124(sp)
	lw	t0,68(sp)
	sw	s9,0(t0)
.LBB410:
	.loc 1 182 2935
	lw	s9,56(sp)
	sw	s9,-2016(s10)
	.loc 1 182 2967
	lw	s9,116(sp)
	lw	t0,12(sp)
	sw	s9,0(t0)
	.loc 1 182 2990
	lw	s9,16(sp)
	sw	s1,104(sp)
	sw	s1,0(s9)
	.loc 1 182 3032
	lw	s1,108(sp)
	sw	s1,-992(a6)
	.loc 1 182 3063
	sw	t3,1056(t1)
	.loc 1 182 3090
	lw	s1,80(sp)
	sw	s1,672(a0)
	.loc 1 182 3113
	lw	s1,48(sp)
	sw	s1,1568(a1)
	.loc 1 182 3145
	lw	t0,60(sp)
	sw	t0,-864(a2)
	.loc 1 182 3204
	lw	s1,128(sp)
	lw	t0,52(sp)
	sw	t0,-96(s1)
	.loc 1 182 3263
	lw	t0,180(sp)
	lw	s1,72(sp)
	add	s1,s1,t0
	.loc 1 182 3258
	sw	s1,544(a3)
	.loc 1 182 3309
	lw	s9,84(sp)
	lw	s1,112(sp)
	sw	s1,-736(s9)
	.loc 1 182 3351
	lw	t0,132(sp)
.LBE410:
.LBB411:
	.loc 1 182 3970
	li	s9,128
.LBE411:
.LBB412:
	.loc 1 182 3351
	sw	t0,-1632(a7)
.LBE412:
.LBB413:
	.loc 1 182 3622
	sw	s7,28(sp)
	sw	s4,0(s7)
	.loc 1 182 3723
	sw	zero,416(s0)
	.loc 1 182 3746
	sw	t4,1312(t2)
	.loc 1 182 3869
	lw	s1,36(sp)
	sw	zero,-1376(s1)
	.loc 1 182 3970
	sw	s9,800(s3)
	.loc 1 182 4050
	sw	a5,928(t6)
	.loc 1 182 4073
	sw	t4,1440(s6)
	.loc 1 182 0
	sw	zero,-1248(t5)
	li	s9,32
	sw	s9,1696(s8)
	sw	a4,1824(s2)
	lw	s7,20(sp)
	li	s9,127
	sw	s9,0(s7)
	lw	t0,32(sp)
	li	s9,8
	sw	zero,-1120(t0)
	sw	s9,-2016(s10)
	lw	s7,12(sp)
	sw	a4,0(s7)
	lw	s1,16(sp)
	li	s7,31
	sw	s7,0(s1)
	sw	zero,-992(a6)
	sw	t3,1056(t1)
	sw	a5,672(a0)
	sw	a5,1568(a1)
	sw	zero,-864(a2)
	sw	zero,544(a3)
	lw	t0,136(sp)
	sw	t0,-1632(a7)
.LBE413:
	lw	s1,140(sp)
	lw	s9,68(sp)
	sw	s1,0(s9)
.LBB414:
	.loc 1 183 242
	sw	s4,1696(s8)
	.loc 1 183 344
	sw	zero,1824(s2)
	.loc 1 183 367
	lw	s7,20(sp)
	.loc 1 183 591
	li	s9,128
	.loc 1 183 367
	sw	t4,0(s7)
	.loc 1 183 490
	lw	t0,32(sp)
	sw	zero,-1120(t0)
	.loc 1 183 591
	lw	t0,28(sp)
	sw	s9,0(t0)
	.loc 1 183 671
	sw	a5,416(s0)
	.loc 1 183 694
	sw	t4,1312(t2)
	.loc 1 183 800
	lw	s9,36(sp)
	sw	zero,-1376(s9)
	.loc 1 183 881
	li	s9,32
	sw	s9,-2016(s10)
	.loc 1 183 945
	lw	s7,12(sp)
	.loc 1 183 968
	li	s9,127
	.loc 1 183 945
	sw	a4,0(s7)
	.loc 1 183 968
	lw	s1,16(sp)
	.loc 1 183 1176
	li	s7,31
	.loc 1 183 968
	sw	s9,0(s1)
	.loc 1 183 1053
	sw	zero,-992(a6)
	.loc 1 183 1116
	li	s9,8
	sw	s9,800(s3)
	.loc 1 183 1153
	sw	a4,928(t6)
	.loc 1 183 1176
	sw	s7,1440(s6)
	.loc 1 183 1244
	sw	zero,-1248(t5)
	.loc 1 183 1281
	sw	t3,1056(t1)
	.loc 1 183 1308
	sw	a5,672(a0)
	.loc 1 183 1331
	sw	a5,1568(a1)
	.loc 1 183 1369
	sw	zero,-864(a2)
	.loc 1 183 1626
	sw	zero,544(a3)
	.loc 1 183 1673
	lw	s1,84(sp)
.LBE414:
.LBB415:
	.loc 1 183 1870
	li	s9,16384
.LBE415:
.LBB416:
	.loc 1 183 1673
	sw	s4,-736(s1)
	.loc 1 183 1736
	sw	s11,-1632(a7)
.LBE416:
.LBB417:
	.loc 1 183 1870
	sw	s9,1696(s8)
	.loc 1 183 1910
	sw	zero,1824(s2)
	.loc 1 183 1933
	lw	s7,20(sp)
	addi	s11,s9,-1
	sw	s11,0(s7)
	.loc 1 183 1988
	lw	s11,32(sp)
	sw	zero,-1120(s11)
	.loc 1 183 2028
	li	s11,4096
	sw	s11,-2016(s10)
	.loc 1 183 2057
	lw	s9,12(sp)
	sw	a4,0(s9)
	.loc 1 183 2080
	lw	s11,76(sp)
	lw	s7,16(sp)
	.loc 1 183 2329
	li	s9,8
	.loc 1 183 2080
	sw	s11,0(s7)
	.loc 1 183 2120
	sw	zero,-992(a6)
	.loc 1 183 2148
	sw	a4,928(t6)
	.loc 1 183 2207
	li	s11,64
	sw	s11,800(s3)
	.loc 1 183 2243
	sw	s5,1440(s6)
	.loc 1 183 2265
	sw	zero,-1248(t5)
	.loc 1 183 2284
	sw	a5,672(a0)
	.loc 1 183 2329
	sw	s9,1056(t1)
	.loc 1 183 2361
	sw	s5,1568(a1)
	.loc 1 183 2383
	sw	zero,-864(a2)
	.loc 1 183 2402
	sw	a5,416(s0)
	.loc 1 183 2456
	sw	t3,0(t0)
	.loc 1 183 2484
	sw	s5,1312(t2)
	.loc 1 183 2456
	mv	s7,t0
	.loc 1 183 2506
	lw	t0,36(sp)
	.loc 1 183 2525
	li	s5,524288
	addi	s5,s5,1040
	.loc 1 183 2506
	sw	zero,-1376(t0)
	.loc 1 183 2525
	sw	s5,544(a3)
	.loc 1 183 2679
	lw	s11,120(sp)
	sw	s11,-1632(a7)
.LBE417:
	.loc 1 183 2728
	lw	s11,124(sp)
	lw	s5,68(sp)
	sw	s11,0(s5)
.LBB418:
	.loc 1 183 2935
	lw	s11,56(sp)
	sw	s11,-2016(s10)
	.loc 1 183 2967
	lw	s5,116(sp)
	lw	t0,12(sp)
	sw	s5,0(t0)
	.loc 1 183 2990
	lw	s11,104(sp)
	lw	t0,16(sp)
	sw	s11,0(t0)
	.loc 1 183 3032
	lw	s11,108(sp)
	sw	s11,-992(a6)
	.loc 1 183 3063
	sw	t3,1056(t1)
	.loc 1 183 3090
	lw	s11,80(sp)
	sw	s11,672(a0)
	.loc 1 183 3113
	lw	s11,48(sp)
	sw	s11,1568(a1)
	.loc 1 183 3145
	lw	t0,60(sp)
	sw	t0,-864(a2)
	.loc 1 183 3204
	lw	s11,128(sp)
	lw	t0,52(sp)
	sw	t0,-96(s11)
	.loc 1 183 3263
	lw	s11,72(sp)
	lw	s5,176(sp)
.LBE418:
.LBB419:
	.loc 1 183 3970
	li	t0,128
.LBE419:
.LBB420:
	.loc 1 183 3263
	add	s5,s11,s5
.LBE420:
.LBB421:
	.loc 1 181 3 is_stmt 1
.LVL433:
	.loc 1 181 225
	.loc 1 181 327
	.loc 1 181 350
	.loc 1 181 473
	.loc 1 181 575
	.loc 1 181 655
	.loc 1 181 677
	.loc 1 181 783
	.loc 1 181 864
	.loc 1 181 928
	.loc 1 181 951
	.loc 1 181 1036
	.loc 1 181 1100
	.loc 1 181 1137
	.loc 1 181 1159
	.loc 1 181 1227
	.loc 1 181 1265
	.loc 1 181 1292
	.loc 1 181 1314
	.loc 1 181 1352
	.loc 1 181 1378
	.loc 1 181 1610
	.loc 1 181 1655
	.loc 1 181 1656
	.loc 1 181 1719
.LBE421:
.LBB422:
	.loc 1 181 1769
	.loc 1 181 1853
	.loc 1 181 1893
	.loc 1 181 1916
	.loc 1 181 1971
	.loc 1 181 2011
	.loc 1 181 2040
	.loc 1 181 2063
	.loc 1 181 2103
	.loc 1 181 2132
	.loc 1 181 2191
	.loc 1 181 2226
	.loc 1 181 2248
	.loc 1 181 2268
	.loc 1 181 2313
	.loc 1 181 2344
	.loc 1 181 2366
	.loc 1 181 2386
	.loc 1 181 2440
	.loc 1 181 2467
	.loc 1 181 2489
	.loc 1 181 2509
	.loc 1 181 2662
.LBE422:
	.loc 1 181 2711
	.loc 1 181 2712
.LBB423:
	.loc 1 181 2816
	.loc 1 181 2918
	.loc 1 181 2950
	.loc 1 181 2973
	.loc 1 181 3015
	.loc 1 181 3047
	.loc 1 181 3074
	.loc 1 181 3096
	.loc 1 181 3128
	.loc 1 181 3154
	.loc 1 181 3187
	.loc 1 181 3241
	.loc 1 181 3242
	.loc 1 181 3290
	.loc 1 181 3291
	.loc 1 181 3333
.LBE423:
.LBB424:
	.loc 1 181 3383
	.loc 1 181 3605
	.loc 1 181 3706
	.loc 1 181 3728
	.loc 1 181 3851
	.loc 1 181 3953
	.loc 1 181 4033
	.loc 1 181 4055
	.loc 1 181 0
	.loc 1 181 0
	.loc 1 181 0
	.loc 1 181 0
	.loc 1 181 0
	.loc 1 181 0
	.loc 1 181 0
	.loc 1 181 0
	.loc 1 181 0
	.loc 1 181 0
	.loc 1 181 0
	.loc 1 181 0
	.loc 1 181 0
	.loc 1 181 0
	.loc 1 181 0
	.loc 1 181 0
	.loc 1 181 0
.LBE424:
	.loc 1 181 0
	.loc 1 181 0
.LBB425:
	.loc 1 182 3
	.loc 1 182 225
	.loc 1 182 327
