	.file	"canny.m.c"
	.option nopic
	.attribute arch, "rv32i2p1_m2p0"
	.attribute unaligned_access, 0
	.attribute stack_align, 16
	.text
.Ltext0:
	.cfi_sections	.debug_frame
	.file 0 "/home/mahmoudsamy/grad/ZC702/SW" "apps/canny/kernels/canny.m.c"
	.align	2
	.type	canny_phase_2, @function
canny_phase_2:
.LFB2:
	.file 1 "apps/canny/kernels/canny.m.c"
	.loc 1 230 45
	.cfi_startproc
.LVL0:
	.loc 1 231 4
	.loc 1 230 45 is_stmt 0
	addi	sp,sp,-208
	.cfi_def_cfa_offset 208
	sw	s4,184(sp)
	sw	ra,204(sp)
	sw	s0,200(sp)
	sw	s1,196(sp)
	.cfi_offset 20, -24
	.cfi_offset 1, -4
	.cfi_offset 8, -8
	.cfi_offset 9, -12
	.loc 1 244 5
	lw	s0,32(a0)
	.loc 1 243 5
	lw	a3,28(a0)
	.loc 1 230 45
	sw	a0,100(sp)
.LVL1:
	.loc 1 232 4 is_stmt 1
	.loc 1 233 4
	.loc 1 234 4
	.loc 1 235 4
	.loc 1 236 4
	.loc 1 237 4
	.loc 1 238 4
	.loc 1 239 4
	.loc 1 240 4
	.loc 1 242 4
	.loc 1 243 4
	.loc 1 249 15 is_stmt 0
	addi	a4,s0,31
	.loc 1 249 9
	srai	a5,a4,31
	andi	a5,a5,31
	add	a5,a5,a4
	.loc 1 243 5
	sw	a3,48(sp)
.LVL2:
	.loc 1 244 4 is_stmt 1
	.loc 1 245 4
	.loc 1 246 4
	.loc 1 247 4
	.loc 1 248 4
	.loc 1 249 4
	.loc 1 249 9 is_stmt 0
	srai	s4,a5,5
.LVL3:
	.loc 1 250 4 is_stmt 1
	.loc 1 251 4
	.loc 1 251 6 is_stmt 0
	bne	a1,zero,.L2
	sw	s2,192(sp)
	sw	s3,188(sp)
	sw	s5,180(sp)
	sw	s6,176(sp)
	sw	s7,172(sp)
	.loc 1 253 26
	li	a5,63
	mv	s1,a1
	.loc 1 252 7 is_stmt 1
.LVL4:
	.loc 1 253 7
	.cfi_offset 18, -16
	.cfi_offset 19, -20
	.cfi_offset 21, -28
	.cfi_offset 22, -32
	.cfi_offset 23, -36
	.loc 1 253 26 is_stmt 0
	bgt	a4,a5,.L21
.LVL5:
.L3:
.LBB2:
	.loc 1 261 3 is_stmt 1
	.loc 1 261 38
	.loc 1 261 107 is_stmt 0
	li	a5,-2147479552
	.loc 1 261 55
	li	t6,-2147479552
	li	t0,4096
	sw	t0,-2016(t6)
	.loc 1 261 67 is_stmt 1
	.loc 1 261 107 is_stmt 0
	addi	s2,a5,-1760
	.loc 1 261 84
	li	t1,-2147479552
	.loc 1 261 107
	li	a5,16384
	.loc 1 261 84
	sw	zero,-1888(t1)
	.loc 1 261 90 is_stmt 1
	.loc 1 261 107 is_stmt 0
	addi	s3,a5,-1
	sw	s3,24(sp)
	sw	s3,0(s2)
	.loc 1 261 135 is_stmt 1
	.loc 1 261 152 is_stmt 0
	li	a7,-2147479552
	sw	zero,-992(a7)
	.loc 1 261 164 is_stmt 1
	.loc 1 261 180 is_stmt 0
	li	a6,-2147483648
	sw	zero,672(a6)
	.loc 1 261 183 is_stmt 1
	.loc 1 261 199 is_stmt 0
	li	ra,1
	li	a0,-2147483648
.LVL6:
	sw	ra,1056(a0)
	.loc 1 261 202 is_stmt 1
	.loc 1 261 219 is_stmt 0
	li	a1,-2147483648
.LVL7:
	sw	zero,1568(a1)
	.loc 1 261 222 is_stmt 1
	.loc 1 261 239 is_stmt 0
	li	a2,-2147479552
	.loc 1 261 258
	li	a5,524288
	.loc 1 261 239
	sw	zero,-864(a2)
	.loc 1 261 242 is_stmt 1
	.loc 1 261 258 is_stmt 0
	li	t5,-2147483648
	addi	a5,a5,432
	sw	a5,544(t5)
	.loc 1 261 301 is_stmt 1
	.loc 1 261 318 is_stmt 0
	li	a3,-2147479552
.LVL8:
	.loc 1 261 353
	li	t2,524288
	.loc 1 261 318
	sw	ra,-736(a3)
	.loc 1 261 336 is_stmt 1
	.loc 1 261 353 is_stmt 0
	li	t4,-2147479552
	addi	t2,t2,127
	sw	t2,-1632(t4)
.LBE2:
	.loc 1 261 443 is_stmt 1
	.loc 1 261 444
	.loc 1 261 466 is_stmt 0
	lw	s5,100(sp)
	.loc 1 261 461
	li	a4,-2147479552
.LVL9:
	.loc 1 261 499
	li	t3,1036288
	.loc 1 261 466
	lw	a5,20(s5)
	.loc 1 261 499
	addi	s6,t3,-1923
	.loc 1 261 548
	li	t3,393216
	.loc 1 261 461
	sw	a5,-480(a4)
	.loc 1 261 482 is_stmt 1
	.loc 1 261 499 is_stmt 0
	sw	s6,40(sp)
	sw	s6,-1632(t4)
	.loc 1 261 531 is_stmt 1
	.loc 1 261 532
	.loc 1 261 548 is_stmt 0
	li	a5,-2147483648
	addi	t3,t3,1
	sw	t3,20(a5)
.LBB3:
	.loc 1 262 3 is_stmt 1
.LVL10:
	.loc 1 262 38
	.loc 1 262 55 is_stmt 0
	sw	t0,-2016(t6)
	.loc 1 262 67 is_stmt 1
	.loc 1 262 84 is_stmt 0
	sw	zero,-1888(t1)
	.loc 1 262 90 is_stmt 1
	.loc 1 262 107 is_stmt 0
	sw	s3,0(s2)
	.loc 1 262 135 is_stmt 1
	.loc 1 262 152 is_stmt 0
	sw	zero,-992(a7)
	.loc 1 262 164 is_stmt 1
	.loc 1 262 180 is_stmt 0
	sw	zero,672(a6)
	.loc 1 262 183 is_stmt 1
	.loc 1 262 199 is_stmt 0
	sw	ra,1056(a0)
	.loc 1 262 202 is_stmt 1
	.loc 1 262 219 is_stmt 0
	sw	zero,1568(a1)
	.loc 1 262 222 is_stmt 1
	.loc 1 262 258 is_stmt 0
	li	t6,524288
	.loc 1 262 239
	sw	zero,-864(a2)
	.loc 1 262 242 is_stmt 1
	.loc 1 262 258 is_stmt 0
	addi	t6,t6,433
	sw	t6,544(t5)
.LBE3:
.LBB4:
	.loc 1 261 258
	addi	t5,t5,544
.LBE4:
.LBB5:
	.loc 1 262 258
	sw	t5,12(sp)
	.loc 1 262 301 is_stmt 1
	.loc 1 262 318 is_stmt 0
	sw	ra,-736(a3)
	.loc 1 262 336 is_stmt 1
	.loc 1 262 353 is_stmt 0
	sw	t2,-1632(t4)
.LBE5:
	.loc 1 262 443 is_stmt 1
	.loc 1 262 444
	.loc 1 262 466 is_stmt 0
	lw	t0,24(s5)
.LBB6:
	.loc 1 261 353
	addi	t4,t4,-1632
.LBE6:
	.loc 1 265 18
	li	t6,1015840768
	.loc 1 262 461
	sw	t0,-480(a4)
	.loc 1 262 482 is_stmt 1
	.loc 1 262 499 is_stmt 0
	sw	s6,0(t4)
	sw	t4,8(sp)
	.loc 1 262 531 is_stmt 1
	.loc 1 262 532
	.loc 1 262 548 is_stmt 0
	sw	t3,20(a5)
	.loc 1 265 1 is_stmt 1
	.loc 1 265 2
	.loc 1 265 18 is_stmt 0
	addi	t6,t6,-508
	sw	t6,20(a5)
	.loc 1 266 4 is_stmt 1
	li	t3,-2147483648
	sw	zero,36(t3)
	.loc 1 266 4
	call	_taskYield
.LVL11:
	.loc 1 266 18 discriminator 1
	.loc 1 268 4
	.loc 1 269 4
	.loc 1 268 15 is_stmt 0
	lw	a1,48(sp)
	.loc 1 269 10
	lw	a4,12(s5)
.LVL12:
	.loc 1 270 4 is_stmt 1
.LBB7:
	.loc 1 261 107 is_stmt 0
	mv	s7,s2
.LBE7:
	.loc 1 268 15
	mul	a5,a1,s0
	.loc 1 270 17
	slli	a2,a1,1
	.loc 1 270 10
	sub	a3,a4,a2
.LVL13:
	.loc 1 271 4 is_stmt 1
	.loc 1 270 17 is_stmt 0
	mv	a0,a1
	.loc 1 268 17
	slli	a5,a5,1
.LVL14:
	.loc 1 271 13
	add	a4,a5,a2
.LVL15:
	.loc 1 273 4 is_stmt 1
	.loc 1 273 17 discriminator 1
	bge	s1,s4,.L19
	.loc 1 250 21 is_stmt 0
	addi	a2,s0,3
	.loc 1 250 6
	srai	a5,a2,31
	andi	a5,a5,3
	add	a5,a5,a2
	.loc 1 248 15
	addi	a1,a1,14
	.loc 1 248 9
	li	a2,15
	div	a2,a1,a2
	.loc 1 250 6
	srai	a5,a5,2
.LBB8:
	.loc 1 288 2191
	srai	a4,a4,1
.LVL16:
.LBE8:
	.loc 1 248 9
	sw	a2,108(sp)
.LBB9:
	.loc 1 288 1761
	slli	a2,a0,2
	sw	a2,104(sp)
	.loc 1 288 2246
	srli	a2,a3,1
	ble	a0,zero,.L19
	slli	a3,s1,3
.LVL17:
	sub	a5,a5,a3
	mul	a5,a5,a0
	slli	a3,s1,5
	sub	a3,s0,a3
	neg	a1,a0
	slli	s0,a1,5
.LVL18:
	.loc 1 288 2069
	addi	a1,a0,-1
	sw	a1,88(sp)
	sub	a4,a4,a0
	add	a2,a0,a2
	sw	s8,168(sp)
.LVL19:
	slli	a5,a5,2
	addi	a5,a5,-1
	sw	a5,80(sp)
	mul	a5,a3,a0
	sw	s9,164(sp)
	sw	s10,160(sp)
	sw	s11,156(sp)
	lw	t4,8(sp)
	lw	t5,12(sp)
	mul	a1,s1,a0
	addi	a5,a5,-1
	sw	a5,84(sp)
.LVL20:
.LBE9:
	.loc 1 274 17 is_stmt 1 discriminator 1
	slli	a3,a1,5
	sub	s2,a4,a3
	add	s3,a2,a3
	.cfi_offset 24, -40
	.cfi_offset 25, -44
	.cfi_offset 26, -48
	.cfi_offset 27, -52
	bne	s1,zero,.L22
	lw	a2,88(sp)
.LBB10:
	.loc 1 283 54 is_stmt 0
	li	a5,-2147483648
	addi	a5,a5,800
	.loc 1 283 82
	li	a4,-2147483648
	.loc 1 283 601
	li	a3,524288
	sw	a2,20(sp)
	.loc 1 283 54
	sw	a5,8(sp)
	addi	a2,s2,1
	.loc 1 283 82
	addi	a5,a4,928
	sw	a2,92(sp)
	sw	a5,12(sp)
	addi	a2,s3,-1
	.loc 1 283 601
	addi	a5,a3,16
	sw	s1,120(sp)
.LBE10:
.LBB11:
	.loc 1 288 2069
	sw	zero,28(sp)
	sw	a2,96(sp)
.LBE11:
.LBB12:
	.loc 1 283 601
	sw	a5,44(sp)
	sw	s2,76(sp)
	sw	s4,112(sp)
	sw	s3,116(sp)
	mv	s10,s7
	mv	s11,t5
	mv	s1,t4
.LVL21:
	sw	s0,124(sp)
	j	.L13
.LVL22:
.L24:
.LBE12:
.LBB13:
	.loc 1 280 3 is_stmt 1
	.loc 1 280 38
	.loc 1 280 54 is_stmt 0
	lw	s7,8(sp)
	li	a4,4096
	.loc 1 280 105
	li	t4,-2147483648
	.loc 1 280 54
	sw	a4,0(s7)
	.loc 1 280 66 is_stmt 1
	.loc 1 280 82 is_stmt 0
	lw	s8,12(sp)
	.loc 1 280 150
	li	t3,-2147479552
	.loc 1 280 179
	li	t2,-2147483648
	.loc 1 280 82
	sw	zero,0(s8)
	.loc 1 280 88 is_stmt 1
	.loc 1 280 105 is_stmt 0
	lw	a5,24(sp)
.LVL23:
	.loc 1 280 179
	li	s6,5
	.loc 1 280 241
	li	s0,48
	.loc 1 280 105
	sw	a5,1440(t4)
	.loc 1 280 133 is_stmt 1
	.loc 1 280 150 is_stmt 0
	sw	zero,-1248(t3)
	.loc 1 280 162 is_stmt 1
	.loc 1 280 179 is_stmt 0
	sw	s6,1824(t2)
	.loc 1 280 224 is_stmt 1
	.loc 1 280 241 is_stmt 0
	li	t1,-2147483648
	sw	s0,1696(t1)
	.loc 1 280 287 is_stmt 1
	.loc 1 280 304 is_stmt 0
	li	a5,287
	li	a7,-2147483648
	sw	a5,1952(a7)
	.loc 1 280 309 is_stmt 1
	.loc 1 280 326 is_stmt 0
	li	a6,-2147479552
	sw	zero,-1120(a6)
	.loc 1 280 329 is_stmt 1
	.loc 1 280 346 is_stmt 0
	li	a0,-2147479552
	sw	zero,-1888(a0)
	.loc 1 280 375 is_stmt 1
	.loc 1 280 392 is_stmt 0
	li	t0,-2147479552
	li	s5,8
	sw	s5,-2016(t0)
	.loc 1 280 418 is_stmt 1
	.loc 1 280 435 is_stmt 0
	sw	a5,0(s10)
	.loc 1 280 440 is_stmt 1
	.loc 1 280 457 is_stmt 0
	li	a1,-2147479552
	sw	zero,-992(a1)
	.loc 1 280 460 is_stmt 1
	.loc 1 280 476 is_stmt 0
	li	t6,-2147483648
	li	s4,7
	sw	s4,672(t6)
	.loc 1 280 516 is_stmt 1
	.loc 1 280 532 is_stmt 0
	li	t5,-2147483648
	li	s3,1
	sw	s3,1056(t5)
	.loc 1 280 543 is_stmt 1
	.loc 1 280 560 is_stmt 0
	li	a2,-2147483648
	sw	a5,1568(a2)
	.loc 1 280 565 is_stmt 1
	.loc 1 280 582 is_stmt 0
	li	a3,-2147479552
	sw	zero,-864(a3)
	.loc 1 280 585 is_stmt 1
	.loc 1 280 601 is_stmt 0
	lw	s2,44(sp)
	.loc 1 280 734
	li	ra,-2147479552
	.loc 1 280 601
	sw	s2,0(s11)
	.loc 1 280 717 is_stmt 1
	.loc 1 280 872 is_stmt 0
	li	s2,1032192
	.loc 1 280 734
	sw	s0,-736(ra)
	.loc 1 280 855 is_stmt 1
	.loc 1 280 872 is_stmt 0
	addi	s2,s2,127
	sw	s2,0(s1)
.LBE13:
.LBB14:
	.loc 1 280 905 is_stmt 1
.LVL24:
	.loc 1 280 954
	.loc 1 280 970 is_stmt 0
	sw	a4,0(s7)
	.loc 1 280 982 is_stmt 1
	.loc 1 280 998 is_stmt 0
	sw	zero,0(s8)
	.loc 1 280 1004 is_stmt 1
	.loc 1 280 1021 is_stmt 0
	addi	a4,a4,-1
	sw	a4,1440(t4)
	.loc 1 280 1049 is_stmt 1
	.loc 1 280 1066 is_stmt 0
	li	a4,12288
	sw	a4,-1248(t3)
	.loc 1 280 1078 is_stmt 1
	.loc 1 280 1095 is_stmt 0
	sw	s6,1824(t2)
	.loc 1 280 1140 is_stmt 1
	.loc 1 280 1157 is_stmt 0
	sw	s0,1696(t1)
	.loc 1 280 1203 is_stmt 1
	.loc 1 280 1220 is_stmt 0
	sw	a5,1952(a7)
	.loc 1 280 1225 is_stmt 1
	.loc 1 280 1242 is_stmt 0
	sw	zero,-1120(a6)
	.loc 1 280 1245 is_stmt 1
	.loc 1 280 1262 is_stmt 0
	sw	zero,-1888(a0)
	.loc 1 280 1321 is_stmt 1
	.loc 1 280 1338 is_stmt 0
	sw	s5,-2016(t0)
	.loc 1 280 1364 is_stmt 1
	.loc 1 280 1381 is_stmt 0
	sw	a5,0(s10)
	.loc 1 280 1386 is_stmt 1
	.loc 1 280 1403 is_stmt 0
	sw	zero,-992(a1)
	.loc 1 280 1406 is_stmt 1
	.loc 1 280 1422 is_stmt 0
	sw	s4,672(t6)
	.loc 1 280 1462 is_stmt 1
	.loc 1 280 1478 is_stmt 0
	sw	s3,1056(t5)
	.loc 1 280 1489 is_stmt 1
	.loc 1 280 1506 is_stmt 0
	sw	a5,1568(a2)
	.loc 1 280 1511 is_stmt 1
	.loc 1 280 1547 is_stmt 0
	li	a4,536576
	.loc 1 280 1528
	sw	zero,-864(a3)
	.loc 1 280 1531 is_stmt 1
	.loc 1 280 1547 is_stmt 0
	addi	a4,a4,40
	.loc 1 280 1694
	li	t5,1032192
	.loc 1 280 1547
	sw	a4,0(s11)
	.loc 1 280 1677 is_stmt 1
	.loc 1 280 1694 is_stmt 0
	addi	t5,t5,125
.LBE14:
	.loc 1 280 1743
	li	a4,393216
	li	a5,-2147483648
.LBB15:
	.loc 1 280 1694
	sw	t5,0(s1)
.LBE15:
	.loc 1 280 1726 is_stmt 1
	.loc 1 280 1727
	.loc 1 280 1743 is_stmt 0
	addi	a4,a4,1
	sw	a4,20(a5)
.LVL25:
.L12:
	.loc 1 285 1 is_stmt 1
	.loc 1 285 2
	.loc 1 285 18 is_stmt 0
	li	a4,-2147483648
	li	a5,88
	sw	a5,20(a4)
.LBB16:
	.loc 1 288 3 is_stmt 1
.LVL26:
	.loc 1 288 204
	.loc 1 288 220 is_stmt 0
	lw	t2,8(sp)
	li	ra,96
	.loc 1 288 321
	li	t4,7
	.loc 1 288 220
	sw	ra,0(t2)
	.loc 1 288 305 is_stmt 1
	.loc 1 288 321 is_stmt 0
	lw	t3,12(sp)
	.loc 1 288 344
	li	a1,-2147483648
	li	t6,767
	.loc 1 288 321
	sw	t4,0(t3)
	.loc 1 288 327 is_stmt 1
	.loc 1 288 344 is_stmt 0
	sw	t6,1440(a1)
	.loc 1 288 454 is_stmt 1
	.loc 1 288 471 is_stmt 0
	li	a2,-2147479552
	sw	zero,-1248(a2)
	.loc 1 288 556 is_stmt 1
	.loc 1 288 573 is_stmt 0
	li	a0,-2147483648
	li	a7,16
	sw	a7,1696(a0)
	.loc 1 288 632 is_stmt 1
	.loc 1 288 649 is_stmt 0
	li	t0,-2147483648
	li	t3,5
	sw	t3,1824(t0)
	.loc 1 288 655 is_stmt 1
	.loc 1 288 672 is_stmt 0
	li	t1,-2147483648
	li	t5,95
	sw	t5,1952(t1)
	.loc 1 288 761 is_stmt 1
	.loc 1 288 778 is_stmt 0
	li	s9,-2147479552
	sw	zero,-1120(s9)
	.loc 1 288 837 is_stmt 1
	.loc 1 288 854 is_stmt 0
	li	s8,-2147479552
	li	a5,4
	sw	a5,-2016(s8)
	.loc 1 288 895 is_stmt 1
	.loc 1 288 912 is_stmt 0
	li	s0,3
	li	s7,-2147479552
	sw	s0,-1888(s7)
	.loc 1 288 918 is_stmt 1
	.loc 1 288 935 is_stmt 0
	li	a7,15
	sw	a7,0(s10)
	.loc 1 288 998 is_stmt 1
	.loc 1 288 1015 is_stmt 0
	li	s6,-2147479552
	sw	zero,-992(s6)
	.loc 1 288 1056 is_stmt 1
	.loc 1 288 1072 is_stmt 0
	li	s5,-2147483648
	li	a3,1
	sw	a3,1056(s5)
	.loc 1 288 1083 is_stmt 1
	.loc 1 288 1099 is_stmt 0
	li	s4,-2147483648
	sw	s0,672(s4)
	.loc 1 288 1105 is_stmt 1
	.loc 1 288 1122 is_stmt 0
	li	s3,-2147483648
	sw	s0,1568(s3)
	.loc 1 288 1163 is_stmt 1
	.loc 1 288 1180 is_stmt 0
	li	s2,-2147479552
	.loc 1 288 1453
	li	a6,-2147479552
	.loc 1 288 1180
	sw	zero,-864(s2)
	.loc 1 288 1189 is_stmt 1
.LVL27:
	.loc 1 288 1390
	.loc 1 288 1453 is_stmt 0
	addi	a5,a6,-736
	.loc 1 288 1406
	sw	zero,0(s11)
	.loc 1 288 1435 is_stmt 1
	.loc 1 288 1436
	.loc 1 288 1453 is_stmt 0
	mv	a6,a5
	sw	a6,16(sp)
	li	t2,768
	.loc 1 288 1509
	li	a5,1036288
	.loc 1 288 1453
	sw	t2,0(a6)
	.loc 1 288 1492 is_stmt 1
	.loc 1 288 1509 is_stmt 0
	addi	a5,a5,-1921
	sw	a5,0(s1)
.LBE16:
.LBB17:
	.loc 1 288 1542 is_stmt 1
.LVL28:
	.loc 1 288 1722
	.loc 1 288 1739 is_stmt 0
	lw	a6,104(sp)
	.loc 1 288 1956
	li	a5,67108864
	addi	a5,a5,-1
	.loc 1 288 1739
	sw	a6,1696(a0)
.LVL29:
	.loc 1 288 1766 is_stmt 1
	.loc 1 288 1783 is_stmt 0
	sw	t4,1824(t0)
	.loc 1 288 1789 is_stmt 1
	.loc 1 288 1806 is_stmt 0
	lw	a6,80(sp)
.LBE17:
.LBB18:
	.loc 1 288 344
	addi	a1,a1,1440
	.loc 1 288 573
	addi	a0,a0,1696
.LBE18:
.LBB19:
	.loc 1 288 1806
	sw	a6,1952(t1)
	.loc 1 288 1842 is_stmt 1
	.loc 1 288 1859 is_stmt 0
	sw	zero,-1120(s9)
	.loc 1 288 1886 is_stmt 1
	.loc 1 288 1903 is_stmt 0
	lw	a6,48(sp)
.LBE19:
.LBB20:
	.loc 1 288 649
	addi	t0,t0,1824
	.loc 1 288 672
	addi	t1,t1,1952
.LBE20:
.LBB21:
	.loc 1 288 1903
	sw	a6,-2016(s8)
	.loc 1 288 1916 is_stmt 1
	.loc 1 288 1933 is_stmt 0
	sw	t3,-1888(s7)
	.loc 1 288 1939 is_stmt 1
	.loc 1 288 1956 is_stmt 0
	sw	a5,0(s10)
	.loc 1 288 1968 is_stmt 1
	.loc 1 288 1985 is_stmt 0
	sw	zero,-992(s6)
	.loc 1 288 1998 is_stmt 1
	.loc 1 288 2014 is_stmt 0
	sw	a3,1056(s5)
	.loc 1 288 2025 is_stmt 1
	.loc 1 288 2041 is_stmt 0
	sw	a7,672(s4)
	.loc 1 288 2047 is_stmt 1
	.loc 1 288 2064 is_stmt 0
	lw	a7,20(sp)
	lw	a6,28(sp)
.LBE21:
	.loc 1 285 18
	addi	a4,a4,20
.LBB22:
	.loc 1 288 2064
	sw	a7,1568(s3)
	.loc 1 288 2077 is_stmt 1
	lw	t4,92(sp)
	slli	a5,a6,4
	sub	t3,a5,a6
	sw	t3,36(sp)
	add	t3,t4,a7
	.loc 1 288 2236 is_stmt 0
	lw	t4,96(sp)
	sw	a7,20(sp)
	sw	a6,28(sp)
	sub	t4,t4,a7
	.loc 1 288 2094
	lw	a7,36(sp)
	.loc 1 288 2177
	li	a6,-2147479552
	.loc 1 288 2281
	li	a5,1036288
	.loc 1 288 2094
	sw	a7,-864(s2)
	.loc 1 288 2103 is_stmt 1
.LVL30:
	.loc 1 288 2160
	.loc 1 288 2177 is_stmt 0
	sw	t3,-96(a6)
	.loc 1 288 2214 is_stmt 1
	.loc 1 288 2215
	.loc 1 288 2231 is_stmt 0
	sw	t4,0(s11)
	.loc 1 288 2263 is_stmt 1
	.loc 1 288 2264
	.loc 1 288 2281 is_stmt 0
	addi	a5,a5,125
.LBE22:
	.loc 1 288 2330
	li	t3,393216
.LBB23:
	.loc 1 288 2281
	sw	a5,0(s1)
.LBE23:
	.loc 1 288 2313 is_stmt 1
	.loc 1 288 2314
	.loc 1 288 2330 is_stmt 0
	addi	a7,t3,17
	sw	a7,32(sp)
	sw	a7,0(a4)
.LBB24:
	.loc 1 288 2420 is_stmt 1
.LVL31:
	.loc 1 288 2465
	.loc 1 288 2482 is_stmt 0
	li	a6,4096
	sw	a6,-2016(s8)
	.loc 1 288 2494 is_stmt 1
	.loc 1 288 2511 is_stmt 0
	sw	s0,-1888(s7)
	.loc 1 288 2517 is_stmt 1
	.loc 1 288 2534 is_stmt 0
	lw	a7,24(sp)
	.loc 1 288 2608
	li	t3,5
	.loc 1 288 2731
	li	a5,287
	.loc 1 288 2534
	sw	a7,0(s10)
	.loc 1 288 2562 is_stmt 1
	.loc 1 288 2579 is_stmt 0
	sw	zero,-992(s6)
	.loc 1 288 2591 is_stmt 1
	.loc 1 288 2608 is_stmt 0
	sw	t3,0(t0)
	.loc 1 288 2651 is_stmt 1
	.loc 1 288 2668 is_stmt 0
	li	a7,48
	sw	a7,0(a0)
	.loc 1 288 2714 is_stmt 1
	.loc 1 288 2731 is_stmt 0
	sw	a5,0(t1)
	.loc 1 288 2736 is_stmt 1
	.loc 1 288 2753 is_stmt 0
	sw	zero,-1120(s9)
	.loc 1 288 2756 is_stmt 1
	.loc 1 288 2772 is_stmt 0
	sw	s0,672(s4)
	.loc 1 288 2815 is_stmt 1
	.loc 1 288 2831 is_stmt 0
	li	a7,8
	sw	a7,1056(s5)
	.loc 1 288 2857 is_stmt 1
	.loc 1 288 2874 is_stmt 0
	sw	a5,1568(s3)
	.loc 1 288 2879 is_stmt 1
	.loc 1 288 2896 is_stmt 0
	sw	zero,-864(s2)
	.loc 1 288 2899 is_stmt 1
	.loc 1 288 2915 is_stmt 0
	lw	t3,12(sp)
	li	t4,7
.LBE24:
.LBB25:
	.loc 1 288 471
	addi	a2,a2,-1248
.LBE25:
.LBB26:
	.loc 1 288 2915
	sw	t4,0(t3)
	.loc 1 288 2953 is_stmt 1
	.loc 1 288 2969 is_stmt 0
	lw	t4,8(sp)
	sw	a3,0(t4)
	.loc 1 288 2980 is_stmt 1
	.loc 1 288 2997 is_stmt 0
	sw	a5,0(a1)
	.loc 1 288 3002 is_stmt 1
	.loc 1 288 3038 is_stmt 0
	li	t4,524288
	.loc 1 288 3019
	sw	zero,0(a2)
	.loc 1 288 3022 is_stmt 1
	.loc 1 288 3038 is_stmt 0
	addi	t4,t4,24
	sw	t4,0(s11)
	.loc 1 288 3156 is_stmt 1
	.loc 1 288 3173 is_stmt 0
	lw	a7,16(sp)
	.loc 1 288 3321
	li	t4,1032192
	addi	t4,t4,1151
	.loc 1 288 3173
	sw	t2,0(a7)
	.loc 1 288 3304 is_stmt 1
	.loc 1 288 3321 is_stmt 0
	sw	t4,0(s1)
.LBE26:
.LBB27:
	.loc 1 288 3354 is_stmt 1
.LVL32:
	.loc 1 288 3555
	.loc 1 288 3571 is_stmt 0
	lw	t2,8(sp)
	.loc 1 288 3672
	li	t4,7
	.loc 1 288 3571
	sw	ra,0(t2)
	.loc 1 288 3656 is_stmt 1
	.loc 1 288 3672 is_stmt 0
	sw	t4,0(t3)
	.loc 1 288 3678 is_stmt 1
	.loc 1 288 3695 is_stmt 0
	sw	t6,0(a1)
	.loc 1 288 3805 is_stmt 1
	.loc 1 288 3822 is_stmt 0
	sw	zero,0(a2)
	.loc 1 288 3907 is_stmt 1
	.loc 1 288 3924 is_stmt 0
	li	t6,16
	sw	t6,0(a0)
	.loc 1 288 3983 is_stmt 1
	.loc 1 288 4000 is_stmt 0
	li	t6,5
	sw	t6,0(t0)
	.loc 1 288 4006 is_stmt 1
	.loc 1 288 4023 is_stmt 0
	sw	t5,0(t1)
	.loc 1 288 0 is_stmt 1
	sw	zero,-1120(s9)
	.loc 1 288 0
	li	t5,4
	sw	t5,-2016(s8)
	.loc 1 288 0
	sw	s0,-1888(s7)
	.loc 1 288 0
	li	t6,15
	sw	t6,0(s10)
	.loc 1 288 0
	sw	zero,-992(s6)
	.loc 1 288 0
	sw	a3,1056(s5)
	.loc 1 288 0
	sw	s0,672(s4)
	.loc 1 288 0
	sw	s0,1568(s3)
	.loc 1 288 0
	sw	zero,-864(s2)
	.loc 1 288 0
.LVL33:
	.loc 1 288 0
	sw	zero,0(s11)
	.loc 1 288 0
	.loc 1 288 0
	lw	ra,40(sp)
.LBE27:
.LBB28:
	.loc 1 294 86 is_stmt 0
	li	t6,2
	.loc 1 294 183
	li	t5,5
.LBE28:
.LBB29:
	.loc 1 288 0
	sw	ra,0(s1)
.LBE29:
	.loc 1 288 0 is_stmt 1
	.loc 1 288 0
	lw	ra,32(sp)
	sw	ra,0(a4)
.LBB30:
	.loc 1 294 3
.LVL34:
	.loc 1 294 42
	.loc 1 294 58 is_stmt 0
	sw	a6,0(t2)
	.loc 1 294 70 is_stmt 1
	.loc 1 294 86 is_stmt 0
	sw	t6,0(t3)
	.loc 1 294 92 is_stmt 1
	.loc 1 294 109 is_stmt 0
	lw	ra,24(sp)
	sw	ra,0(a1)
	.loc 1 294 137 is_stmt 1
	.loc 1 294 154 is_stmt 0
	sw	zero,0(a2)
	.loc 1 294 166 is_stmt 1
	.loc 1 294 183 is_stmt 0
	sw	t5,0(t0)
	.loc 1 294 228 is_stmt 1
	.loc 1 294 245 is_stmt 0
	li	ra,48
	sw	ra,0(a0)
	.loc 1 294 291 is_stmt 1
	.loc 1 294 308 is_stmt 0
	sw	a5,0(t1)
	.loc 1 294 313 is_stmt 1
	.loc 1 294 330 is_stmt 0
	sw	zero,-1120(s9)
	.loc 1 294 333 is_stmt 1
	.loc 1 294 350 is_stmt 0
	sw	zero,-1888(s7)
	.loc 1 294 407 is_stmt 1
	.loc 1 294 424 is_stmt 0
	li	t5,8
	sw	t5,-2016(s8)
	.loc 1 294 450 is_stmt 1
	.loc 1 294 467 is_stmt 0
	sw	a5,0(s10)
	.loc 1 294 472 is_stmt 1
	.loc 1 294 489 is_stmt 0
	sw	zero,-992(s6)
	.loc 1 294 492 is_stmt 1
	.loc 1 294 508 is_stmt 0
	sw	t4,672(s4)
	.loc 1 294 548 is_stmt 1
	.loc 1 294 564 is_stmt 0
	sw	a3,1056(s5)
	.loc 1 294 575 is_stmt 1
	.loc 1 294 592 is_stmt 0
	sw	a5,1568(s3)
	.loc 1 294 597 is_stmt 1
	.loc 1 294 508 is_stmt 0
	mv	t5,t4
	.loc 1 294 633
	li	t4,524288
	.loc 1 294 614
	sw	zero,-864(s2)
	.loc 1 294 617 is_stmt 1
	.loc 1 294 633 is_stmt 0
	addi	t4,t4,56
	sw	t4,0(s11)
	.loc 1 294 763 is_stmt 1
	.loc 1 294 780 is_stmt 0
	sw	a7,16(sp)
	li	t4,144
	.loc 1 294 946
	li	ra,1032192
	.loc 1 294 780
	sw	t4,0(a7)
	.loc 1 294 929 is_stmt 1
	.loc 1 294 946 is_stmt 0
	addi	ra,ra,127
	sw	ra,0(s1)
.LBE30:
.LBB31:
	.loc 1 294 979 is_stmt 1
.LVL35:
	.loc 1 294 1024
	.loc 1 294 1040 is_stmt 0
	sw	t2,8(sp)
	sw	a6,0(t2)
	.loc 1 294 1052 is_stmt 1
	.loc 1 294 1068 is_stmt 0
	sw	t3,12(sp)
	.loc 1 294 1091
	li	t2,12288
	.loc 1 294 1068
	sw	t6,0(t3)
	.loc 1 294 1074 is_stmt 1
	.loc 1 294 1091 is_stmt 0
	addi	t2,t2,-1
	sw	t2,0(a1)
	.loc 1 294 1119 is_stmt 1
	.loc 1 294 1136 is_stmt 0
	sw	a6,0(a2)
	.loc 1 294 1148 is_stmt 1
	.loc 1 294 1165 is_stmt 0
	li	t3,5
	sw	t3,0(t0)
	.loc 1 294 1210 is_stmt 1
	.loc 1 294 1227 is_stmt 0
	li	a7,48
	sw	a7,0(a0)
	.loc 1 294 1273 is_stmt 1
	.loc 1 294 1290 is_stmt 0
	sw	a5,0(t1)
	.loc 1 294 1295 is_stmt 1
	.loc 1 294 1312 is_stmt 0
	sw	zero,-1120(s9)
	.loc 1 294 1315 is_stmt 1
	.loc 1 294 1382 is_stmt 0
	li	a7,8
	.loc 1 294 1332
	sw	zero,-1888(s7)
	.loc 1 294 1365 is_stmt 1
	.loc 1 294 1382 is_stmt 0
	sw	a7,-2016(s8)
	.loc 1 294 1408 is_stmt 1
	.loc 1 294 1425 is_stmt 0
	sw	a5,0(s10)
	.loc 1 294 1430 is_stmt 1
	.loc 1 294 1447 is_stmt 0
	sw	zero,-992(s6)
	.loc 1 294 1450 is_stmt 1
	.loc 1 294 1466 is_stmt 0
	sw	t5,672(s4)
	.loc 1 294 1506 is_stmt 1
	.loc 1 294 1522 is_stmt 0
	sw	a3,1056(s5)
	.loc 1 294 1533 is_stmt 1
	.loc 1 294 1550 is_stmt 0
	sw	a5,1568(s3)
	.loc 1 294 1555 is_stmt 1
	.loc 1 294 1591 is_stmt 0
	li	t4,528384
	.loc 1 294 1572
	sw	zero,-864(s2)
	.loc 1 294 1575 is_stmt 1
	.loc 1 294 1591 is_stmt 0
	addi	t4,t4,24
	.loc 1 294 1726
	li	t5,1032192
	.loc 1 294 1591
	sw	t4,0(s11)
	.loc 1 294 1709 is_stmt 1
	.loc 1 294 1726 is_stmt 0
	addi	t5,t5,125
.LBE31:
	.loc 1 294 1775
	li	t4,393216
.LBB32:
	.loc 1 294 1726
	sw	t5,0(s1)
.LBE32:
	.loc 1 294 1758 is_stmt 1
	.loc 1 294 1759
	.loc 1 294 1775 is_stmt 0
	addi	t4,t4,9
	sw	t4,0(a4)
.LBB33:
	.loc 1 298 3 is_stmt 1
.LVL36:
	.loc 1 298 48
	.loc 1 298 64 is_stmt 0
	lw	t3,8(sp)
	sw	a6,0(t3)
	.loc 1 298 76 is_stmt 1
	.loc 1 298 92 is_stmt 0
	lw	t3,12(sp)
	sw	t6,0(t3)
	.loc 1 298 98 is_stmt 1
	.loc 1 298 115 is_stmt 0
	sw	t2,0(a1)
	.loc 1 298 143 is_stmt 1
	.loc 1 298 160 is_stmt 0
	sw	a6,0(a2)
	.loc 1 298 172 is_stmt 1
	.loc 1 298 189 is_stmt 0
	li	t3,5
	sw	t3,0(t0)
	.loc 1 298 234 is_stmt 1
	.loc 1 298 251 is_stmt 0
	li	t2,48
	sw	t2,0(a0)
	.loc 1 298 297 is_stmt 1
	.loc 1 298 314 is_stmt 0
	sw	a5,0(t1)
	.loc 1 298 319 is_stmt 1
	.loc 1 298 336 is_stmt 0
	sw	zero,-1120(s9)
	.loc 1 298 339 is_stmt 1
	.loc 1 298 356 is_stmt 0
	sw	zero,-1888(s7)
	.loc 1 298 385 is_stmt 1
	.loc 1 298 402 is_stmt 0
	sw	a7,-2016(s8)
	.loc 1 298 428 is_stmt 1
	.loc 1 298 445 is_stmt 0
	sw	a5,0(s10)
	.loc 1 298 450 is_stmt 1
	.loc 1 298 467 is_stmt 0
	sw	zero,-992(s6)
	.loc 1 298 470 is_stmt 1
	.loc 1 298 486 is_stmt 0
	li	t2,7
	sw	t2,672(s4)
	.loc 1 298 526 is_stmt 1
	.loc 1 298 542 is_stmt 0
	sw	a3,1056(s5)
	.loc 1 298 553 is_stmt 1
	.loc 1 298 570 is_stmt 0
	sw	a5,1568(s3)
	.loc 1 298 575 is_stmt 1
	.loc 1 298 611 is_stmt 0
	li	t2,528384
	.loc 1 298 592
	sw	zero,-864(s2)
	.loc 1 298 595 is_stmt 1
	.loc 1 298 611 is_stmt 0
	addi	t2,t2,16
	sw	t2,0(s11)
	.loc 1 298 727 is_stmt 1
	.loc 1 298 744 is_stmt 0
	lw	t3,16(sp)
	li	t2,144
	sw	t2,0(t3)
	.loc 1 298 865 is_stmt 1
	.loc 1 298 882 is_stmt 0
	sw	ra,0(s1)
.LBE33:
.LBB34:
	.loc 1 298 915 is_stmt 1
.LVL37:
	.loc 1 298 954
	.loc 1 298 970 is_stmt 0
	lw	t3,8(sp)
	.loc 1 298 1414
	li	t2,7
	.loc 1 298 970
	sw	a6,0(t3)
	.loc 1 298 982 is_stmt 1
	.loc 1 298 998 is_stmt 0
	lw	ra,12(sp)
	.loc 1 298 1095
	li	t3,5
	.loc 1 298 998
	sw	t6,0(ra)
	.loc 1 298 1004 is_stmt 1
	.loc 1 298 1021 is_stmt 0
	lw	ra,24(sp)
	.loc 1 298 1539
	li	t6,524288
	addi	t6,t6,48
	.loc 1 298 1021
	sw	ra,0(a1)
	sw	a1,72(sp)
	.loc 1 298 1049 is_stmt 1
	.loc 1 298 1066 is_stmt 0
	sw	zero,0(a2)
	.loc 1 298 1078 is_stmt 1
	.loc 1 298 1095 is_stmt 0
	sw	t3,0(t0)
	.loc 1 298 1140 is_stmt 1
	.loc 1 298 1157 is_stmt 0
	li	a1,48
	sw	a1,0(a0)
	.loc 1 298 1203 is_stmt 1
	.loc 1 298 1220 is_stmt 0
	sw	a5,0(t1)
	.loc 1 298 1225 is_stmt 1
	.loc 1 298 1242 is_stmt 0
	sw	zero,-1120(s9)
	.loc 1 298 1245 is_stmt 1
	.loc 1 298 1262 is_stmt 0
	sw	zero,-1888(s7)
	.loc 1 298 1313 is_stmt 1
	.loc 1 298 1330 is_stmt 0
	sw	a7,-2016(s8)
	.loc 1 298 1356 is_stmt 1
	.loc 1 298 1373 is_stmt 0
	sw	a5,0(s10)
	.loc 1 298 1378 is_stmt 1
	.loc 1 298 1395 is_stmt 0
	sw	zero,-992(s6)
	.loc 1 298 1398 is_stmt 1
	.loc 1 298 1414 is_stmt 0
	sw	t2,672(s4)
	.loc 1 298 1454 is_stmt 1
	.loc 1 298 1481
	.loc 1 298 1470 is_stmt 0
	sw	a3,1056(s5)
	.loc 1 298 1498
	sw	a5,1568(s3)
	.loc 1 298 1503 is_stmt 1
	.loc 1 298 1520 is_stmt 0
	sw	zero,-864(s2)
	.loc 1 298 1523 is_stmt 1
	.loc 1 298 1539 is_stmt 0
	sw	t6,0(s11)
	.loc 1 298 1665 is_stmt 1
	.loc 1 298 1682 is_stmt 0
	sw	t5,0(s1)
.LBE34:
	.loc 1 298 1714 is_stmt 1
	.loc 1 298 1715
	.loc 1 298 1731 is_stmt 0
	sw	t4,0(a4)
	.loc 1 300 1 is_stmt 1
	.loc 1 300 2
	.loc 1 300 18 is_stmt 0
	li	a3,88
	sw	a3,0(a4)
	.loc 1 302 10 is_stmt 1
.LBB35:
	.loc 1 303 3
.LVL38:
	.loc 1 303 38
	.loc 1 303 55 is_stmt 0
	sw	a6,0(a0)
	sw	a0,68(sp)
	.loc 1 303 67 is_stmt 1
	.loc 1 303 84 is_stmt 0
	sw	zero,0(t0)
	sw	t0,64(sp)
	.loc 1 303 90 is_stmt 1
	.loc 1 303 107 is_stmt 0
	sw	ra,24(sp)
	sw	ra,0(t1)
	sw	t1,60(sp)
	.loc 1 303 135 is_stmt 1
	.loc 1 303 152 is_stmt 0
	sw	zero,-1120(s9)
	.loc 1 303 164 is_stmt 1
	.loc 1 303 181 is_stmt 0
	sw	zero,-1888(s7)
	.loc 1 303 210 is_stmt 1
	.loc 1 303 227 is_stmt 0
	li	a3,48
	sw	a3,-2016(s8)
	.loc 1 303 273 is_stmt 1
	.loc 1 303 290 is_stmt 0
	sw	a5,0(s10)
	.loc 1 303 295 is_stmt 1
	.loc 1 303 312 is_stmt 0
	sw	zero,-992(s6)
	.loc 1 303 315 is_stmt 1
	.loc 1 303 331 is_stmt 0
	sw	t3,672(s4)
	.loc 1 303 376 is_stmt 1
	.loc 1 303 392 is_stmt 0
	sw	a7,1056(s5)
	.loc 1 303 418 is_stmt 1
	.loc 1 303 435 is_stmt 0
	sw	a5,1568(s3)
	.loc 1 303 440 is_stmt 1
	.loc 1 303 457 is_stmt 0
	sw	zero,-864(s2)
	.loc 1 303 460 is_stmt 1
	.loc 1 303 476 is_stmt 0
	lw	t1,44(sp)
	.loc 1 303 609
	li	t3,6
	.loc 1 303 712
	li	a7,524288
	.loc 1 303 476
	sw	t1,0(s11)
	.loc 1 303 592 is_stmt 1
	.loc 1 303 609 is_stmt 0
	lw	a3,16(sp)
	.loc 1 303 712
	addi	a7,a7,127
.LBE35:
	.loc 1 303 820
	li	a5,-2147479552
.LBB36:
	.loc 1 303 609
	sw	t3,0(a3)
	.loc 1 303 695 is_stmt 1
	.loc 1 303 712 is_stmt 0
	sw	a7,0(s1)
.LBE36:
	.loc 1 303 802 is_stmt 1
	.loc 1 303 803
	.loc 1 303 820 is_stmt 0
	sw	zero,-480(a5)
	.loc 1 303 825 is_stmt 1
	.loc 1 303 842 is_stmt 0
	lw	a0,40(sp)
	.loc 1 303 891
	li	a5,393216
	addi	a5,a5,1
	.loc 1 303 842
	sw	a0,0(s1)
	.loc 1 303 874 is_stmt 1
	.loc 1 303 875
	.loc 1 306 18 is_stmt 0
	li	a7,1015840768
	.loc 1 303 891
	sw	a5,0(a4)
	.loc 1 306 1 is_stmt 1
	.loc 1 306 2
	.loc 1 306 18 is_stmt 0
	addi	a7,a7,1284
	sw	a7,0(a4)
	.loc 1 308 10
	li	a5,-2147483648
	.loc 1 306 18
	sw	a4,56(sp)
	.loc 1 308 10 is_stmt 1
	sw	zero,36(a5)
	.loc 1 308 10
.LBB37:
	.loc 1 288 471 is_stmt 0
	sw	a2,52(sp)
.LBE37:
	.loc 1 308 10
	call	_taskYield
.LVL39:
	.loc 1 308 24 is_stmt 1 discriminator 1
.LBB38:
	.loc 1 312 3
	.loc 1 312 186
	.loc 1 312 202 is_stmt 0
	lw	a4,8(sp)
	li	t4,64
	.loc 1 312 285
	li	t2,7
	.loc 1 312 202
	sw	t4,0(a4)
	.loc 1 312 269 is_stmt 1
	.loc 1 312 285 is_stmt 0
	lw	t6,12(sp)
	.loc 1 312 308
	li	t3,511
	.loc 1 312 501
	li	a7,16
	.loc 1 312 285
	sw	t2,0(t6)
	.loc 1 312 291 is_stmt 1
	.loc 1 312 308 is_stmt 0
	lw	a1,72(sp)
	.loc 1 312 740
	li	t5,4
	.loc 1 312 809
	li	a5,15
	.loc 1 312 308
	sw	t3,0(a1)
	.loc 1 312 400 is_stmt 1
	.loc 1 312 417 is_stmt 0
	lw	a2,52(sp)
	.loc 1 312 922
	li	a3,1
	.loc 1 312 417
	sw	zero,0(a2)
	.loc 1 312 484 is_stmt 1
	.loc 1 312 501 is_stmt 0
	lw	a0,68(sp)
	sw	a7,0(a0)
	.loc 1 312 548 is_stmt 1
	.loc 1 312 565 is_stmt 0
	lw	t0,64(sp)
	.loc 1 312 588
	li	a7,63
	.loc 1 312 565
	sw	s0,0(t0)
	.loc 1 312 571 is_stmt 1
	.loc 1 312 588 is_stmt 0
	lw	t1,60(sp)
	sw	a7,0(t1)
	.loc 1 312 659 is_stmt 1
	.loc 1 312 676 is_stmt 0
	sw	zero,-1120(s9)
	.loc 1 312 723 is_stmt 1
	.loc 1 312 740 is_stmt 0
	sw	t5,-2016(s8)
	.loc 1 312 769 is_stmt 1
	.loc 1 312 786 is_stmt 0
	sw	s0,-1888(s7)
	.loc 1 312 792 is_stmt 1
	.loc 1 312 809 is_stmt 0
	sw	a5,0(s10)
	.loc 1 312 860 is_stmt 1
	.loc 1 312 877 is_stmt 0
	sw	zero,-992(s6)
	.loc 1 312 906 is_stmt 1
	.loc 1 312 922 is_stmt 0
	sw	a3,1056(s5)
	.loc 1 312 933 is_stmt 1
	.loc 1 312 949 is_stmt 0
	sw	s0,672(s4)
	.loc 1 312 955 is_stmt 1
	.loc 1 312 972 is_stmt 0
	sw	s0,1568(s3)
	.loc 1 312 1001 is_stmt 1
	.loc 1 312 1018 is_stmt 0
	sw	zero,-864(s2)
	.loc 1 312 1027 is_stmt 1
.LVL40:
	.loc 1 312 1186
	.loc 1 312 1202 is_stmt 0
	sw	zero,0(s11)
	.loc 1 312 1231 is_stmt 1
	.loc 1 312 1232
	.loc 1 312 1249 is_stmt 0
	lw	a6,16(sp)
	li	t5,512
	.loc 1 312 1305
	li	a5,1036288
	.loc 1 312 1249
	sw	t5,0(a6)
	.loc 1 312 1288 is_stmt 1
	.loc 1 312 1305 is_stmt 0
	addi	a5,a5,-1889
	sw	a5,0(s1)
.LBE38:
.LBB39:
	.loc 1 312 1338 is_stmt 1
.LVL41:
	.loc 1 312 1383
	.loc 1 312 1400 is_stmt 0
	li	a6,4096
	sw	a6,-2016(s8)
	.loc 1 312 1412 is_stmt 1
	.loc 1 312 1429 is_stmt 0
	sw	s0,-1888(s7)
	.loc 1 312 1435 is_stmt 1
	.loc 1 312 1452 is_stmt 0
	lw	a5,24(sp)
	.loc 1 312 1731
	li	a6,8
	.loc 1 312 1452
	sw	a5,0(s10)
	.loc 1 312 1480 is_stmt 1
	.loc 1 312 1497 is_stmt 0
	sw	zero,-992(s6)
	.loc 1 312 1509 is_stmt 1
	.loc 1 312 1580 is_stmt 0
	li	a5,32
	.loc 1 312 1526
	sw	s0,0(t0)
	.loc 1 312 1563 is_stmt 1
	.loc 1 312 1580 is_stmt 0
	sw	a5,0(a0)
	.loc 1 312 1620 is_stmt 1
	.loc 1 312 1637 is_stmt 0
	li	a5,127
	sw	a5,0(t1)
	.loc 1 312 1642 is_stmt 1
	.loc 1 312 1659 is_stmt 0
	sw	zero,-1120(s9)
	.loc 1 312 1662 is_stmt 1
	.loc 1 312 1678 is_stmt 0
	sw	s0,672(s4)
	.loc 1 312 1715 is_stmt 1
	.loc 1 312 1731 is_stmt 0
	sw	a6,1056(s5)
	.loc 1 312 1757 is_stmt 1
	.loc 1 312 1774 is_stmt 0
	sw	a5,1568(s3)
	.loc 1 312 1779 is_stmt 1
	.loc 1 312 1796 is_stmt 0
	sw	zero,-864(s2)
	.loc 1 312 1799 is_stmt 1
	.loc 1 312 1815 is_stmt 0
	sw	t6,12(sp)
	sw	t2,0(t6)
	.loc 1 312 1853 is_stmt 1
	.loc 1 312 1869 is_stmt 0
	sw	a4,8(sp)
	sw	a3,0(a4)
	.loc 1 312 1880 is_stmt 1
	.loc 1 312 1897 is_stmt 0
	sw	a5,0(a1)
	.loc 1 312 1902 is_stmt 1
	.loc 1 312 1938 is_stmt 0
	li	a6,524288
	.loc 1 312 1919
	sw	zero,0(a2)
	.loc 1 312 1922 is_stmt 1
	.loc 1 312 1938 is_stmt 0
	addi	a6,a6,304
	.loc 1 312 2066
	li	a5,1032192
	.loc 1 312 1938
	sw	a6,0(s11)
	.loc 1 312 2049 is_stmt 1
	.loc 1 312 2066 is_stmt 0
	addi	a5,a5,1181
	sw	a5,0(s1)
.LBE39:
	.loc 1 312 2098 is_stmt 1
	.loc 1 312 2099
	.loc 1 312 2115 is_stmt 0
	lw	a4,56(sp)
	lw	a6,32(sp)
.LBB40:
	.loc 1 312 2375
	li	a5,31
.LBE40:
	.loc 1 312 2115
	sw	a6,0(a4)
.LBB41:
	.loc 1 312 2205 is_stmt 1
.LVL42:
	.loc 1 312 2328
	.loc 1 312 2345 is_stmt 0
	lw	t6,48(sp)
	sw	t6,-2016(s8)
	.loc 1 312 2358 is_stmt 1
	.loc 1 312 2375 is_stmt 0
	sw	a5,-1888(s7)
	.loc 1 312 2381 is_stmt 1
	.loc 1 312 2398 is_stmt 0
	lw	t6,84(sp)
	.loc 1 312 2492
	li	a5,15
	.loc 1 312 2398
	sw	t6,0(s10)
	.loc 1 312 2419 is_stmt 1
	.loc 1 312 2436 is_stmt 0
	sw	zero,-992(s6)
	.loc 1 312 2449 is_stmt 1
	.loc 1 312 2465 is_stmt 0
	sw	a3,1056(s5)
	.loc 1 312 2476 is_stmt 1
	.loc 1 312 2492 is_stmt 0
	sw	a5,672(s4)
	.loc 1 312 2498 is_stmt 1
	.loc 1 312 2515 is_stmt 0
	lw	a6,20(sp)
	sw	a6,1568(s3)
	.loc 1 312 2528 is_stmt 1
	.loc 1 312 2545 is_stmt 0
	lw	t6,36(sp)
	sw	t6,-864(s2)
	.loc 1 312 2554 is_stmt 1
.LVL43:
	.loc 1 312 2585
	.loc 1 312 2606 is_stmt 0
	lw	t6,100(sp)
	lw	t6,16(t6)
	lw	a5,88(sp)
	sw	a6,20(sp)
	sub	a6,a5,a6
	add	a6,a6,t6
	.loc 1 312 2601
	sw	a6,0(s11)
	.loc 1 312 2638 is_stmt 1
	.loc 1 312 2639
	.loc 1 312 2656 is_stmt 0
	lw	a6,16(sp)
	.loc 1 312 2698
	li	a5,1036288
	addi	a5,a5,159
	.loc 1 312 2656
	sw	t5,0(a6)
	.loc 1 312 2681 is_stmt 1
	.loc 1 312 2698 is_stmt 0
	sw	a5,0(s1)
.LBE41:
.LBB42:
	.loc 1 312 2731 is_stmt 1
.LVL44:
	.loc 1 312 2914
	.loc 1 312 2930 is_stmt 0
	lw	a5,8(sp)
	.loc 1 312 3468
	li	t5,4
	.loc 1 312 2930
	sw	t4,0(a5)
	.loc 1 312 2997 is_stmt 1
	.loc 1 312 3013 is_stmt 0
	lw	t6,12(sp)
	.loc 1 312 3537
	li	a5,15
	.loc 1 312 3013
	sw	t2,0(t6)
	.loc 1 312 3019 is_stmt 1
	.loc 1 312 3036 is_stmt 0
	sw	t3,0(a1)
	.loc 1 312 3128 is_stmt 1
	.loc 1 312 3145 is_stmt 0
	sw	zero,0(a2)
	.loc 1 312 3212 is_stmt 1
	.loc 1 312 3229 is_stmt 0
	li	a2,16
	sw	a2,0(a0)
	.loc 1 312 3276 is_stmt 1
	.loc 1 312 3293 is_stmt 0
	sw	s0,0(t0)
	.loc 1 312 3299 is_stmt 1
	.loc 1 312 3316 is_stmt 0
	sw	a7,0(t1)
	.loc 1 312 3387 is_stmt 1
	.loc 1 312 3404 is_stmt 0
	sw	zero,-1120(s9)
	.loc 1 312 3451 is_stmt 1
	.loc 1 312 3468 is_stmt 0
	sw	t5,-2016(s8)
	.loc 1 312 3497 is_stmt 1
	.loc 1 312 3514 is_stmt 0
	sw	s0,-1888(s7)
	.loc 1 312 3520 is_stmt 1
	.loc 1 312 3537 is_stmt 0
	sw	a5,0(s10)
	.loc 1 312 3588 is_stmt 1
	.loc 1 312 3605 is_stmt 0
	sw	zero,-992(s6)
	.loc 1 312 3634 is_stmt 1
	.loc 1 312 3650 is_stmt 0
	sw	a3,1056(s5)
	.loc 1 312 3661 is_stmt 1
	.loc 1 312 3677 is_stmt 0
	sw	s0,672(s4)
	.loc 1 312 3683 is_stmt 1
	.loc 1 312 3700 is_stmt 0
	sw	s0,1568(s3)
	.loc 1 312 3729 is_stmt 1
	.loc 1 312 3746 is_stmt 0
	sw	zero,-864(s2)
	.loc 1 312 3755 is_stmt 1
.LVL45:
	.loc 1 312 3914
	.loc 1 312 3977 is_stmt 0
	li	a5,1036288
	.loc 1 312 3930
	sw	zero,0(s11)
	.loc 1 312 3959 is_stmt 1
	.loc 1 312 3960
	.loc 1 312 3977 is_stmt 0
	addi	a5,a5,-1891
	sw	a5,0(s1)
.LBE42:
	.loc 1 312 4009 is_stmt 1
	.loc 1 312 4010
	.loc 1 312 4026 is_stmt 0
	lw	a5,32(sp)
	sw	a5,0(a4)
	.loc 1 274 26 is_stmt 1 discriminator 2
	.loc 1 274 17 discriminator 1
	lw	a5,28(sp)
	lw	a6,20(sp)
	addi	a5,a5,1
	addi	a4,a6,-15
	sw	a5,28(sp)
	sw	a4,20(sp)
	lw	a4,108(sp)
	ble	a4,a5,.L23
.LVL46:
.L13:
	.loc 1 275 10
	.loc 1 278 10
	.loc 1 278 12 is_stmt 0
	lw	a5,28(sp)
	bne	a5,zero,.L24
.LBB43:
	.loc 1 283 3 is_stmt 1
.LVL47:
	.loc 1 283 38
	.loc 1 283 54 is_stmt 0
	lw	a4,8(sp)
	li	a5,4096
	.loc 1 283 105
	li	t6,-2147483648
	.loc 1 283 54
	sw	a5,0(a4)
.LVL48:
	.loc 1 283 66 is_stmt 1
	.loc 1 283 82 is_stmt 0
	lw	a5,12(sp)
	.loc 1 283 150
	li	t5,-2147479552
	.loc 1 283 179
	li	a4,5
	.loc 1 283 82
	sw	zero,0(a5)
	.loc 1 283 88 is_stmt 1
	.loc 1 283 105 is_stmt 0
	lw	a5,24(sp)
	.loc 1 283 241
	li	t4,-2147483648
	.loc 1 283 304
	li	t3,-2147483648
	.loc 1 283 105
	sw	a5,1440(t6)
	.loc 1 283 133 is_stmt 1
	.loc 1 283 150 is_stmt 0
	sw	zero,-1248(t5)
	.loc 1 283 162 is_stmt 1
	.loc 1 283 179 is_stmt 0
	li	a5,-2147483648
	sw	a4,1824(a5)
	.loc 1 283 224 is_stmt 1
	.loc 1 283 241 is_stmt 0
	li	a4,48
	sw	a4,1696(t4)
	.loc 1 283 287 is_stmt 1
	.loc 1 283 304 is_stmt 0
	li	a5,287
	sw	a5,1952(t3)
	.loc 1 283 309 is_stmt 1
	.loc 1 283 326 is_stmt 0
	li	t1,-2147479552
	sw	zero,-1120(t1)
	.loc 1 283 329 is_stmt 1
	.loc 1 283 346 is_stmt 0
	li	a7,-2147479552
	sw	zero,-1888(a7)
	.loc 1 283 375 is_stmt 1
	.loc 1 283 392 is_stmt 0
	li	a3,-2147479552
	li	a2,8
	sw	a2,-2016(a3)
	.loc 1 283 418 is_stmt 1
	.loc 1 283 435 is_stmt 0
	sw	a5,0(s10)
	.loc 1 283 440 is_stmt 1
	.loc 1 283 457 is_stmt 0
	li	a6,-2147479552
	sw	zero,-992(a6)
	.loc 1 283 460 is_stmt 1
	.loc 1 283 476 is_stmt 0
	li	a2,-2147483648
	li	a1,7
	sw	a1,672(a2)
	.loc 1 283 516 is_stmt 1
	.loc 1 283 532 is_stmt 0
	li	a3,-2147483648
	li	a2,1
	sw	a2,1056(a3)
	.loc 1 283 543 is_stmt 1
	.loc 1 283 560 is_stmt 0
	li	a0,-2147483648
	sw	a5,1568(a0)
	.loc 1 283 565 is_stmt 1
	.loc 1 283 582 is_stmt 0
	li	a1,-2147479552
	sw	zero,-864(a1)
	.loc 1 283 585 is_stmt 1
	.loc 1 283 601 is_stmt 0
	lw	a5,44(sp)
	.loc 1 283 734
	li	a2,-2147479552
.LBE43:
	.loc 1 283 923
	li	a3,-2147479552
.LBB44:
	.loc 1 283 601
	sw	a5,0(s11)
	.loc 1 283 717 is_stmt 1
	.loc 1 283 872 is_stmt 0
	li	a5,1032192
	.loc 1 283 734
	sw	a4,-736(a2)
	.loc 1 283 855 is_stmt 1
	.loc 1 283 872 is_stmt 0
	addi	a5,a5,127
	sw	a5,0(s1)
.LBE44:
	.loc 1 283 905 is_stmt 1
	.loc 1 283 906
	.loc 1 283 923 is_stmt 0
	sw	zero,-480(a3)
	.loc 1 283 928 is_stmt 1
	.loc 1 283 945 is_stmt 0
	lw	a3,40(sp)
	.loc 1 283 994
	li	a4,393216
	li	a5,-2147483648
	.loc 1 283 945
	sw	a3,0(s1)
	.loc 1 283 977 is_stmt 1
	.loc 1 283 978
	.loc 1 283 994 is_stmt 0
	addi	a4,a4,1
	sw	a4,20(a5)
	j	.L12
.LVL49:
.L23:
	lw	s2,76(sp)
	lw	s4,112(sp)
	lw	s3,116(sp)
	lw	s1,120(sp)
	lw	s0,124(sp)
	sw	zero,44(sp)
.LVL50:
.L10:
	.loc 1 273 23 is_stmt 1 discriminator 2
	.loc 1 273 17 is_stmt 0 discriminator 1
	lw	a5,80(sp)
	.loc 1 273 23 discriminator 2
	addi	s1,s1,1
.LVL51:
	.loc 1 273 17 is_stmt 1 discriminator 1
	add	s2,s2,s0
	add	a5,a5,s0
	sw	a5,80(sp)
	lw	a5,44(sp)
	sub	s3,s3,s0
	sub	a5,a5,s0
	sw	a5,44(sp)
	lw	a5,84(sp)
	add	a5,a5,s0
	sw	a5,84(sp)
	beq	s4,s1,.L25
.LVL52:
.L14:
.LBB45:
	.loc 1 280 54 is_stmt 0
	li	a5,-2147483648
	addi	a5,a5,800
	sw	a5,16(sp)
	.loc 1 280 105
	li	a5,16384
	lw	a0,88(sp)
	addi	a5,a5,-1
.LBE45:
	.loc 1 280 1743
	li	a4,-2147483648
	.loc 1 283 945
	li	a3,1036288
.LBB46:
	.loc 1 280 105
	sw	a5,28(sp)
.LBE46:
	.loc 1 280 1743
	addi	a5,a4,20
.LBB47:
	.loc 1 288 3038
	li	a2,524288
.LBE47:
	.loc 1 280 1743
	sw	a5,32(sp)
	.loc 1 283 945
	addi	a5,a3,-1923
.LBB48:
	.loc 1 280 435
	li	t3,-2147479552
	.loc 1 280 601
	li	a6,-2147483648
	.loc 1 280 872
	li	t4,-2147479552
.LBE48:
	.loc 1 306 18
	li	a1,1015840768
	sw	a0,24(sp)
	.loc 1 283 945
	sw	a5,112(sp)
	addi	a0,s2,1
.LBB49:
	.loc 1 288 3038
	addi	a5,a2,24
	sw	a0,92(sp)
.LBE49:
.LBB50:
	.loc 1 280 435
	addi	t3,t3,-1760
	addi	a0,s3,-1
	.loc 1 280 601
	addi	a6,a6,544
	.loc 1 280 872
	addi	t4,t4,-1632
.LBE50:
.LBB51:
	.loc 1 288 3038
	sw	a5,116(sp)
.LBE51:
	.loc 1 306 18
	addi	a5,a1,1284
	.loc 1 230 45
	sw	zero,20(sp)
	sw	a0,96(sp)
	.loc 1 306 18
	sw	a5,120(sp)
	sw	s2,124(sp)
	sw	s4,128(sp)
	sw	s3,132(sp)
	sw	s1,136(sp)
	sw	s0,140(sp)
	sw	t3,8(sp)
	mv	s11,a6
	mv	s8,t4
	j	.L9
.LVL53:
.L7:
.LBB52:
	.loc 1 280 3 is_stmt 1
	.loc 1 280 38
	.loc 1 280 54 is_stmt 0
	lw	a0,16(sp)
	li	a4,4096
	.loc 1 280 82
	li	t6,-2147483648
	.loc 1 280 54
	sw	a4,0(a0)
	.loc 1 280 66 is_stmt 1
	.loc 1 280 82 is_stmt 0
	sw	zero,928(t6)
	.loc 1 280 88 is_stmt 1
	.loc 1 280 105 is_stmt 0
	lw	a5,28(sp)
.LVL54:
	li	t5,-2147483648
	.loc 1 280 150
	li	t4,-2147479552
	.loc 1 280 105
	sw	a5,1440(t5)
	.loc 1 280 133 is_stmt 1
	.loc 1 280 150 is_stmt 0
	sw	zero,-1248(t4)
	.loc 1 280 162 is_stmt 1
	.loc 1 280 179 is_stmt 0
	li	s0,-2147483648
	li	s7,5
	sw	s7,1824(s0)
	.loc 1 280 224 is_stmt 1
	.loc 1 280 241 is_stmt 0
	li	s2,48
	li	t3,-2147483648
	sw	s2,1696(t3)
	.loc 1 280 287 is_stmt 1
	.loc 1 280 304 is_stmt 0
	li	a5,287
	li	t1,-2147483648
	sw	a5,1952(t1)
	.loc 1 280 309 is_stmt 1
	.loc 1 280 326 is_stmt 0
	li	a7,-2147479552
	sw	zero,-1120(a7)
	.loc 1 280 329 is_stmt 1
	.loc 1 280 346 is_stmt 0
	li	a6,-2147479552
	sw	zero,-1888(a6)
	.loc 1 280 375 is_stmt 1
	.loc 1 280 392 is_stmt 0
	li	ra,-2147479552
	li	s6,8
	sw	s6,-2016(ra)
	.loc 1 280 418 is_stmt 1
	.loc 1 280 435 is_stmt 0
	lw	s9,8(sp)
	.loc 1 280 457
	li	a1,-2147479552
	.loc 1 280 476
	li	t2,-2147483648
	.loc 1 280 435
	sw	a5,0(s9)
	.loc 1 280 440 is_stmt 1
	.loc 1 280 457 is_stmt 0
	sw	zero,-992(a1)
	.loc 1 280 460 is_stmt 1
	.loc 1 280 476 is_stmt 0
	li	s5,7
	sw	s5,672(t2)
	.loc 1 280 516 is_stmt 1
	.loc 1 280 532 is_stmt 0
	li	t0,-2147483648
	li	s4,1
	sw	s4,1056(t0)
	.loc 1 280 543 is_stmt 1
	.loc 1 280 560 is_stmt 0
	li	a2,-2147483648
	sw	a5,1568(a2)
	.loc 1 280 565 is_stmt 1
	.loc 1 280 582 is_stmt 0
	li	a3,-2147479552
	.loc 1 280 601
	li	s3,524288
	.loc 1 280 582
	sw	zero,-864(a3)
	.loc 1 280 585 is_stmt 1
	.loc 1 280 601 is_stmt 0
	addi	s3,s3,16
	sw	s3,0(s11)
	.loc 1 280 717 is_stmt 1
	.loc 1 280 734 is_stmt 0
	li	s1,-2147479552
	.loc 1 280 872
	li	s3,1032192
	.loc 1 280 734
	sw	s2,-736(s1)
	.loc 1 280 855 is_stmt 1
	.loc 1 280 872 is_stmt 0
	addi	s3,s3,127
	sw	s3,0(s8)
.LBE52:
.LBB53:
	.loc 1 280 905 is_stmt 1
.LVL55:
	.loc 1 280 954
	.loc 1 280 970 is_stmt 0
	sw	a4,0(a0)
	.loc 1 280 982 is_stmt 1
	.loc 1 280 998 is_stmt 0
	sw	zero,928(t6)
	.loc 1 280 1004 is_stmt 1
	.loc 1 280 1021 is_stmt 0
	addi	a4,a4,-1
	sw	a4,1440(t5)
	.loc 1 280 1049 is_stmt 1
	.loc 1 280 1066 is_stmt 0
	li	a4,12288
	sw	a4,-1248(t4)
	.loc 1 280 1078 is_stmt 1
	.loc 1 280 1095 is_stmt 0
	sw	s7,1824(s0)
	.loc 1 280 1140 is_stmt 1
	.loc 1 280 1157 is_stmt 0
	sw	s2,1696(t3)
	.loc 1 280 1203 is_stmt 1
	.loc 1 280 1220 is_stmt 0
	sw	a5,1952(t1)
	.loc 1 280 1225 is_stmt 1
	.loc 1 280 1242 is_stmt 0
	sw	zero,-1120(a7)
	.loc 1 280 1245 is_stmt 1
	.loc 1 280 1262 is_stmt 0
	sw	zero,-1888(a6)
	.loc 1 280 1321 is_stmt 1
	.loc 1 280 1338 is_stmt 0
	sw	s6,-2016(ra)
	.loc 1 280 1364 is_stmt 1
	.loc 1 280 1381 is_stmt 0
	sw	a5,0(s9)
	.loc 1 280 1386 is_stmt 1
	.loc 1 280 1403 is_stmt 0
	sw	zero,-992(a1)
	.loc 1 280 1406 is_stmt 1
	.loc 1 280 1422 is_stmt 0
	sw	s5,672(t2)
	.loc 1 280 1462 is_stmt 1
	.loc 1 280 1478 is_stmt 0
	sw	s4,1056(t0)
	.loc 1 280 1489 is_stmt 1
	.loc 1 280 1506 is_stmt 0
	sw	a5,1568(a2)
	.loc 1 280 1511 is_stmt 1
	.loc 1 280 1547 is_stmt 0
	li	a4,536576
	.loc 1 280 1528
	sw	zero,-864(a3)
	.loc 1 280 1531 is_stmt 1
	.loc 1 280 1547 is_stmt 0
	addi	a4,a4,40
	.loc 1 280 1694
	li	a5,1032192
	.loc 1 280 1547
	sw	a4,0(s11)
	.loc 1 280 1677 is_stmt 1
	.loc 1 280 1694 is_stmt 0
	addi	a5,a5,125
	sw	a5,0(s8)
.LBE53:
	.loc 1 280 1726 is_stmt 1
	.loc 1 280 1727
	.loc 1 280 1743 is_stmt 0
	lw	a5,32(sp)
	li	a4,393216
	addi	a4,a4,1
	sw	a4,0(a5)
.LVL56:
.L8:
	.loc 1 285 1 is_stmt 1
	.loc 1 285 2
	.loc 1 285 18 is_stmt 0
	lw	s9,32(sp)
	li	a5,88
.LBB54:
	.loc 1 288 220
	li	a4,96
.LBE54:
	.loc 1 285 18
	sw	a5,0(s9)
.LBB55:
	.loc 1 288 3 is_stmt 1
.LVL57:
	.loc 1 288 204
	.loc 1 288 220 is_stmt 0
	lw	t2,16(sp)
	.loc 1 288 321
	li	a2,-2147483648
	li	a5,7
	.loc 1 288 220
	sw	a4,0(t2)
	.loc 1 288 305 is_stmt 1
	.loc 1 288 321 is_stmt 0
	sw	a5,928(a2)
	.loc 1 288 327 is_stmt 1
	.loc 1 288 344 is_stmt 0
	li	a0,-2147483648
	li	ra,767
	sw	ra,1440(a0)
	.loc 1 288 454 is_stmt 1
	.loc 1 288 471 is_stmt 0
	li	a3,-2147479552
	sw	zero,-1248(a3)
	.loc 1 288 556 is_stmt 1
	.loc 1 288 573 is_stmt 0
	li	t0,-2147483648
	li	a5,16
	sw	a5,1696(t0)
	.loc 1 288 632 is_stmt 1
	.loc 1 288 649 is_stmt 0
	li	t6,-2147483648
	li	a7,5
	sw	a7,1824(t6)
	.loc 1 288 655 is_stmt 1
	.loc 1 288 672 is_stmt 0
	li	t1,-2147483648
	li	t5,95
	sw	t5,1952(t1)
	.loc 1 288 761 is_stmt 1
	.loc 1 288 778 is_stmt 0
	li	a4,-2147479552
	sw	a4,12(sp)
	sw	zero,-1120(a4)
	.loc 1 288 837 is_stmt 1
	.loc 1 288 854 is_stmt 0
	li	s7,-2147479552
	li	a4,4
	sw	a4,-2016(s7)
	.loc 1 288 895 is_stmt 1
	.loc 1 288 912 is_stmt 0
	li	s0,3
	li	s6,-2147479552
	sw	s0,-1888(s6)
	.loc 1 288 918 is_stmt 1
	.loc 1 288 935 is_stmt 0
	lw	t4,8(sp)
	li	a6,15
	.loc 1 288 1015
	li	s5,-2147479552
	.loc 1 288 935
	sw	a6,0(t4)
	.loc 1 288 998 is_stmt 1
	.loc 1 288 1015 is_stmt 0
	sw	zero,-992(s5)
	.loc 1 288 1056 is_stmt 1
	.loc 1 288 1072 is_stmt 0
	li	s4,-2147483648
	li	a4,1
	sw	a4,1056(s4)
	.loc 1 288 1083 is_stmt 1
	.loc 1 288 1099 is_stmt 0
	li	s3,-2147483648
	sw	s0,672(s3)
	.loc 1 288 1105 is_stmt 1
	.loc 1 288 1122 is_stmt 0
	li	s2,-2147483648
	sw	s0,1568(s2)
	.loc 1 288 1163 is_stmt 1
	.loc 1 288 1180 is_stmt 0
	li	s1,-2147479552
	.loc 1 288 1453
	li	a1,-2147479552
	.loc 1 288 1180
	sw	zero,-864(s1)
	.loc 1 288 1189 is_stmt 1
.LVL58:
	.loc 1 288 1390
	.loc 1 288 1453 is_stmt 0
	addi	a5,a1,-736
	.loc 1 288 1406
	sw	zero,0(s11)
	.loc 1 288 1435 is_stmt 1
	.loc 1 288 1436
	.loc 1 288 1453 is_stmt 0
	mv	s10,a5
	li	t2,768
	.loc 1 288 1509
	li	a5,1036288
	.loc 1 288 1453
	sw	t2,0(s10)
	.loc 1 288 1492 is_stmt 1
	.loc 1 288 1509 is_stmt 0
	addi	a5,a5,-1921
	sw	a5,0(s8)
.LBE55:
.LBB56:
	.loc 1 288 1542 is_stmt 1
.LVL59:
	.loc 1 288 1722
	.loc 1 288 1739 is_stmt 0
	lw	a1,104(sp)
	.loc 1 288 1783
	li	a5,7
.LBE56:
.LBB57:
	.loc 1 288 344
	addi	a0,a0,1440
.LBE57:
.LBB58:
	.loc 1 288 1739
	sw	a1,1696(t0)
.LVL60:
	.loc 1 288 1766 is_stmt 1
	.loc 1 288 1783 is_stmt 0
	sw	a5,1824(t6)
	.loc 1 288 1789 is_stmt 1
	.loc 1 288 1806 is_stmt 0
	lw	a1,80(sp)
	.loc 1 288 1956
	li	a5,67108864
	addi	a5,a5,-1
	.loc 1 288 1806
	sw	a1,1952(t1)
	.loc 1 288 1842 is_stmt 1
	.loc 1 288 1859 is_stmt 0
	lw	t3,12(sp)
	lw	a1,44(sp)
.LBE58:
.LBB59:
	.loc 1 288 649
	addi	t6,t6,1824
	.loc 1 288 573
	addi	t0,t0,1696
.LBE59:
.LBB60:
	.loc 1 288 1859
	sw	a1,-1120(t3)
	.loc 1 288 1886 is_stmt 1
	.loc 1 288 1903 is_stmt 0
	lw	a1,48(sp)
.LBE60:
.LBB61:
	.loc 1 288 672
	addi	t1,t1,1952
	.loc 1 288 321
	addi	a2,a2,928
.LBE61:
.LBB62:
	.loc 1 288 1903
	sw	a1,-2016(s7)
	.loc 1 288 1916 is_stmt 1
	.loc 1 288 1933 is_stmt 0
	sw	a7,-1888(s6)
	.loc 1 288 1939 is_stmt 1
	.loc 1 288 1956 is_stmt 0
	sw	t4,8(sp)
	sw	a5,0(t4)
	.loc 1 288 1968 is_stmt 1
	.loc 1 288 1985 is_stmt 0
	sw	zero,-992(s5)
	.loc 1 288 1998 is_stmt 1
	.loc 1 288 2014 is_stmt 0
	sw	a4,1056(s4)
	.loc 1 288 2025 is_stmt 1
	.loc 1 288 2041 is_stmt 0
	sw	a6,672(s3)
	.loc 1 288 2047 is_stmt 1
	lw	a6,20(sp)
	.loc 1 288 2064 is_stmt 0
	lw	a1,24(sp)
.LBE62:
.LBB63:
	.loc 1 288 471
	addi	a3,a3,-1248
	slli	a5,a6,4
.LBE63:
.LBB64:
	.loc 1 288 2064
	sw	a1,1568(s2)
	.loc 1 288 2077 is_stmt 1
	sub	t3,a5,a6
	mv	a5,t3
	lw	t3,92(sp)
	.loc 1 288 2236 is_stmt 0
	lw	t4,96(sp)
	sw	a6,20(sp)
	sw	a1,24(sp)
	.loc 1 288 2094
	sw	a5,52(sp)
	sw	a5,-864(s1)
	.loc 1 288 2103 is_stmt 1
.LVL61:
	.loc 1 288 2160
	add	t3,t3,a1
	.loc 1 288 2177 is_stmt 0
	li	a6,-2147479552
	sw	t3,-96(a6)
	.loc 1 288 2214 is_stmt 1
	.loc 1 288 2215
	.loc 1 288 2236 is_stmt 0
	sub	t4,t4,a1
	.loc 1 288 2281
	li	a5,1036288
	.loc 1 288 2231
	sw	t4,0(s11)
	.loc 1 288 2263 is_stmt 1
	.loc 1 288 2264
	.loc 1 288 2281 is_stmt 0
	addi	a5,a5,125
.LBE64:
	.loc 1 288 2330
	li	t3,393216
.LBB65:
	.loc 1 288 2281
	sw	a5,0(s8)
.LBE65:
	.loc 1 288 2313 is_stmt 1
	.loc 1 288 2314
	.loc 1 288 2330 is_stmt 0
	addi	a6,t3,17
	sw	a6,40(sp)
	sw	a6,0(s9)
.LBB66:
	.loc 1 288 2420 is_stmt 1
.LVL62:
	.loc 1 288 2465
	.loc 1 288 2482 is_stmt 0
	li	a6,4096
	sw	a6,-2016(s7)
	.loc 1 288 2494 is_stmt 1
	.loc 1 288 2511 is_stmt 0
	sw	s0,-1888(s6)
	.loc 1 288 2517 is_stmt 1
	.loc 1 288 2534 is_stmt 0
	lw	t4,28(sp)
	lw	a1,8(sp)
	.loc 1 288 2668
	li	t3,48
	.loc 1 288 2731
	li	a5,287
	.loc 1 288 2534
	sw	t4,0(a1)
	.loc 1 288 2562 is_stmt 1
	.loc 1 288 2579 is_stmt 0
	sw	zero,-992(s5)
	.loc 1 288 2591 is_stmt 1
	.loc 1 288 2608 is_stmt 0
	sw	a7,0(t6)
	.loc 1 288 2651 is_stmt 1
	.loc 1 288 2668 is_stmt 0
	sw	t3,0(t0)
	.loc 1 288 2714 is_stmt 1
	.loc 1 288 2731 is_stmt 0
	sw	a5,0(t1)
	.loc 1 288 2736 is_stmt 1
	.loc 1 288 2753 is_stmt 0
	lw	t4,12(sp)
	sw	zero,-1120(t4)
	.loc 1 288 2756 is_stmt 1
	.loc 1 288 2772 is_stmt 0
	sw	s0,672(s3)
	.loc 1 288 2815 is_stmt 1
	.loc 1 288 2831 is_stmt 0
	li	t4,8
	sw	t4,1056(s4)
	.loc 1 288 2857 is_stmt 1
	.loc 1 288 2874 is_stmt 0
	sw	a5,1568(s2)
	.loc 1 288 2879 is_stmt 1
	.loc 1 288 2896 is_stmt 0
	sw	zero,-864(s1)
	.loc 1 288 2899 is_stmt 1
	.loc 1 288 2915 is_stmt 0
	li	t4,7
	sw	t4,0(a2)
	.loc 1 288 2953 is_stmt 1
	.loc 1 288 2969 is_stmt 0
	lw	t4,16(sp)
	sw	a4,0(t4)
	.loc 1 288 2980 is_stmt 1
	.loc 1 288 2997 is_stmt 0
	sw	a5,0(a0)
	.loc 1 288 3002 is_stmt 1
	.loc 1 288 3019 is_stmt 0
	sw	zero,0(a3)
	.loc 1 288 3022 is_stmt 1
	.loc 1 288 3038 is_stmt 0
	lw	a1,116(sp)
	.loc 1 288 3321
	li	t4,1032192
	addi	t4,t4,1151
	.loc 1 288 3038
	sw	a1,0(s11)
	.loc 1 288 3156 is_stmt 1
	.loc 1 288 3173 is_stmt 0
	sw	t2,0(s10)
	.loc 1 288 3304 is_stmt 1
	.loc 1 288 3321 is_stmt 0
	sw	t4,0(s8)
.LBE66:
.LBB67:
	.loc 1 288 3354 is_stmt 1
.LVL63:
	.loc 1 288 3555
	.loc 1 288 3571 is_stmt 0
	lw	t2,16(sp)
	li	t4,96
	sw	t4,0(t2)
	.loc 1 288 3656 is_stmt 1
	.loc 1 288 3672 is_stmt 0
	li	t4,7
	sw	t4,0(a2)
	.loc 1 288 3678 is_stmt 1
	.loc 1 288 3695 is_stmt 0
	sw	ra,0(a0)
	.loc 1 288 3805 is_stmt 1
	.loc 1 288 3822 is_stmt 0
	sw	zero,0(a3)
	.loc 1 288 3907 is_stmt 1
	.loc 1 288 3924 is_stmt 0
	li	ra,16
	sw	ra,0(t0)
	.loc 1 288 3983 is_stmt 1
	.loc 1 288 4000 is_stmt 0
	sw	a7,0(t6)
	.loc 1 288 4006 is_stmt 1
	.loc 1 288 4023 is_stmt 0
	sw	t5,0(t1)
	.loc 1 288 0 is_stmt 1
	lw	t5,12(sp)
	li	ra,4
	li	t4,15
	sw	zero,-1120(t5)
	.loc 1 288 0
	sw	ra,-2016(s7)
	.loc 1 288 0
	sw	s0,-1888(s6)
	.loc 1 288 0
	lw	a1,8(sp)
.LBE67:
.LBB68:
	.loc 1 294 86 is_stmt 0
	li	ra,2
.LBE68:
.LBB69:
	.loc 1 288 0
	sw	t4,0(a1)
	.loc 1 288 0 is_stmt 1
	sw	zero,-992(s5)
	.loc 1 288 0
	sw	a4,1056(s4)
	.loc 1 288 0
	sw	s0,672(s3)
	.loc 1 288 0
	sw	s0,1568(s2)
	.loc 1 288 0
	sw	zero,-864(s1)
	.loc 1 288 0
.LVL64:
	.loc 1 288 0
	sw	zero,0(s11)
	.loc 1 288 0
	.loc 1 288 0
	lw	t5,112(sp)
	sw	t5,0(s8)
.LBE69:
	.loc 1 288 0
	.loc 1 288 0
	lw	t5,40(sp)
	sw	t5,0(s9)
.LBB70:
	.loc 1 294 3
.LVL65:
	.loc 1 294 42
	.loc 1 294 58 is_stmt 0
	sw	a6,0(t2)
	.loc 1 294 70 is_stmt 1
	.loc 1 294 86 is_stmt 0
	sw	ra,0(a2)
	.loc 1 294 92 is_stmt 1
	.loc 1 294 109 is_stmt 0
	lw	t4,28(sp)
	sw	t4,0(a0)
	.loc 1 294 137 is_stmt 1
	.loc 1 294 154 is_stmt 0
	sw	zero,0(a3)
	.loc 1 294 166 is_stmt 1
	.loc 1 294 183 is_stmt 0
	sw	a7,0(t6)
	.loc 1 294 228 is_stmt 1
	.loc 1 294 245 is_stmt 0
	sw	t3,0(t0)
	.loc 1 294 291 is_stmt 1
	.loc 1 294 308 is_stmt 0
	sw	a5,0(t1)
	.loc 1 294 313 is_stmt 1
	.loc 1 294 330 is_stmt 0
	lw	t5,12(sp)
	.loc 1 294 508
	li	t4,7
	.loc 1 294 330
	sw	zero,-1120(t5)
	.loc 1 294 333 is_stmt 1
	.loc 1 294 350 is_stmt 0
	sw	zero,-1888(s6)
	.loc 1 294 407 is_stmt 1
	.loc 1 294 424 is_stmt 0
	li	t5,8
	sw	t5,-2016(s7)
	.loc 1 294 450 is_stmt 1
	.loc 1 294 467 is_stmt 0
	sw	a1,8(sp)
	sw	a5,0(a1)
	.loc 1 294 472 is_stmt 1
	.loc 1 294 489 is_stmt 0
	sw	zero,-992(s5)
	.loc 1 294 492 is_stmt 1
	.loc 1 294 508 is_stmt 0
	sw	t4,672(s3)
	.loc 1 294 548 is_stmt 1
	.loc 1 294 564 is_stmt 0
	sw	a4,1056(s4)
	.loc 1 294 575 is_stmt 1
	.loc 1 294 592 is_stmt 0
	sw	a5,1568(s2)
	.loc 1 294 597 is_stmt 1
	.loc 1 294 633 is_stmt 0
	li	t4,524288
	.loc 1 294 614
	sw	zero,-864(s1)
	.loc 1 294 617 is_stmt 1
	.loc 1 294 633 is_stmt 0
	addi	t4,t4,56
	sw	t4,0(s11)
	.loc 1 294 763 is_stmt 1
	.loc 1 294 780 is_stmt 0
	sw	s10,36(sp)
	li	t4,144
	sw	t4,0(s10)
	.loc 1 294 929 is_stmt 1
	.loc 1 294 946 is_stmt 0
	li	t4,1032192
	addi	t4,t4,127
	sw	t4,16(sp)
	sw	t4,0(s8)
.LBE70:
.LBB71:
	.loc 1 294 979 is_stmt 1
.LVL66:
	.loc 1 294 1024
	.loc 1 294 1040 is_stmt 0
	sw	a6,0(t2)
	.loc 1 294 1052 is_stmt 1
	.loc 1 294 1040 is_stmt 0
	mv	s10,t2
	.loc 1 294 1091
	li	t2,12288
	.loc 1 294 1068
	sw	ra,0(a2)
	.loc 1 294 1074 is_stmt 1
	.loc 1 294 1091 is_stmt 0
	addi	t2,t2,-1
	sw	t2,0(a0)
	.loc 1 294 1119 is_stmt 1
	.loc 1 294 1136 is_stmt 0
	sw	a6,0(a3)
	.loc 1 294 1148 is_stmt 1
	.loc 1 294 1165 is_stmt 0
	sw	a7,0(t6)
	.loc 1 294 1210 is_stmt 1
	.loc 1 294 1227 is_stmt 0
	sw	t3,0(t0)
	.loc 1 294 1273 is_stmt 1
	.loc 1 294 1290 is_stmt 0
	sw	a5,0(t1)
	.loc 1 294 1295 is_stmt 1
	.loc 1 294 1312 is_stmt 0
	lw	t4,12(sp)
	.loc 1 294 1382
	mv	a1,t5
	.loc 1 294 1312
	sw	zero,-1120(t4)
	.loc 1 294 1315 is_stmt 1
	.loc 1 294 1332 is_stmt 0
	sw	zero,-1888(s6)
	.loc 1 294 1365 is_stmt 1
	.loc 1 294 1382 is_stmt 0
	sw	t5,-2016(s7)
	.loc 1 294 1408 is_stmt 1
	.loc 1 294 1425 is_stmt 0
	lw	t4,8(sp)
	.loc 1 294 1466
	li	t5,7
	.loc 1 294 1425
	sw	a5,0(t4)
	.loc 1 294 1430 is_stmt 1
	.loc 1 294 1447 is_stmt 0
	sw	zero,-992(s5)
	.loc 1 294 1450 is_stmt 1
	.loc 1 294 1466 is_stmt 0
	sw	t5,672(s3)
	.loc 1 294 1506 is_stmt 1
	.loc 1 294 1522 is_stmt 0
	sw	a4,1056(s4)
	.loc 1 294 1533 is_stmt 1
	.loc 1 294 1550 is_stmt 0
	sw	a5,1568(s2)
	.loc 1 294 1555 is_stmt 1
	.loc 1 294 1591 is_stmt 0
	li	t4,528384
	.loc 1 294 1572
	sw	zero,-864(s1)
	.loc 1 294 1575 is_stmt 1
	.loc 1 294 1591 is_stmt 0
	addi	t4,t4,24
	.loc 1 294 1726
	li	t5,1032192
	.loc 1 294 1591
	sw	t4,0(s11)
	.loc 1 294 1709 is_stmt 1
	.loc 1 294 1726 is_stmt 0
	addi	t5,t5,125
	sw	t5,0(s8)
.LBE71:
	.loc 1 294 1758 is_stmt 1
	.loc 1 294 1759
	.loc 1 294 1775 is_stmt 0
	li	t4,393216
	sw	s9,32(sp)
	addi	t4,t4,9
	sw	t4,0(s9)
.LBB72:
	.loc 1 298 3 is_stmt 1
.LVL67:
	.loc 1 298 48
	.loc 1 298 64 is_stmt 0
	sw	a6,0(s10)
	.loc 1 298 76 is_stmt 1
	.loc 1 298 92 is_stmt 0
	sw	ra,0(a2)
	.loc 1 298 98 is_stmt 1
	.loc 1 298 115 is_stmt 0
	sw	t2,0(a0)
	.loc 1 298 143 is_stmt 1
	.loc 1 298 160 is_stmt 0
	sw	a6,0(a3)
	.loc 1 298 172 is_stmt 1
	.loc 1 298 189 is_stmt 0
	sw	a7,0(t6)
	.loc 1 298 234 is_stmt 1
	.loc 1 298 251 is_stmt 0
	sw	t3,0(t0)
	.loc 1 298 297 is_stmt 1
	.loc 1 298 314 is_stmt 0
	sw	a5,0(t1)
	.loc 1 298 319 is_stmt 1
	.loc 1 298 336 is_stmt 0
	lw	s9,12(sp)
	.loc 1 298 486
	li	t2,7
	.loc 1 298 336
	sw	zero,-1120(s9)
	.loc 1 298 339 is_stmt 1
	.loc 1 298 356 is_stmt 0
	sw	zero,-1888(s6)
	.loc 1 298 385 is_stmt 1
	.loc 1 298 402 is_stmt 0
	sw	a1,-2016(s7)
	.loc 1 298 428 is_stmt 1
	.loc 1 298 402 is_stmt 0
	mv	s9,a1
	.loc 1 298 445
	lw	a1,8(sp)
	sw	a5,0(a1)
	.loc 1 298 450 is_stmt 1
	.loc 1 298 467 is_stmt 0
	sw	zero,-992(s5)
	.loc 1 298 470 is_stmt 1
	.loc 1 298 486 is_stmt 0
	sw	t2,672(s3)
	.loc 1 298 526 is_stmt 1
	.loc 1 298 542 is_stmt 0
	sw	a4,1056(s4)
	.loc 1 298 553 is_stmt 1
	.loc 1 298 611 is_stmt 0
	li	t2,528384
	.loc 1 298 570
	sw	a5,1568(s2)
	.loc 1 298 575 is_stmt 1
	.loc 1 298 592 is_stmt 0
	sw	zero,-864(s1)
	.loc 1 298 595 is_stmt 1
	.loc 1 298 611 is_stmt 0
	addi	t2,t2,16
	sw	t2,0(s11)
	.loc 1 298 727 is_stmt 1
	.loc 1 298 744 is_stmt 0
	lw	t2,36(sp)
	li	a1,144
	sw	a1,0(t2)
	.loc 1 298 865 is_stmt 1
	.loc 1 298 882 is_stmt 0
	lw	t2,16(sp)
	sw	t2,0(s8)
.LBE72:
.LBB73:
	.loc 1 298 915 is_stmt 1
.LVL68:
	.loc 1 298 954
	.loc 1 298 982
	.loc 1 298 970 is_stmt 0
	sw	s10,16(sp)
	sw	a6,0(s10)
	.loc 1 298 998
	sw	ra,0(a2)
	.loc 1 298 1004 is_stmt 1
	.loc 1 298 1021 is_stmt 0
	lw	s10,28(sp)
	sw	s10,0(a0)
	sw	a0,76(sp)
	.loc 1 298 1049 is_stmt 1
	.loc 1 298 1066 is_stmt 0
	sw	zero,0(a3)
	.loc 1 298 1078 is_stmt 1
	.loc 1 298 1095 is_stmt 0
	sw	a7,0(t6)
	sw	t6,72(sp)
	.loc 1 298 1140 is_stmt 1
	.loc 1 298 1157 is_stmt 0
	sw	t3,0(t0)
	sw	t0,68(sp)
	.loc 1 298 1203 is_stmt 1
	.loc 1 298 1220 is_stmt 0
	sw	a5,0(t1)
	.loc 1 298 1242
	lw	a6,12(sp)
	.loc 1 298 1220
	sw	t1,64(sp)
	.loc 1 298 1225 is_stmt 1
	.loc 1 298 1414 is_stmt 0
	li	a0,7
	.loc 1 298 1242
	sw	zero,-1120(a6)
	.loc 1 298 1245 is_stmt 1
	.loc 1 298 1262 is_stmt 0
	sw	zero,-1888(s6)
	.loc 1 298 1313 is_stmt 1
	.loc 1 298 1330 is_stmt 0
	sw	s9,-2016(s7)
	.loc 1 298 1356 is_stmt 1
	.loc 1 298 1373 is_stmt 0
	lw	a1,8(sp)
.LBE73:
	.loc 1 300 18
	li	a7,88
.LBB74:
	.loc 1 298 1373
	sw	a5,0(a1)
	.loc 1 298 1378 is_stmt 1
	.loc 1 298 1395 is_stmt 0
	sw	zero,-992(s5)
	.loc 1 298 1398 is_stmt 1
	.loc 1 298 1454
	.loc 1 298 1481
	.loc 1 298 1414 is_stmt 0
	sw	a0,672(s3)
	.loc 1 298 1470
	sw	a4,1056(s4)
	.loc 1 298 1498
	sw	a5,1568(s2)
	.loc 1 298 1503 is_stmt 1
	.loc 1 298 1539 is_stmt 0
	li	a5,524288
	.loc 1 298 1520
	sw	zero,-864(s1)
	.loc 1 298 1523 is_stmt 1
	.loc 1 298 1539 is_stmt 0
	addi	a5,a5,48
	sw	a5,0(s11)
	.loc 1 298 1665 is_stmt 1
	.loc 1 298 1682 is_stmt 0
	sw	t5,0(s8)
.LBE74:
	.loc 1 298 1714 is_stmt 1
	.loc 1 298 1715
	.loc 1 298 1731 is_stmt 0
	lw	s9,32(sp)
	.loc 1 308 10
	li	a5,-2147483648
.LBB75:
	.loc 1 288 778
	addi	a4,a6,-1120
.LBE75:
	.loc 1 298 1731
	sw	t4,0(s9)
	.loc 1 300 1 is_stmt 1
	.loc 1 300 2
	.loc 1 300 18 is_stmt 0
	sw	a7,0(s9)
	.loc 1 302 10 is_stmt 1
	.loc 1 306 1
	.loc 1 306 2
	.loc 1 306 18 is_stmt 0
	lw	a7,120(sp)
	sw	a7,0(s9)
	.loc 1 308 10 is_stmt 1
	sw	zero,36(a5)
	.loc 1 308 10
.LBB76:
	.loc 1 288 778 is_stmt 0
	sw	a4,12(sp)
	.loc 1 288 321
	sw	a2,60(sp)
	.loc 1 288 471
	sw	a3,56(sp)
.LBE76:
	.loc 1 308 10
	call	_taskYield
.LVL69:
	.loc 1 308 24 is_stmt 1 discriminator 1
.LBB77:
	.loc 1 312 3
	.loc 1 312 186
	.loc 1 312 202 is_stmt 0
	lw	t2,16(sp)
	li	t4,64
	.loc 1 312 285
	li	a5,7
	.loc 1 312 202
	sw	t4,0(t2)
	.loc 1 312 269 is_stmt 1
	.loc 1 312 285 is_stmt 0
	lw	a2,60(sp)
	.loc 1 312 308
	li	t3,511
	.loc 1 312 588
	li	a7,63
	.loc 1 312 285
	sw	a5,0(a2)
	.loc 1 312 291 is_stmt 1
	.loc 1 312 308 is_stmt 0
	lw	a0,76(sp)
	.loc 1 312 501
	li	a5,16
	.loc 1 312 809
	li	a6,15
	.loc 1 312 308
	sw	t3,0(a0)
	.loc 1 312 400 is_stmt 1
	.loc 1 312 417 is_stmt 0
	lw	a3,56(sp)
	.loc 1 312 1249
	li	t5,512
	.loc 1 312 417
	sw	zero,0(a3)
	.loc 1 312 484 is_stmt 1
	.loc 1 312 501 is_stmt 0
	lw	t0,68(sp)
	sw	a5,0(t0)
	.loc 1 312 548 is_stmt 1
	.loc 1 312 565 is_stmt 0
	lw	t6,72(sp)
	.loc 1 312 1305
	li	a5,1036288
	addi	a5,a5,-1889
	.loc 1 312 565
	sw	s0,0(t6)
	.loc 1 312 571 is_stmt 1
	.loc 1 312 588 is_stmt 0
	lw	t1,64(sp)
	sw	a7,0(t1)
	.loc 1 312 659 is_stmt 1
	.loc 1 312 676 is_stmt 0
	lw	a4,12(sp)
	sw	zero,0(a4)
	.loc 1 312 723 is_stmt 1
	.loc 1 312 740 is_stmt 0
	li	a4,4
	sw	a4,-2016(s7)
	.loc 1 312 769 is_stmt 1
	.loc 1 312 786 is_stmt 0
	sw	s0,-1888(s6)
	.loc 1 312 792 is_stmt 1
	.loc 1 312 809 is_stmt 0
	lw	a1,8(sp)
	.loc 1 312 922
	li	a4,1
	.loc 1 312 809
	sw	a6,0(a1)
	.loc 1 312 860 is_stmt 1
	.loc 1 312 877 is_stmt 0
	sw	zero,-992(s5)
	.loc 1 312 906 is_stmt 1
	.loc 1 312 922 is_stmt 0
	sw	a4,1056(s4)
	.loc 1 312 933 is_stmt 1
	.loc 1 312 949 is_stmt 0
	sw	s0,672(s3)
	.loc 1 312 955 is_stmt 1
	.loc 1 312 972 is_stmt 0
	sw	s0,1568(s2)
	.loc 1 312 1001 is_stmt 1
	.loc 1 312 1018 is_stmt 0
	sw	zero,-864(s1)
	.loc 1 312 1027 is_stmt 1
.LVL70:
	.loc 1 312 1186
	.loc 1 312 1202 is_stmt 0
	sw	zero,0(s11)
	.loc 1 312 1231 is_stmt 1
	.loc 1 312 1232
	.loc 1 312 1249 is_stmt 0
	lw	a1,36(sp)
.LBE77:
.LBB78:
	.loc 1 312 1400
	li	a6,4096
.LBE78:
.LBB79:
	.loc 1 312 1249
	sw	t5,0(a1)
	.loc 1 312 1288 is_stmt 1
	.loc 1 312 1305 is_stmt 0
	sw	a5,0(s8)
.LBE79:
.LBB80:
	.loc 1 312 1338 is_stmt 1
.LVL71:
	.loc 1 312 1383
	.loc 1 312 1400 is_stmt 0
	sw	a6,-2016(s7)
	.loc 1 312 1412 is_stmt 1
	.loc 1 312 1429 is_stmt 0
	sw	s0,-1888(s6)
	.loc 1 312 1435 is_stmt 1
	.loc 1 312 1452 is_stmt 0
	mv	a5,s10
	lw	s10,8(sp)
	.loc 1 312 1815
	li	a1,7
	.loc 1 312 1452
	sw	a5,0(s10)
	.loc 1 312 1480 is_stmt 1
	.loc 1 312 1497 is_stmt 0
	sw	zero,-992(s5)
	.loc 1 312 1509 is_stmt 1
	.loc 1 312 1526 is_stmt 0
	sw	s0,0(t6)
	.loc 1 312 1563 is_stmt 1
	.loc 1 312 1580 is_stmt 0
	li	a5,32
	sw	a5,0(t0)
	.loc 1 312 1620 is_stmt 1
	.loc 1 312 1637 is_stmt 0
	li	a5,127
	sw	a5,0(t1)
	.loc 1 312 1642 is_stmt 1
	.loc 1 312 1659 is_stmt 0
	lw	a6,12(sp)
	sw	zero,0(a6)
	.loc 1 312 1662 is_stmt 1
	.loc 1 312 1678 is_stmt 0
	sw	s0,672(s3)
	.loc 1 312 1715 is_stmt 1
	.loc 1 312 1731 is_stmt 0
	li	a6,8
	sw	a6,1056(s4)
	.loc 1 312 1757 is_stmt 1
	.loc 1 312 1774 is_stmt 0
	sw	a5,1568(s2)
	.loc 1 312 1779 is_stmt 1
	.loc 1 312 1796 is_stmt 0
	sw	zero,-864(s1)
	.loc 1 312 1799 is_stmt 1
	.loc 1 312 1815 is_stmt 0
	sw	a1,0(a2)
	.loc 1 312 1853 is_stmt 1
	.loc 1 312 1869 is_stmt 0
	sw	a4,0(t2)
	.loc 1 312 1880 is_stmt 1
	.loc 1 312 1897 is_stmt 0
	sw	a5,0(a0)
	.loc 1 312 1902 is_stmt 1
	.loc 1 312 1938 is_stmt 0
	li	a6,524288
	.loc 1 312 1919
	sw	zero,0(a3)
	.loc 1 312 1922 is_stmt 1
	.loc 1 312 1938 is_stmt 0
	addi	a6,a6,304
	.loc 1 312 2066
	li	a5,1032192
	.loc 1 312 1938
	sw	a6,0(s11)
	.loc 1 312 2049 is_stmt 1
	.loc 1 312 2066 is_stmt 0
	addi	a5,a5,1181
	sw	a5,0(s8)
.LBE80:
	.loc 1 312 2098 is_stmt 1
	.loc 1 312 2099
	.loc 1 312 2115 is_stmt 0
	lw	a6,40(sp)
	sw	a6,0(s9)
.LBB81:
	.loc 1 312 2205 is_stmt 1
.LVL72:
	.loc 1 312 2328
	.loc 1 312 2345 is_stmt 0
	lw	a5,48(sp)
	.loc 1 312 2492
	li	a6,15
	.loc 1 312 2345
	sw	a5,-2016(s7)
.LVL73:
	.loc 1 312 2358 is_stmt 1
	.loc 1 312 2375 is_stmt 0
	li	a5,31
	sw	a5,-1888(s6)
	.loc 1 312 2381 is_stmt 1
	.loc 1 312 2398 is_stmt 0
	lw	a1,84(sp)
	sw	s10,8(sp)
	sw	a1,0(s10)
	.loc 1 312 2419 is_stmt 1
	.loc 1 312 2436 is_stmt 0
	lw	a5,44(sp)
	sw	a5,-992(s5)
	.loc 1 312 2449 is_stmt 1
	.loc 1 312 2465 is_stmt 0
	sw	a4,1056(s4)
	.loc 1 312 2476 is_stmt 1
	.loc 1 312 2492 is_stmt 0
	sw	a6,672(s3)
	.loc 1 312 2498 is_stmt 1
	.loc 1 312 2515 is_stmt 0
	lw	a1,24(sp)
	sw	a1,1568(s2)
	.loc 1 312 2528 is_stmt 1
	.loc 1 312 2545 is_stmt 0
	lw	a5,52(sp)
	sw	a5,-864(s1)
	.loc 1 312 2554 is_stmt 1
.LVL74:
	.loc 1 312 2585
	.loc 1 312 2606 is_stmt 0
	lw	a5,100(sp)
	lw	s10,88(sp)
	lw	a6,16(a5)
	lw	a5,44(sp)
	add	a5,s10,a5
	sub	a5,a5,a1
	add	a5,a5,a6
	.loc 1 312 2601
	sw	a5,0(s11)
	.loc 1 312 2638 is_stmt 1
	.loc 1 312 2639
	.loc 1 312 2606 is_stmt 0
	mv	s10,a1
	.loc 1 312 2656
	lw	a1,36(sp)
	.loc 1 312 2698
	li	a5,1036288
	addi	a5,a5,159
	.loc 1 312 2656
	sw	t5,0(a1)
	.loc 1 312 2681 is_stmt 1
	.loc 1 312 2698 is_stmt 0
	sw	a5,0(s8)
.LBE81:
.LBB82:
	.loc 1 312 2731 is_stmt 1
.LVL75:
	.loc 1 312 2914
	.loc 1 312 2930 is_stmt 0
	sw	t4,0(t2)
	.loc 1 312 2997 is_stmt 1
	.loc 1 312 3013 is_stmt 0
	li	a1,7
	sw	a1,0(a2)
	.loc 1 312 3019 is_stmt 1
	.loc 1 312 3036 is_stmt 0
	sw	t3,0(a0)
	.loc 1 312 3128 is_stmt 1
	.loc 1 312 3145 is_stmt 0
	sw	zero,0(a3)
	.loc 1 312 3212 is_stmt 1
	.loc 1 312 3229 is_stmt 0
	li	a5,16
	sw	a5,0(t0)
	.loc 1 312 3276 is_stmt 1
	.loc 1 312 3293 is_stmt 0
	sw	s0,0(t6)
	.loc 1 312 3299 is_stmt 1
	.loc 1 312 3316 is_stmt 0
	sw	a7,0(t1)
	.loc 1 312 3387 is_stmt 1
	.loc 1 312 3404 is_stmt 0
	lw	a3,12(sp)
	.loc 1 312 3468
	li	a5,4
	.loc 1 312 3537
	li	a6,15
	.loc 1 312 3404
	sw	zero,0(a3)
	.loc 1 312 3451 is_stmt 1
	.loc 1 312 3468 is_stmt 0
	sw	a5,-2016(s7)
	.loc 1 312 3497 is_stmt 1
	.loc 1 312 3514 is_stmt 0
	sw	s0,-1888(s6)
	.loc 1 312 3520 is_stmt 1
	.loc 1 312 3537 is_stmt 0
	lw	a5,8(sp)
	sw	a6,0(a5)
	.loc 1 312 3588 is_stmt 1
	.loc 1 312 3605 is_stmt 0
	sw	zero,-992(s5)
	.loc 1 312 3634 is_stmt 1
	.loc 1 312 3650 is_stmt 0
	sw	a4,1056(s4)
	.loc 1 312 3661 is_stmt 1
	.loc 1 312 3677 is_stmt 0
	sw	s0,672(s3)
	.loc 1 312 3683 is_stmt 1
	.loc 1 312 3700 is_stmt 0
	sw	s0,1568(s2)
	.loc 1 312 3729 is_stmt 1
	.loc 1 312 3746 is_stmt 0
	sw	zero,-864(s1)
	.loc 1 312 3755 is_stmt 1
.LVL76:
	.loc 1 312 3914
	.loc 1 312 3977 is_stmt 0
	li	a5,1036288
	.loc 1 312 3930
	sw	zero,0(s11)
	.loc 1 312 3959 is_stmt 1
	.loc 1 312 3960
	.loc 1 312 3977 is_stmt 0
	addi	a5,a5,-1891
	sw	a5,0(s8)
.LBE82:
	.loc 1 312 4009 is_stmt 1
	.loc 1 312 4010
	.loc 1 312 4026 is_stmt 0
	lw	a6,40(sp)
	.loc 1 274 17 discriminator 1
	addi	a4,s10,-15
	.loc 1 312 4026
	sw	a6,0(s9)
	.loc 1 274 26 is_stmt 1 discriminator 2
	.loc 1 274 17 discriminator 1
	lw	a6,20(sp)
	addi	a5,a6,1
	sw	a5,20(sp)
	sw	a4,24(sp)
	lw	a4,108(sp)
	ble	a4,a5,.L26
.LVL77:
.L9:
	.loc 1 275 10
	.loc 1 278 10
	.loc 1 278 12 is_stmt 0
	lw	a5,20(sp)
	bne	a5,zero,.L7
.LBB83:
	.loc 1 283 3 is_stmt 1
.LVL78:
	.loc 1 283 38
	.loc 1 283 54 is_stmt 0
	lw	a4,16(sp)
	li	a5,4096
	.loc 1 283 82
	li	t0,-2147483648
	.loc 1 283 54
	sw	a5,0(a4)
.LVL79:
	.loc 1 283 66 is_stmt 1
	.loc 1 283 82 is_stmt 0
	sw	zero,928(t0)
	.loc 1 283 88 is_stmt 1
	.loc 1 283 105 is_stmt 0
	lw	a5,28(sp)
	li	t6,-2147483648
	.loc 1 283 150
	li	t5,-2147479552
	.loc 1 283 105
	sw	a5,1440(t6)
	.loc 1 283 133 is_stmt 1
	.loc 1 283 150 is_stmt 0
	sw	zero,-1248(t5)
	.loc 1 283 162 is_stmt 1
	.loc 1 283 179 is_stmt 0
	li	a5,-2147483648
	li	a4,5
	sw	a4,1824(a5)
	.loc 1 283 224 is_stmt 1
	.loc 1 283 241 is_stmt 0
	li	t4,-2147483648
	li	a4,48
	sw	a4,1696(t4)
	.loc 1 283 287 is_stmt 1
	.loc 1 283 304 is_stmt 0
	li	a5,287
	li	t3,-2147483648
	sw	a5,1952(t3)
	.loc 1 283 309 is_stmt 1
	.loc 1 283 326 is_stmt 0
	li	t1,-2147479552
	sw	zero,-1120(t1)
	.loc 1 283 329 is_stmt 1
	.loc 1 283 346 is_stmt 0
	li	a7,-2147479552
	sw	zero,-1888(a7)
	.loc 1 283 375 is_stmt 1
	.loc 1 283 392 is_stmt 0
	li	a3,-2147479552
	li	a2,8
	sw	a2,-2016(a3)
	.loc 1 283 418 is_stmt 1
	.loc 1 283 435 is_stmt 0
	lw	a3,8(sp)
	.loc 1 283 457
	li	a6,-2147479552
	.loc 1 283 476
	li	a2,-2147483648
	.loc 1 283 435
	sw	a5,0(a3)
	.loc 1 283 440 is_stmt 1
	.loc 1 283 457 is_stmt 0
	sw	zero,-992(a6)
	.loc 1 283 460 is_stmt 1
	.loc 1 283 476 is_stmt 0
	li	a1,7
	sw	a1,672(a2)
	.loc 1 283 516 is_stmt 1
	.loc 1 283 532 is_stmt 0
	li	a3,-2147483648
	li	a2,1
	sw	a2,1056(a3)
	.loc 1 283 543 is_stmt 1
	.loc 1 283 560 is_stmt 0
	li	a1,-2147483648
	sw	a5,1568(a1)
	.loc 1 283 565 is_stmt 1
	.loc 1 283 582 is_stmt 0
	li	a2,-2147479552
	.loc 1 283 601
	li	a5,524288
	.loc 1 283 582
	sw	zero,-864(a2)
	.loc 1 283 585 is_stmt 1
	.loc 1 283 601 is_stmt 0
	addi	a5,a5,16
	sw	a5,0(s11)
	.loc 1 283 717 is_stmt 1
	.loc 1 283 734 is_stmt 0
	li	a3,-2147479552
	.loc 1 283 872
	li	a5,1032192
	.loc 1 283 734
	sw	a4,-736(a3)
	.loc 1 283 855 is_stmt 1
	.loc 1 283 872 is_stmt 0
	addi	a5,a5,127
	sw	a5,0(s8)
.LBE83:
	.loc 1 283 905 is_stmt 1
	.loc 1 283 906
	.loc 1 283 923 is_stmt 0
	li	a4,-2147479552
	sw	zero,-480(a4)
	.loc 1 283 928 is_stmt 1
	.loc 1 283 945 is_stmt 0
	lw	a4,112(sp)
	.loc 1 283 994
	li	a5,393216
	addi	a5,a5,1
	.loc 1 283 945
	sw	a4,0(s8)
	.loc 1 283 977 is_stmt 1
	.loc 1 283 978
	.loc 1 283 994 is_stmt 0
	lw	a4,32(sp)
	sw	a5,0(a4)
	j	.L8
.LVL80:
.L26:
	lw	s2,124(sp)
	lw	s4,128(sp)
	lw	s3,132(sp)
	lw	s1,136(sp)
	lw	s0,140(sp)
	j	.L10
.LVL81:
.L25:
	lw	s2,192(sp)
	.cfi_restore 18
	lw	s3,188(sp)
	.cfi_restore 19
	lw	s5,180(sp)
	.cfi_restore 21
	lw	s6,176(sp)
	.cfi_restore 22
	lw	s7,172(sp)
	.cfi_restore 23
	lw	s8,168(sp)
	.cfi_restore 24
	lw	s9,164(sp)
	.cfi_restore 25
	lw	s10,160(sp)
	.cfi_restore 26
	lw	s11,156(sp)
	.cfi_restore 27
.LVL82:
.L1:
	.loc 1 315 1
	lw	ra,204(sp)
	.cfi_remember_state
	.cfi_restore 1
	lw	s0,200(sp)
	.cfi_restore 8
	lw	s1,196(sp)
	.cfi_restore 9
	lw	s4,184(sp)
	.cfi_restore 20
	addi	sp,sp,208
	.cfi_def_cfa_offset 0
	jr	ra
.LVL83:
.L2:
	.cfi_restore_state
	.loc 1 255 7 is_stmt 1
	.loc 1 255 9 is_stmt 0
	li	a5,32
	ble	s0,a5,.L1
	sw	s2,192(sp)
	sw	s3,188(sp)
	sw	s5,180(sp)
	sw	s6,176(sp)
	sw	s7,172(sp)
	.cfi_offset 18, -16
	.cfi_offset 19, -20
	.cfi_offset 21, -28
	.cfi_offset 22, -32
	.cfi_offset 23, -36
	.loc 1 257 7 is_stmt 1
	.loc 1 257 11 is_stmt 0
	srai	s1,a4,6
.LVL84:
	.loc 1 258 7 is_stmt 1
	j	.L3
.LVL85:
.L21:
	.loc 1 253 26 is_stmt 0 discriminator 1
	srai	s4,a4,6
.LVL86:
	j	.L3
.LVL87:
.L22:
	.cfi_offset 24, -40
	.cfi_offset 25, -44
	.cfi_offset 26, -48
	.cfi_offset 27, -52
	sw	a3,44(sp)
	j	.L14
.LVL88:
.L19:
	.cfi_restore 24
	.cfi_restore 25
	.cfi_restore 26
	.cfi_restore 27
	.loc 1 315 1
	lw	ra,204(sp)
	.cfi_restore 1
	lw	s0,200(sp)
	.cfi_restore 8
.LVL89:
	lw	s2,192(sp)
	.cfi_restore 18
	lw	s3,188(sp)
	.cfi_restore 19
	lw	s5,180(sp)
	.cfi_restore 21
	lw	s6,176(sp)
	.cfi_restore 22
	lw	s7,172(sp)
	.cfi_restore 23
	lw	s1,196(sp)
	.cfi_restore 9
.LVL90:
	lw	s4,184(sp)
	.cfi_restore 20
.LVL91:
	addi	sp,sp,208
	.cfi_def_cfa_offset 0
	jr	ra
	.cfi_endproc
.LFE2:
	.size	canny_phase_2, .-canny_phase_2
	.align	2
	.type	canny_phase_1, @function
canny_phase_1:
.LFB1:
	.loc 1 141 45 is_stmt 1
	.cfi_startproc
.LVL92:
	.loc 1 142 4
	.loc 1 141 45 is_stmt 0
	addi	sp,sp,-208
	.cfi_def_cfa_offset 208
	sw	ra,204(sp)
	sw	s0,200(sp)
	sw	s1,196(sp)
	sw	s3,188(sp)
	sw	s4,184(sp)
	.cfi_offset 1, -4
	.cfi_offset 8, -8
	.cfi_offset 9, -12
	.cfi_offset 19, -20
	.cfi_offset 20, -24
	.loc 1 154 5
	lw	s4,28(a0)
	.loc 1 155 5
	lw	s0,32(a0)
	.loc 1 141 45
	sw	a0,40(sp)
.LVL93:
	.loc 1 143 4 is_stmt 1
	.loc 1 144 4
	.loc 1 145 4
	.loc 1 146 4
	.loc 1 147 4
	.loc 1 148 4
	.loc 1 149 4
	.loc 1 150 4
	.loc 1 151 4
	.loc 1 153 4
	.loc 1 154 4
	.loc 1 154 5 is_stmt 0
	sw	s4,28(sp)
.LVL94:
	.loc 1 155 4 is_stmt 1
	.loc 1 156 4
	.loc 1 157 4
	.loc 1 158 4
	.loc 1 159 4
	.loc 1 160 4
	.loc 1 160 15 is_stmt 0
	addi	a4,s0,31
.LVL95:
	.loc 1 161 4 is_stmt 1
	.loc 1 162 4
	.loc 1 162 6 is_stmt 0
	bne	a1,zero,.L28
	.loc 1 164 26
	li	a5,63
	mv	s1,a1
	.loc 1 163 7 is_stmt 1
.LVL96:
	.loc 1 164 7
	.loc 1 164 26 is_stmt 0
	ble	a4,a5,.L29
	.loc 1 173 18
	li	a2,1015828480
	sw	s2,192(sp)
.LVL97:
	li	a3,-2147483648
	addi	a2,a2,4
	.loc 1 174 4
	li	a5,-2147483648
	.loc 1 173 18
	sw	a2,20(a3)
	.loc 1 174 4
	sw	zero,36(a5)
	.cfi_offset 18, -16
	mv	s2,a0
	.loc 1 164 26 discriminator 1
	srai	s3,a4,6
.LVL98:
	.loc 1 173 1 is_stmt 1
	.loc 1 173 2
	.loc 1 174 4
	.loc 1 174 4
	call	_taskYield
.LVL99:
	.loc 1 174 18 discriminator 1
	.loc 1 176 4
	.loc 1 177 4
	.loc 1 176 18 is_stmt 0
	mul	a4,s4,s0
	.loc 1 177 13
	lw	a3,4(s2)
.LVL100:
	.loc 1 178 4 is_stmt 1
	lw	s2,192(sp)
	.cfi_restore 18
.LVL101:
	.loc 1 178 20 is_stmt 0
	slli	a5,s4,1
	.loc 1 178 13
	sub	a3,a3,a5
.LVL102:
	.loc 1 179 4 is_stmt 1
	.loc 1 176 20 is_stmt 0
	slli	a4,a4,1
	.loc 1 179 16
	add	a4,a4,a5
.LVL103:
	.loc 1 181 4 is_stmt 1
	.loc 1 181 17 discriminator 1
.L30:
	.loc 1 161 21 is_stmt 0
	addi	a2,s0,3
	.loc 1 159 15
	lw	a0,28(sp)
	.loc 1 161 6
	srai	a5,a2,31
	andi	a5,a5,3
	add	a5,a5,a2
	.loc 1 159 15
	addi	a1,a0,14
	.loc 1 159 9
	li	a2,15
	div	a2,a1,a2
.LBB84:
	.loc 1 196 2194
	srai	a4,a4,1
.LVL104:
	.loc 1 196 1761
	slli	a6,a0,2
	.loc 1 196 2194
	sw	a4,108(sp)
	.loc 1 196 2252
	srli	a4,a3,1
	sw	a4,112(sp)
.LBE84:
.LBB85:
	.loc 1 199 1772
	addi	a4,a6,-1
.LBE85:
.LBB86:
	.loc 1 196 1761
	sw	a6,44(sp)
.LBE86:
.LBB87:
	.loc 1 199 1772
	sw	a4,116(sp)
.LBE87:
	.loc 1 161 6
	srai	a5,a5,2
	.loc 1 159 9
	sw	a2,120(sp)
	ble	a0,zero,.L27
	slli	a4,s1,3
	sub	a5,a5,a4
	neg	a3,a0
.LVL105:
	slli	a4,s1,5
	sub	a4,s0,a4
	mul	a5,a5,a0
	slli	s0,a3,5
.LVL106:
	sw	s2,192(sp)
	sw	s5,180(sp)
	sw	s6,176(sp)
	sw	s7,172(sp)
	sw	s8,168(sp)
	sw	s9,164(sp)
	sw	s10,160(sp)
	sw	s11,156(sp)
	.cfi_offset 18, -16
	.cfi_offset 21, -28
	.cfi_offset 22, -32
	.cfi_offset 23, -36
	.cfi_offset 24, -40
	.cfi_offset 25, -44
	.cfi_offset 26, -48
	.cfi_offset 27, -52
	mul	a3,a0,s1
	slli	a5,a5,2
	addi	a5,a5,-1
	sw	a5,32(sp)
.LBB88:
	.loc 1 199 1772
	sw	zero,20(sp)
	mul	a4,a4,a0
	slli	a3,a3,5
	add	s2,a0,a3
	sw	a3,16(sp)
	addi	a3,s2,-1
	sw	a3,104(sp)
	addi	a5,a4,-1
	sw	a5,100(sp)
.LVL107:
.LBE88:
	.loc 1 182 17 is_stmt 1 discriminator 1
	bne	s1,zero,.L45
.LBB89:
	.loc 1 191 54 is_stmt 0
	li	a5,-2147483648
	addi	t2,a5,800
	.loc 1 191 105
	li	a5,16384
	addi	a5,a5,-1
	.loc 1 191 601
	li	a3,524288
	.loc 1 191 82
	li	a4,-2147483648
	.loc 1 191 435
	li	t4,-2147479552
	.loc 1 191 601
	li	t1,-2147483648
	.loc 1 191 872
	li	t6,-2147479552
.LBE89:
	.loc 1 191 945
	li	a2,1036288
.LBB90:
	.loc 1 191 105
	sw	a5,12(sp)
	.loc 1 191 601
	addi	a5,a3,16
	.loc 1 191 82
	addi	a1,a4,928
	.loc 1 191 435
	addi	t4,t4,-1760
	.loc 1 191 601
	addi	t1,t1,544
	sw	a5,60(sp)
	.loc 1 191 872
	addi	t6,t6,-1632
.LBE90:
	.loc 1 191 945
	addi	a5,a2,-1923
	sw	s1,128(sp)
	sw	a5,36(sp)
	sw	s2,96(sp)
	sw	s3,124(sp)
	sw	s0,132(sp)
	sw	t2,8(sp)
	sw	a1,24(sp)
	mv	s8,t4
	mv	s9,t1
	mv	s1,t6
.LVL108:
	j	.L33
.LVL109:
.L48:
.LBB91:
	.loc 1 188 3 is_stmt 1
	.loc 1 188 38
	.loc 1 188 54 is_stmt 0
	lw	s11,8(sp)
	li	a4,4096
	.loc 1 188 105
	li	t5,-2147483648
	.loc 1 188 54
	sw	a4,0(s11)
	.loc 1 188 66 is_stmt 1
	.loc 1 188 82 is_stmt 0
	lw	t2,24(sp)
	.loc 1 188 150
	li	t4,-2147479552
	.loc 1 188 179
	li	ra,-2147483648
	.loc 1 188 82
	sw	zero,0(t2)
	.loc 1 188 88 is_stmt 1
	.loc 1 188 105 is_stmt 0
	lw	a5,12(sp)
.LVL110:
	.loc 1 188 179
	li	s7,5
	.loc 1 188 241
	li	s2,48
	.loc 1 188 105
	sw	a5,1440(t5)
	.loc 1 188 133 is_stmt 1
	.loc 1 188 150 is_stmt 0
	sw	zero,-1248(t4)
	.loc 1 188 162 is_stmt 1
	.loc 1 188 179 is_stmt 0
	sw	s7,1824(ra)
	.loc 1 188 224 is_stmt 1
	.loc 1 188 241 is_stmt 0
	li	t3,-2147483648
	sw	s2,1696(t3)
	.loc 1 188 287 is_stmt 1
	.loc 1 188 304 is_stmt 0
	li	a5,287
	li	t1,-2147483648
	sw	a5,1952(t1)
	.loc 1 188 309 is_stmt 1
	.loc 1 188 326 is_stmt 0
	li	a7,-2147479552
	sw	zero,-1120(a7)
	.loc 1 188 329 is_stmt 1
	.loc 1 188 346 is_stmt 0
	li	a6,-2147479552
	sw	zero,-1888(a6)
	.loc 1 188 375 is_stmt 1
	.loc 1 188 392 is_stmt 0
	li	s10,-2147479552
	li	s6,8
	sw	s6,-2016(s10)
	.loc 1 188 418 is_stmt 1
	.loc 1 188 435 is_stmt 0
	sw	a5,0(s8)
	.loc 1 188 440 is_stmt 1
	.loc 1 188 457 is_stmt 0
	li	a0,-2147479552
	sw	zero,-992(a0)
	.loc 1 188 460 is_stmt 1
	.loc 1 188 476 is_stmt 0
	li	t0,-2147483648
	li	s5,7
	sw	s5,672(t0)
	.loc 1 188 516 is_stmt 1
	.loc 1 188 532 is_stmt 0
	li	t6,-2147483648
	li	s4,1
	sw	s4,1056(t6)
	.loc 1 188 543 is_stmt 1
	.loc 1 188 560 is_stmt 0
	li	a2,-2147483648
	sw	a5,1568(a2)
	.loc 1 188 565 is_stmt 1
	.loc 1 188 582 is_stmt 0
	li	a3,-2147479552
	sw	zero,-864(a3)
	.loc 1 188 585 is_stmt 1
	.loc 1 188 601 is_stmt 0
	lw	a1,60(sp)
	.loc 1 188 734
	li	s0,-2147479552
	.loc 1 188 872
	li	s3,1032192
	.loc 1 188 601
	sw	a1,0(s9)
	.loc 1 188 717 is_stmt 1
	.loc 1 188 734 is_stmt 0
	sw	s2,-736(s0)
	.loc 1 188 855 is_stmt 1
	.loc 1 188 872 is_stmt 0
	addi	s3,s3,127
	sw	s3,0(s1)
.LBE91:
.LBB92:
	.loc 1 188 905 is_stmt 1
.LVL111:
	.loc 1 188 954
	.loc 1 188 970 is_stmt 0
	sw	a4,0(s11)
	.loc 1 188 982 is_stmt 1
	.loc 1 188 998 is_stmt 0
	sw	zero,0(t2)
	.loc 1 188 1004 is_stmt 1
	.loc 1 188 1021 is_stmt 0
	addi	a4,a4,-1
	sw	a4,1440(t5)
	.loc 1 188 1049 is_stmt 1
	.loc 1 188 1066 is_stmt 0
	li	a4,12288
	sw	a4,-1248(t4)
	.loc 1 188 1078 is_stmt 1
	.loc 1 188 1095 is_stmt 0
	sw	s7,1824(ra)
	.loc 1 188 1140 is_stmt 1
	.loc 1 188 1157 is_stmt 0
	sw	s2,1696(t3)
	.loc 1 188 1203 is_stmt 1
	.loc 1 188 1220 is_stmt 0
	sw	a5,1952(t1)
	.loc 1 188 1225 is_stmt 1
	.loc 1 188 1242 is_stmt 0
	sw	zero,-1120(a7)
	.loc 1 188 1245 is_stmt 1
	.loc 1 188 1262 is_stmt 0
	sw	zero,-1888(a6)
	.loc 1 188 1321 is_stmt 1
	.loc 1 188 1338 is_stmt 0
	sw	s6,-2016(s10)
	.loc 1 188 1364 is_stmt 1
	.loc 1 188 1381 is_stmt 0
	sw	a5,0(s8)
	.loc 1 188 1386 is_stmt 1
	.loc 1 188 1403 is_stmt 0
	sw	zero,-992(a0)
	.loc 1 188 1406 is_stmt 1
	.loc 1 188 1422 is_stmt 0
	sw	s5,672(t0)
	.loc 1 188 1462 is_stmt 1
	.loc 1 188 1478 is_stmt 0
	sw	s4,1056(t6)
	.loc 1 188 1489 is_stmt 1
	.loc 1 188 1506 is_stmt 0
	sw	a5,1568(a2)
	.loc 1 188 1511 is_stmt 1
	.loc 1 188 1547 is_stmt 0
	li	a4,536576
	.loc 1 188 1528
	sw	zero,-864(a3)
	.loc 1 188 1531 is_stmt 1
	.loc 1 188 1547 is_stmt 0
	addi	a4,a4,40
	.loc 1 188 1694
	li	t6,1032192
	.loc 1 188 1547
	sw	a4,0(s9)
	.loc 1 188 1677 is_stmt 1
	.loc 1 188 1694 is_stmt 0
	addi	t6,t6,125
.LBE92:
	.loc 1 188 1743
	li	a4,393216
	li	a5,-2147483648
.LBB93:
	.loc 1 188 1694
	sw	t6,0(s1)
.LBE93:
	.loc 1 188 1726 is_stmt 1
	.loc 1 188 1727
	.loc 1 188 1743 is_stmt 0
	addi	a4,a4,1
	sw	a4,20(a5)
.LVL112:
.L39:
	.loc 1 193 1 is_stmt 1
	.loc 1 193 2
	.loc 1 193 18 is_stmt 0
	li	a2,-2147483648
	li	a5,88
	sw	a5,20(a2)
.LBB94:
	.loc 1 196 3 is_stmt 1
.LVL113:
	.loc 1 196 204
	.loc 1 196 220 is_stmt 0
	lw	s10,8(sp)
	li	a4,96
	.loc 1 196 321
	li	a3,7
	.loc 1 196 220
	sw	a4,0(s10)
	.loc 1 196 305 is_stmt 1
	.loc 1 196 321 is_stmt 0
	lw	s10,24(sp)
	.loc 1 196 344
	li	a4,-2147483648
	li	a1,767
	.loc 1 196 321
	sw	a3,0(s10)
	.loc 1 196 327 is_stmt 1
	.loc 1 196 344 is_stmt 0
	sw	a1,1440(a4)
	.loc 1 196 454 is_stmt 1
	.loc 1 196 471 is_stmt 0
	li	a5,-2147479552
	sw	a5,4(sp)
	sw	zero,-1248(a5)
	.loc 1 196 556 is_stmt 1
	.loc 1 196 573 is_stmt 0
	li	t6,-2147483648
	li	a1,16
	sw	a1,1696(t6)
	.loc 1 196 632 is_stmt 1
	.loc 1 196 649 is_stmt 0
	li	t3,-2147483648
	li	a6,5
	sw	a6,1824(t3)
	.loc 1 196 655 is_stmt 1
	.loc 1 196 672 is_stmt 0
	li	a7,-2147483648
	li	t4,95
	sw	t4,1952(a7)
	.loc 1 196 761 is_stmt 1
	.loc 1 196 778 is_stmt 0
	li	s7,-2147479552
	sw	zero,-1120(s7)
	.loc 1 196 837 is_stmt 1
	.loc 1 196 854 is_stmt 0
	li	t0,-2147479552
	li	a5,4
	.loc 1 196 912
	li	s0,3
	.loc 1 196 854
	sw	a5,-2016(t0)
	.loc 1 196 895 is_stmt 1
	.loc 1 196 912 is_stmt 0
	li	s6,-2147479552
	sw	s0,-1888(s6)
	.loc 1 196 918 is_stmt 1
	.loc 1 196 935 is_stmt 0
	li	a0,15
	sw	a0,0(s8)
	.loc 1 196 998 is_stmt 1
	.loc 1 196 1015 is_stmt 0
	li	s5,-2147479552
	sw	zero,-992(s5)
	.loc 1 196 1056 is_stmt 1
	.loc 1 196 1072 is_stmt 0
	li	t5,-2147483648
	li	a5,1
	sw	a5,1056(t5)
	.loc 1 196 1083 is_stmt 1
	.loc 1 196 1099 is_stmt 0
	li	s4,-2147483648
	.loc 1 196 1122
	li	s3,-2147483648
	.loc 1 196 1099
	sw	s0,672(s4)
	.loc 1 196 1105 is_stmt 1
	.loc 1 196 1180 is_stmt 0
	li	s2,-2147479552
	.loc 1 196 1122
	sw	s0,1568(s3)
	.loc 1 196 1163 is_stmt 1
	.loc 1 196 1180 is_stmt 0
	sw	zero,-864(s2)
	.loc 1 196 1189 is_stmt 1
.LVL114:
	.loc 1 196 1390
	.loc 1 196 1406 is_stmt 0
	sw	zero,0(s9)
	.loc 1 196 1435 is_stmt 1
	.loc 1 196 1436
	.loc 1 196 1453 is_stmt 0
	li	t1,-2147479552
	.loc 1 196 1509
	li	s11,1036288
	.loc 1 196 1453
	li	ra,768
	sw	ra,-736(t1)
	.loc 1 196 1492 is_stmt 1
	.loc 1 196 1453 is_stmt 0
	addi	a1,t1,-736
	.loc 1 196 1509
	addi	t1,s11,-1921
	sw	t1,64(sp)
	sw	t1,0(s1)
.LBE94:
.LBB95:
	.loc 1 196 1542 is_stmt 1
.LVL115:
	.loc 1 196 1722
	.loc 1 196 1739 is_stmt 0
	lw	ra,44(sp)
.LBE95:
.LBB96:
	.loc 1 196 344
	addi	a4,a4,1440
	.loc 1 196 573
	addi	t6,t6,1696
.LBE96:
.LBB97:
	.loc 1 196 1739
	sw	ra,0(t6)
.LVL116:
	.loc 1 196 1766 is_stmt 1
	.loc 1 196 1783 is_stmt 0
	sw	a3,1824(t3)
	.loc 1 196 1789 is_stmt 1
	.loc 1 196 1806 is_stmt 0
	lw	a5,32(sp)
.LBE97:
.LBB98:
	.loc 1 196 649
	addi	t3,t3,1824
	.loc 1 196 672
	addi	a7,a7,1952
.LBE98:
.LBB99:
	.loc 1 196 1806
	sw	a5,0(a7)
	.loc 1 196 1842 is_stmt 1
	.loc 1 196 1859 is_stmt 0
	sw	zero,-1120(s7)
	.loc 1 196 1886 is_stmt 1
	.loc 1 196 1903 is_stmt 0
	lw	t2,28(sp)
	.loc 1 196 1956
	li	a5,67108864
	addi	a5,a5,-1
	.loc 1 196 1903
	sw	t2,-2016(t0)
	.loc 1 196 1916 is_stmt 1
	.loc 1 196 1933 is_stmt 0
	sw	a6,-1888(s6)
	.loc 1 196 1939 is_stmt 1
	.loc 1 196 1956 is_stmt 0
	sw	a5,0(s8)
	.loc 1 196 1968 is_stmt 1
	.loc 1 196 1985 is_stmt 0
	sw	zero,-992(s5)
	.loc 1 196 1998 is_stmt 1
	.loc 1 196 2014 is_stmt 0
	li	a5,1
	sw	a5,1056(t5)
	.loc 1 196 2025 is_stmt 1
	.loc 1 196 2041 is_stmt 0
	sw	a0,672(s4)
	.loc 1 196 2047 is_stmt 1
	lw	ra,16(sp)
	lw	s11,104(sp)
	lw	t1,20(sp)
.LBE99:
.LBB100:
	.loc 1 196 854 is_stmt 0
	addi	t0,t0,-2016
	sub	a0,s11,ra
.LBE100:
.LBB101:
	.loc 1 196 2064
	sw	a0,48(sp)
	sw	a0,1568(s3)
	.loc 1 196 2077 is_stmt 1
	lw	s11,108(sp)
	slli	a5,t1,4
	sub	t2,a5,t1
	sub	t1,s11,ra
	.loc 1 196 2239 is_stmt 0
	lw	s11,112(sp)
	sw	ra,16(sp)
	.loc 1 196 2094
	sw	t2,52(sp)
	sw	t2,-864(s2)
	.loc 1 196 2103 is_stmt 1
.LVL117:
	.loc 1 196 2160
	.loc 1 196 2177 is_stmt 0
	li	a0,-2147479552
	sw	t1,-96(a0)
.LVL118:
	.loc 1 196 2217 is_stmt 1
	.loc 1 196 2218
	.loc 1 196 2239 is_stmt 0
	add	ra,s11,ra
	.loc 1 196 2287
	li	a5,1036288
	.loc 1 196 2234
	sw	ra,0(s9)
	.loc 1 196 2269 is_stmt 1
	.loc 1 196 2270
	.loc 1 196 2287 is_stmt 0
	addi	a5,a5,125
.LBE101:
	.loc 1 196 2336
	li	s11,393216
.LBB102:
	.loc 1 196 2287
	sw	a5,0(s1)
.LBE102:
	.loc 1 196 2319 is_stmt 1
	.loc 1 196 2320
	.loc 1 196 2336 is_stmt 0
	addi	a5,s11,17
	sw	a5,20(a2)
.LBB103:
	.loc 1 196 2426 is_stmt 1
.LVL119:
	.loc 1 196 2471
	.loc 1 196 2488 is_stmt 0
	li	a0,4096
	sw	a0,0(t0)
	.loc 1 196 2500 is_stmt 1
	.loc 1 196 2517 is_stmt 0
	sw	s0,-1888(s6)
	.loc 1 196 2523 is_stmt 1
	.loc 1 196 2540 is_stmt 0
	lw	t1,12(sp)
	.loc 1 196 2674
	li	s11,48
.LBE103:
	.loc 1 196 2336
	mv	ra,a5
.LBB104:
	.loc 1 196 2540
	sw	t1,0(s8)
	.loc 1 196 2568 is_stmt 1
	.loc 1 196 2585 is_stmt 0
	sw	zero,-992(s5)
	.loc 1 196 2597 is_stmt 1
	.loc 1 196 2614 is_stmt 0
	sw	a6,0(t3)
	.loc 1 196 2657 is_stmt 1
	.loc 1 196 2737 is_stmt 0
	li	a5,287
	.loc 1 196 2674
	sw	s11,0(t6)
	.loc 1 196 2720 is_stmt 1
	.loc 1 196 2737 is_stmt 0
	sw	a5,0(a7)
	.loc 1 196 2742 is_stmt 1
	.loc 1 196 2759 is_stmt 0
	sw	zero,-1120(s7)
	.loc 1 196 2762 is_stmt 1
	.loc 1 196 2778 is_stmt 0
	sw	s0,672(s4)
	.loc 1 196 2821 is_stmt 1
	.loc 1 196 2837 is_stmt 0
	li	t1,8
	sw	t1,1056(t5)
	.loc 1 196 2863 is_stmt 1
	.loc 1 196 2880 is_stmt 0
	sw	a5,1568(s3)
	.loc 1 196 2885 is_stmt 1
	.loc 1 196 2902 is_stmt 0
	sw	zero,-864(s2)
	.loc 1 196 2905 is_stmt 1
	.loc 1 196 2921 is_stmt 0
	sw	s10,24(sp)
	sw	a3,0(s10)
	.loc 1 196 2959 is_stmt 1
	.loc 1 196 2975 is_stmt 0
	lw	s10,8(sp)
	li	t1,1
	.loc 1 196 3179
	li	t2,768
	.loc 1 196 2975
	sw	t1,0(s10)
	.loc 1 196 2986 is_stmt 1
	.loc 1 196 3003 is_stmt 0
	sw	a5,0(a4)
	.loc 1 196 3008 is_stmt 1
	.loc 1 196 3025 is_stmt 0
	lw	s11,4(sp)
	.loc 1 196 3044
	li	t1,524288
	addi	t1,t1,24
	.loc 1 196 3025
	sw	zero,-1248(s11)
	.loc 1 196 3028 is_stmt 1
	.loc 1 196 3044 is_stmt 0
	sw	t1,0(s9)
	.loc 1 196 3162 is_stmt 1
	.loc 1 196 3327 is_stmt 0
	li	t1,1032192
	.loc 1 196 3179
	sw	t2,0(a1)
	.loc 1 196 3310 is_stmt 1
	.loc 1 196 3327 is_stmt 0
	addi	t1,t1,1151
	sw	t1,0(s1)
.LBE104:
.LBB105:
	.loc 1 196 3360 is_stmt 1
.LVL120:
	.loc 1 196 3561
	.loc 1 196 3577 is_stmt 0
	li	t2,96
	sw	t2,0(s10)
	.loc 1 196 3662 is_stmt 1
.LBE105:
.LBB106:
	.loc 1 196 3179 is_stmt 0
	mv	s11,a1
.LBE106:
.LBB107:
	.loc 1 196 3678
	lw	a1,24(sp)
	.loc 1 196 3701
	li	t2,767
.LBE107:
.LBB108:
	.loc 1 196 1072
	addi	t5,t5,1056
.LBE108:
.LBB109:
	.loc 1 196 3678
	sw	a3,0(a1)
	.loc 1 196 3684 is_stmt 1
	.loc 1 196 3701 is_stmt 0
	sw	t2,0(a4)
	.loc 1 196 3811 is_stmt 1
	.loc 1 196 3828 is_stmt 0
	lw	t1,4(sp)
	.loc 1 196 3930
	li	a1,16
.LBE109:
	.loc 1 193 18
	addi	a2,a2,20
.LBB110:
	.loc 1 196 3828
	sw	zero,-1248(t1)
	.loc 1 196 3913 is_stmt 1
	.loc 1 196 3930 is_stmt 0
	sw	a1,0(t6)
	.loc 1 196 3989 is_stmt 1
	.loc 1 196 4006 is_stmt 0
	sw	a6,0(t3)
	.loc 1 196 4012 is_stmt 1
	.loc 1 196 4029 is_stmt 0
	sw	t4,0(a7)
	.loc 1 196 0 is_stmt 1
	sw	zero,-1120(s7)
	.loc 1 196 0
	li	t4,4
	sw	t4,0(t0)
	.loc 1 196 0
	sw	s0,-1888(s6)
	.loc 1 196 0
	li	t1,15
	sw	t1,0(s8)
	.loc 1 196 0
	sw	zero,-992(s5)
	.loc 1 196 0
	mv	t2,t4
	li	t4,1
	sw	t4,0(t5)
	.loc 1 196 0
	sw	s0,672(s4)
	.loc 1 196 0
	sw	s0,1568(s3)
	.loc 1 196 0
	sw	zero,-864(s2)
	.loc 1 196 0
.LVL121:
	.loc 1 196 0
	sw	zero,0(s9)
	.loc 1 196 0
	.loc 1 196 0
	lw	t4,36(sp)
	sw	t4,0(s1)
.LBE110:
	.loc 1 196 0
	.loc 1 196 0
	sw	ra,0(a2)
.LBB111:
	.loc 1 199 3
.LVL122:
	.loc 1 199 186
	.loc 1 199 202 is_stmt 0
	li	t4,64
	sw	s10,8(sp)
	sw	t4,0(s10)
	.loc 1 199 269 is_stmt 1
	.loc 1 199 285 is_stmt 0
	lw	s10,24(sp)
	.loc 1 199 308
	li	t4,511
	.loc 1 199 285
	sw	a3,0(s10)
	.loc 1 199 291 is_stmt 1
	.loc 1 199 308 is_stmt 0
	sw	t4,0(a4)
	.loc 1 199 400 is_stmt 1
	.loc 1 199 417 is_stmt 0
	lw	t4,4(sp)
	sw	zero,-1248(t4)
	.loc 1 199 484 is_stmt 1
	.loc 1 199 501 is_stmt 0
	sw	a1,0(t6)
	.loc 1 199 548 is_stmt 1
	.loc 1 199 565 is_stmt 0
	sw	s0,0(t3)
	.loc 1 199 571 is_stmt 1
	.loc 1 199 588 is_stmt 0
	li	a1,63
	sw	a1,0(a7)
	.loc 1 199 659 is_stmt 1
	.loc 1 199 676 is_stmt 0
	sw	zero,-1120(s7)
	.loc 1 199 723 is_stmt 1
	.loc 1 199 740 is_stmt 0
	sw	t2,0(t0)
	.loc 1 199 769 is_stmt 1
	.loc 1 199 786 is_stmt 0
	sw	s0,-1888(s6)
	.loc 1 199 792 is_stmt 1
	.loc 1 199 809 is_stmt 0
	sw	t1,0(s8)
	.loc 1 199 860 is_stmt 1
	.loc 1 199 877 is_stmt 0
	sw	zero,-992(s5)
	.loc 1 199 906 is_stmt 1
	.loc 1 199 922 is_stmt 0
	li	a1,1
	sw	a1,0(t5)
	.loc 1 199 933 is_stmt 1
	.loc 1 199 949 is_stmt 0
	sw	s0,672(s4)
	.loc 1 199 955 is_stmt 1
	.loc 1 199 972 is_stmt 0
	sw	s0,1568(s3)
	.loc 1 199 1001 is_stmt 1
	.loc 1 199 1018 is_stmt 0
	sw	zero,-864(s2)
	.loc 1 199 1027 is_stmt 1
.LVL123:
	.loc 1 199 1186
	.loc 1 199 1202 is_stmt 0
	sw	zero,0(s9)
	.loc 1 199 1230 is_stmt 1
	.loc 1 199 1231
	.loc 1 199 1248 is_stmt 0
	sw	s11,56(sp)
	.loc 1 199 809
	mv	t4,t1
	.loc 1 199 1248
	li	t2,512
	.loc 1 199 1304
	li	t1,1036288
	.loc 1 199 1248
	sw	t2,0(s11)
	.loc 1 199 1287 is_stmt 1
	.loc 1 199 1304 is_stmt 0
	addi	t1,t1,-1953
	sw	t1,0(s1)
.LBE111:
.LBB112:
	.loc 1 199 1336 is_stmt 1
.LVL124:
	.loc 1 199 1510
	.loc 1 199 1527 is_stmt 0
	lw	a1,44(sp)
	sw	a1,0(t6)
	.loc 1 199 1554 is_stmt 1
	.loc 1 199 1571 is_stmt 0
	sw	a3,0(t3)
	.loc 1 199 1577 is_stmt 1
	.loc 1 199 1594 is_stmt 0
	lw	a1,32(sp)
	sw	a1,0(a7)
	.loc 1 199 1630 is_stmt 1
	.loc 1 199 1647 is_stmt 0
	sw	zero,-1120(s7)
	.loc 1 199 1674 is_stmt 1
	.loc 1 199 1691 is_stmt 0
	lw	t2,28(sp)
	.loc 1 199 1821
	li	a1,1
	.loc 1 199 1691
	sw	t2,0(t0)
	.loc 1 199 1704 is_stmt 1
	.loc 1 199 1721 is_stmt 0
	sw	s0,-1888(s6)
	.loc 1 199 1727 is_stmt 1
	.loc 1 199 1744 is_stmt 0
	lw	s11,116(sp)
	sw	s11,0(s8)
	.loc 1 199 1775 is_stmt 1
	.loc 1 199 1792 is_stmt 0
	sw	zero,-992(s5)
	.loc 1 199 1805 is_stmt 1
	.loc 1 199 1821 is_stmt 0
	sw	a1,0(t5)
	.loc 1 199 1832 is_stmt 1
	.loc 1 199 1848 is_stmt 0
	sw	t4,672(s4)
	.loc 1 199 1854 is_stmt 1
	.loc 1 199 1871 is_stmt 0
	lw	t1,48(sp)
	sw	t1,1568(s3)
	.loc 1 199 1884 is_stmt 1
	.loc 1 199 1901 is_stmt 0
	lw	t2,52(sp)
	.loc 1 199 2036
	li	t1,1036288
	addi	t1,t1,93
	.loc 1 199 1901
	sw	t2,-864(s2)
	.loc 1 199 1910 is_stmt 1
.LVL125:
	.loc 1 199 1967
	.loc 1 199 1988 is_stmt 0
	lw	a1,40(sp)
	lw	t4,8(a1)
	lw	a1,16(sp)
	add	t4,a1,t4
	.loc 1 199 1983
	sw	t4,0(s9)
	.loc 1 199 2018 is_stmt 1
	.loc 1 199 2019
	.loc 1 199 2036 is_stmt 0
	sw	t1,0(s1)
.LBE112:
	.loc 1 199 2067 is_stmt 1
	.loc 1 199 2068
	.loc 1 199 2084 is_stmt 0
	sw	ra,0(a2)
.LBB113:
	.loc 1 199 2174 is_stmt 1
.LVL126:
	.loc 1 199 2219
	.loc 1 199 2236 is_stmt 0
	sw	a0,0(t0)
	.loc 1 199 2248 is_stmt 1
	.loc 1 199 2265 is_stmt 0
	sw	s0,-1888(s6)
	.loc 1 199 2271 is_stmt 1
	.loc 1 199 2288 is_stmt 0
	lw	s11,12(sp)
	.loc 1 199 2416
	li	a1,32
	.loc 1 199 2473
	li	t1,127
	.loc 1 199 2288
	sw	s11,0(s8)
	.loc 1 199 2316 is_stmt 1
	.loc 1 199 2333 is_stmt 0
	sw	zero,-992(s5)
	.loc 1 199 2345 is_stmt 1
	.loc 1 199 2362 is_stmt 0
	sw	s0,0(t3)
	.loc 1 199 2399 is_stmt 1
	.loc 1 199 2416 is_stmt 0
	sw	a1,0(t6)
	.loc 1 199 2456 is_stmt 1
	.loc 1 199 2473 is_stmt 0
	sw	t1,0(a7)
	.loc 1 199 2478 is_stmt 1
	.loc 1 199 2495 is_stmt 0
	sw	zero,-1120(s7)
	.loc 1 199 2498 is_stmt 1
	.loc 1 199 2514 is_stmt 0
	sw	s0,672(s4)
	.loc 1 199 2551 is_stmt 1
	.loc 1 199 2567 is_stmt 0
	li	a1,8
	sw	a1,0(t5)
	.loc 1 199 2593 is_stmt 1
	.loc 1 199 2610 is_stmt 0
	sw	t1,1568(s3)
	.loc 1 199 2615 is_stmt 1
	.loc 1 199 2632 is_stmt 0
	sw	zero,-864(s2)
	.loc 1 199 2635 is_stmt 1
	.loc 1 199 2651 is_stmt 0
	sw	a3,0(s10)
	.loc 1 199 2689 is_stmt 1
	.loc 1 199 2705 is_stmt 0
	lw	t2,8(sp)
	li	t4,1
	sw	t4,0(t2)
	.loc 1 199 2716 is_stmt 1
	.loc 1 199 2738
	.loc 1 199 2733 is_stmt 0
	sw	t1,0(a4)
	.loc 1 199 2755
	lw	t1,4(sp)
	.loc 1 199 2774
	li	t4,524288
	addi	t4,t4,304
	.loc 1 199 2755
	sw	zero,-1248(t1)
	.loc 1 199 2758 is_stmt 1
	.loc 1 199 2774 is_stmt 0
	sw	t4,0(s9)
	.loc 1 199 2885 is_stmt 1
	.loc 1 199 2902 is_stmt 0
	lw	t1,56(sp)
	li	t2,512
	.loc 1 199 3038
	li	t4,1032192
	.loc 1 199 2902
	sw	t2,0(t1)
	.loc 1 199 3021 is_stmt 1
	.loc 1 199 3038 is_stmt 0
	addi	t4,t4,1119
	sw	t4,0(s1)
.LBE113:
.LBB114:
	.loc 1 199 3070 is_stmt 1
.LVL127:
	.loc 1 199 3253
	.loc 1 199 3269 is_stmt 0
	lw	t2,8(sp)
	li	t4,64
	sw	t4,0(t2)
	.loc 1 199 3336 is_stmt 1
	.loc 1 199 3352 is_stmt 0
	sw	a3,0(s10)
	.loc 1 199 3358 is_stmt 1
	.loc 1 199 3375 is_stmt 0
	li	t4,511
	sw	t4,0(a4)
	.loc 1 199 3467 is_stmt 1
	.loc 1 199 3484 is_stmt 0
	lw	t4,4(sp)
	sw	zero,-1248(t4)
	.loc 1 199 3551 is_stmt 1
	.loc 1 199 3568 is_stmt 0
	li	t4,16
	sw	t4,0(t6)
	.loc 1 199 3615 is_stmt 1
	.loc 1 199 3632 is_stmt 0
	sw	s0,0(t3)
	.loc 1 199 3638 is_stmt 1
	.loc 1 199 3655 is_stmt 0
	li	t4,63
	sw	t4,0(a7)
	.loc 1 199 3726 is_stmt 1
	.loc 1 199 3743 is_stmt 0
	sw	zero,-1120(s7)
	.loc 1 199 3790 is_stmt 1
	.loc 1 199 3807 is_stmt 0
	li	t4,4
	sw	t4,0(t0)
	.loc 1 199 3836 is_stmt 1
	.loc 1 199 3853 is_stmt 0
	sw	s0,-1888(s6)
	.loc 1 199 3859 is_stmt 1
	.loc 1 199 3876 is_stmt 0
	li	t4,15
	sw	t4,0(s8)
	.loc 1 199 3927 is_stmt 1
	.loc 1 199 3944 is_stmt 0
	sw	zero,-992(s5)
	.loc 1 199 3973 is_stmt 1
	.loc 1 199 3989 is_stmt 0
	li	t4,1
	sw	t4,0(t5)
	.loc 1 199 4000 is_stmt 1
	.loc 1 199 4016 is_stmt 0
	sw	s0,672(s4)
	.loc 1 199 4022 is_stmt 1
	.loc 1 199 4039 is_stmt 0
	sw	s0,1568(s3)
	.loc 1 199 4068 is_stmt 1
	.loc 1 199 4085 is_stmt 0
	sw	zero,-864(s2)
	.loc 1 199 4094 is_stmt 1
.LVL128:
	.loc 1 199 0
	li	t4,1036288
	sw	zero,0(s9)
	.loc 1 199 0
	.loc 1 199 0
	addi	t4,t4,-1955
	sw	t4,0(s1)
.LBE114:
	.loc 1 199 0
	.loc 1 199 0
	sw	ra,56(sp)
	sw	ra,0(a2)
.LBB115:
	.loc 1 205 3
.LVL129:
	.loc 1 205 42
	.loc 1 205 58 is_stmt 0
	sw	t2,8(sp)
	sw	a0,0(t2)
	.loc 1 205 70 is_stmt 1
	.loc 1 205 86 is_stmt 0
	li	t2,2
	sw	t2,0(s10)
	.loc 1 205 92 is_stmt 1
	.loc 1 205 109 is_stmt 0
	sw	s11,12(sp)
	sw	s11,0(a4)
	.loc 1 205 137 is_stmt 1
	.loc 1 205 154 is_stmt 0
	lw	t4,4(sp)
	.loc 1 205 245
	li	s11,48
	.loc 1 205 154
	sw	zero,-1248(t4)
	.loc 1 205 166 is_stmt 1
	.loc 1 205 183 is_stmt 0
	sw	a6,0(t3)
	.loc 1 205 228 is_stmt 1
	.loc 1 205 245 is_stmt 0
	sw	s11,0(t6)
	.loc 1 205 291 is_stmt 1
	.loc 1 205 308 is_stmt 0
	sw	a5,0(a7)
	.loc 1 205 313 is_stmt 1
	.loc 1 205 330 is_stmt 0
	sw	zero,-1120(s7)
	.loc 1 205 333 is_stmt 1
	.loc 1 205 350 is_stmt 0
	sw	zero,-1888(s6)
	.loc 1 205 407 is_stmt 1
	.loc 1 205 424 is_stmt 0
	sw	a1,0(t0)
	.loc 1 205 450 is_stmt 1
	.loc 1 205 467 is_stmt 0
	sw	a5,0(s8)
	.loc 1 205 472 is_stmt 1
	.loc 1 205 489 is_stmt 0
	sw	zero,-992(s5)
	.loc 1 205 492 is_stmt 1
	.loc 1 205 508 is_stmt 0
	sw	a3,672(s4)
	.loc 1 205 548 is_stmt 1
	.loc 1 205 564 is_stmt 0
	li	t4,1
	sw	t4,0(t5)
	.loc 1 205 575 is_stmt 1
	.loc 1 205 592 is_stmt 0
	sw	a5,1568(s3)
	.loc 1 205 597 is_stmt 1
	.loc 1 205 633 is_stmt 0
	li	t4,524288
	.loc 1 205 946
	li	s11,1032192
	.loc 1 205 614
	sw	zero,-864(s2)
	.loc 1 205 617 is_stmt 1
	.loc 1 205 633 is_stmt 0
	addi	t4,t4,56
	.loc 1 205 946
	addi	s11,s11,127
	.loc 1 205 633
	sw	t4,0(s9)
	.loc 1 205 763 is_stmt 1
	.loc 1 205 946 is_stmt 0
	mv	ra,s11
	.loc 1 205 780
	li	s11,144
	sw	s11,0(t1)
	.loc 1 205 929 is_stmt 1
	.loc 1 205 946 is_stmt 0
	sw	ra,68(sp)
	sw	ra,0(s1)
.LBE115:
.LBB116:
	.loc 1 205 979 is_stmt 1
.LVL130:
	.loc 1 205 1024
	.loc 1 205 1040 is_stmt 0
	lw	ra,8(sp)
	sw	a0,0(ra)
	.loc 1 205 1052 is_stmt 1
	.loc 1 205 1091 is_stmt 0
	li	ra,12288
	.loc 1 205 1068
	sw	t2,0(s10)
	.loc 1 205 1074 is_stmt 1
	.loc 1 205 1091 is_stmt 0
	addi	s11,ra,-1
	sw	s11,0(a4)
	.loc 1 205 1119 is_stmt 1
	.loc 1 205 1136 is_stmt 0
	lw	t4,4(sp)
	.loc 1 205 1726
	li	ra,1032192
	.loc 1 205 1136
	sw	a0,-1248(t4)
	.loc 1 205 1148 is_stmt 1
	.loc 1 205 1165 is_stmt 0
	sw	a6,0(t3)
	.loc 1 205 1210 is_stmt 1
	.loc 1 205 1227 is_stmt 0
	li	t4,48
	sw	t4,0(t6)
	.loc 1 205 1273 is_stmt 1
	.loc 1 205 1290 is_stmt 0
	sw	a5,0(a7)
	.loc 1 205 1295 is_stmt 1
	.loc 1 205 1312 is_stmt 0
	sw	zero,-1120(s7)
	.loc 1 205 1315 is_stmt 1
	.loc 1 205 1332 is_stmt 0
	sw	zero,-1888(s6)
	.loc 1 205 1365 is_stmt 1
	.loc 1 205 1382 is_stmt 0
	sw	a1,0(t0)
	.loc 1 205 1408 is_stmt 1
	.loc 1 205 1425 is_stmt 0
	sw	a5,0(s8)
	.loc 1 205 1430 is_stmt 1
	.loc 1 205 1447 is_stmt 0
	sw	zero,-992(s5)
	.loc 1 205 1450 is_stmt 1
	.loc 1 205 1466 is_stmt 0
	sw	a3,672(s4)
	.loc 1 205 1506 is_stmt 1
	.loc 1 205 1522 is_stmt 0
	li	t4,1
	sw	t4,0(t5)
	.loc 1 205 1533 is_stmt 1
	.loc 1 205 1591 is_stmt 0
	li	t4,528384
	.loc 1 205 1550
	sw	a5,1568(s3)
	.loc 1 205 1555 is_stmt 1
	.loc 1 205 1591 is_stmt 0
	addi	t4,t4,24
	.loc 1 205 1572
	sw	zero,-864(s2)
	.loc 1 205 1575 is_stmt 1
	.loc 1 205 1591 is_stmt 0
	sw	t4,0(s9)
	.loc 1 205 1709 is_stmt 1
	.loc 1 205 1726 is_stmt 0
	addi	t4,ra,125
	mv	ra,t4
	sw	ra,72(sp)
.LBE116:
	.loc 1 205 1775
	li	t4,393216
.LBB117:
	.loc 1 205 1726
	sw	ra,0(s1)
.LBE117:
	.loc 1 205 1758 is_stmt 1
	.loc 1 205 1759
	.loc 1 205 1775 is_stmt 0
	addi	t4,t4,9
	sw	t4,0(a2)
.LBB118:
	.loc 1 209 3 is_stmt 1
.LVL131:
	.loc 1 209 48
	.loc 1 209 64 is_stmt 0
	lw	ra,8(sp)
	sw	a0,0(ra)
	.loc 1 209 76 is_stmt 1
	.loc 1 209 92 is_stmt 0
	sw	t2,0(s10)
	.loc 1 209 98 is_stmt 1
	.loc 1 209 115 is_stmt 0
	sw	s11,0(a4)
	.loc 1 209 143 is_stmt 1
	.loc 1 209 160 is_stmt 0
	lw	s11,4(sp)
	.loc 1 209 542
	li	ra,1
	.loc 1 209 160
	sw	a0,-1248(s11)
	.loc 1 209 172 is_stmt 1
	.loc 1 209 189 is_stmt 0
	sw	a6,0(t3)
	.loc 1 209 234 is_stmt 1
	.loc 1 209 251 is_stmt 0
	li	s11,48
	sw	s11,0(t6)
	.loc 1 209 297 is_stmt 1
	.loc 1 209 314 is_stmt 0
	sw	a5,0(a7)
	.loc 1 209 319 is_stmt 1
	.loc 1 209 336 is_stmt 0
	sw	zero,-1120(s7)
	.loc 1 209 339 is_stmt 1
	.loc 1 209 356 is_stmt 0
	sw	zero,-1888(s6)
	.loc 1 209 385 is_stmt 1
	.loc 1 209 402 is_stmt 0
	sw	a1,0(t0)
	.loc 1 209 428 is_stmt 1
	.loc 1 209 445 is_stmt 0
	sw	a5,0(s8)
	.loc 1 209 450 is_stmt 1
	.loc 1 209 467 is_stmt 0
	sw	zero,-992(s5)
	.loc 1 209 470 is_stmt 1
	.loc 1 209 486 is_stmt 0
	sw	a3,672(s4)
	.loc 1 209 526 is_stmt 1
	.loc 1 209 542 is_stmt 0
	sw	ra,0(t5)
	.loc 1 209 553 is_stmt 1
	.loc 1 209 570 is_stmt 0
	sw	a5,1568(s3)
	.loc 1 209 575 is_stmt 1
	.loc 1 209 611 is_stmt 0
	li	ra,528384
	.loc 1 209 592
	sw	zero,-864(s2)
	.loc 1 209 595 is_stmt 1
	.loc 1 209 611 is_stmt 0
	addi	ra,ra,16
	sw	ra,0(s9)
	.loc 1 209 727 is_stmt 1
	.loc 1 209 744 is_stmt 0
	li	s11,144
	sw	s11,0(t1)
	.loc 1 209 865 is_stmt 1
	.loc 1 209 882 is_stmt 0
	lw	s11,68(sp)
	sw	s11,0(s1)
.LBE118:
.LBB119:
	.loc 1 209 915 is_stmt 1
.LVL132:
	.loc 1 209 954
	.loc 1 209 982
	.loc 1 209 1004
	.loc 1 209 970 is_stmt 0
	lw	ra,8(sp)
	.loc 1 209 1539
	li	s11,524288
	addi	s11,s11,48
	.loc 1 209 970
	sw	a0,0(ra)
	.loc 1 209 998
	sw	t2,0(s10)
	.loc 1 209 1021
	lw	t2,12(sp)
	sw	t2,0(a4)
	sw	a4,92(sp)
	.loc 1 209 1049 is_stmt 1
	.loc 1 209 1066 is_stmt 0
	lw	ra,4(sp)
	.loc 1 209 1157
	li	a4,48
	.loc 1 209 1066
	sw	zero,-1248(ra)
	.loc 1 209 1078 is_stmt 1
	.loc 1 209 1095 is_stmt 0
	sw	a6,0(t3)
	.loc 1 209 1140 is_stmt 1
	.loc 1 209 1157 is_stmt 0
	sw	a4,0(t6)
	.loc 1 209 1203 is_stmt 1
	.loc 1 209 1220 is_stmt 0
	sw	a5,0(a7)
	.loc 1 209 1225 is_stmt 1
	.loc 1 209 1242 is_stmt 0
	sw	zero,-1120(s7)
	.loc 1 209 1245 is_stmt 1
	.loc 1 209 1262 is_stmt 0
	sw	zero,-1888(s6)
	.loc 1 209 1313 is_stmt 1
	.loc 1 209 1330 is_stmt 0
	sw	a1,0(t0)
	.loc 1 209 1356 is_stmt 1
	.loc 1 209 1373 is_stmt 0
	sw	a5,0(s8)
	.loc 1 209 1378 is_stmt 1
	.loc 1 209 1395 is_stmt 0
	sw	zero,-992(s5)
	.loc 1 209 1398 is_stmt 1
	.loc 1 209 1454
	.loc 1 209 1414 is_stmt 0
	sw	a3,672(s4)
	.loc 1 209 1470
	li	a3,1
	sw	a3,0(t5)
	.loc 1 209 1481 is_stmt 1
	.loc 1 209 1498 is_stmt 0
	sw	a5,1568(s3)
	.loc 1 209 1503 is_stmt 1
	.loc 1 209 1520 is_stmt 0
	sw	zero,-864(s2)
	.loc 1 209 1523 is_stmt 1
	.loc 1 209 1539 is_stmt 0
	sw	s11,0(s9)
	.loc 1 209 1665 is_stmt 1
	.loc 1 209 1682 is_stmt 0
	lw	s11,72(sp)
.LBE119:
	.loc 1 211 18
	li	a3,88
.LBB120:
	.loc 1 209 1682
	sw	s11,0(s1)
.LBE120:
	.loc 1 209 1714 is_stmt 1
	.loc 1 209 1715
	.loc 1 209 1731 is_stmt 0
	sw	t4,0(a2)
	.loc 1 211 1 is_stmt 1
	.loc 1 211 2
	.loc 1 211 18 is_stmt 0
	sw	a3,0(a2)
	.loc 1 213 10 is_stmt 1
.LBB121:
	.loc 1 214 3
.LVL133:
	.loc 1 214 38
	.loc 1 214 55 is_stmt 0
	sw	a0,0(t6)
	sw	t6,88(sp)
	.loc 1 214 67 is_stmt 1
	.loc 1 214 84 is_stmt 0
	sw	zero,0(t3)
	.loc 1 214 107
	sw	t2,12(sp)
	.loc 1 214 84
	sw	t3,84(sp)
	.loc 1 214 90 is_stmt 1
	.loc 1 214 107 is_stmt 0
	sw	t2,0(a7)
	sw	a7,80(sp)
	.loc 1 214 135 is_stmt 1
	.loc 1 214 152 is_stmt 0
	sw	zero,-1120(s7)
	.loc 1 214 164 is_stmt 1
	.loc 1 214 181 is_stmt 0
	sw	zero,-1888(s6)
	.loc 1 214 210 is_stmt 1
	.loc 1 214 227 is_stmt 0
	li	a3,48
	sw	a3,0(t0)
	sw	t0,76(sp)
	.loc 1 214 273 is_stmt 1
	.loc 1 214 290 is_stmt 0
	sw	a5,0(s8)
	.loc 1 214 295 is_stmt 1
	.loc 1 214 312 is_stmt 0
	sw	zero,-992(s5)
	.loc 1 214 315 is_stmt 1
	.loc 1 214 331 is_stmt 0
	sw	a6,672(s4)
	.loc 1 214 376 is_stmt 1
	.loc 1 214 392 is_stmt 0
	sw	a1,0(t5)
	sw	t5,72(sp)
	.loc 1 214 418 is_stmt 1
	.loc 1 214 435 is_stmt 0
	sw	a5,1568(s3)
	.loc 1 214 440 is_stmt 1
	.loc 1 214 457 is_stmt 0
	sw	zero,-864(s2)
	.loc 1 214 460 is_stmt 1
	.loc 1 214 476 is_stmt 0
	lw	t6,60(sp)
	.loc 1 214 609
	li	a6,6
	.loc 1 214 712
	li	a5,524288
	.loc 1 214 476
	sw	t6,0(s9)
	.loc 1 214 592 is_stmt 1
	.loc 1 214 609 is_stmt 0
	sw	a6,0(t1)
	.loc 1 214 695 is_stmt 1
	.loc 1 214 712 is_stmt 0
	addi	a5,a5,127
	sw	a5,0(s1)
.LBE121:
	.loc 1 214 802 is_stmt 1
	.loc 1 214 803
	.loc 1 214 820 is_stmt 0
	li	a6,-2147479552
	sw	zero,-480(a6)
	.loc 1 214 825 is_stmt 1
	.loc 1 214 842 is_stmt 0
	lw	t3,36(sp)
	.loc 1 214 891
	li	a5,393216
	addi	a5,a5,1
	.loc 1 214 842
	sw	t3,0(s1)
	.loc 1 214 874 is_stmt 1
	.loc 1 214 875
	.loc 1 217 18 is_stmt 0
	li	t4,1015832576
	.loc 1 214 891
	sw	a5,0(a2)
	.loc 1 217 1 is_stmt 1
	.loc 1 217 2
	.loc 1 217 18 is_stmt 0
	addi	t4,t4,-2044
	sw	t4,0(a2)
	sw	a2,68(sp)
	.loc 1 219 10 is_stmt 1
	li	a5,-2147483648
	sw	zero,36(a5)
	.loc 1 219 10
.LBB122:
	.loc 1 196 471 is_stmt 0
	addi	a5,ra,-1248
.LBE122:
.LBB123:
	.loc 1 214 609
	mv	s11,t1
.LBE123:
.LBB124:
	.loc 1 196 471
	sw	a5,4(sp)
.LBE124:
	.loc 1 219 10
	call	_taskYield
.LVL134:
	.loc 1 219 24 is_stmt 1 discriminator 1
.LBB125:
	.loc 1 223 3
	.loc 1 223 186
	.loc 1 223 202 is_stmt 0
	lw	t2,8(sp)
	li	a3,64
	.loc 1 223 308
	li	a7,511
	.loc 1 223 202
	sw	a3,0(t2)
	.loc 1 223 269 is_stmt 1
	.loc 1 223 285 is_stmt 0
	li	a3,7
	sw	a3,0(s10)
	.loc 1 223 291 is_stmt 1
	.loc 1 223 308 is_stmt 0
	lw	a4,92(sp)
	.loc 1 223 501
	li	a1,16
	.loc 1 223 588
	li	t5,63
	.loc 1 223 308
	sw	a7,0(a4)
	.loc 1 223 400 is_stmt 1
	.loc 1 223 417 is_stmt 0
	lw	a5,4(sp)
	.loc 1 223 740
	li	a2,4
	.loc 1 223 809
	li	a6,15
	.loc 1 223 417
	sw	zero,0(a5)
	.loc 1 223 484 is_stmt 1
	.loc 1 223 501 is_stmt 0
	lw	t6,88(sp)
	.loc 1 223 922
	li	a5,1
	.loc 1 223 1249
	li	a0,512
	.loc 1 223 501
	sw	a1,0(t6)
	.loc 1 223 548 is_stmt 1
	.loc 1 223 565 is_stmt 0
	lw	t3,84(sp)
.LBE125:
.LBB126:
	.loc 1 223 1637
	li	t1,127
.LBE126:
.LBB127:
	.loc 1 223 1249
	mv	t4,s11
	.loc 1 223 565
	sw	s0,0(t3)
	.loc 1 223 571 is_stmt 1
	.loc 1 223 588 is_stmt 0
	lw	a7,80(sp)
	sw	t5,0(a7)
	.loc 1 223 659 is_stmt 1
	.loc 1 223 676 is_stmt 0
	sw	zero,-1120(s7)
	.loc 1 223 723 is_stmt 1
	.loc 1 223 740 is_stmt 0
	lw	t0,76(sp)
	sw	a2,0(t0)
	.loc 1 223 769 is_stmt 1
	.loc 1 223 786 is_stmt 0
	sw	s0,-1888(s6)
	.loc 1 223 792 is_stmt 1
	.loc 1 223 809 is_stmt 0
	sw	a6,0(s8)
	.loc 1 223 860 is_stmt 1
	.loc 1 223 877 is_stmt 0
	sw	zero,-992(s5)
	.loc 1 223 906 is_stmt 1
	.loc 1 223 922 is_stmt 0
	lw	t5,72(sp)
	sw	a5,0(t5)
	.loc 1 223 933 is_stmt 1
	.loc 1 223 949 is_stmt 0
	sw	s0,672(s4)
	.loc 1 223 955 is_stmt 1
	.loc 1 223 972 is_stmt 0
	sw	s0,1568(s3)
	.loc 1 223 1001 is_stmt 1
	.loc 1 223 1018 is_stmt 0
	sw	zero,-864(s2)
	.loc 1 223 1027 is_stmt 1
.LVL135:
	.loc 1 223 1186
	.loc 1 223 1202 is_stmt 0
	sw	zero,0(s9)
	.loc 1 223 1231 is_stmt 1
	.loc 1 223 1232
	.loc 1 223 1249 is_stmt 0
	sw	a0,0(s11)
	.loc 1 223 1288 is_stmt 1
	.loc 1 223 1305 is_stmt 0
	lw	a2,64(sp)
.LBE127:
.LBB128:
	.loc 1 223 1400
	li	a0,4096
	.loc 1 223 1731
	li	a5,8
.LBE128:
.LBB129:
	.loc 1 223 1305
	sw	a2,0(s1)
.LBE129:
.LBB130:
	.loc 1 223 1338 is_stmt 1
.LVL136:
	.loc 1 223 1383
	.loc 1 223 1400 is_stmt 0
	sw	a0,0(t0)
	.loc 1 223 1412 is_stmt 1
	.loc 1 223 1429 is_stmt 0
	sw	s0,-1888(s6)
	.loc 1 223 1435 is_stmt 1
	.loc 1 223 1452 is_stmt 0
	lw	a2,12(sp)
	.loc 1 223 2066
	li	a0,1032192
	addi	a0,a0,1149
	.loc 1 223 1452
	sw	a2,0(s8)
	.loc 1 223 1480 is_stmt 1
	.loc 1 223 1497 is_stmt 0
	sw	zero,-992(s5)
	.loc 1 223 1509 is_stmt 1
	.loc 1 223 1580 is_stmt 0
	li	a2,32
	.loc 1 223 1526
	sw	s0,0(t3)
	.loc 1 223 1563 is_stmt 1
	.loc 1 223 1580 is_stmt 0
	sw	a2,0(t6)
	.loc 1 223 1620 is_stmt 1
	.loc 1 223 1637 is_stmt 0
	sw	t1,0(a7)
	.loc 1 223 1642 is_stmt 1
	.loc 1 223 1659 is_stmt 0
	sw	zero,-1120(s7)
	.loc 1 223 1662 is_stmt 1
	.loc 1 223 1678 is_stmt 0
	sw	s0,672(s4)
	.loc 1 223 1715 is_stmt 1
	.loc 1 223 1731 is_stmt 0
	sw	a5,0(t5)
	.loc 1 223 1757 is_stmt 1
	.loc 1 223 1774 is_stmt 0
	sw	t1,1568(s3)
	.loc 1 223 1779 is_stmt 1
	.loc 1 223 1796 is_stmt 0
	sw	zero,-864(s2)
	.loc 1 223 1799 is_stmt 1
	.loc 1 223 1815 is_stmt 0
	sw	a3,0(s10)
	.loc 1 223 1853 is_stmt 1
	.loc 1 223 1869 is_stmt 0
	sw	t2,8(sp)
	li	a5,1
	sw	a5,0(t2)
	.loc 1 223 1880 is_stmt 1
	.loc 1 223 1897 is_stmt 0
	sw	t1,0(a4)
	.loc 1 223 1902 is_stmt 1
	.loc 1 223 1919 is_stmt 0
	lw	a2,4(sp)
	.loc 1 223 1938
	li	a5,524288
	addi	a5,a5,432
	.loc 1 223 1919
	sw	zero,0(a2)
	.loc 1 223 1922 is_stmt 1
	.loc 1 223 1938 is_stmt 0
	sw	a5,0(s9)
	.loc 1 223 2049 is_stmt 1
	.loc 1 223 2066 is_stmt 0
	sw	a0,0(s1)
.LBE130:
	.loc 1 223 2098 is_stmt 1
	.loc 1 223 2099
	.loc 1 223 2115 is_stmt 0
	lw	a0,56(sp)
	lw	a2,68(sp)
.LBB131:
	.loc 1 223 2375
	li	a5,31
.LBE131:
	.loc 1 223 2115
	sw	a0,0(a2)
.LBB132:
	.loc 1 223 2205 is_stmt 1
.LVL137:
	.loc 1 223 2328
	.loc 1 223 2345 is_stmt 0
	lw	t2,28(sp)
	.loc 1 223 2698
	li	a0,1036288
	addi	a0,a0,127
	.loc 1 223 2345
	sw	t2,0(t0)
	.loc 1 223 2358 is_stmt 1
	.loc 1 223 2375 is_stmt 0
	sw	a5,-1888(s6)
	.loc 1 223 2381 is_stmt 1
	.loc 1 223 2398 is_stmt 0
	lw	s11,100(sp)
	.loc 1 223 2465
	li	a5,1
	.loc 1 223 2398
	sw	s11,0(s8)
	.loc 1 223 2419 is_stmt 1
	.loc 1 223 2436 is_stmt 0
	sw	zero,-992(s5)
	.loc 1 223 2449 is_stmt 1
	.loc 1 223 2465 is_stmt 0
	sw	a5,0(t5)
	.loc 1 223 2476 is_stmt 1
	.loc 1 223 2492 is_stmt 0
	sw	a6,672(s4)
	.loc 1 223 2498 is_stmt 1
	.loc 1 223 2515 is_stmt 0
	lw	t1,48(sp)
	sw	t1,1568(s3)
	.loc 1 223 2528 is_stmt 1
	.loc 1 223 2545 is_stmt 0
	lw	t2,52(sp)
	sw	t2,-864(s2)
	.loc 1 223 2554 is_stmt 1
.LVL138:
	.loc 1 223 2585
	.loc 1 223 2621 is_stmt 0
	lw	t2,40(sp)
	lw	a5,12(t2)
	.loc 1 223 2606
	lw	t1,16(sp)
	.loc 1 223 2656
	li	t2,512
	.loc 1 223 2621
	srli	a5,a5,1
	.loc 1 223 2606
	add	a5,a5,t1
	.loc 1 223 2601
	sw	a5,0(s9)
	.loc 1 223 2638 is_stmt 1
	.loc 1 223 2639
	.loc 1 223 2656 is_stmt 0
	sw	t2,0(t4)
	.loc 1 223 2681 is_stmt 1
	.loc 1 223 2698 is_stmt 0
	sw	a0,0(s1)
.LBE132:
.LBB133:
	.loc 1 223 2731 is_stmt 1
.LVL139:
	.loc 1 223 2914
	.loc 1 223 2930 is_stmt 0
	lw	t2,8(sp)
	li	t4,64
	sw	t4,0(t2)
	.loc 1 223 2997 is_stmt 1
	.loc 1 223 3013 is_stmt 0
	sw	a3,0(s10)
	.loc 1 223 3019 is_stmt 1
	.loc 1 223 3036 is_stmt 0
	li	a3,511
	sw	a3,0(a4)
	.loc 1 223 3128 is_stmt 1
	.loc 1 223 3145 is_stmt 0
	lw	a5,4(sp)
	.loc 1 223 3316
	li	a4,63
	.loc 1 223 3145
	sw	zero,0(a5)
	.loc 1 223 3212 is_stmt 1
	.loc 1 223 3229 is_stmt 0
	sw	a1,0(t6)
	.loc 1 223 3276 is_stmt 1
	.loc 1 223 3293 is_stmt 0
	sw	s0,0(t3)
	.loc 1 223 3299 is_stmt 1
	.loc 1 223 3316 is_stmt 0
	sw	a4,0(a7)
	.loc 1 223 3387 is_stmt 1
	.loc 1 223 3404 is_stmt 0
	sw	zero,-1120(s7)
	.loc 1 223 3451 is_stmt 1
	.loc 1 223 3468 is_stmt 0
	li	a5,4
	sw	a5,0(t0)
	.loc 1 223 3497 is_stmt 1
	.loc 1 223 3514 is_stmt 0
	sw	s0,-1888(s6)
	.loc 1 223 3520 is_stmt 1
	.loc 1 223 3537 is_stmt 0
	sw	a6,0(s8)
	.loc 1 223 3588 is_stmt 1
	.loc 1 223 3605 is_stmt 0
	sw	zero,-992(s5)
	.loc 1 223 3634 is_stmt 1
	.loc 1 223 3650 is_stmt 0
	li	a5,1
	sw	a5,0(t5)
	.loc 1 223 3661 is_stmt 1
	.loc 1 223 3677 is_stmt 0
	sw	s0,672(s4)
	.loc 1 223 3683 is_stmt 1
	.loc 1 223 3700 is_stmt 0
	sw	s0,1568(s3)
	.loc 1 223 3729 is_stmt 1
	.loc 1 223 3746 is_stmt 0
	sw	zero,-864(s2)
	.loc 1 223 3755 is_stmt 1
.LVL140:
	.loc 1 223 3914
	.loc 1 223 3930 is_stmt 0
	sw	zero,0(s9)
	.loc 1 223 3959 is_stmt 1
	.loc 1 223 3960
	.loc 1 223 3977 is_stmt 0
	lw	t3,36(sp)
.LBE133:
	.loc 1 182 17 discriminator 1
	addi	a4,t1,15
.LBB134:
	.loc 1 223 3977
	sw	t3,0(s1)
.LBE134:
	.loc 1 223 4009 is_stmt 1
	.loc 1 223 4010
	.loc 1 223 4026 is_stmt 0
	lw	a0,56(sp)
	sw	a0,0(a2)
	.loc 1 182 26 is_stmt 1 discriminator 2
	.loc 1 182 17 discriminator 1
	lw	a5,20(sp)
	sw	a4,16(sp)
	lw	a4,120(sp)
	addi	a5,a5,1
	sw	a5,20(sp)
	ble	a4,a5,.L47
.LVL141:
.L33:
	.loc 1 183 10
	.loc 1 186 10
	.loc 1 186 12 is_stmt 0
	lw	a5,20(sp)
	bne	a5,zero,.L48
.LBB135:
	.loc 1 191 3 is_stmt 1
.LVL142:
	.loc 1 191 38
	.loc 1 191 54 is_stmt 0
	lw	a4,8(sp)
	li	a5,4096
	.loc 1 191 105
	li	t0,-2147483648
	.loc 1 191 54
	sw	a5,0(a4)
.LVL143:
	.loc 1 191 66 is_stmt 1
	.loc 1 191 82 is_stmt 0
	lw	a5,24(sp)
	.loc 1 191 150
	li	t6,-2147479552
	.loc 1 191 179
	li	a4,5
	.loc 1 191 82
	sw	zero,0(a5)
	.loc 1 191 88 is_stmt 1
	.loc 1 191 105 is_stmt 0
	lw	a5,12(sp)
	.loc 1 191 241
	li	t5,-2147483648
	.loc 1 191 304
	li	t4,-2147483648
	.loc 1 191 105
	sw	a5,1440(t0)
	.loc 1 191 133 is_stmt 1
	.loc 1 191 150 is_stmt 0
	sw	zero,-1248(t6)
	.loc 1 191 162 is_stmt 1
	.loc 1 191 179 is_stmt 0
	li	a5,-2147483648
	sw	a4,1824(a5)
	.loc 1 191 224 is_stmt 1
	.loc 1 191 241 is_stmt 0
	li	a4,48
	sw	a4,1696(t5)
	.loc 1 191 287 is_stmt 1
	.loc 1 191 304 is_stmt 0
	li	a5,287
	sw	a5,1952(t4)
	.loc 1 191 309 is_stmt 1
	.loc 1 191 326 is_stmt 0
	li	t3,-2147479552
	sw	zero,-1120(t3)
	.loc 1 191 329 is_stmt 1
	.loc 1 191 346 is_stmt 0
	li	t1,-2147479552
	sw	zero,-1888(t1)
	.loc 1 191 375 is_stmt 1
	.loc 1 191 392 is_stmt 0
	li	a3,-2147479552
	li	a2,8
	sw	a2,-2016(a3)
	.loc 1 191 418 is_stmt 1
	.loc 1 191 435 is_stmt 0
	sw	a5,0(s8)
	.loc 1 191 440 is_stmt 1
	.loc 1 191 457 is_stmt 0
	li	a7,-2147479552
	sw	zero,-992(a7)
	.loc 1 191 460 is_stmt 1
	.loc 1 191 476 is_stmt 0
	li	a2,-2147483648
	li	a0,7
	sw	a0,672(a2)
	.loc 1 191 516 is_stmt 1
	.loc 1 191 532 is_stmt 0
	li	a3,-2147483648
	li	a2,1
	sw	a2,1056(a3)
	.loc 1 191 543 is_stmt 1
	.loc 1 191 560 is_stmt 0
	li	a6,-2147483648
	sw	a5,1568(a6)
	.loc 1 191 565 is_stmt 1
	.loc 1 191 582 is_stmt 0
	li	a0,-2147479552
	sw	zero,-864(a0)
	.loc 1 191 585 is_stmt 1
	.loc 1 191 601 is_stmt 0
	lw	a5,60(sp)
	.loc 1 191 734
	li	a2,-2147479552
.LBE135:
	.loc 1 191 923
	li	a3,-2147479552
.LBB136:
	.loc 1 191 601
	sw	a5,0(s9)
	.loc 1 191 717 is_stmt 1
	.loc 1 191 872 is_stmt 0
	li	a5,1032192
	.loc 1 191 734
	sw	a4,-736(a2)
	.loc 1 191 855 is_stmt 1
	.loc 1 191 872 is_stmt 0
	addi	a5,a5,127
	sw	a5,0(s1)
.LBE136:
	.loc 1 191 905 is_stmt 1
	.loc 1 191 906
	.loc 1 191 923 is_stmt 0
	sw	zero,-480(a3)
	.loc 1 191 928 is_stmt 1
	.loc 1 191 945 is_stmt 0
	lw	a3,36(sp)
	.loc 1 191 994
	li	a4,393216
	li	a5,-2147483648
	.loc 1 191 945
	sw	a3,0(s1)
	.loc 1 191 977 is_stmt 1
	.loc 1 191 978
	.loc 1 191 994 is_stmt 0
	addi	a4,a4,1
	sw	a4,20(a5)
	j	.L39
.LVL144:
.L28:
	.cfi_restore 18
	.cfi_restore 21
	.cfi_restore 22
	.cfi_restore 23
	.cfi_restore 24
	.cfi_restore 25
	.cfi_restore 26
	.cfi_restore 27
	.loc 1 166 7 is_stmt 1
	.loc 1 166 9 is_stmt 0
	li	a5,32
	ble	s0,a5,.L27
	.loc 1 168 7 is_stmt 1
	.loc 1 168 11 is_stmt 0
	srai	s1,a4,6
.LVL145:
	.loc 1 169 7 is_stmt 1
.L29:
	.loc 1 173 18 is_stmt 0
	li	a1,1015828480
.LVL146:
	.loc 1 160 9
	srai	a5,a4,31
	.loc 1 173 18
	li	a2,-2147483648
	addi	a1,a1,4
	.loc 1 174 4
	li	a3,-2147483648
	.loc 1 173 18
	sw	a1,20(a2)
.LVL147:
	.loc 1 160 9
	andi	a5,a5,31
	add	a5,a5,a4
	.loc 1 174 4
	sw	zero,36(a3)
	.loc 1 160 9
	srai	s3,a5,5
.LVL148:
	.loc 1 173 1 is_stmt 1
	.loc 1 173 2
	.loc 1 174 4
	.loc 1 174 4
	call	_taskYield
.LVL149:
	.loc 1 174 18 discriminator 1
	.loc 1 176 4
	.loc 1 177 4
	.loc 1 176 18 is_stmt 0
	lw	a5,28(sp)
	.loc 1 177 13
	lw	a3,40(sp)
	.loc 1 176 18
	mul	a4,a5,s0
	.loc 1 177 13
	lw	a3,4(a3)
.LVL150:
	.loc 1 178 4 is_stmt 1
	.loc 1 178 20 is_stmt 0
	slli	a5,a5,1
	.loc 1 178 13
	sub	a3,a3,a5
.LVL151:
	.loc 1 179 4 is_stmt 1
	.loc 1 176 20 is_stmt 0
	slli	a4,a4,1
	.loc 1 179 16
	add	a4,a4,a5
.LVL152:
	.loc 1 181 4 is_stmt 1
	.loc 1 181 17 discriminator 1
	blt	s1,s3,.L30
.LVL153:
.L27:
	.loc 1 226 1 is_stmt 0
	lw	ra,204(sp)
	.cfi_restore 1
	lw	s0,200(sp)
	.cfi_restore 8
.LVL154:
	lw	s1,196(sp)
	.cfi_restore 9
	lw	s3,188(sp)
	.cfi_restore 19
	lw	s4,184(sp)
	.cfi_restore 20
	addi	sp,sp,208
	.cfi_def_cfa_offset 0
	jr	ra
.LVL155:
.L45:
	.cfi_def_cfa_offset 208
	.cfi_offset 1, -4
	.cfi_offset 8, -8
	.cfi_offset 9, -12
	.cfi_offset 18, -16
	.cfi_offset 19, -20
	.cfi_offset 20, -24
	.cfi_offset 21, -28
	.cfi_offset 22, -32
	.cfi_offset 23, -36
	.cfi_offset 24, -40
	.cfi_offset 25, -44
	.cfi_offset 26, -48
	.cfi_offset 27, -52
	lw	a5,16(sp)
	sw	a5,36(sp)
.LVL156:
.L40:
.LBB137:
	.loc 1 188 54
	li	a5,-2147483648
	lw	a3,28(sp)
	addi	t3,a5,800
	.loc 1 188 105
	li	a5,16384
	addi	a5,a5,-1
.LBE137:
	.loc 1 191 945
	li	a2,1036288
	sub	a3,s2,a3
.LBB138:
	.loc 1 188 435
	li	a7,-2147479552
	.loc 1 188 601
	li	t6,-2147483648
	.loc 1 188 872
	li	t0,-2147479552
.LBE138:
.LBB139:
	.loc 1 196 3044
	li	a1,524288
.LBE139:
.LBB140:
	.loc 1 188 105
	sw	a5,48(sp)
.LBE140:
	.loc 1 191 945
	addi	a5,a2,-1923
.LBB141:
	.loc 1 188 82
	li	a4,-2147483648
	sw	a3,16(sp)
	.loc 1 188 435
	addi	a7,a7,-1760
	addi	a3,s2,-1
	.loc 1 188 601
	addi	t6,t6,544
	.loc 1 188 872
	addi	t0,t0,-1632
.LBE141:
	.loc 1 191 945
	sw	a5,60(sp)
.LBB142:
	.loc 1 196 3044
	addi	a5,a1,24
	sw	a3,104(sp)
.LBE142:
	.loc 1 141 45
	sw	zero,20(sp)
.LBB143:
	.loc 1 188 82
	addi	a3,a4,928
.LBE143:
.LBB144:
	.loc 1 196 3044
	sw	a5,124(sp)
	sw	s2,128(sp)
	sw	s3,132(sp)
	sw	s1,136(sp)
	sw	s0,140(sp)
	sw	t3,4(sp)
	mv	s8,a7
	mv	s9,t6
	mv	s6,t0
	j	.L36
.LVL157:
.L34:
.LBE144:
.LBB145:
	.loc 1 188 3 is_stmt 1
	.loc 1 188 38
	.loc 1 188 54 is_stmt 0
	lw	t3,4(sp)
	li	a4,4096
	.loc 1 188 105
	li	t5,-2147483648
	.loc 1 188 54
	sw	a4,0(t3)
	.loc 1 188 66 is_stmt 1
	.loc 1 188 82 is_stmt 0
	sw	zero,0(a3)
	.loc 1 188 88 is_stmt 1
	.loc 1 188 105 is_stmt 0
	lw	a5,48(sp)
.LVL158:
	.loc 1 188 150
	li	t4,-2147479552
	.loc 1 188 179
	li	ra,-2147483648
	.loc 1 188 105
	sw	a5,1440(t5)
	.loc 1 188 133 is_stmt 1
	.loc 1 188 150 is_stmt 0
	sw	zero,-1248(t4)
	.loc 1 188 162 is_stmt 1
	.loc 1 188 179 is_stmt 0
	li	s7,5
	sw	s7,1824(ra)
	.loc 1 188 224 is_stmt 1
	.loc 1 188 241 is_stmt 0
	li	s1,48
	li	s10,-2147483648
	sw	s1,1696(s10)
	.loc 1 188 287 is_stmt 1
	.loc 1 188 304 is_stmt 0
	li	a5,287
	li	t1,-2147483648
	sw	a5,1952(t1)
	.loc 1 188 309 is_stmt 1
	.loc 1 188 326 is_stmt 0
	li	a7,-2147479552
	sw	zero,-1120(a7)
	.loc 1 188 329 is_stmt 1
	.loc 1 188 346 is_stmt 0
	li	a6,-2147479552
	sw	zero,-1888(a6)
	.loc 1 188 375 is_stmt 1
	.loc 1 188 392 is_stmt 0
	li	t2,-2147479552
	li	s5,8
	sw	s5,-2016(t2)
	.loc 1 188 418 is_stmt 1
	.loc 1 188 435 is_stmt 0
	sw	a5,0(s8)
	.loc 1 188 440 is_stmt 1
	.loc 1 188 457 is_stmt 0
	li	a0,-2147479552
	sw	zero,-992(a0)
	.loc 1 188 460 is_stmt 1
	.loc 1 188 476 is_stmt 0
	li	t0,-2147483648
	li	s4,7
	sw	s4,672(t0)
	.loc 1 188 516 is_stmt 1
	.loc 1 188 532 is_stmt 0
	li	t6,-2147483648
	li	s3,1
	sw	s3,1056(t6)
	.loc 1 188 543 is_stmt 1
	.loc 1 188 560 is_stmt 0
	li	a1,-2147483648
	sw	a5,1568(a1)
	.loc 1 188 565 is_stmt 1
	.loc 1 188 582 is_stmt 0
	li	a2,-2147479552
	.loc 1 188 601
	li	s2,524288
	.loc 1 188 582
	sw	zero,-864(a2)
	.loc 1 188 585 is_stmt 1
	.loc 1 188 601 is_stmt 0
	addi	s2,s2,16
	sw	s2,0(s9)
	.loc 1 188 717 is_stmt 1
	.loc 1 188 734 is_stmt 0
	li	s0,-2147479552
	.loc 1 188 872
	li	s2,1032192
	.loc 1 188 734
	sw	s1,-736(s0)
	.loc 1 188 855 is_stmt 1
	.loc 1 188 872 is_stmt 0
	addi	s2,s2,127
	sw	s2,0(s6)
.LBE145:
.LBB146:
	.loc 1 188 905 is_stmt 1
.LVL159:
	.loc 1 188 954
	.loc 1 188 970 is_stmt 0
	sw	a4,0(t3)
	.loc 1 188 982 is_stmt 1
	.loc 1 188 998 is_stmt 0
	sw	zero,0(a3)
	.loc 1 188 1004 is_stmt 1
	.loc 1 188 1021 is_stmt 0
	addi	a4,a4,-1
	sw	a4,1440(t5)
	.loc 1 188 1049 is_stmt 1
	.loc 1 188 1066 is_stmt 0
	li	a4,12288
	sw	a4,-1248(t4)
	.loc 1 188 1078 is_stmt 1
	.loc 1 188 1095 is_stmt 0
	sw	s7,1824(ra)
	.loc 1 188 1140 is_stmt 1
	.loc 1 188 1157 is_stmt 0
	sw	s1,1696(s10)
	.loc 1 188 1203 is_stmt 1
	.loc 1 188 1220 is_stmt 0
	sw	a5,1952(t1)
	.loc 1 188 1225 is_stmt 1
	.loc 1 188 1242 is_stmt 0
	sw	zero,-1120(a7)
	.loc 1 188 1245 is_stmt 1
	.loc 1 188 1262 is_stmt 0
	sw	zero,-1888(a6)
	.loc 1 188 1321 is_stmt 1
	.loc 1 188 1338 is_stmt 0
	sw	s5,-2016(t2)
	.loc 1 188 1364 is_stmt 1
	.loc 1 188 1381 is_stmt 0
	sw	a5,0(s8)
	.loc 1 188 1386 is_stmt 1
	.loc 1 188 1403 is_stmt 0
	sw	zero,-992(a0)
	.loc 1 188 1406 is_stmt 1
	.loc 1 188 1422 is_stmt 0
	sw	s4,672(t0)
	.loc 1 188 1462 is_stmt 1
	.loc 1 188 1478 is_stmt 0
	sw	s3,1056(t6)
	.loc 1 188 1489 is_stmt 1
	.loc 1 188 1506 is_stmt 0
	sw	a5,1568(a1)
	.loc 1 188 1511 is_stmt 1
	.loc 1 188 1547 is_stmt 0
	li	a4,536576
	.loc 1 188 1528
	sw	zero,-864(a2)
	.loc 1 188 1531 is_stmt 1
	.loc 1 188 1547 is_stmt 0
	addi	a4,a4,40
	.loc 1 188 1694
	li	t6,1032192
	.loc 1 188 1547
	sw	a4,0(s9)
	.loc 1 188 1677 is_stmt 1
	.loc 1 188 1694 is_stmt 0
	addi	t6,t6,125
.LBE146:
	.loc 1 188 1743
	li	a4,393216
	li	a5,-2147483648
.LBB147:
	.loc 1 188 1694
	sw	t6,0(s6)
.LBE147:
	.loc 1 188 1726 is_stmt 1
	.loc 1 188 1727
	.loc 1 188 1743 is_stmt 0
	addi	a4,a4,1
	sw	a4,20(a5)
.LVL160:
.L35:
	.loc 1 193 1 is_stmt 1
	.loc 1 193 2
	.loc 1 193 18 is_stmt 0
	li	a2,-2147483648
	li	a5,88
	sw	a5,20(a2)
.LBB148:
	.loc 1 196 3 is_stmt 1
.LVL161:
	.loc 1 196 204
	.loc 1 196 220 is_stmt 0
	lw	s10,4(sp)
	li	a4,96
	.loc 1 196 321
	li	a5,7
	.loc 1 196 220
	sw	a4,0(s10)
	.loc 1 196 305 is_stmt 1
	.loc 1 196 321 is_stmt 0
	sw	a5,0(a3)
	.loc 1 196 327 is_stmt 1
	.loc 1 196 344 is_stmt 0
	li	t2,-2147483648
	li	a1,767
	sw	a1,1440(t2)
	.loc 1 196 454 is_stmt 1
	.loc 1 196 471 is_stmt 0
	li	a4,-2147479552
	sw	a4,8(sp)
	sw	zero,-1248(a4)
	.loc 1 196 556 is_stmt 1
	.loc 1 196 573 is_stmt 0
	li	a7,-2147483648
	li	t1,16
	sw	t1,1696(a7)
	.loc 1 196 632 is_stmt 1
	.loc 1 196 649 is_stmt 0
	li	t0,-2147483648
	li	a6,5
	sw	a6,1824(t0)
	.loc 1 196 655 is_stmt 1
	.loc 1 196 672 is_stmt 0
	li	t6,-2147483648
	li	t4,95
	sw	t4,1952(t6)
	.loc 1 196 761 is_stmt 1
	.loc 1 196 778 is_stmt 0
	li	s7,-2147479552
	sw	zero,-1120(s7)
	.loc 1 196 837 is_stmt 1
	.loc 1 196 854 is_stmt 0
	li	t5,-2147479552
	li	ra,4
	.loc 1 196 912
	li	s0,3
	.loc 1 196 854
	sw	ra,-2016(t5)
	.loc 1 196 895 is_stmt 1
	.loc 1 196 912 is_stmt 0
	li	s5,-2147479552
	sw	s0,-1888(s5)
	.loc 1 196 918 is_stmt 1
	.loc 1 196 935 is_stmt 0
	li	a0,15
	sw	a0,0(s8)
	.loc 1 196 998 is_stmt 1
	.loc 1 196 1015 is_stmt 0
	li	s4,-2147479552
	sw	zero,-992(s4)
	.loc 1 196 1056 is_stmt 1
	.loc 1 196 1072 is_stmt 0
	li	a1,-2147483648
	li	a4,1
	sw	a4,1056(a1)
	.loc 1 196 1083 is_stmt 1
	.loc 1 196 1099 is_stmt 0
	li	s3,-2147483648
	.loc 1 196 1122
	li	s2,-2147483648
	.loc 1 196 1099
	sw	s0,672(s3)
	.loc 1 196 1105 is_stmt 1
	.loc 1 196 1180 is_stmt 0
	li	s1,-2147479552
	.loc 1 196 1122
	sw	s0,1568(s2)
	.loc 1 196 1163 is_stmt 1
	.loc 1 196 1180 is_stmt 0
	sw	zero,-864(s1)
	.loc 1 196 1189 is_stmt 1
.LVL162:
	.loc 1 196 1390
	.loc 1 196 1453 is_stmt 0
	li	t3,-2147479552
	.loc 1 196 1406
	sw	zero,0(s9)
	.loc 1 196 1435 is_stmt 1
	.loc 1 196 1436
	.loc 1 196 1453 is_stmt 0
	addi	ra,t3,-736
	sw	ra,12(sp)
	li	t3,768
	.loc 1 196 1509
	li	s11,1036288
	.loc 1 196 1453
	sw	t3,0(ra)
	.loc 1 196 1492 is_stmt 1
	.loc 1 196 1509 is_stmt 0
	addi	s11,s11,-1921
	sw	s11,64(sp)
	sw	s11,0(s6)
.LBE148:
.LBB149:
	.loc 1 196 1542 is_stmt 1
.LVL163:
	.loc 1 196 1722
	.loc 1 196 1739 is_stmt 0
	lw	a4,44(sp)
.LBE149:
.LBB150:
	.loc 1 196 344
	addi	t2,t2,1440
	.loc 1 196 649
	addi	t0,t0,1824
.LBE150:
.LBB151:
	.loc 1 196 1739
	sw	a4,1696(a7)
.LVL164:
	.loc 1 196 1766 is_stmt 1
	.loc 1 196 1783 is_stmt 0
	sw	a5,0(t0)
	.loc 1 196 1789 is_stmt 1
	.loc 1 196 1806 is_stmt 0
	lw	a4,32(sp)
.LBE151:
.LBB152:
	.loc 1 196 573
	addi	a7,a7,1696
	.loc 1 196 672
	addi	t6,t6,1952
.LBE152:
.LBB153:
	.loc 1 196 1806
	sw	a4,0(t6)
	.loc 1 196 1842 is_stmt 1
	.loc 1 196 1859 is_stmt 0
	lw	s11,36(sp)
.LBE153:
.LBB154:
	.loc 1 196 854
	addi	t5,t5,-2016
	.loc 1 196 1072
	addi	a1,a1,1056
.LBE154:
.LBB155:
	.loc 1 196 1859
	sw	s11,-1120(s7)
	.loc 1 196 1886 is_stmt 1
	.loc 1 196 1903 is_stmt 0
	lw	a4,28(sp)
.LBE155:
	.loc 1 193 18
	addi	a2,a2,20
.LBB156:
	.loc 1 196 1903
	sw	a4,0(t5)
	.loc 1 196 1916 is_stmt 1
	.loc 1 196 1956 is_stmt 0
	li	a4,67108864
	.loc 1 196 1933
	sw	a6,-1888(s5)
	.loc 1 196 1939 is_stmt 1
	.loc 1 196 1956 is_stmt 0
	addi	a4,a4,-1
	sw	a4,0(s8)
	.loc 1 196 1968 is_stmt 1
	.loc 1 196 1985 is_stmt 0
	sw	zero,-992(s4)
	.loc 1 196 1998 is_stmt 1
	.loc 1 196 2014 is_stmt 0
	li	a4,1
	sw	a4,0(a1)
	.loc 1 196 2025 is_stmt 1
	.loc 1 196 2041 is_stmt 0
	sw	a0,672(s3)
	.loc 1 196 2047 is_stmt 1
	lw	t1,16(sp)
	lw	a0,104(sp)
	sub	t3,a0,t1
	.loc 1 196 2064 is_stmt 0
	sw	t3,52(sp)
	lw	a0,20(sp)
	sw	t3,1568(s2)
	.loc 1 196 2077 is_stmt 1
	lw	t3,108(sp)
	slli	a4,a0,4
	sub	a4,a4,a0
	mv	s10,a4
	mv	a4,t1
	sub	t1,t3,t1
	.loc 1 196 2239 is_stmt 0
	lw	t3,112(sp)
	sw	a4,16(sp)
	.loc 1 196 2094
	sw	s10,56(sp)
	sw	s10,-864(s1)
	.loc 1 196 2103 is_stmt 1
.LVL165:
	.loc 1 196 2160
	.loc 1 196 2177 is_stmt 0
	li	a0,-2147479552
	sw	t1,-96(a0)
.LVL166:
	.loc 1 196 2217 is_stmt 1
	.loc 1 196 2218
	.loc 1 196 2239 is_stmt 0
	add	ra,t3,a4
	.loc 1 196 2287
	li	a4,1036288
	.loc 1 196 2234
	sw	ra,0(s9)
	.loc 1 196 2269 is_stmt 1
	.loc 1 196 2270
	.loc 1 196 2287 is_stmt 0
	addi	a4,a4,125
.LBE156:
	.loc 1 196 2336
	li	a0,393216
.LBB157:
	.loc 1 196 2287
	sw	a4,0(s6)
.LBE157:
	.loc 1 196 2319 is_stmt 1
	.loc 1 196 2320
	.loc 1 196 2336 is_stmt 0
	addi	a0,a0,17
	sw	a0,24(sp)
	sw	a0,0(a2)
.LBB158:
	.loc 1 196 2426 is_stmt 1
.LVL167:
	.loc 1 196 2471
	.loc 1 196 2488 is_stmt 0
	li	a0,4096
	sw	a0,0(t5)
	.loc 1 196 2500 is_stmt 1
	.loc 1 196 2517 is_stmt 0
	sw	s0,-1888(s5)
	.loc 1 196 2523 is_stmt 1
	.loc 1 196 2540 is_stmt 0
	lw	t3,48(sp)
	.loc 1 196 2674
	li	t1,48
	.loc 1 196 2737
	li	a4,287
	.loc 1 196 2540
	sw	t3,0(s8)
	.loc 1 196 2568 is_stmt 1
	.loc 1 196 2585 is_stmt 0
	sw	zero,-992(s4)
	.loc 1 196 2597 is_stmt 1
	.loc 1 196 2614 is_stmt 0
	sw	a6,0(t0)
	.loc 1 196 2657 is_stmt 1
	.loc 1 196 2674 is_stmt 0
	sw	t1,0(a7)
	.loc 1 196 2720 is_stmt 1
	.loc 1 196 2737 is_stmt 0
	sw	a4,0(t6)
	.loc 1 196 2742 is_stmt 1
	.loc 1 196 2759 is_stmt 0
	sw	zero,-1120(s7)
	.loc 1 196 2762 is_stmt 1
	.loc 1 196 2778 is_stmt 0
	sw	s0,672(s3)
	.loc 1 196 2821 is_stmt 1
	.loc 1 196 2837 is_stmt 0
	li	t1,8
	sw	t1,0(a1)
	.loc 1 196 2863 is_stmt 1
	.loc 1 196 2880 is_stmt 0
	sw	a4,1568(s2)
	.loc 1 196 2885 is_stmt 1
	.loc 1 196 2902 is_stmt 0
	sw	zero,-864(s1)
	.loc 1 196 2905 is_stmt 1
	.loc 1 196 2921 is_stmt 0
	sw	a5,0(a3)
	.loc 1 196 2959 is_stmt 1
	.loc 1 196 2975 is_stmt 0
	lw	s10,4(sp)
	li	t1,1
	sw	t1,0(s10)
	.loc 1 196 2986 is_stmt 1
	.loc 1 196 3003 is_stmt 0
	sw	a4,0(t2)
	.loc 1 196 3008 is_stmt 1
	.loc 1 196 3025 is_stmt 0
	lw	t3,8(sp)
	sw	zero,-1248(t3)
	.loc 1 196 3028 is_stmt 1
	.loc 1 196 3044 is_stmt 0
	lw	t1,124(sp)
	.loc 1 196 3179
	li	t3,768
	.loc 1 196 3044
	sw	t1,0(s9)
	.loc 1 196 3162 is_stmt 1
	.loc 1 196 3179 is_stmt 0
	lw	ra,12(sp)
	.loc 1 196 3327
	li	t1,1032192
	addi	t1,t1,1151
	.loc 1 196 3179
	sw	t3,0(ra)
	.loc 1 196 3310 is_stmt 1
	.loc 1 196 3327 is_stmt 0
	sw	t1,0(s6)
.LBE158:
.LBB159:
	.loc 1 196 3360 is_stmt 1
.LVL168:
	.loc 1 196 3561
	.loc 1 196 3577 is_stmt 0
	li	t1,96
	sw	t1,0(s10)
	.loc 1 196 3662 is_stmt 1
	.loc 1 196 3678 is_stmt 0
	sw	a5,0(a3)
	.loc 1 196 3684 is_stmt 1
	.loc 1 196 3701 is_stmt 0
	li	t1,767
	sw	t1,0(t2)
	.loc 1 196 3811 is_stmt 1
	.loc 1 196 3828 is_stmt 0
	lw	t3,8(sp)
	.loc 1 196 3930
	li	t1,16
	.loc 1 196 3828
	sw	zero,-1248(t3)
	.loc 1 196 3913 is_stmt 1
	.loc 1 196 3930 is_stmt 0
	sw	t1,0(a7)
	.loc 1 196 3989 is_stmt 1
	.loc 1 196 4006 is_stmt 0
	sw	a6,0(t0)
	.loc 1 196 4012 is_stmt 1
	.loc 1 196 4029 is_stmt 0
	sw	t4,0(t6)
	.loc 1 196 0 is_stmt 1
	sw	zero,-1120(s7)
	.loc 1 196 0
	li	t4,4
	sw	t4,0(t5)
	.loc 1 196 0
	sw	s0,-1888(s5)
	.loc 1 196 0
	mv	ra,t4
	li	t4,15
	sw	t4,0(s8)
	.loc 1 196 0
	sw	zero,-992(s4)
	.loc 1 196 0
	li	t3,1
	sw	t3,0(a1)
	.loc 1 196 0
	sw	s0,672(s3)
	.loc 1 196 0
	sw	s0,1568(s2)
	.loc 1 196 0
	sw	zero,-864(s1)
	.loc 1 196 0
.LVL169:
	.loc 1 196 0
	sw	zero,0(s9)
	.loc 1 196 0
	.loc 1 196 0
	lw	t3,60(sp)
	sw	t3,0(s6)
.LBE159:
	.loc 1 196 0
	.loc 1 196 0
	lw	t3,24(sp)
	sw	t3,0(a2)
.LBB160:
	.loc 1 199 3
.LVL170:
	.loc 1 199 186
	.loc 1 199 202 is_stmt 0
	li	t3,64
	sw	t3,0(s10)
	.loc 1 199 269 is_stmt 1
	.loc 1 199 285 is_stmt 0
	sw	a5,0(a3)
	.loc 1 199 291 is_stmt 1
	.loc 1 199 308 is_stmt 0
	li	t3,511
	sw	t3,0(t2)
	.loc 1 199 400 is_stmt 1
	.loc 1 199 417 is_stmt 0
	lw	t3,8(sp)
	sw	zero,-1248(t3)
	.loc 1 199 484 is_stmt 1
	.loc 1 199 501 is_stmt 0
	sw	t1,0(a7)
	.loc 1 199 548 is_stmt 1
	.loc 1 199 565 is_stmt 0
	sw	s0,0(t0)
	.loc 1 199 571 is_stmt 1
	.loc 1 199 588 is_stmt 0
	li	t1,63
	sw	t1,0(t6)
	.loc 1 199 659 is_stmt 1
	.loc 1 199 676 is_stmt 0
	sw	zero,-1120(s7)
	.loc 1 199 723 is_stmt 1
	.loc 1 199 740 is_stmt 0
	sw	ra,0(t5)
	.loc 1 199 769 is_stmt 1
	.loc 1 199 786 is_stmt 0
	sw	s0,-1888(s5)
	.loc 1 199 792 is_stmt 1
	.loc 1 199 809 is_stmt 0
	sw	t4,0(s8)
	.loc 1 199 860 is_stmt 1
	.loc 1 199 877 is_stmt 0
	sw	zero,-992(s4)
	.loc 1 199 906 is_stmt 1
	.loc 1 199 922 is_stmt 0
	li	t1,1
	sw	t1,0(a1)
	.loc 1 199 933 is_stmt 1
	.loc 1 199 949 is_stmt 0
	sw	s0,672(s3)
	.loc 1 199 955 is_stmt 1
	.loc 1 199 972 is_stmt 0
	sw	s0,1568(s2)
	.loc 1 199 1001 is_stmt 1
	.loc 1 199 1018 is_stmt 0
	sw	zero,-864(s1)
	.loc 1 199 1027 is_stmt 1
.LVL171:
	.loc 1 199 1186
	.loc 1 199 1202 is_stmt 0
	sw	zero,0(s9)
	.loc 1 199 1230 is_stmt 1
	.loc 1 199 1231
	.loc 1 199 1248 is_stmt 0
	lw	ra,12(sp)
	li	t3,512
	.loc 1 199 1304
	li	t1,1036288
	.loc 1 199 1248
	sw	t3,0(ra)
	.loc 1 199 1287 is_stmt 1
	.loc 1 199 1304 is_stmt 0
	addi	t1,t1,-1953
	sw	t1,0(s6)
.LBE160:
.LBB161:
	.loc 1 199 1336 is_stmt 1
.LVL172:
	.loc 1 199 1510
	.loc 1 199 1527 is_stmt 0
	lw	ra,44(sp)
	.loc 1 199 1821
	li	t1,1
	.loc 1 199 1527
	sw	ra,0(a7)
	.loc 1 199 1554 is_stmt 1
	.loc 1 199 1571 is_stmt 0
	sw	a5,0(t0)
	.loc 1 199 1577 is_stmt 1
	.loc 1 199 1594 is_stmt 0
	lw	ra,32(sp)
	sw	ra,0(t6)
	.loc 1 199 1630 is_stmt 1
	.loc 1 199 1647 is_stmt 0
	sw	s11,36(sp)
	sw	s11,-1120(s7)
	.loc 1 199 1674 is_stmt 1
	.loc 1 199 1691 is_stmt 0
	lw	s11,28(sp)
	sw	s11,0(t5)
	.loc 1 199 1704 is_stmt 1
	.loc 1 199 1721 is_stmt 0
	sw	s0,-1888(s5)
	.loc 1 199 1727 is_stmt 1
	.loc 1 199 1744 is_stmt 0
	lw	ra,116(sp)
	sw	ra,0(s8)
	.loc 1 199 1775 is_stmt 1
	.loc 1 199 1792 is_stmt 0
	sw	zero,-992(s4)
	.loc 1 199 1805 is_stmt 1
	.loc 1 199 1821 is_stmt 0
	sw	t1,0(a1)
	.loc 1 199 1832 is_stmt 1
	.loc 1 199 1848 is_stmt 0
	sw	t4,672(s3)
	.loc 1 199 1854 is_stmt 1
	.loc 1 199 1871 is_stmt 0
	lw	s11,52(sp)
	.loc 1 199 2036
	li	t1,1036288
	addi	t1,t1,93
	.loc 1 199 1871
	sw	s11,1568(s2)
	.loc 1 199 1884 is_stmt 1
	.loc 1 199 1901 is_stmt 0
	lw	ra,56(sp)
	sw	ra,-864(s1)
	.loc 1 199 1910 is_stmt 1
.LVL173:
	.loc 1 199 1967
	.loc 1 199 1988 is_stmt 0
	lw	ra,40(sp)
	lw	t4,8(ra)
	lw	ra,16(sp)
	add	t4,ra,t4
	.loc 1 199 1983
	sw	t4,0(s9)
	.loc 1 199 2018 is_stmt 1
	.loc 1 199 2019
	.loc 1 199 2036 is_stmt 0
	sw	t1,0(s6)
.LBE161:
	.loc 1 199 2067 is_stmt 1
	.loc 1 199 2068
	.loc 1 199 2084 is_stmt 0
	lw	t3,24(sp)
.LBB162:
	.loc 1 199 2416
	li	t4,32
	.loc 1 199 2473
	li	t1,127
.LBE162:
	.loc 1 199 2084
	sw	t3,0(a2)
.LBB163:
	.loc 1 199 2174 is_stmt 1
.LVL174:
	.loc 1 199 2219
	.loc 1 199 2236 is_stmt 0
	sw	a0,0(t5)
	.loc 1 199 2248 is_stmt 1
	.loc 1 199 2265 is_stmt 0
	sw	s0,-1888(s5)
	.loc 1 199 2271 is_stmt 1
	.loc 1 199 2288 is_stmt 0
	lw	s11,48(sp)
	.loc 1 199 2567
	li	ra,8
	.loc 1 199 2705
	li	t3,1
	.loc 1 199 2288
	sw	s11,0(s8)
	.loc 1 199 2316 is_stmt 1
	.loc 1 199 2333 is_stmt 0
	sw	zero,-992(s4)
	.loc 1 199 2345 is_stmt 1
	.loc 1 199 2362 is_stmt 0
	sw	s0,0(t0)
	.loc 1 199 2399 is_stmt 1
	.loc 1 199 2416 is_stmt 0
	sw	t4,0(a7)
	.loc 1 199 2456 is_stmt 1
	.loc 1 199 2473 is_stmt 0
	sw	t1,0(t6)
	.loc 1 199 2478 is_stmt 1
	.loc 1 199 2495 is_stmt 0
	sw	zero,-1120(s7)
	.loc 1 199 2498 is_stmt 1
	.loc 1 199 2514 is_stmt 0
	sw	s0,672(s3)
	.loc 1 199 2551 is_stmt 1
	.loc 1 199 2567 is_stmt 0
	sw	ra,0(a1)
	.loc 1 199 2593 is_stmt 1
	.loc 1 199 2610 is_stmt 0
	sw	t1,1568(s2)
	.loc 1 199 2615 is_stmt 1
	.loc 1 199 2632 is_stmt 0
	sw	zero,-864(s1)
	.loc 1 199 2635 is_stmt 1
	.loc 1 199 2651 is_stmt 0
	sw	a5,0(a3)
	.loc 1 199 2689 is_stmt 1
	.loc 1 199 2705 is_stmt 0
	sw	s10,4(sp)
	sw	t3,0(s10)
	.loc 1 199 2716 is_stmt 1
	.loc 1 199 2738
	.loc 1 199 2733 is_stmt 0
	sw	t1,0(t2)
	.loc 1 199 2755
	lw	s10,8(sp)
	.loc 1 199 2774
	li	t4,524288
	addi	t4,t4,304
	.loc 1 199 2755
	sw	zero,-1248(s10)
	.loc 1 199 2758 is_stmt 1
	.loc 1 199 2774 is_stmt 0
	sw	t4,0(s9)
	.loc 1 199 2885 is_stmt 1
	.loc 1 199 2902 is_stmt 0
	lw	t1,12(sp)
	li	t3,512
	.loc 1 199 3038
	li	t4,1032192
	.loc 1 199 2902
	sw	t3,0(t1)
	.loc 1 199 3021 is_stmt 1
	.loc 1 199 3038 is_stmt 0
	addi	t4,t4,1119
	sw	t4,0(s6)
.LBE163:
.LBB164:
	.loc 1 199 3070 is_stmt 1
.LVL175:
	.loc 1 199 3253
	.loc 1 199 3269 is_stmt 0
	lw	t4,4(sp)
	li	t3,64
	sw	t3,0(t4)
	.loc 1 199 3336 is_stmt 1
	.loc 1 199 3352 is_stmt 0
	sw	a5,0(a3)
	.loc 1 199 3358 is_stmt 1
	.loc 1 199 3375 is_stmt 0
	li	t4,511
	sw	t4,0(t2)
	.loc 1 199 3467 is_stmt 1
	.loc 1 199 3484 is_stmt 0
	sw	s10,8(sp)
	sw	zero,-1248(s10)
	.loc 1 199 3551 is_stmt 1
	.loc 1 199 3568 is_stmt 0
	li	t4,16
	sw	t4,0(a7)
	.loc 1 199 3615 is_stmt 1
	.loc 1 199 3632 is_stmt 0
	sw	s0,0(t0)
	.loc 1 199 3638 is_stmt 1
	.loc 1 199 3655 is_stmt 0
	li	t4,63
	sw	t4,0(t6)
	.loc 1 199 3726 is_stmt 1
	.loc 1 199 3743 is_stmt 0
	sw	zero,-1120(s7)
	.loc 1 199 3790 is_stmt 1
	.loc 1 199 3807 is_stmt 0
	li	t4,4
	sw	t4,0(t5)
	.loc 1 199 3836 is_stmt 1
	.loc 1 199 3853 is_stmt 0
	sw	s0,-1888(s5)
	.loc 1 199 3859 is_stmt 1
	.loc 1 199 3876 is_stmt 0
	li	t4,15
	sw	t4,0(s8)
	.loc 1 199 3927 is_stmt 1
	.loc 1 199 3944 is_stmt 0
	sw	zero,-992(s4)
	.loc 1 199 3973 is_stmt 1
	.loc 1 199 3989 is_stmt 0
	li	t3,1
	sw	t3,0(a1)
	.loc 1 199 4000 is_stmt 1
	.loc 1 199 4016 is_stmt 0
	sw	s0,672(s3)
	.loc 1 199 4022 is_stmt 1
	.loc 1 199 4039 is_stmt 0
	sw	s0,1568(s2)
	.loc 1 199 4068 is_stmt 1
	.loc 1 199 4085 is_stmt 0
	sw	zero,-864(s1)
	.loc 1 199 4094 is_stmt 1
.LVL176:
	.loc 1 199 0
	li	t4,1036288
	sw	zero,0(s9)
	.loc 1 199 0
	.loc 1 199 0
	addi	t4,t4,-1955
	sw	t4,0(s6)
.LBE164:
	.loc 1 199 0
	.loc 1 199 0
	lw	t3,24(sp)
.LBB165:
	.loc 1 205 86 is_stmt 0
	li	t4,2
.LBE165:
	.loc 1 199 0
	sw	t3,0(a2)
.LBB166:
	.loc 1 205 3 is_stmt 1
.LVL177:
	.loc 1 205 42
	.loc 1 205 58 is_stmt 0
	lw	s10,4(sp)
	.loc 1 205 109
	mv	t3,s11
	.loc 1 205 58
	sw	a0,0(s10)
	.loc 1 205 70 is_stmt 1
	.loc 1 205 86 is_stmt 0
	sw	t4,0(a3)
	.loc 1 205 92 is_stmt 1
	.loc 1 205 109 is_stmt 0
	sw	s11,0(t2)
	.loc 1 205 137 is_stmt 1
	.loc 1 205 154 is_stmt 0
	lw	s11,8(sp)
	.loc 1 205 245
	li	t4,48
	.loc 1 205 154
	sw	zero,-1248(s11)
	.loc 1 205 166 is_stmt 1
	.loc 1 205 183 is_stmt 0
	sw	a6,0(t0)
	.loc 1 205 228 is_stmt 1
	.loc 1 205 245 is_stmt 0
	sw	t4,0(a7)
	.loc 1 205 291 is_stmt 1
	.loc 1 205 308 is_stmt 0
	sw	a4,0(t6)
	.loc 1 205 313 is_stmt 1
	.loc 1 205 330 is_stmt 0
	sw	zero,-1120(s7)
	.loc 1 205 333 is_stmt 1
	.loc 1 205 350 is_stmt 0
	sw	zero,-1888(s5)
	.loc 1 205 407 is_stmt 1
	.loc 1 205 424 is_stmt 0
	sw	ra,0(t5)
	.loc 1 205 450 is_stmt 1
	.loc 1 205 467 is_stmt 0
	sw	a4,0(s8)
	.loc 1 205 472 is_stmt 1
	.loc 1 205 489 is_stmt 0
	sw	zero,-992(s4)
	.loc 1 205 492 is_stmt 1
	.loc 1 205 508 is_stmt 0
	sw	a5,672(s3)
	.loc 1 205 548 is_stmt 1
	.loc 1 205 564 is_stmt 0
	li	t4,1
	sw	t4,0(a1)
	.loc 1 205 575 is_stmt 1
	.loc 1 205 592 is_stmt 0
	sw	a4,1568(s2)
	.loc 1 205 597 is_stmt 1
	.loc 1 205 633 is_stmt 0
	li	t4,524288
	.loc 1 205 614
	sw	zero,-864(s1)
	.loc 1 205 617 is_stmt 1
	.loc 1 205 633 is_stmt 0
	addi	t4,t4,56
	sw	t4,0(s9)
	.loc 1 205 763 is_stmt 1
	.loc 1 205 946 is_stmt 0
	li	s11,1032192
	.loc 1 205 780
	li	t4,144
	sw	t4,0(t1)
	.loc 1 205 929 is_stmt 1
	.loc 1 205 946 is_stmt 0
	addi	s11,s11,127
	sw	s11,68(sp)
	sw	s11,0(s6)
.LBE166:
.LBB167:
	.loc 1 205 979 is_stmt 1
.LVL178:
	.loc 1 205 1024
	.loc 1 205 1091 is_stmt 0
	li	t4,12288
	.loc 1 205 1040
	sw	a0,0(s10)
	.loc 1 205 1052 is_stmt 1
	.loc 1 205 1091 is_stmt 0
	mv	s11,t4
	.loc 1 205 1068
	li	t4,2
	sw	t4,0(a3)
	.loc 1 205 1074 is_stmt 1
	.loc 1 205 1091 is_stmt 0
	addi	t4,s11,-1
	sw	t4,12(sp)
	sw	t4,0(t2)
	.loc 1 205 1119 is_stmt 1
	.loc 1 205 1136 is_stmt 0
	lw	s11,8(sp)
	.loc 1 205 1227
	li	t4,48
	.loc 1 205 1136
	sw	a0,-1248(s11)
	.loc 1 205 1148 is_stmt 1
	.loc 1 205 1165 is_stmt 0
	sw	a6,0(t0)
	.loc 1 205 1210 is_stmt 1
	.loc 1 205 1227 is_stmt 0
	sw	t4,0(a7)
	.loc 1 205 1273 is_stmt 1
	.loc 1 205 1290 is_stmt 0
	sw	a4,0(t6)
	.loc 1 205 1295 is_stmt 1
	.loc 1 205 1312 is_stmt 0
	sw	zero,-1120(s7)
	.loc 1 205 1315 is_stmt 1
	.loc 1 205 1332 is_stmt 0
	sw	zero,-1888(s5)
	.loc 1 205 1365 is_stmt 1
	.loc 1 205 1382 is_stmt 0
	sw	ra,0(t5)
	.loc 1 205 1408 is_stmt 1
	.loc 1 205 1425 is_stmt 0
	sw	a4,0(s8)
	.loc 1 205 1430 is_stmt 1
	.loc 1 205 1447 is_stmt 0
	sw	zero,-992(s4)
	.loc 1 205 1450 is_stmt 1
	.loc 1 205 1466 is_stmt 0
	sw	a5,672(s3)
	.loc 1 205 1506 is_stmt 1
	.loc 1 205 1522 is_stmt 0
	li	t4,1
	sw	t4,0(a1)
	.loc 1 205 1533 is_stmt 1
	.loc 1 205 1591 is_stmt 0
	li	t4,528384
	.loc 1 205 1550
	sw	a4,1568(s2)
	.loc 1 205 1555 is_stmt 1
	.loc 1 205 1591 is_stmt 0
	addi	t4,t4,24
	.loc 1 205 1726
	li	s11,1032192
	.loc 1 205 1572
	sw	zero,-864(s1)
	.loc 1 205 1575 is_stmt 1
	.loc 1 205 1591 is_stmt 0
	sw	t4,0(s9)
	.loc 1 205 1709 is_stmt 1
	.loc 1 205 1726 is_stmt 0
	addi	t4,s11,125
	mv	s11,t4
	sw	s11,72(sp)
.LBE167:
	.loc 1 205 1775
	li	t4,393216
.LBB168:
	.loc 1 205 1726
	sw	s11,0(s6)
.LBE168:
	.loc 1 205 1758 is_stmt 1
	.loc 1 205 1759
	.loc 1 205 1775 is_stmt 0
	addi	t4,t4,9
	sw	t4,0(a2)
.LBB169:
	.loc 1 209 3 is_stmt 1
.LVL179:
	.loc 1 209 48
	.loc 1 209 64 is_stmt 0
	sw	s10,4(sp)
	sw	a0,0(s10)
	.loc 1 209 76 is_stmt 1
	.loc 1 209 92 is_stmt 0
	li	s11,2
	sw	s11,0(a3)
	.loc 1 209 98 is_stmt 1
	.loc 1 209 115 is_stmt 0
	lw	s11,12(sp)
	sw	s11,0(t2)
	.loc 1 209 143 is_stmt 1
	.loc 1 209 160 is_stmt 0
	lw	s10,8(sp)
	.loc 1 209 251
	li	s11,48
	.loc 1 209 160
	sw	a0,-1248(s10)
	.loc 1 209 172 is_stmt 1
	.loc 1 209 189 is_stmt 0
	sw	a6,0(t0)
	.loc 1 209 234 is_stmt 1
	.loc 1 209 251 is_stmt 0
	sw	s11,0(a7)
	.loc 1 209 297 is_stmt 1
	.loc 1 209 314 is_stmt 0
	sw	a4,0(t6)
	.loc 1 209 319 is_stmt 1
	.loc 1 209 336 is_stmt 0
	sw	zero,-1120(s7)
	.loc 1 209 339 is_stmt 1
	.loc 1 209 356 is_stmt 0
	sw	zero,-1888(s5)
	.loc 1 209 385 is_stmt 1
	.loc 1 209 402 is_stmt 0
	sw	ra,0(t5)
	.loc 1 209 428 is_stmt 1
	.loc 1 209 445 is_stmt 0
	sw	a4,0(s8)
	.loc 1 209 450 is_stmt 1
	.loc 1 209 467 is_stmt 0
	sw	zero,-992(s4)
	.loc 1 209 470 is_stmt 1
	.loc 1 209 486 is_stmt 0
	sw	a5,672(s3)
	.loc 1 209 526 is_stmt 1
	.loc 1 209 542 is_stmt 0
	li	s11,1
	sw	s11,0(a1)
	.loc 1 209 553 is_stmt 1
	.loc 1 209 570 is_stmt 0
	sw	a4,1568(s2)
	.loc 1 209 575 is_stmt 1
	.loc 1 209 611 is_stmt 0
	li	s11,528384
	.loc 1 209 592
	sw	zero,-864(s1)
	.loc 1 209 595 is_stmt 1
	.loc 1 209 611 is_stmt 0
	addi	s11,s11,16
	sw	s11,0(s9)
	.loc 1 209 727 is_stmt 1
	.loc 1 209 744 is_stmt 0
	sw	t1,12(sp)
	li	s11,144
	sw	s11,0(t1)
	.loc 1 209 865 is_stmt 1
	.loc 1 209 882 is_stmt 0
	lw	t1,68(sp)
.LBE169:
.LBB170:
	.loc 1 209 998
	li	s11,2
.LBE170:
.LBB171:
	.loc 1 196 471
	addi	s10,s10,-1248
.LBE171:
.LBB172:
	.loc 1 209 882
	sw	t1,0(s6)
.LBE172:
.LBB173:
	.loc 1 209 915 is_stmt 1
.LVL180:
	.loc 1 209 954
	.loc 1 209 982
	.loc 1 209 970 is_stmt 0
	lw	t1,4(sp)
	sw	a0,0(t1)
	.loc 1 209 998
	sw	s11,0(a3)
	sw	a3,96(sp)
	.loc 1 209 1004 is_stmt 1
	.loc 1 209 1021 is_stmt 0
	sw	t3,0(t2)
	sw	t2,92(sp)
	.loc 1 209 1049 is_stmt 1
	.loc 1 209 1066 is_stmt 0
	sw	zero,0(s10)
	.loc 1 209 1078 is_stmt 1
	.loc 1 209 1095 is_stmt 0
	sw	a6,0(t0)
	sw	t0,88(sp)
	.loc 1 209 1140 is_stmt 1
	.loc 1 209 1157 is_stmt 0
	li	a3,48
	sw	a3,0(a7)
	sw	a7,84(sp)
	.loc 1 209 1203 is_stmt 1
	.loc 1 209 1220 is_stmt 0
	sw	a4,0(t6)
	sw	t6,80(sp)
	.loc 1 209 1225 is_stmt 1
	.loc 1 209 1242 is_stmt 0
	sw	zero,-1120(s7)
	.loc 1 209 1245 is_stmt 1
	.loc 1 209 1262 is_stmt 0
	sw	zero,-1888(s5)
	.loc 1 209 1313 is_stmt 1
	.loc 1 209 1330 is_stmt 0
	sw	ra,0(t5)
	sw	t5,76(sp)
	.loc 1 209 1356 is_stmt 1
	.loc 1 209 1373 is_stmt 0
	sw	a4,0(s8)
	.loc 1 209 1378 is_stmt 1
	.loc 1 209 1395 is_stmt 0
	sw	zero,-992(s4)
	.loc 1 209 1398 is_stmt 1
	.loc 1 209 1454
	.loc 1 209 1414 is_stmt 0
	sw	a5,672(s3)
	.loc 1 209 1470
	li	a5,1
	sw	a5,0(a1)
	sw	a1,8(sp)
	.loc 1 209 1481 is_stmt 1
	.loc 1 209 1498 is_stmt 0
	sw	a4,1568(s2)
	.loc 1 209 1503 is_stmt 1
	.loc 1 209 1539 is_stmt 0
	li	a4,524288
	.loc 1 209 1520
	sw	zero,-864(s1)
	.loc 1 209 1523 is_stmt 1
	.loc 1 209 1539 is_stmt 0
	addi	a4,a4,48
	sw	a4,0(s9)
	.loc 1 209 1665 is_stmt 1
	.loc 1 209 1682 is_stmt 0
	lw	t6,72(sp)
.LBE173:
	.loc 1 211 18
	li	a7,88
	.loc 1 217 18
	li	a6,1015832576
.LBB174:
	.loc 1 209 1682
	sw	t6,0(s6)
.LBE174:
	.loc 1 209 1714 is_stmt 1
	.loc 1 209 1715
	.loc 1 209 1731 is_stmt 0
	sw	t4,0(a2)
	.loc 1 211 1 is_stmt 1
	.loc 1 211 2
	.loc 1 211 18 is_stmt 0
	sw	a7,0(a2)
	.loc 1 213 10 is_stmt 1
	.loc 1 217 1
	.loc 1 217 2
	.loc 1 217 18 is_stmt 0
	addi	a6,a6,-2044
	sw	a6,0(a2)
	.loc 1 219 10
	li	a4,-2147483648
	.loc 1 217 18
	sw	a2,68(sp)
	.loc 1 219 10 is_stmt 1
	sw	zero,36(a4)
	.loc 1 219 10
.LBB175:
	.loc 1 209 1021 is_stmt 0
	mv	s11,t3
.LBE175:
	.loc 1 219 10
	call	_taskYield
.LVL181:
	.loc 1 219 24 is_stmt 1 discriminator 1
.LBB176:
	.loc 1 223 3
	.loc 1 223 186
	.loc 1 223 202 is_stmt 0
	lw	a4,4(sp)
	li	a5,64
	mv	t3,a5
	sw	a5,0(a4)
	.loc 1 223 269 is_stmt 1
	.loc 1 223 285 is_stmt 0
	lw	a3,96(sp)
	li	a5,7
	.loc 1 223 308
	li	a0,511
	.loc 1 223 285
	sw	a5,0(a3)
	.loc 1 223 291 is_stmt 1
	.loc 1 223 308 is_stmt 0
	lw	t2,92(sp)
	.loc 1 223 501
	li	a2,16
	.loc 1 223 588
	li	t5,63
	.loc 1 223 308
	sw	a0,0(t2)
	.loc 1 223 400 is_stmt 1
	.loc 1 223 417 is_stmt 0
	sw	zero,0(s10)
	.loc 1 223 484 is_stmt 1
	.loc 1 223 501 is_stmt 0
	lw	a7,84(sp)
	.loc 1 223 740
	li	a1,4
	.loc 1 223 809
	li	a6,15
	.loc 1 223 501
	sw	a2,0(a7)
	.loc 1 223 548 is_stmt 1
	.loc 1 223 565 is_stmt 0
	lw	t0,88(sp)
	.loc 1 223 922
	li	a4,1
	.loc 1 223 1249
	li	a2,512
	.loc 1 223 565
	sw	s0,0(t0)
	.loc 1 223 571 is_stmt 1
	.loc 1 223 588 is_stmt 0
	lw	t6,80(sp)
.LBE176:
.LBB177:
	.loc 1 223 1400
	li	a0,4096
	.loc 1 223 1637
	li	t1,127
.LBE177:
.LBB178:
	.loc 1 223 588
	sw	t5,0(t6)
	.loc 1 223 659 is_stmt 1
	.loc 1 223 676 is_stmt 0
	sw	zero,-1120(s7)
	.loc 1 223 723 is_stmt 1
	.loc 1 223 740 is_stmt 0
	lw	t5,76(sp)
	sw	a1,0(t5)
	.loc 1 223 769 is_stmt 1
	.loc 1 223 786 is_stmt 0
	sw	s0,-1888(s5)
	.loc 1 223 792 is_stmt 1
	.loc 1 223 809 is_stmt 0
	sw	a6,0(s8)
	.loc 1 223 860 is_stmt 1
	.loc 1 223 877 is_stmt 0
	sw	zero,-992(s4)
	.loc 1 223 906 is_stmt 1
	.loc 1 223 922 is_stmt 0
	lw	a1,8(sp)
	sw	a4,0(a1)
	.loc 1 223 933 is_stmt 1
	.loc 1 223 949 is_stmt 0
	sw	s0,672(s3)
	.loc 1 223 955 is_stmt 1
	.loc 1 223 972 is_stmt 0
	sw	s0,1568(s2)
	.loc 1 223 1001 is_stmt 1
	.loc 1 223 1018 is_stmt 0
	sw	zero,-864(s1)
	.loc 1 223 1027 is_stmt 1
.LVL182:
	.loc 1 223 1186
	.loc 1 223 1202 is_stmt 0
	sw	zero,0(s9)
	.loc 1 223 1231 is_stmt 1
	.loc 1 223 1232
	.loc 1 223 1249 is_stmt 0
	lw	t4,12(sp)
.LBE178:
.LBB179:
	.loc 1 223 1731
	li	a4,8
.LBE179:
.LBB180:
	.loc 1 223 1249
	sw	a2,0(t4)
	.loc 1 223 1288 is_stmt 1
	.loc 1 223 1305 is_stmt 0
	lw	a2,64(sp)
	sw	a2,0(s6)
.LBE180:
.LBB181:
	.loc 1 223 1338 is_stmt 1
.LVL183:
	.loc 1 223 1383
	.loc 1 223 1400 is_stmt 0
	sw	a0,0(t5)
	.loc 1 223 1412 is_stmt 1
	.loc 1 223 1429 is_stmt 0
	sw	s0,-1888(s5)
	.loc 1 223 1435 is_stmt 1
	.loc 1 223 1452 is_stmt 0
	sw	s11,0(s8)
	.loc 1 223 1480 is_stmt 1
	.loc 1 223 1497 is_stmt 0
	sw	zero,-992(s4)
	.loc 1 223 1509 is_stmt 1
	.loc 1 223 1580 is_stmt 0
	li	a2,32
	.loc 1 223 1526
	sw	s0,0(t0)
	.loc 1 223 1563 is_stmt 1
	.loc 1 223 1580 is_stmt 0
	sw	a2,0(a7)
	.loc 1 223 1620 is_stmt 1
	.loc 1 223 1637 is_stmt 0
	sw	t1,0(t6)
	.loc 1 223 1642 is_stmt 1
	.loc 1 223 1659 is_stmt 0
	sw	zero,-1120(s7)
	.loc 1 223 1662 is_stmt 1
	.loc 1 223 1678 is_stmt 0
	sw	s0,672(s3)
	.loc 1 223 1715 is_stmt 1
	.loc 1 223 1731 is_stmt 0
	sw	a4,0(a1)
	.loc 1 223 1757 is_stmt 1
	.loc 1 223 1774 is_stmt 0
	sw	t1,1568(s2)
	.loc 1 223 1779 is_stmt 1
	.loc 1 223 1796 is_stmt 0
	sw	zero,-864(s1)
	.loc 1 223 1799 is_stmt 1
	.loc 1 223 1815 is_stmt 0
	sw	a5,0(a3)
	.loc 1 223 1853 is_stmt 1
	.loc 1 223 1869 is_stmt 0
	lw	a4,4(sp)
	li	a2,1
	.loc 1 223 2066
	li	a0,1032192
	.loc 1 223 1869
	sw	a2,0(a4)
	.loc 1 223 1880 is_stmt 1
	.loc 1 223 1897 is_stmt 0
	sw	t1,0(t2)
	.loc 1 223 1902 is_stmt 1
	.loc 1 223 1919 is_stmt 0
	sw	s10,8(sp)
	.loc 1 223 1938
	li	a4,524288
	.loc 1 223 1919
	sw	zero,0(s10)
	.loc 1 223 1922 is_stmt 1
	.loc 1 223 1938 is_stmt 0
	addi	a4,a4,432
	sw	a4,0(s9)
	.loc 1 223 2049 is_stmt 1
	.loc 1 223 2066 is_stmt 0
	addi	a0,a0,1149
	sw	a0,0(s6)
.LBE181:
	.loc 1 223 2098 is_stmt 1
	.loc 1 223 2099
	.loc 1 223 2115 is_stmt 0
	lw	s10,24(sp)
	lw	a2,68(sp)
.LBB182:
	.loc 1 223 2375
	li	a4,31
	.loc 1 223 2698
	li	a0,1036288
.LBE182:
	.loc 1 223 2115
	sw	s10,0(a2)
.LBB183:
	.loc 1 223 2205 is_stmt 1
.LVL184:
	.loc 1 223 2328
	.loc 1 223 2345 is_stmt 0
	lw	t1,28(sp)
	.loc 1 223 2698
	addi	a0,a0,127
	.loc 1 223 2345
	sw	t1,0(t5)
.LVL185:
	.loc 1 223 2358 is_stmt 1
	.loc 1 223 2375 is_stmt 0
	sw	a4,-1888(s5)
	.loc 1 223 2381 is_stmt 1
	.loc 1 223 2398 is_stmt 0
	lw	t1,100(sp)
	.loc 1 223 2465
	li	a4,1
	.loc 1 223 2398
	sw	t1,0(s8)
	.loc 1 223 2419 is_stmt 1
	.loc 1 223 2436 is_stmt 0
	lw	s11,36(sp)
	sw	s11,-992(s4)
	.loc 1 223 2449 is_stmt 1
	.loc 1 223 2465 is_stmt 0
	sw	a4,0(a1)
	.loc 1 223 2476 is_stmt 1
	.loc 1 223 2492 is_stmt 0
	sw	a6,672(s3)
	.loc 1 223 2498 is_stmt 1
	.loc 1 223 2515 is_stmt 0
	lw	s11,52(sp)
	sw	s11,1568(s2)
	.loc 1 223 2528 is_stmt 1
	.loc 1 223 2545 is_stmt 0
	lw	s11,56(sp)
	sw	s11,-864(s1)
	.loc 1 223 2554 is_stmt 1
.LVL186:
	.loc 1 223 2585
	.loc 1 223 2621 is_stmt 0
	lw	s11,40(sp)
	.loc 1 223 2606
	lw	t1,16(sp)
	.loc 1 223 2621
	lw	a4,12(s11)
	srli	a4,a4,1
	.loc 1 223 2606
	add	a4,a4,t1
	.loc 1 223 2601
	sw	a4,0(s9)
	.loc 1 223 2638 is_stmt 1
	.loc 1 223 2639
	.loc 1 223 2656 is_stmt 0
	li	a4,512
	sw	a4,0(t4)
	.loc 1 223 2681 is_stmt 1
	.loc 1 223 2698 is_stmt 0
	sw	a0,0(s6)
.LBE183:
.LBB184:
	.loc 1 223 2731 is_stmt 1
.LVL187:
	.loc 1 223 2914
	.loc 1 223 2930 is_stmt 0
	lw	a4,4(sp)
	.loc 1 223 3036
	li	a0,511
	.loc 1 223 2930
	sw	t3,0(a4)
	.loc 1 223 2997 is_stmt 1
	.loc 1 223 3013 is_stmt 0
	sw	a5,0(a3)
	.loc 1 223 3019 is_stmt 1
	.loc 1 223 3036 is_stmt 0
	sw	a0,0(t2)
	.loc 1 223 3128 is_stmt 1
	.loc 1 223 3145 is_stmt 0
	lw	a5,8(sp)
	.loc 1 223 3316
	li	a0,63
.LBE184:
	.loc 1 182 17 discriminator 1
	addi	a4,t1,15
.LBB185:
	.loc 1 223 3145
	sw	zero,0(a5)
	.loc 1 223 3212 is_stmt 1
	.loc 1 223 3229 is_stmt 0
	li	a5,16
	sw	a5,0(a7)
	.loc 1 223 3276 is_stmt 1
	.loc 1 223 3293 is_stmt 0
	sw	s0,0(t0)
	.loc 1 223 3299 is_stmt 1
	.loc 1 223 3316 is_stmt 0
	sw	a0,0(t6)
	.loc 1 223 3387 is_stmt 1
	.loc 1 223 3404 is_stmt 0
	sw	zero,-1120(s7)
	.loc 1 223 3451 is_stmt 1
	.loc 1 223 3468 is_stmt 0
	li	a5,4
	sw	a5,0(t5)
	.loc 1 223 3497 is_stmt 1
	.loc 1 223 3514 is_stmt 0
	sw	s0,-1888(s5)
	.loc 1 223 3520 is_stmt 1
	.loc 1 223 3537 is_stmt 0
	sw	a6,0(s8)
	.loc 1 223 3588 is_stmt 1
	.loc 1 223 3605 is_stmt 0
	sw	zero,-992(s4)
	.loc 1 223 3634 is_stmt 1
	.loc 1 223 3650 is_stmt 0
	li	a5,1
	sw	a5,0(a1)
	.loc 1 223 3661 is_stmt 1
	.loc 1 223 3677 is_stmt 0
	sw	s0,672(s3)
	.loc 1 223 3683 is_stmt 1
	.loc 1 223 3700 is_stmt 0
	sw	s0,1568(s2)
	.loc 1 223 3729 is_stmt 1
	.loc 1 223 3746 is_stmt 0
	sw	zero,-864(s1)
	.loc 1 223 3755 is_stmt 1
.LVL188:
	.loc 1 223 3914
	.loc 1 223 3930 is_stmt 0
	sw	zero,0(s9)
	.loc 1 223 3959 is_stmt 1
	.loc 1 223 3960
	.loc 1 223 3977 is_stmt 0
	lw	a5,60(sp)
	sw	a5,0(s6)
.LBE185:
	.loc 1 223 4009 is_stmt 1
	.loc 1 223 4010
	.loc 1 223 4026 is_stmt 0
	sw	s10,0(a2)
	.loc 1 182 26 is_stmt 1 discriminator 2
	.loc 1 182 17 discriminator 1
	lw	a0,20(sp)
	sw	a4,16(sp)
	lw	a4,120(sp)
	addi	a5,a0,1
	sw	a5,20(sp)
	ble	a4,a5,.L49
.LVL189:
.L36:
	.loc 1 183 10
	.loc 1 186 10
	.loc 1 186 12 is_stmt 0
	lw	a5,20(sp)
	bne	a5,zero,.L34
.LBB186:
	.loc 1 191 3 is_stmt 1
.LVL190:
	.loc 1 191 38
	.loc 1 191 54 is_stmt 0
	lw	a4,4(sp)
	li	a5,4096
	.loc 1 191 105
	li	t0,-2147483648
	.loc 1 191 54
	sw	a5,0(a4)
.LVL191:
	.loc 1 191 66 is_stmt 1
	.loc 1 191 82 is_stmt 0
	sw	zero,0(a3)
	.loc 1 191 88 is_stmt 1
	.loc 1 191 105 is_stmt 0
	lw	a5,48(sp)
	.loc 1 191 150
	li	t6,-2147479552
	.loc 1 191 179
	li	a4,5
	.loc 1 191 105
	sw	a5,1440(t0)
	.loc 1 191 133 is_stmt 1
	.loc 1 191 150 is_stmt 0
	sw	zero,-1248(t6)
	.loc 1 191 162 is_stmt 1
	.loc 1 191 179 is_stmt 0
	li	a5,-2147483648
	sw	a4,1824(a5)
	.loc 1 191 224 is_stmt 1
	.loc 1 191 241 is_stmt 0
	li	t5,-2147483648
	li	a4,48
	sw	a4,1696(t5)
	.loc 1 191 287 is_stmt 1
	.loc 1 191 304 is_stmt 0
	li	a5,287
	li	t4,-2147483648
	sw	a5,1952(t4)
	.loc 1 191 309 is_stmt 1
	.loc 1 191 326 is_stmt 0
	li	t2,-2147479552
	sw	zero,-1120(t2)
	.loc 1 191 329 is_stmt 1
	.loc 1 191 346 is_stmt 0
	li	t1,-2147479552
	sw	zero,-1888(t1)
	.loc 1 191 375 is_stmt 1
	.loc 1 191 392 is_stmt 0
	li	a2,-2147479552
	li	a1,8
	sw	a1,-2016(a2)
	.loc 1 191 418 is_stmt 1
	.loc 1 191 435 is_stmt 0
	sw	a5,0(s8)
	.loc 1 191 440 is_stmt 1
	.loc 1 191 457 is_stmt 0
	li	a7,-2147479552
	sw	zero,-992(a7)
	.loc 1 191 460 is_stmt 1
	.loc 1 191 476 is_stmt 0
	li	a1,-2147483648
	li	a0,7
	sw	a0,672(a1)
	.loc 1 191 516 is_stmt 1
	.loc 1 191 532 is_stmt 0
	li	a2,-2147483648
	li	a1,1
	sw	a1,1056(a2)
	.loc 1 191 543 is_stmt 1
	.loc 1 191 560 is_stmt 0
	li	a6,-2147483648
	sw	a5,1568(a6)
	.loc 1 191 565 is_stmt 1
	.loc 1 191 582 is_stmt 0
	li	a0,-2147479552
	.loc 1 191 601
	li	a5,524288
	.loc 1 191 582
	sw	zero,-864(a0)
	.loc 1 191 585 is_stmt 1
	.loc 1 191 601 is_stmt 0
	addi	a5,a5,16
	sw	a5,0(s9)
	.loc 1 191 717 is_stmt 1
	.loc 1 191 734 is_stmt 0
	li	a1,-2147479552
	.loc 1 191 872
	li	a5,1032192
	.loc 1 191 734
	sw	a4,-736(a1)
	.loc 1 191 855 is_stmt 1
	.loc 1 191 872 is_stmt 0
	addi	a5,a5,127
	sw	a5,0(s6)
.LBE186:
	.loc 1 191 905 is_stmt 1
	.loc 1 191 906
	.loc 1 191 923 is_stmt 0
	li	a2,-2147479552
	sw	zero,-480(a2)
	.loc 1 191 928 is_stmt 1
	.loc 1 191 945 is_stmt 0
	lw	a2,60(sp)
	.loc 1 191 994
	li	a4,393216
	li	a5,-2147483648
	.loc 1 191 945
	sw	a2,0(s6)
	.loc 1 191 977 is_stmt 1
	.loc 1 191 978
	.loc 1 191 994 is_stmt 0
	addi	a4,a4,1
	sw	a4,20(a5)
	j	.L35
.LVL192:
.L49:
	lw	s2,128(sp)
	lw	s3,132(sp)
	lw	s1,136(sp)
	lw	s0,140(sp)
.LVL193:
.L37:
	.loc 1 181 23 is_stmt 1 discriminator 2
	.loc 1 181 17 is_stmt 0 discriminator 1
	lw	a5,32(sp)
	.loc 1 181 23 discriminator 2
	addi	s1,s1,1
.LVL194:
	.loc 1 181 17 is_stmt 1 discriminator 1
	sub	s2,s2,s0
	add	a5,a5,s0
	sw	a5,32(sp)
	lw	a5,36(sp)
	sub	a5,a5,s0
	sw	a5,36(sp)
	lw	a5,100(sp)
	add	a5,a5,s0
	sw	a5,100(sp)
	bne	s1,s3,.L40
	.loc 1 226 1 is_stmt 0
	lw	ra,204(sp)
	.cfi_remember_state
	.cfi_restore 1
	lw	s0,200(sp)
	.cfi_restore 8
	lw	s2,192(sp)
	.cfi_restore 18
	lw	s5,180(sp)
	.cfi_restore 21
	lw	s6,176(sp)
	.cfi_restore 22
	lw	s7,172(sp)
	.cfi_restore 23
	lw	s8,168(sp)
	.cfi_restore 24
	lw	s9,164(sp)
	.cfi_restore 25
	lw	s10,160(sp)
	.cfi_restore 26
	lw	s11,156(sp)
	.cfi_restore 27
	lw	s1,196(sp)
	.cfi_restore 9
.LVL195:
	lw	s3,188(sp)
	.cfi_restore 19
	lw	s4,184(sp)
	.cfi_restore 20
	addi	sp,sp,208
	.cfi_def_cfa_offset 0
	jr	ra
.LVL196:
.L47:
	.cfi_restore_state
	lw	s2,96(sp)
	lw	s3,124(sp)
	lw	s1,128(sp)
	lw	s0,132(sp)
	sw	zero,36(sp)
	j	.L37
	.cfi_endproc
.LFE1:
	.size	canny_phase_1, .-canny_phase_1
	.align	2
	.type	canny_phase_0, @function
canny_phase_0:
.LFB0:
	.loc 1 49 45 is_stmt 1
	.cfi_startproc
.LVL197:
	.loc 1 50 4
	.loc 1 49 45 is_stmt 0
	addi	sp,sp,-224
	.cfi_def_cfa_offset 224
	sw	s2,208(sp)
	sw	ra,220(sp)
	sw	s0,216(sp)
	sw	s1,212(sp)
	sw	s3,204(sp)
	sw	s5,196(sp)
	sw	s6,192(sp)
	.cfi_offset 18, -16
	.cfi_offset 1, -4
	.cfi_offset 8, -8
	.cfi_offset 9, -12
	.cfi_offset 19, -20
	.cfi_offset 21, -28
	.cfi_offset 22, -32
	.loc 1 68 14
	lw	s1,32(a0)
	.loc 1 61 9
	lw	s3,44(a0)
	.loc 1 62 9
	lw	s5,48(a0)
	.loc 1 68 20
	addi	a4,s1,31
	.loc 1 68 9
	srai	a5,a4,31
	andi	a5,a5,31
	add	a5,a5,a4
	.loc 1 67 14
	lw	s6,28(a0)
	.loc 1 49 45
	mv	t6,a0
.LVL198:
	.loc 1 51 4 is_stmt 1
	.loc 1 52 4
	.loc 1 53 4
	.loc 1 54 4
	.loc 1 55 4
	.loc 1 56 4
	.loc 1 57 4
	.loc 1 58 4
	.loc 1 59 4
	.loc 1 61 4
	.loc 1 62 4
	.loc 1 63 4
	.loc 1 64 4
	.loc 1 65 4
	.loc 1 66 4
	.loc 1 67 4
	.loc 1 68 4
	.loc 1 68 9 is_stmt 0
	srai	s2,a5,5
.LVL199:
	.loc 1 69 4 is_stmt 1
	.loc 1 70 4
	.loc 1 70 6 is_stmt 0
	bne	a1,zero,.L51
	sw	s4,200(sp)
	.loc 1 72 26
	li	a5,63
	mv	s0,a1
	.loc 1 71 7 is_stmt 1
.LVL200:
	.loc 1 72 7
	.cfi_offset 20, -24
	.loc 1 72 26 is_stmt 0
	bgt	a4,a5,.L65
.LVL201:
.L52:
	.loc 1 80 18
	li	s4,-2147483648
	li	a4,1015808000
.LVL202:
	sw	t6,12(sp)
.LVL203:
	.loc 1 80 1 is_stmt 1
	.loc 1 80 2
	.loc 1 80 18 is_stmt 0
	addi	a4,a4,4
	.loc 1 81 4
	li	a5,-2147483648
	.loc 1 80 18
	sw	a4,20(s4)
	.loc 1 81 4 is_stmt 1
	sw	zero,36(a5)
	.loc 1 81 4
	call	_taskYield
.LVL204:
	.loc 1 81 18 discriminator 1
	.loc 1 82 4
	.loc 1 82 16 is_stmt 0
	lw	t6,12(sp)
	.loc 1 80 18
	addi	s4,s4,20
	.loc 1 82 16
	lw	a3,36(t6)
	.loc 1 82 12
	lw	a5,40(t6)
	.loc 1 83 9
	lw	a2,0(t6)
	.loc 1 84 19
	mul	a4,a3,s5
	.loc 1 88 13
	lw	a0,4(t6)
	.loc 1 82 12
	mul	a5,a3,a5
.LVL205:
	.loc 1 83 4 is_stmt 1
	.loc 1 84 4
	.loc 1 86 9 is_stmt 0
	sub	a1,a4,a3
	add	a2,a1,a2
.LVL206:
	sw	a2,120(sp)
	.loc 1 84 12
	sub	a5,a5,a4
.LVL207:
	.loc 1 85 4 is_stmt 1
	.loc 1 86 4
	.loc 1 87 4
	.loc 1 87 12 is_stmt 0
	add	a5,a3,a5
.LVL208:
	sw	a5,124(sp)
.LVL209:
	.loc 1 88 4 is_stmt 1
	.loc 1 89 4
	.loc 1 91 4
	.loc 1 91 17 discriminator 1
	bge	s0,s2,.L63
	.loc 1 67 20 is_stmt 0
	addi	a3,s6,14
	.loc 1 67 9
	li	a4,15
	div	a4,a3,a4
	.loc 1 69 25
	addi	s1,s1,3
.LVL210:
	.loc 1 69 5
	srai	a5,s1,31
.LVL211:
	andi	a5,a5,3
	add	a5,a5,s1
	srai	a5,a5,2
	.loc 1 67 9
	sw	a4,132(sp)
.LBB187:
	.loc 1 131 2673
	srli	a4,a0,1
	sw	a4,128(sp)
	ble	s6,zero,.L63
	sw	s7,188(sp)
.LVL212:
	sw	s8,184(sp)
	sw	s9,180(sp)
	sw	s10,176(sp)
	sw	s11,172(sp)
	slli	a4,s0,3
	sub	s1,a5,a4
.LVL213:
.LBE187:
	.loc 1 89 9
	lw	a5,8(t6)
	sw	s1,116(sp)
	sw	a5,136(sp)
.LVL214:
	.loc 1 92 17 is_stmt 1 discriminator 1
	.cfi_offset 23, -36
	.cfi_offset 24, -40
	.cfi_offset 25, -44
	.cfi_offset 26, -48
	.cfi_offset 27, -52
	bne	s0,zero,.L66
	.loc 1 93 10
.LVL215:
	.loc 1 95 10
.LBB188:
	.loc 1 100 3
	.loc 1 100 38
	.loc 1 100 66
	.loc 1 100 88
	.loc 1 100 133
	.loc 1 100 162
	.loc 1 100 224
	.loc 1 100 287
	.loc 1 100 309
	.loc 1 100 329
	.loc 1 100 375
	.loc 1 100 418
	.loc 1 100 440
	.loc 1 100 460
	.loc 1 100 516
	.loc 1 100 543
	.loc 1 100 565
	.loc 1 100 585
	.loc 1 100 717
	.loc 1 100 855
.LBE188:
	.loc 1 100 904
	.loc 1 100 905
	.loc 1 100 927
	.loc 1 100 975
	.loc 1 100 976
.LBB189:
	.loc 1 100 54 is_stmt 0
	li	a5,-2147483648
	li	a4,4096
	sw	a4,800(a5)
.LVL216:
	.loc 1 100 82
	li	t4,-2147483648
	.loc 1 100 105
	li	a4,16384
	.loc 1 100 82
	sw	zero,928(t4)
	.loc 1 100 105
	li	a5,-2147483648
	addi	a4,a4,-1
	sw	a4,1440(a5)
	.loc 1 100 150
	li	t0,-2147479552
	sw	zero,-1248(t0)
	.loc 1 100 179
	li	a5,-2147483648
	li	a4,5
	sw	a4,1824(a5)
	.loc 1 100 241
	li	a3,48
	li	s5,-2147483648
.LVL217:
	sw	a3,1696(s5)
	.loc 1 100 304
	li	a5,287
	li	t3,-2147483648
	sw	a5,1952(t3)
	.loc 1 100 326
	li	ra,-2147479552
	sw	zero,-1120(ra)
	.loc 1 100 346
	li	a7,-2147479552
	sw	zero,-1888(a7)
	.loc 1 100 392
	li	a4,-2147479552
	li	a2,8
.LVL218:
	sw	a2,-2016(a4)
	.loc 1 100 435
	li	t5,-2147479552
	sw	a5,-1760(t5)
	.loc 1 100 457
	li	a6,-2147479552
	sw	zero,-992(a6)
	.loc 1 100 476
	li	a4,-2147483648
	li	a2,7
	sw	a2,672(a4)
	.loc 1 100 532
	li	t1,-2147483648
	li	a4,1
	sw	a4,1056(t1)
	.loc 1 100 560
	li	a0,-2147483648
.LVL219:
	sw	a5,1568(a0)
	.loc 1 100 582
	li	a1,-2147479552
	.loc 1 100 601
	li	a4,524288
	.loc 1 100 582
	sw	zero,-864(a1)
	.loc 1 100 601
	li	a5,-2147483648
	addi	a4,a4,16
	sw	a4,544(a5)
	.loc 1 100 734
	li	a2,-2147479552
	.loc 1 100 872
	li	a4,1032192
	.loc 1 100 734
	sw	a3,-736(a2)
	.loc 1 100 872
	li	a5,-2147479552
	addi	a4,a4,95
	sw	a4,-1632(a5)
.LBE189:
	.loc 1 100 922
	li	a3,-2147479552
	.loc 1 100 944
	li	t2,1036288
	.loc 1 100 922
	sw	zero,-480(a3)
	.loc 1 100 944
	addi	t2,t2,-1955
	.loc 1 100 992
	li	a4,393216
	.loc 1 100 944
	sw	t2,-1632(a5)
	.loc 1 100 992
	addi	a4,a4,1
.LBB190:
	.loc 1 107 2003
	li	a5,67108864
.LBE190:
	.loc 1 100 992
	sw	a4,0(s4)
.LBB191:
	.loc 1 100 532
	addi	t1,t1,1056
	.loc 1 100 435
	addi	t5,t5,-1760
.LBE191:
.LBB192:
	.loc 1 107 2003
	addi	a5,a5,-1
.LBE192:
.LBB193:
	.loc 1 100 82
	addi	t4,t4,928
.LBE193:
	.loc 1 100 992
	sw	zero,44(sp)
	sw	zero,40(sp)
.LBB194:
	.loc 1 107 2003
	sw	a5,100(sp)
	sw	s2,104(sp)
	sw	s3,108(sp)
	sw	s3,28(sp)
	sw	s1,112(sp)
	sw	s0,140(sp)
	mv	s8,t5
	mv	s9,t1
	j	.L57
.LVL220:
.L67:
.LBE194:
	.loc 1 93 10 is_stmt 1
	.loc 1 95 10
.LBB195:
	.loc 1 97 3
	.loc 1 97 38
	.loc 1 97 54 is_stmt 0
	sw	a4,0(a5)
.LVL221:
	.loc 1 97 66 is_stmt 1
	.loc 1 97 82 is_stmt 0
	sw	zero,0(t4)
	.loc 1 97 88 is_stmt 1
	.loc 1 97 105 is_stmt 0
	lw	s11,48(sp)
	lw	t1,16(sp)
	.loc 1 97 179
	li	a0,5
	.loc 1 97 241
	li	s0,48
	.loc 1 97 105
	sw	s11,0(t1)
	.loc 1 97 133 is_stmt 1
	.loc 1 97 150 is_stmt 0
	lw	ra,20(sp)
	.loc 1 97 392
	li	a1,8
	.loc 1 97 150
	sw	zero,0(ra)
	.loc 1 97 162 is_stmt 1
	.loc 1 97 179 is_stmt 0
	sw	a0,0(a6)
	.loc 1 97 224 is_stmt 1
	.loc 1 97 241 is_stmt 0
	sw	s0,0(t0)
	.loc 1 97 287 is_stmt 1
	.loc 1 97 304 is_stmt 0
	sw	s1,0(a7)
	.loc 1 97 309 is_stmt 1
	.loc 1 97 326 is_stmt 0
	sw	zero,0(s7)
	.loc 1 97 329 is_stmt 1
	.loc 1 97 346 is_stmt 0
	sw	zero,0(t2)
	.loc 1 97 375 is_stmt 1
	.loc 1 97 392 is_stmt 0
	sw	a1,0(t3)
	.loc 1 97 418 is_stmt 1
	.loc 1 97 435 is_stmt 0
	sw	s1,0(s8)
	.loc 1 97 440 is_stmt 1
	.loc 1 97 457 is_stmt 0
	sw	zero,0(s6)
	.loc 1 97 460 is_stmt 1
	.loc 1 97 476 is_stmt 0
	sw	a3,0(s5)
	.loc 1 97 516 is_stmt 1
	.loc 1 97 532 is_stmt 0
	sw	a2,0(s9)
	.loc 1 97 543 is_stmt 1
	.loc 1 97 560 is_stmt 0
	sw	s1,0(s4)
	.loc 1 97 565 is_stmt 1
	.loc 1 97 582 is_stmt 0
	sw	zero,0(s3)
	.loc 1 97 585 is_stmt 1
	.loc 1 97 601 is_stmt 0
	lw	s11,92(sp)
	sw	s11,0(s2)
	.loc 1 97 717 is_stmt 1
	.loc 1 97 734 is_stmt 0
	sw	s0,0(s10)
	.loc 1 97 855 is_stmt 1
	.loc 1 97 872 is_stmt 0
	lw	s10,52(sp)
	sw	s10,0(t5)
.LBE195:
.LBB196:
	.loc 1 97 905 is_stmt 1
.LVL222:
	.loc 1 97 954
	.loc 1 97 970 is_stmt 0
	sw	a4,0(a5)
	.loc 1 97 982 is_stmt 1
	.loc 1 97 998 is_stmt 0
	sw	zero,0(t4)
	.loc 1 97 1004 is_stmt 1
	.loc 1 97 1021 is_stmt 0
	addi	a4,a4,-1
	sw	a4,0(t1)
	.loc 1 97 1049 is_stmt 1
	.loc 1 97 1066 is_stmt 0
	li	a4,12288
	sw	a4,0(ra)
	.loc 1 97 1078 is_stmt 1
	.loc 1 97 1095 is_stmt 0
	sw	a0,0(a6)
	.loc 1 97 1140 is_stmt 1
	.loc 1 97 1157 is_stmt 0
	sw	s0,0(t0)
	.loc 1 97 1203 is_stmt 1
	.loc 1 97 1220 is_stmt 0
	sw	s1,0(a7)
	.loc 1 97 1225 is_stmt 1
	.loc 1 97 1242 is_stmt 0
	sw	zero,0(s7)
	.loc 1 97 1245 is_stmt 1
	.loc 1 97 1262 is_stmt 0
	sw	zero,0(t2)
	.loc 1 97 1321 is_stmt 1
	.loc 1 97 1338 is_stmt 0
	sw	a1,0(t3)
	.loc 1 97 1364 is_stmt 1
	.loc 1 97 1381 is_stmt 0
	sw	s1,0(s8)
	.loc 1 97 1386 is_stmt 1
	.loc 1 97 1403 is_stmt 0
	sw	zero,0(s6)
	.loc 1 97 1406 is_stmt 1
	.loc 1 97 1422 is_stmt 0
	sw	a3,0(s5)
	.loc 1 97 1462 is_stmt 1
	.loc 1 97 1478 is_stmt 0
	sw	a2,0(s9)
	.loc 1 97 1489 is_stmt 1
	.loc 1 97 1506 is_stmt 0
	sw	s1,0(s4)
	.loc 1 97 1511 is_stmt 1
	.loc 1 97 1547 is_stmt 0
	li	a4,536576
	.loc 1 97 1528
	sw	zero,0(s3)
	.loc 1 97 1531 is_stmt 1
	.loc 1 97 1547 is_stmt 0
	addi	a4,a4,40
	sw	a4,0(s2)
	.loc 1 97 1677 is_stmt 1
	.loc 1 97 1694 is_stmt 0
	lw	a3,88(sp)
	sw	a3,0(t5)
.LBE196:
	.loc 1 97 1726 is_stmt 1
	.loc 1 97 1727
	.loc 1 97 1743 is_stmt 0
	lw	a7,96(sp)
	lw	a5,12(sp)
	sw	a7,0(a5)
.LVL223:
.L57:
	.loc 1 103 1 is_stmt 1
	.loc 1 103 2
	.loc 1 103 18 is_stmt 0
	li	a5,-2147483648
	addi	a5,a5,20
	sw	a5,12(sp)
	lw	a3,12(sp)
	li	a4,88
.LBB197:
	.loc 1 107 220
	li	a5,-2147483648
.LBE197:
	.loc 1 103 18
	sw	a4,0(a3)
.LBB198:
	.loc 1 107 3 is_stmt 1
.LVL224:
	.loc 1 107 204
	.loc 1 107 220 is_stmt 0
	li	a3,96
	sw	a3,800(a5)
	.loc 1 107 321
	li	a2,7
	.loc 1 107 344
	li	a4,-2147483648
	.loc 1 107 321
	sw	a2,0(t4)
	.loc 1 107 344
	addi	a4,a4,1440
	sw	a4,16(sp)
	.loc 1 107 220
	mv	ra,a3
	.loc 1 107 344
	li	a3,767
	sw	a3,0(a4)
	.loc 1 107 471
	li	a1,-2147479552
	sw	a1,20(sp)
	sw	zero,-1248(a1)
	.loc 1 107 573
	li	t0,-2147483648
	li	a1,16
	sw	a1,1696(t0)
	.loc 1 107 649
	li	a6,-2147483648
	li	s10,5
	sw	s10,1824(a6)
	.loc 1 107 672
	li	a7,-2147483648
	li	a0,95
	sw	a0,1952(a7)
	.loc 1 107 778
	li	s7,-2147479552
	sw	zero,-1120(s7)
	.loc 1 107 854
	li	t3,-2147479552
	li	t5,4
	.loc 1 107 912
	li	s0,3
	.loc 1 107 854
	sw	t5,-2016(t3)
	.loc 1 107 912
	li	t2,-2147479552
	sw	s0,-1888(t2)
	.loc 1 107 935
	li	a4,15
	.loc 1 107 1015
	li	s6,-2147479552
	.loc 1 107 935
	sw	a4,0(s8)
	.loc 1 107 1015
	sw	zero,-992(s6)
	.loc 1 107 1072
	li	a4,1
	.loc 1 107 1099
	li	s5,-2147483648
	.loc 1 107 1072
	sw	a4,0(s9)
	.loc 1 107 1122
	li	s4,-2147483648
	.loc 1 107 1099
	sw	s0,672(s5)
	.loc 1 107 1180
	li	s3,-2147479552
	.loc 1 107 1122
	sw	s0,1568(s4)
	.loc 1 107 1406
	li	s2,-2147483648
	.loc 1 107 1180
	sw	zero,-864(s3)
	.loc 1 107 1453
	li	s1,-2147479552
	.loc 1 107 1406
	sw	zero,544(s2)
	.loc 1 107 1453
	addi	a1,s1,-736
	sw	a1,32(sp)
	li	s1,768
	.loc 1 107 1509
	li	s11,1036288
	.loc 1 107 1453
	sw	s1,0(a1)
	.loc 1 107 1509
	addi	s11,s11,-1889
	li	t5,-2147479552
	sw	s11,60(sp)
	sw	s11,-1632(t5)
.LBE198:
.LBB199:
	.loc 1 107 2289
	lw	t1,28(sp)
	lw	a0,124(sp)
	.loc 1 107 1782
	lw	a4,36(t6)
	.loc 1 107 2260
	li	s1,-2147479552
	.loc 1 107 2289
	sub	a0,a0,t1
	sw	a0,24(sp)
	.loc 1 107 1782
	slli	a4,a4,2
	.loc 1 107 1751
	sw	a4,1696(t0)
	.loc 1 107 1804
	sw	a2,1824(a6)
	.loc 1 107 1837
	lw	a3,36(t6)
	lw	a4,116(sp)
	.loc 1 107 2260
	addi	s1,s1,-96
	sw	s1,48(sp)
	.loc 1 107 1837
	mul	a3,a4,a3
	.loc 1 107 2318
	lw	s1,120(sp)
	sw	t1,28(sp)
.LBE199:
.LBB200:
	.loc 1 107 2615
	li	a2,16384
.LBE200:
.LBB201:
	.loc 1 107 2318
	add	s1,s1,t1
	sw	s1,36(sp)
.LBE201:
.LBB202:
	.loc 1 107 2615
	addi	s11,a2,-1
.LBE202:
.LBB203:
	.loc 1 107 2362
	li	a0,1036288
	addi	a0,a0,157
.LBE203:
	.loc 1 107 2411
	li	a4,393216
.LBB204:
	.loc 1 107 1837
	slli	a3,a3,2
	.loc 1 107 1868
	addi	a3,a3,-1
	.loc 1 107 1827
	sw	a3,1952(a7)
	.loc 1 107 1888
	sw	zero,-1120(s7)
	.loc 1 107 1958
	lw	a3,36(t6)
.LBE204:
	.loc 1 107 2411
	addi	s1,a4,17
	mv	t1,s1
.LBB205:
	.loc 1 107 1941
	sw	a3,-2016(t3)
	.loc 1 107 1980
	sw	s10,-1888(t2)
	.loc 1 107 2003
	lw	a2,100(sp)
	.loc 1 107 2070
	li	a3,1
.LBE205:
.LBB206:
	.loc 1 107 2563
	li	a4,4096
.LBE206:
.LBB207:
	.loc 1 107 2003
	sw	a2,0(s8)
	.loc 1 107 2032
	sw	zero,-992(s6)
	.loc 1 107 2070
	sw	a3,0(s9)
	.loc 1 107 2097
	li	a3,15
	sw	a3,672(s5)
	.loc 1 107 2134
	lw	a3,36(t6)
	sw	t6,84(sp)
	.loc 1 107 2136
	lw	t6,28(sp)
	.loc 1 107 2134
	addi	a3,a3,-1
.LBE207:
.LBB208:
	.loc 1 107 2812
	li	s1,287
.LBE208:
.LBB209:
	.loc 1 107 2136
	sub	a3,a3,t6
	.loc 1 107 2120
	sw	a3,1568(s4)
	.loc 1 107 2159
	sw	t6,28(sp)
	sw	t6,-864(s3)
	.loc 1 107 2260
	lw	a3,48(sp)
	lw	t6,24(sp)
.LBE209:
.LBB210:
	.loc 1 107 220
	addi	a5,a5,800
	.loc 1 107 305 is_stmt 1
	.loc 1 107 327
	.loc 1 107 454
	.loc 1 107 556
	.loc 1 107 632
	.loc 1 107 655
	.loc 1 107 761
	.loc 1 107 837
	.loc 1 107 895
	.loc 1 107 918
	.loc 1 107 998
	.loc 1 107 1056
	.loc 1 107 1083
	.loc 1 107 1105
	.loc 1 107 1163
	.loc 1 107 1189
.LVL225:
	.loc 1 107 1390
	.loc 1 107 1435
	.loc 1 107 1436
	.loc 1 107 1492
.LBE210:
.LBB211:
	.loc 1 107 1542
.LBE211:
.LBB212:
	.loc 1 107 3119 is_stmt 0
	li	a1,524288
.LBE212:
.LBB213:
	.loc 1 107 2260
	sw	t6,0(a3)
	.loc 1 107 2313
	lw	t6,36(sp)
.LBE213:
.LBB214:
	.loc 1 107 3119
	addi	a1,a1,24
	.loc 1 107 3402
	li	a2,1032192
.LBE214:
.LBB215:
	.loc 1 107 2313
	sw	t6,544(s2)
	.loc 1 107 2362
	sw	a0,-1632(t5)
.LBE215:
	.loc 1 107 2411
	lw	a3,12(sp)
.LBB216:
	.loc 1 107 2749
	li	a0,48
	.loc 1 107 3050
	li	t6,1
.LBE216:
	.loc 1 107 2411
	sw	t1,0(a3)
.LBB217:
	.loc 1 107 2563
	sw	a4,-2016(t3)
	.loc 1 107 2592
	sw	s0,-1888(t2)
	.loc 1 107 2615
	sw	s11,0(s8)
	.loc 1 107 2660
	sw	zero,-992(s6)
	.loc 1 107 2689
	sw	s10,1824(a6)
	.loc 1 107 2749
	sw	a0,1696(t0)
	.loc 1 107 2812
	sw	s1,1952(a7)
	.loc 1 107 2834
	sw	zero,-1120(s7)
	.loc 1 107 2853
	sw	s0,672(s5)
	.loc 1 107 2912
	li	a3,8
	sw	a3,0(s9)
	.loc 1 107 2955
	sw	s1,1568(s4)
	.loc 1 107 2977
	sw	zero,-864(s3)
	.loc 1 107 2996
	li	a0,7
	sw	a0,0(t4)
	.loc 1 107 3050
	sw	a5,24(sp)
	sw	t6,0(a5)
	.loc 1 107 3078
	lw	a5,16(sp)
	.loc 1 107 3402
	addi	a2,a2,1183
.LBE217:
.LBB218:
	.loc 1 107 573
	addi	t0,t0,1696
.LBE218:
.LBB219:
	.loc 1 107 3078
	sw	s1,0(a5)
	.loc 1 107 3100
	lw	a3,20(sp)
.LBE219:
.LBB220:
	.loc 1 107 649
	addi	a6,a6,1824
	.loc 1 107 672
	addi	a7,a7,1952
.LBE220:
.LBB221:
	.loc 1 107 3100
	sw	zero,-1248(a3)
	.loc 1 107 3119
	sw	a1,544(s2)
	.loc 1 107 3254
	lw	a1,32(sp)
	li	a3,768
.LBE221:
.LBB222:
	.loc 1 107 912
	addi	t2,t2,-1888
.LBE222:
.LBB223:
	.loc 1 107 3254
	sw	a3,0(a1)
	.loc 1 107 3402
	sw	a2,-1632(t5)
.LBE223:
.LBB224:
	.loc 1 107 3652
	lw	a5,24(sp)
	.loc 1 107 3753
	mv	a3,a0
.LBE224:
.LBB225:
	.loc 1 107 854
	addi	t3,t3,-2016
.LBE225:
.LBB226:
	.loc 1 107 3652
	sw	ra,0(a5)
	.loc 1 107 3753
	sw	a0,0(t4)
	.loc 1 107 3776
	lw	a2,16(sp)
	li	ra,767
.LBE226:
.LBB227:
	.loc 1 113 245
	li	a0,48
.LBE227:
.LBB228:
	.loc 1 107 3776
	sw	ra,0(a2)
	.loc 1 107 3903
	lw	ra,20(sp)
	.loc 1 107 4005
	li	a2,16
.LBE228:
.LBB229:
	.loc 1 107 1509
	addi	t5,t5,-1632
.LBE229:
.LBB230:
	.loc 1 107 3903
	sw	zero,-1248(ra)
	.loc 1 107 4005
	sw	a2,0(t0)
	.loc 1 107 4081
	sw	s10,0(a6)
	.loc 1 107 0
	li	ra,95
	sw	ra,0(a7)
	sw	zero,-1120(s7)
	li	a2,4
	sw	a2,0(t3)
	li	a2,15
	sw	s0,0(t2)
	sw	a2,0(s8)
	sw	zero,-992(s6)
	sw	t6,0(s9)
	sw	s0,672(s5)
	sw	s0,1568(s4)
	sw	zero,-864(s3)
	li	ra,1036288
	sw	zero,544(s2)
	addi	ra,ra,-1891
	sw	ra,64(sp)
	sw	ra,0(t5)
.LBE230:
	lw	a2,12(sp)
	sw	t1,36(sp)
.LBB231:
	.loc 1 107 778
	addi	s7,s7,-1120
.LBE231:
	.loc 1 107 0
	sw	t1,0(a2)
.LBB232:
	.loc 1 113 58
	sw	a5,24(sp)
	sw	a4,0(a5)
	.loc 1 113 86
	li	a2,2
	sw	a2,0(t4)
	.loc 1 113 109
	lw	a5,16(sp)
	.loc 1 113 780
	mv	t1,a1
.LBE232:
.LBB233:
	.loc 1 107 1015
	addi	s6,s6,-992
.LBE233:
.LBB234:
	.loc 1 113 109
	sw	s11,0(a5)
	.loc 1 113 154
	lw	ra,20(sp)
.LBE234:
.LBB235:
	.loc 1 107 1099
	addi	s5,s5,672
	.loc 1 107 1122
	addi	s4,s4,1568
.LBE235:
.LBB236:
	.loc 1 113 154
	sw	zero,-1248(ra)
	.loc 1 113 183
	sw	s10,0(a6)
	.loc 1 113 245
	sw	a0,0(t0)
	.loc 1 113 308
	sw	s1,0(a7)
	.loc 1 113 330
	sw	zero,0(s7)
	.loc 1 113 350
	sw	zero,0(t2)
	.loc 1 113 424
	li	a0,8
	sw	a0,0(t3)
	.loc 1 113 467
	sw	s1,0(s8)
	.loc 1 113 489
	sw	zero,0(s6)
	.loc 1 113 508
	sw	a3,0(s5)
	.loc 1 113 564
	sw	t6,0(s9)
	.loc 1 113 592
	sw	s1,0(s4)
	.loc 1 113 633
	li	a3,524288
	.loc 1 113 614
	sw	zero,-864(s3)
	.loc 1 113 633
	addi	a3,a3,56
	sw	a3,544(s2)
	.loc 1 113 780
	li	a0,144
	.loc 1 113 946
	li	ra,1032192
	.loc 1 113 780
	sw	a0,0(a1)
	.loc 1 113 946
	addi	a1,ra,159
	sw	a1,52(sp)
	sw	a1,0(t5)
.LBE236:
.LBB237:
	.loc 1 113 1040
	lw	a3,24(sp)
	.loc 1 113 1091
	li	a1,12288
	addi	a1,a1,-1
	.loc 1 113 1040
	sw	a4,0(a3)
	.loc 1 113 1068
	sw	a2,0(t4)
	.loc 1 113 1091
	sw	a5,16(sp)
	sw	a1,0(a5)
	.loc 1 113 1136
	lw	ra,20(sp)
	.loc 1 113 1227
	li	a3,48
.LBE237:
.LBB238:
	.loc 1 107 1180
	addi	s3,s3,-864
.LBE238:
.LBB239:
	.loc 1 113 1136
	sw	a4,-1248(ra)
	.loc 1 113 1165
	sw	s10,0(a6)
	.loc 1 113 1227
	sw	a3,0(t0)
	.loc 1 113 1290
	sw	s1,0(a7)
	.loc 1 113 1312
	sw	zero,0(s7)
	.loc 1 113 1332
	sw	zero,0(t2)
	.loc 1 113 1382
	li	a3,8
	sw	a3,0(t3)
	.loc 1 113 1425
	sw	s1,0(s8)
	.loc 1 113 1447
	sw	zero,0(s6)
	.loc 1 113 1466
	li	a3,7
	sw	a3,0(s5)
	.loc 1 113 1522
	sw	t6,0(s9)
	.loc 1 113 1550
	sw	s1,0(s4)
	.loc 1 113 1591
	li	a3,528384
	.loc 1 113 1572
	sw	zero,0(s3)
	.loc 1 113 1591
	addi	a3,a3,24
	.loc 1 113 1726
	li	ra,1032192
	.loc 1 113 1591
	sw	a3,544(s2)
	.loc 1 113 1726
	addi	a3,ra,157
	mv	ra,a3
	sw	ra,0(t5)
.LBE239:
	.loc 1 113 1775
	lw	a5,12(sp)
	li	a3,393216
	addi	a3,a3,9
	sw	a3,0(a5)
.LBB240:
	.loc 1 117 64
	lw	a5,24(sp)
.LBE240:
.LBB241:
	.loc 1 107 1406
	addi	s2,s2,544
.LBE241:
.LBB242:
	.loc 1 117 64
	sw	a4,0(a5)
	.loc 1 117 92
	sw	a2,0(t4)
	.loc 1 117 115
	lw	a5,16(sp)
	sw	a1,0(a5)
	.loc 1 117 160
	lw	a5,20(sp)
	.loc 1 117 251
	li	a1,48
	.loc 1 117 160
	sw	a4,-1248(a5)
	.loc 1 117 189
	sw	s10,0(a6)
	.loc 1 117 251
	sw	a1,0(t0)
	.loc 1 117 314
	sw	s1,0(a7)
	.loc 1 117 336
	sw	zero,0(s7)
	.loc 1 117 356
	sw	zero,0(t2)
	.loc 1 117 402
	li	a1,8
	sw	a1,0(t3)
	.loc 1 117 445
	sw	s1,0(s8)
	.loc 1 117 467
	sw	zero,0(s6)
	.loc 1 117 486
	li	a1,7
	sw	a1,0(s5)
	.loc 1 117 542
	sw	t6,0(s9)
	.loc 1 117 570
	sw	s1,0(s4)
	.loc 1 117 611
	li	a1,528384
	.loc 1 117 592
	sw	zero,0(s3)
	.loc 1 117 611
	addi	a1,a1,16
	sw	a1,0(s2)
	.loc 1 117 744
	sw	a0,0(t1)
	.loc 1 117 882
	lw	a0,52(sp)
	sw	a0,0(t5)
.LBE242:
.LBB243:
	.loc 1 117 970
	lw	a1,24(sp)
	.loc 1 117 1095
	mv	a0,s10
	.loc 1 117 970
	sw	a4,0(a1)
	.loc 1 117 998
	sw	a2,0(t4)
	.loc 1 117 1021
	lw	a2,16(sp)
	.loc 1 117 998
	sw	t4,80(sp)
	.loc 1 117 1330
	li	t4,8
	.loc 1 117 1021
	sw	s11,0(a2)
	.loc 1 117 1066
	sw	zero,-1248(a5)
	.loc 1 117 1095
	sw	s10,0(a6)
	.loc 1 117 1157
	li	s10,48
	sw	s10,0(t0)
	.loc 1 117 1220
	sw	s1,0(a7)
	.loc 1 117 1242
	sw	zero,0(s7)
	.loc 1 117 1262
	sw	zero,0(t2)
	.loc 1 117 1330
	sw	t4,0(t3)
	.loc 1 117 1373
	sw	s1,0(s8)
	.loc 1 117 1395
	sw	zero,0(s6)
	.loc 1 117 1414
	li	a1,7
	sw	a1,0(s5)
	.loc 1 117 1470
	sw	t6,0(s9)
	.loc 1 117 1539
	li	a2,524288
	.loc 1 117 1498
	sw	s1,0(s4)
	.loc 1 117 1539
	addi	a2,a2,48
	.loc 1 117 1520
	sw	zero,0(s3)
	.loc 1 117 1539
	sw	a2,0(s2)
	.loc 1 117 1682
	sw	ra,88(sp)
	sw	ra,0(t5)
.LBE243:
	.loc 1 117 1731
	lw	a2,12(sp)
	.loc 1 119 18
	li	ra,88
	.loc 1 125 18
	li	a1,1015812096
	.loc 1 117 1731
	sw	a3,0(a2)
	.loc 1 119 18
	lw	a3,12(sp)
.LBB244:
	.loc 1 122 609
	li	a2,6
.LBE244:
	.loc 1 125 18
	addi	a1,a1,516
	.loc 1 119 18
	sw	ra,0(a3)
.LBB245:
	.loc 1 122 55
	sw	a4,0(t0)
	sw	t0,76(sp)
	.loc 1 122 84
	sw	zero,0(a6)
	sw	a6,72(sp)
	.loc 1 122 107
	sw	s11,0(a7)
	sw	a7,68(sp)
	.loc 1 122 152
	sw	zero,0(s7)
	.loc 1 122 181
	sw	zero,0(t2)
	sw	t2,56(sp)
	.loc 1 122 227
	sw	s10,0(t3)
	sw	t3,48(sp)
	.loc 1 122 290
	sw	s1,0(s8)
	.loc 1 122 312
	sw	zero,0(s6)
	.loc 1 122 331
	sw	a0,0(s5)
	.loc 1 122 392
	sw	t4,0(s9)
	.loc 1 122 435
	sw	s1,0(s4)
	.loc 1 122 476
	li	a6,524288
	.loc 1 122 457
	sw	zero,0(s3)
	.loc 1 122 476
	addi	a6,a6,16
	sw	a6,92(sp)
	sw	a6,0(s2)
	.loc 1 122 712
	li	a3,524288
	.loc 1 122 609
	sw	a2,0(t1)
	.loc 1 122 712
	addi	a3,a3,95
	sw	a3,0(t5)
.LBE245:
	.loc 1 122 819
	li	a2,-2147479552
	.loc 1 122 841
	li	a3,1036288
	.loc 1 122 819
	sw	zero,-480(a2)
	.loc 1 122 841
	addi	a3,a3,-1955
	sw	a3,0(t5)
	.loc 1 122 889
	li	a7,393216
	addi	a7,a7,1
	.loc 1 122 841
	sw	t5,32(sp)
	.loc 1 122 889
	sw	a7,96(sp)
.LVL226:
.LBB246:
	.loc 1 107 1734 is_stmt 1
	.loc 1 107 1787
	.loc 1 107 1810
	.loc 1 107 1871
	.loc 1 107 1924
	.loc 1 107 1963
	.loc 1 107 1986
	.loc 1 107 2015
	.loc 1 107 2054
	.loc 1 107 2081
	.loc 1 107 2103
	.loc 1 107 2142
	.loc 1 107 2168
	.loc 1 107 2243
	.loc 1 107 2296
	.loc 1 107 2297
	.loc 1 107 2344
	.loc 1 107 2345
.LBE246:
	.loc 1 107 2394
	.loc 1 107 2395
.LBB247:
	.loc 1 107 2501
	.loc 1 107 2546
	.loc 1 107 2575
	.loc 1 107 2598
	.loc 1 107 2643
	.loc 1 107 2672
	.loc 1 107 2732
	.loc 1 107 2795
	.loc 1 107 2817
	.loc 1 107 2837
	.loc 1 107 2896
	.loc 1 107 2938
	.loc 1 107 2960
	.loc 1 107 2980
	.loc 1 107 3034
	.loc 1 107 3061
	.loc 1 107 3083
	.loc 1 107 3103
	.loc 1 107 3237
	.loc 1 107 3385
.LBE247:
.LBB248:
	.loc 1 107 3435
	.loc 1 107 3636
	.loc 1 107 3737
	.loc 1 107 3759
	.loc 1 107 3886
	.loc 1 107 3988
	.loc 1 107 4064
	.loc 1 107 4087
	.loc 1 107 0
	.loc 1 107 0
	.loc 1 107 0
	.loc 1 107 0
	.loc 1 107 0
	.loc 1 107 0
	.loc 1 107 0
	.loc 1 107 0
	.loc 1 107 0
	.loc 1 107 0
	.loc 1 107 0
	.loc 1 107 0
	.loc 1 107 0
.LBE248:
	.loc 1 107 0
	.loc 1 107 0
.LBB249:
	.loc 1 113 3
	.loc 1 113 42
	.loc 1 113 70
	.loc 1 113 92
	.loc 1 113 137
	.loc 1 113 166
	.loc 1 113 228
	.loc 1 113 291
	.loc 1 113 313
	.loc 1 113 333
	.loc 1 113 407
	.loc 1 113 450
	.loc 1 113 472
	.loc 1 113 492
	.loc 1 113 548
	.loc 1 113 575
	.loc 1 113 597
	.loc 1 113 617
	.loc 1 113 763
	.loc 1 113 929
.LBE249:
.LBB250:
	.loc 1 113 979
	.loc 1 113 1024
	.loc 1 113 1052
	.loc 1 113 1074
	.loc 1 113 1119
	.loc 1 113 1148
	.loc 1 113 1210
	.loc 1 113 1273
	.loc 1 113 1295
	.loc 1 113 1315
	.loc 1 113 1365
	.loc 1 113 1408
	.loc 1 113 1430
	.loc 1 113 1450
	.loc 1 113 1506
	.loc 1 113 1533
	.loc 1 113 1555
	.loc 1 113 1575
	.loc 1 113 1709
.LBE250:
	.loc 1 113 1758
	.loc 1 113 1759
.LBB251:
	.loc 1 117 3
	.loc 1 117 48
	.loc 1 117 76
	.loc 1 117 98
	.loc 1 117 143
	.loc 1 117 172
	.loc 1 117 234
	.loc 1 117 297
	.loc 1 117 319
	.loc 1 117 339
	.loc 1 117 385
	.loc 1 117 428
	.loc 1 117 450
	.loc 1 117 470
	.loc 1 117 526
	.loc 1 117 553
	.loc 1 117 575
	.loc 1 117 595
	.loc 1 117 727
	.loc 1 117 865
.LBE251:
.LBB252:
	.loc 1 117 915
	.loc 1 117 954
	.loc 1 117 982
	.loc 1 117 1004
	.loc 1 117 1049
	.loc 1 117 1078
	.loc 1 117 1140
	.loc 1 117 1203
	.loc 1 117 1225
	.loc 1 117 1245
	.loc 1 117 1313
	.loc 1 117 1356
	.loc 1 117 1378
	.loc 1 117 1398
	.loc 1 117 1454
	.loc 1 117 1481
	.loc 1 117 1503
	.loc 1 117 1523
	.loc 1 117 1665
.LBE252:
	.loc 1 117 1714
	.loc 1 117 1715
	.loc 1 119 1
	.loc 1 119 2
	.loc 1 121 10
.LBB253:
	.loc 1 122 3
	.loc 1 122 38
	.loc 1 122 67
	.loc 1 122 90
	.loc 1 122 135
	.loc 1 122 164
	.loc 1 122 210
	.loc 1 122 273
	.loc 1 122 295
	.loc 1 122 315
	.loc 1 122 376
	.loc 1 122 418
	.loc 1 122 440
	.loc 1 122 460
	.loc 1 122 592
	.loc 1 122 695
.LBE253:
	.loc 1 122 801
	.loc 1 122 802
	.loc 1 122 824
	.loc 1 122 872
	.loc 1 122 873
	.loc 1 125 1
	.loc 1 125 2
	.loc 1 127 10
	.loc 1 127 10
	.loc 1 122 889 is_stmt 0
	lw	a4,12(sp)
	.loc 1 127 10
	li	a3,-2147483648
.LBB254:
	.loc 1 122 609
	mv	s10,t1
.LBE254:
	.loc 1 122 889
	sw	a7,0(a4)
.LVL227:
	.loc 1 125 18
	lw	a4,12(sp)
	sw	a1,0(a4)
	.loc 1 127 10
	sw	zero,36(a3)
	lw	t6,28(sp)
.LBB255:
	.loc 1 107 471
	addi	a4,a5,-1248
	sw	a4,20(sp)
	addi	t1,t6,15
	sw	t1,28(sp)
.LBE255:
	.loc 1 127 10
	call	_taskYield
.LVL228:
	.loc 1 127 24 is_stmt 1 discriminator 1
.LBB256:
	.loc 1 131 3
	.loc 1 131 186
	.loc 1 131 202 is_stmt 0
	lw	a5,24(sp)
	li	a6,64
	.loc 1 131 308
	li	a0,511
	.loc 1 131 202
	sw	a6,0(a5)
	.loc 1 131 269 is_stmt 1
	.loc 1 131 285 is_stmt 0
	lw	t4,80(sp)
	li	a5,7
	.loc 1 131 501
	li	a1,16
	.loc 1 131 285
	sw	a5,0(t4)
	.loc 1 131 291 is_stmt 1
	.loc 1 131 308 is_stmt 0
	lw	t1,16(sp)
	.loc 1 131 740
	li	t5,4
	.loc 1 131 809
	li	a3,15
	.loc 1 131 308
	sw	a0,0(t1)
	.loc 1 131 400 is_stmt 1
	.loc 1 131 417 is_stmt 0
	lw	a2,20(sp)
	.loc 1 131 922
	li	t6,1
	.loc 1 131 1249
	li	a4,512
	.loc 1 131 417
	sw	zero,0(a2)
	.loc 1 131 484 is_stmt 1
	.loc 1 131 501 is_stmt 0
	lw	t0,76(sp)
.LBE256:
.LBB257:
	.loc 1 131 1731
	li	a2,8
.LBE257:
.LBB258:
	.loc 1 131 501
	sw	a1,0(t0)
	.loc 1 131 548 is_stmt 1
	.loc 1 131 565 is_stmt 0
	lw	a6,72(sp)
	.loc 1 131 588
	li	a1,63
	.loc 1 131 565
	sw	s0,0(a6)
	.loc 1 131 571 is_stmt 1
	.loc 1 131 588 is_stmt 0
	lw	a7,68(sp)
	sw	a1,0(a7)
	.loc 1 131 659 is_stmt 1
	.loc 1 131 676 is_stmt 0
	sw	zero,0(s7)
	.loc 1 131 723 is_stmt 1
	.loc 1 131 740 is_stmt 0
	lw	t3,48(sp)
	sw	t5,0(t3)
	.loc 1 131 769 is_stmt 1
	.loc 1 131 786 is_stmt 0
	lw	t2,56(sp)
	sw	s0,0(t2)
	.loc 1 131 792 is_stmt 1
	.loc 1 131 809 is_stmt 0
	sw	a3,0(s8)
	.loc 1 131 860 is_stmt 1
	.loc 1 131 877 is_stmt 0
	sw	zero,0(s6)
	.loc 1 131 906 is_stmt 1
	.loc 1 131 922 is_stmt 0
	sw	t6,0(s9)
	.loc 1 131 933 is_stmt 1
	.loc 1 131 949 is_stmt 0
	sw	s0,0(s5)
	.loc 1 131 955 is_stmt 1
	.loc 1 131 972 is_stmt 0
	sw	s0,0(s4)
	.loc 1 131 1001 is_stmt 1
	.loc 1 131 1018 is_stmt 0
	sw	zero,0(s3)
	.loc 1 131 1027 is_stmt 1
.LVL229:
	.loc 1 131 1186
	.loc 1 131 1202 is_stmt 0
	sw	zero,0(s2)
	.loc 1 131 1231 is_stmt 1
	.loc 1 131 1232
	.loc 1 131 1249 is_stmt 0
	sw	a4,0(s10)
	.loc 1 131 1288 is_stmt 1
	.loc 1 131 1305 is_stmt 0
	lw	t5,32(sp)
	li	a3,1036288
	addi	a3,a3,-1921
	sw	a3,0(t5)
.LBE258:
.LBB259:
	.loc 1 131 1338 is_stmt 1
.LVL230:
	.loc 1 131 1383
	.loc 1 131 1400 is_stmt 0
	li	a4,4096
	sw	a4,0(t3)
	.loc 1 131 1412 is_stmt 1
	.loc 1 131 1429 is_stmt 0
	sw	s0,0(t2)
	.loc 1 131 1435 is_stmt 1
	.loc 1 131 1452 is_stmt 0
	sw	s11,48(sp)
	sw	s11,0(s8)
	.loc 1 131 1480 is_stmt 1
	.loc 1 131 1497 is_stmt 0
	sw	zero,0(s6)
	.loc 1 131 1509 is_stmt 1
	.loc 1 131 1526 is_stmt 0
	sw	s0,0(a6)
	.loc 1 131 1563 is_stmt 1
	.loc 1 131 1580 is_stmt 0
	li	a3,32
	sw	a3,0(t0)
	.loc 1 131 1620 is_stmt 1
	.loc 1 131 1637 is_stmt 0
	li	a3,127
	sw	a3,0(a7)
	.loc 1 131 1642 is_stmt 1
	.loc 1 131 1659 is_stmt 0
	sw	zero,0(s7)
	.loc 1 131 1662 is_stmt 1
	.loc 1 131 1678 is_stmt 0
	sw	s0,0(s5)
	.loc 1 131 1715 is_stmt 1
	.loc 1 131 1731 is_stmt 0
	sw	a2,0(s9)
	.loc 1 131 1757 is_stmt 1
	.loc 1 131 1774 is_stmt 0
	sw	a3,0(s4)
	.loc 1 131 1779 is_stmt 1
	.loc 1 131 1796 is_stmt 0
	sw	zero,0(s3)
	.loc 1 131 1799 is_stmt 1
	.loc 1 131 1815 is_stmt 0
	sw	a5,0(t4)
	.loc 1 131 1853 is_stmt 1
	.loc 1 131 1869 is_stmt 0
	lw	a5,24(sp)
	sw	t6,0(a5)
	.loc 1 131 1880 is_stmt 1
	.loc 1 131 1897 is_stmt 0
	sw	t1,16(sp)
	sw	a3,0(t1)
	.loc 1 131 1902 is_stmt 1
	.loc 1 131 1919 is_stmt 0
	lw	a2,20(sp)
	.loc 1 131 1938
	li	a5,524288
	addi	a5,a5,304
	.loc 1 131 1919
	sw	zero,0(a2)
	.loc 1 131 1922 is_stmt 1
	.loc 1 131 2066 is_stmt 0
	li	a2,1032192
	.loc 1 131 1938
	sw	a5,0(s2)
	.loc 1 131 2049 is_stmt 1
	.loc 1 131 2066 is_stmt 0
	addi	a2,a2,1149
	sw	a2,0(t5)
.LBE259:
	.loc 1 131 2098 is_stmt 1
	.loc 1 131 2099
	.loc 1 131 2115 is_stmt 0
	lw	t6,36(sp)
	lw	a5,12(sp)
	sw	t6,0(a5)
.LBB260:
	.loc 1 131 2205 is_stmt 1
.LVL231:
	.loc 1 131 2362 is_stmt 0
	lw	t6,84(sp)
	.loc 1 131 2660
	lw	a5,40(sp)
	lw	t1,128(sp)
	.loc 1 131 2362
	lw	a2,52(t6)
	.loc 1 131 2660
	add	s11,t1,a5
	sw	s11,32(sp)
	.loc 1 131 2345
	sw	a2,0(t3)
.LVL232:
	.loc 1 131 2384
	li	a2,31
	sw	a2,0(t2)
	.loc 1 131 2426
	lw	s11,56(t6)
	lw	a2,52(t6)
	.loc 1 131 2750
	li	t1,1036288
	addi	t1,t1,127
	.loc 1 131 2426
	mul	a2,s11,a2
.LBE260:
.LBB261:
	.loc 1 131 4029
	li	s11,1036288
	addi	s11,s11,-1923
	sw	s11,72(sp)
.LBE261:
.LBB262:
	.loc 1 134 1938
	li	s11,524288
.LBE262:
.LBB263:
	.loc 1 131 2750
	sw	t1,68(sp)
.LBE263:
.LBB264:
	.loc 1 134 1938
	addi	s11,s11,432
	sw	s11,76(sp)
.LVL233:
.LBE264:
.LBB265:
	.loc 1 131 2328 is_stmt 1
	.loc 1 131 2367
	.loc 1 131 2390
	.loc 1 131 2446
	.loc 1 131 2485
	.loc 1 131 2512
	.loc 1 131 2534
.LBE265:
.LBB266:
	.loc 1 134 2660 is_stmt 0
	lw	t1,136(sp)
.LBE266:
.LBB267:
	.loc 1 134 2066
	li	s11,1032192
	addi	s11,s11,1181
	sw	s11,80(sp)
.LBE267:
.LBB268:
	.loc 1 134 2660
	add	s11,t1,a5
	.loc 1 134 2746
	li	t1,1036288
	addi	t1,t1,159
	.loc 1 134 2660
	sw	s11,56(sp)
	.loc 1 134 2746
	sw	t1,84(sp)
.LBE268:
.LBB269:
	.loc 1 131 2443
	addi	a2,a2,-1
	.loc 1 131 2407
	sw	a2,0(s8)
.LVL234:
	.loc 1 131 2463
	sw	zero,0(s6)
	.loc 1 131 2501
	li	a2,1
	sw	a2,0(s9)
	.loc 1 131 2528
	li	a2,15
	sw	a2,0(s5)
	lw	t1,44(sp)
	.loc 1 131 2565
	lw	a2,52(t6)
	addi	s11,t1,1
	addi	a2,a2,-1
	sw	s11,44(sp)
	.loc 1 131 2567
	sub	a2,a2,a5
	.loc 1 131 2551
	sw	a2,0(s4)
	.loc 1 131 2573 is_stmt 1
	.loc 1 131 2590 is_stmt 0
	sw	a5,40(sp)
	sw	a5,0(s3)
	.loc 1 131 2599 is_stmt 1
.LVL235:
	.loc 1 131 2639
	.loc 1 131 2655 is_stmt 0
	lw	a2,32(sp)
	.loc 1 131 2708
	li	s11,512
	.loc 1 131 2655
	sw	a2,0(s2)
.LVL236:
	.loc 1 131 2690 is_stmt 1
	.loc 1 131 2691
	.loc 1 131 2708 is_stmt 0
	sw	s10,32(sp)
	sw	s11,0(s10)
	.loc 1 131 2733 is_stmt 1
	.loc 1 131 2750 is_stmt 0
	lw	t1,68(sp)
.LBE269:
.LBB270:
	.loc 1 131 2982
	li	s10,64
	.loc 1 131 3065
	li	a2,7
.LBE270:
.LBB271:
	.loc 1 131 2750
	sw	t1,0(t5)
.LBE271:
.LBB272:
	.loc 1 131 2783 is_stmt 1
.LVL237:
	.loc 1 131 2966
	.loc 1 131 2982 is_stmt 0
	lw	a5,24(sp)
.LVL238:
	.loc 1 131 3281
	li	s11,16
	.loc 1 131 2982
	sw	s10,0(a5)
	.loc 1 131 3049 is_stmt 1
	.loc 1 131 3065 is_stmt 0
	sw	a2,0(t4)
	.loc 1 131 3071 is_stmt 1
	.loc 1 131 3088 is_stmt 0
	lw	t1,16(sp)
	.loc 1 131 3520
	li	s10,4
	.loc 1 131 3088
	sw	a0,0(t1)
	.loc 1 131 3180 is_stmt 1
	.loc 1 131 3197 is_stmt 0
	lw	a2,20(sp)
	sw	zero,0(a2)
	.loc 1 131 3264 is_stmt 1
	.loc 1 131 3281 is_stmt 0
	sw	s11,0(t0)
	.loc 1 131 3328 is_stmt 1
	.loc 1 131 3345 is_stmt 0
	sw	s0,0(a6)
	.loc 1 131 3351 is_stmt 1
	.loc 1 131 3368 is_stmt 0
	sw	a1,0(a7)
	.loc 1 131 3439 is_stmt 1
	.loc 1 131 3456 is_stmt 0
	sw	zero,0(s7)
	.loc 1 131 3503 is_stmt 1
	.loc 1 131 3520 is_stmt 0
	sw	s10,0(t3)
	.loc 1 131 3549 is_stmt 1
	.loc 1 131 3589 is_stmt 0
	li	a2,15
	.loc 1 131 3566
	sw	s0,0(t2)
	.loc 1 131 3572 is_stmt 1
	.loc 1 131 3589 is_stmt 0
	sw	a2,0(s8)
	.loc 1 131 3640 is_stmt 1
	.loc 1 131 3657 is_stmt 0
	sw	zero,0(s6)
	.loc 1 131 3686 is_stmt 1
	.loc 1 131 3702 is_stmt 0
	li	a2,1
	sw	a2,0(s9)
	.loc 1 131 3713 is_stmt 1
	.loc 1 131 3729 is_stmt 0
	sw	s0,0(s5)
	.loc 1 131 3735 is_stmt 1
	.loc 1 131 3752 is_stmt 0
	sw	s0,0(s4)
	.loc 1 131 3781 is_stmt 1
	.loc 1 131 3798 is_stmt 0
	sw	zero,0(s3)
	.loc 1 131 3807 is_stmt 1
.LVL239:
	.loc 1 131 3966
	.loc 1 131 3982 is_stmt 0
	sw	zero,0(s2)
	.loc 1 131 4011 is_stmt 1
	.loc 1 131 4012
	.loc 1 131 4029 is_stmt 0
	lw	t1,72(sp)
	sw	t1,0(t5)
.LBE272:
	.loc 1 131 4061 is_stmt 1
	.loc 1 131 4062
	.loc 1 131 4078 is_stmt 0
	lw	s10,36(sp)
	lw	t1,12(sp)
	sw	s10,0(t1)
.LBB273:
	.loc 1 134 3 is_stmt 1
.LVL240:
	.loc 1 134 186
	.loc 1 134 202 is_stmt 0
	li	s10,64
	sw	s10,0(a5)
	.loc 1 134 269 is_stmt 1
	.loc 1 134 285 is_stmt 0
	li	s10,7
	sw	s10,0(t4)
	.loc 1 134 291 is_stmt 1
	.loc 1 134 285 is_stmt 0
	mv	t1,s10
	.loc 1 134 308
	lw	s10,16(sp)
	sw	a0,0(s10)
	.loc 1 134 400 is_stmt 1
	.loc 1 134 417 is_stmt 0
	lw	s10,20(sp)
	sw	zero,0(s10)
	.loc 1 134 484 is_stmt 1
	.loc 1 134 501 is_stmt 0
	sw	s11,0(t0)
	.loc 1 134 548 is_stmt 1
	.loc 1 134 565 is_stmt 0
	sw	s0,0(a6)
	.loc 1 134 571 is_stmt 1
	.loc 1 134 588 is_stmt 0
	sw	a1,0(a7)
	.loc 1 134 659 is_stmt 1
	.loc 1 134 676 is_stmt 0
	sw	zero,0(s7)
	.loc 1 134 723 is_stmt 1
	.loc 1 134 740 is_stmt 0
	li	s11,4
	sw	s11,0(t3)
	.loc 1 134 769 is_stmt 1
	.loc 1 134 786 is_stmt 0
	sw	s0,0(t2)
	.loc 1 134 792 is_stmt 1
	.loc 1 134 809 is_stmt 0
	li	s10,15
	sw	s10,0(s8)
	.loc 1 134 860 is_stmt 1
	.loc 1 134 877 is_stmt 0
	sw	zero,0(s6)
	.loc 1 134 906 is_stmt 1
	.loc 1 134 922 is_stmt 0
	sw	a2,0(s9)
	.loc 1 134 933 is_stmt 1
	.loc 1 134 949 is_stmt 0
	sw	s0,0(s5)
	.loc 1 134 955 is_stmt 1
	.loc 1 134 972 is_stmt 0
	sw	s0,0(s4)
	.loc 1 134 1001 is_stmt 1
	.loc 1 134 1018 is_stmt 0
	sw	zero,0(s3)
	.loc 1 134 1027 is_stmt 1
.LVL241:
	.loc 1 134 1186
	.loc 1 134 1202 is_stmt 0
	sw	zero,0(s2)
	.loc 1 134 1231 is_stmt 1
	.loc 1 134 1232
	.loc 1 134 1249 is_stmt 0
	lw	s10,32(sp)
	li	s11,512
	sw	s11,0(s10)
	.loc 1 134 1288 is_stmt 1
	.loc 1 134 1305 is_stmt 0
	lw	s11,60(sp)
.LBE273:
.LBB274:
	.loc 1 134 1731
	li	s10,8
.LBE274:
.LBB275:
	.loc 1 134 1305
	sw	s11,0(t5)
.LBE275:
.LBB276:
	.loc 1 134 1338 is_stmt 1
.LVL242:
	.loc 1 134 1383
	.loc 1 134 1400 is_stmt 0
	sw	a4,0(t3)
	.loc 1 134 1412 is_stmt 1
	.loc 1 134 1429 is_stmt 0
	sw	s0,0(t2)
	.loc 1 134 1435 is_stmt 1
	.loc 1 134 1452 is_stmt 0
	lw	s11,48(sp)
	sw	s11,0(s8)
	.loc 1 134 1480 is_stmt 1
	.loc 1 134 1497 is_stmt 0
	sw	zero,0(s6)
	.loc 1 134 1509 is_stmt 1
	.loc 1 134 1526 is_stmt 0
	sw	s0,0(a6)
	.loc 1 134 1563 is_stmt 1
	.loc 1 134 1580 is_stmt 0
	li	s11,32
	sw	s11,0(t0)
	.loc 1 134 1620 is_stmt 1
	.loc 1 134 1637 is_stmt 0
	sw	a3,0(a7)
	.loc 1 134 1642 is_stmt 1
	.loc 1 134 1659 is_stmt 0
	sw	zero,0(s7)
	.loc 1 134 1662 is_stmt 1
	.loc 1 134 1678 is_stmt 0
	sw	s0,0(s5)
	.loc 1 134 1715 is_stmt 1
	.loc 1 134 1731 is_stmt 0
	sw	s10,0(s9)
	.loc 1 134 1757 is_stmt 1
	.loc 1 134 1774 is_stmt 0
	sw	a3,0(s4)
	.loc 1 134 1779 is_stmt 1
	.loc 1 134 1796 is_stmt 0
	sw	zero,0(s3)
	.loc 1 134 1799 is_stmt 1
	.loc 1 134 1815 is_stmt 0
	sw	t1,0(t4)
	.loc 1 134 1853 is_stmt 1
	.loc 1 134 1869 is_stmt 0
	sw	a2,0(a5)
	.loc 1 134 1880 is_stmt 1
	.loc 1 134 1897 is_stmt 0
	lw	t1,16(sp)
	.loc 1 134 1869
	mv	s10,a2
	.loc 1 134 1897
	sw	a3,0(t1)
	.loc 1 134 1902 is_stmt 1
	.loc 1 134 1919 is_stmt 0
	lw	a3,20(sp)
	sw	zero,0(a3)
	.loc 1 134 1922 is_stmt 1
	.loc 1 134 1938 is_stmt 0
	lw	t1,76(sp)
	sw	t1,0(s2)
	.loc 1 134 2049 is_stmt 1
	.loc 1 134 2066 is_stmt 0
	lw	t1,80(sp)
	sw	t1,0(t5)
.LBE276:
	.loc 1 134 2098 is_stmt 1
	.loc 1 134 2099
	.loc 1 134 2115 is_stmt 0
	lw	a3,36(sp)
	lw	a2,12(sp)
	sw	a3,0(a2)
.LBB277:
	.loc 1 134 2205 is_stmt 1
.LVL243:
	.loc 1 134 2328
	.loc 1 134 2362 is_stmt 0
	lw	a3,52(t6)
	.loc 1 134 2384
	li	a2,31
	.loc 1 134 2345
	sw	a3,0(t3)
.LVL244:
	.loc 1 134 2367 is_stmt 1
	.loc 1 134 2384 is_stmt 0
	sw	a2,0(t2)
	.loc 1 134 2390 is_stmt 1
	.loc 1 134 2426 is_stmt 0
	lw	a3,56(t6)
	lw	a2,52(t6)
	mul	a3,a3,a2
	.loc 1 134 2501
	mv	a2,s10
	.loc 1 134 2443
	addi	a3,a3,-1
	.loc 1 134 2407
	sw	a3,0(s8)
	.loc 1 134 2446 is_stmt 1
	.loc 1 134 2463 is_stmt 0
	sw	zero,0(s6)
	.loc 1 134 2485 is_stmt 1
	.loc 1 134 2501 is_stmt 0
	sw	s10,0(s9)
	.loc 1 134 2512 is_stmt 1
	.loc 1 134 2528 is_stmt 0
	li	a3,15
	sw	a3,0(s5)
	.loc 1 134 2534 is_stmt 1
	.loc 1 134 2565 is_stmt 0
	lw	a3,52(t6)
	.loc 1 134 2567
	lw	s11,40(sp)
	.loc 1 134 2565
	addi	a3,a3,-1
	.loc 1 134 2567
	sub	a3,a3,s11
	.loc 1 134 2551
	sw	a3,0(s4)
	.loc 1 134 2573 is_stmt 1
	.loc 1 134 2590 is_stmt 0
	sw	s11,0(s3)
	.loc 1 134 2599 is_stmt 1
.LVL245:
	.loc 1 134 2639
	.loc 1 134 2655 is_stmt 0
	lw	t1,56(sp)
	.loc 1 134 2704
	li	a3,512
	.loc 1 134 2655
	sw	t1,0(s2)
	.loc 1 134 2686 is_stmt 1
	.loc 1 134 2687
	.loc 1 134 2704 is_stmt 0
	lw	s10,32(sp)
	sw	a3,0(s10)
	.loc 1 134 2729 is_stmt 1
	.loc 1 134 2746 is_stmt 0
	lw	t1,84(sp)
.LBE277:
.LBB278:
	.loc 1 134 2978
	li	a3,64
.LBE278:
.LBB279:
	.loc 1 134 2746
	sw	t1,0(t5)
.LBE279:
.LBB280:
	.loc 1 134 2779 is_stmt 1
.LVL246:
	.loc 1 134 2962
	.loc 1 134 2978 is_stmt 0
	sw	a3,0(a5)
	.loc 1 134 3045 is_stmt 1
	.loc 1 134 3061 is_stmt 0
	li	a3,7
	sw	a3,0(t4)
	.loc 1 134 3067 is_stmt 1
	.loc 1 134 3084 is_stmt 0
	lw	t1,16(sp)
	sw	a0,0(t1)
	.loc 1 134 3176 is_stmt 1
	.loc 1 134 3193 is_stmt 0
	lw	a0,20(sp)
.LBE280:
	.loc 1 92 17 discriminator 1
	addi	t1,s11,15
.LBB281:
	.loc 1 134 3193
	sw	zero,0(a0)
	.loc 1 134 3260 is_stmt 1
	.loc 1 134 3277 is_stmt 0
	li	a0,16
	sw	a0,0(t0)
	.loc 1 134 3324 is_stmt 1
	.loc 1 134 3341 is_stmt 0
	sw	s0,0(a6)
	.loc 1 134 3347 is_stmt 1
	.loc 1 134 3364 is_stmt 0
	sw	a1,0(a7)
	.loc 1 134 3435 is_stmt 1
	.loc 1 134 3452 is_stmt 0
	sw	zero,0(s7)
	.loc 1 134 3499 is_stmt 1
	.loc 1 134 3516 is_stmt 0
	li	a1,4
	sw	a1,0(t3)
	.loc 1 134 3545 is_stmt 1
	.loc 1 134 3562 is_stmt 0
	sw	s0,0(t2)
	.loc 1 134 3568 is_stmt 1
	.loc 1 134 3585 is_stmt 0
	li	a1,15
	sw	a1,0(s8)
	.loc 1 134 3636 is_stmt 1
	.loc 1 134 3653 is_stmt 0
	sw	zero,0(s6)
	.loc 1 134 3682 is_stmt 1
	.loc 1 134 3698 is_stmt 0
	sw	a2,0(s9)
	.loc 1 134 3709 is_stmt 1
	.loc 1 134 3725 is_stmt 0
	sw	s0,0(s5)
	.loc 1 134 3731 is_stmt 1
	.loc 1 134 3748 is_stmt 0
	sw	s0,0(s4)
	.loc 1 134 3777 is_stmt 1
	.loc 1 134 3794 is_stmt 0
	sw	zero,0(s3)
	.loc 1 134 3803 is_stmt 1
.LVL247:
	.loc 1 134 3962
	.loc 1 134 3978 is_stmt 0
	sw	zero,0(s2)
	.loc 1 134 4007 is_stmt 1
	.loc 1 134 4008
	.loc 1 134 4025 is_stmt 0
	lw	a1,64(sp)
	sw	a1,0(t5)
.LBE281:
	.loc 1 134 4057 is_stmt 1
	.loc 1 134 4058
	.loc 1 134 4074 is_stmt 0
	lw	s0,36(sp)
	lw	a1,12(sp)
	sw	s0,0(a1)
	.loc 1 92 26 is_stmt 1 discriminator 2
.LVL248:
	.loc 1 92 17 discriminator 1
	sw	t1,40(sp)
	lw	s0,44(sp)
	lw	t1,132(sp)
	blt	s0,t1,.L67
	lw	s0,140(sp)
	.loc 1 91 23 discriminator 2
	lw	s1,112(sp)
	lw	s2,104(sp)
	addi	s0,s0,1
.LVL249:
	.loc 1 91 17 discriminator 1
	lw	s3,108(sp)
	addi	s1,s1,-8
	beq	s2,s0,.L64
.LVL250:
.L69:
	.loc 1 92 17 discriminator 1
.LBB282:
	.loc 1 107 1546 is_stmt 0
	slli	a5,s0,3
	sw	a5,68(sp)
.LBE282:
.LBB283:
	.loc 1 131 2209
	slli	a5,s0,5
.LBE283:
.LBB284:
	.loc 1 107 1832
	sw	s1,116(sp)
.LBE284:
.LBB285:
	.loc 1 131 2209
	sw	a5,56(sp)
.LVL251:
.L58:
.LBE285:
.LBB286:
	.loc 1 100 54
	li	a5,-2147483648
	li	a4,4096
	sw	a4,800(a5)
	.loc 1 100 82
	li	t1,-2147483648
	.loc 1 100 105
	li	a4,16384
	.loc 1 100 82
	sw	zero,928(t1)
	.loc 1 100 105
	li	a5,-2147483648
	addi	a4,a4,-1
	sw	a4,1440(a5)
	.loc 1 100 150
	li	ra,-2147479552
	sw	zero,-1248(ra)
	.loc 1 100 179
	li	a5,-2147483648
	li	a4,5
	sw	a4,1824(a5)
	.loc 1 100 241
	li	a3,48
	li	t2,-2147483648
	sw	a3,1696(t2)
	.loc 1 100 304
	li	a5,287
	li	s5,-2147483648
	sw	a5,1952(s5)
	.loc 1 100 326
	li	t3,-2147479552
	sw	zero,-1120(t3)
	.loc 1 100 346
	li	s4,-2147479552
	sw	zero,-1888(s4)
	.loc 1 100 392
	li	a4,-2147479552
	li	a2,8
	sw	a2,-2016(a4)
	.loc 1 100 435
	li	t5,-2147479552
	sw	a5,-1760(t5)
	.loc 1 100 457
	li	a7,-2147479552
	sw	zero,-992(a7)
	.loc 1 100 476
	li	a4,-2147483648
	li	a2,7
	sw	a2,672(a4)
	.loc 1 100 532
	li	t4,-2147483648
	li	a4,1
	sw	a4,1056(t4)
	.loc 1 100 560
	li	a6,-2147483648
	sw	a5,1568(a6)
	.loc 1 100 582
	li	a0,-2147479552
	.loc 1 100 601
	li	a4,524288
	.loc 1 100 582
	sw	zero,-864(a0)
	.loc 1 100 601
	li	a5,-2147483648
	addi	a4,a4,16
	sw	a4,544(a5)
	.loc 1 100 734
	li	a1,-2147479552
	.loc 1 100 872
	li	a4,1032192
	.loc 1 100 734
	sw	a3,-736(a1)
	.loc 1 100 872
	li	a5,-2147479552
	addi	a4,a4,95
	sw	a4,-1632(a5)
.LBE286:
	.loc 1 100 922
	li	a2,-2147479552
	.loc 1 100 944
	li	t0,1036288
	.loc 1 100 922
	sw	zero,-480(a2)
	.loc 1 100 944
	addi	t0,t0,-1955
	sw	t0,-1632(a5)
	.loc 1 100 992
	li	a3,393216
	li	a4,-2147483648
	addi	a3,a3,1
	sw	s3,44(sp)
	.loc 1 93 10 is_stmt 1
.LVL252:
	.loc 1 95 10
.LBB287:
	.loc 1 100 3
	.loc 1 100 38
	.loc 1 100 66
	.loc 1 100 88
	.loc 1 100 133
	.loc 1 100 162
	.loc 1 100 224
	.loc 1 100 287
	.loc 1 100 309
	.loc 1 100 329
	.loc 1 100 375
	.loc 1 100 418
	.loc 1 100 440
	.loc 1 100 460
	.loc 1 100 516
	.loc 1 100 543
	.loc 1 100 565
	.loc 1 100 585
	.loc 1 100 717
	.loc 1 100 855
.LBE287:
	.loc 1 100 904
	.loc 1 100 905
	.loc 1 100 927
	.loc 1 100 975
	.loc 1 100 976
.LBB288:
	.loc 1 107 2003 is_stmt 0
	li	a5,67108864
.LBE288:
	.loc 1 100 992
	sw	a3,20(a4)
.LBB289:
	.loc 1 100 532
	addi	t4,t4,1056
	.loc 1 100 435
	addi	t5,t5,-1760
.LBE289:
.LBB290:
	.loc 1 107 2003
	addi	a5,a5,-1
.LBE290:
.LBB291:
	.loc 1 100 82
	addi	t1,t1,928
.LBE291:
	.loc 1 100 992
	sw	zero,36(sp)
	sw	zero,60(sp)
.LBB292:
	.loc 1 107 2003
	sw	a5,140(sp)
	sw	s2,144(sp)
	sw	s3,148(sp)
	sw	s1,152(sp)
	mv	s8,t6
	sw	s0,156(sp)
	sw	t5,20(sp)
	mv	s10,t4
	j	.L56
.LVL253:
.L68:
.LBE292:
	.loc 1 93 10 is_stmt 1
	.loc 1 95 10
.LBB293:
	.loc 1 97 3
	.loc 1 97 38
	.loc 1 97 54 is_stmt 0
	sw	a2,0(a4)
.LVL254:
	.loc 1 97 66 is_stmt 1
	.loc 1 97 82 is_stmt 0
	sw	zero,0(t1)
	.loc 1 97 88 is_stmt 1
	.loc 1 97 105 is_stmt 0
	lw	t5,32(sp)
	.loc 1 97 179
	li	t4,5
	.loc 1 97 241
	li	ra,48
	.loc 1 97 105
	sw	t5,0(a5)
	.loc 1 97 133 is_stmt 1
	.loc 1 97 150 is_stmt 0
	lw	s9,12(sp)
	.loc 1 97 304
	li	a3,287
	.loc 1 97 435
	li	t5,287
	.loc 1 97 150
	sw	zero,0(s9)
	.loc 1 97 162 is_stmt 1
	.loc 1 97 179 is_stmt 0
	sw	t4,0(t3)
	.loc 1 97 224 is_stmt 1
	.loc 1 97 241 is_stmt 0
	sw	ra,0(a7)
	.loc 1 97 287 is_stmt 1
	.loc 1 97 304 is_stmt 0
	sw	a3,0(a6)
	.loc 1 97 309 is_stmt 1
	.loc 1 97 326 is_stmt 0
	sw	zero,0(s11)
	.loc 1 97 329 is_stmt 1
	.loc 1 97 346 is_stmt 0
	sw	zero,0(t6)
	.loc 1 97 375 is_stmt 1
	.loc 1 97 392 is_stmt 0
	li	a3,8
	sw	a3,0(t2)
	.loc 1 97 418 is_stmt 1
	.loc 1 97 435 is_stmt 0
	sw	t5,0(s7)
	.loc 1 97 440 is_stmt 1
	.loc 1 97 457 is_stmt 0
	sw	zero,0(s6)
	.loc 1 97 460 is_stmt 1
	.loc 1 97 476 is_stmt 0
	sw	a1,0(s5)
	.loc 1 97 516 is_stmt 1
	.loc 1 97 532 is_stmt 0
	sw	a0,0(s10)
	.loc 1 97 543 is_stmt 1
	.loc 1 97 476 is_stmt 0
	mv	t5,a1
	.loc 1 97 560
	li	a1,287
	sw	a1,0(s4)
	.loc 1 97 565 is_stmt 1
	.loc 1 97 601 is_stmt 0
	li	a1,524288
	.loc 1 97 582
	sw	zero,0(s3)
	.loc 1 97 585 is_stmt 1
	.loc 1 97 601 is_stmt 0
	addi	a1,a1,16
	sw	a1,0(s2)
	.loc 1 97 717 is_stmt 1
	.loc 1 97 734 is_stmt 0
	mv	a1,ra
	lw	ra,28(sp)
	.loc 1 97 326
	mv	s0,s11
	.loc 1 97 734
	sw	a1,0(ra)
	.loc 1 97 855 is_stmt 1
	.loc 1 97 872 is_stmt 0
	lw	s11,48(sp)
	sw	s11,0(t0)
.LBE293:
.LBB294:
	.loc 1 97 905 is_stmt 1
.LVL255:
	.loc 1 97 954
	.loc 1 97 970 is_stmt 0
	sw	a2,0(a4)
	.loc 1 97 982 is_stmt 1
	.loc 1 97 998 is_stmt 0
	sw	zero,0(t1)
	.loc 1 97 1004 is_stmt 1
	.loc 1 97 1021 is_stmt 0
	addi	a2,a2,-1
	sw	a2,0(a5)
	.loc 1 97 1049 is_stmt 1
	.loc 1 97 1066 is_stmt 0
	li	a5,12288
	sw	a5,0(s9)
	.loc 1 97 1078 is_stmt 1
	.loc 1 97 1095 is_stmt 0
	sw	t4,0(t3)
	.loc 1 97 1140 is_stmt 1
	.loc 1 97 1157 is_stmt 0
	sw	a1,0(a7)
	.loc 1 97 1203 is_stmt 1
	.loc 1 97 1220 is_stmt 0
	li	a5,287
	sw	a5,0(a6)
	.loc 1 97 1225 is_stmt 1
	.loc 1 97 1242 is_stmt 0
	sw	zero,0(s0)
	.loc 1 97 1245 is_stmt 1
	.loc 1 97 1262 is_stmt 0
	sw	zero,0(t6)
	.loc 1 97 1321 is_stmt 1
	.loc 1 97 1338 is_stmt 0
	sw	a3,0(t2)
	.loc 1 97 1364 is_stmt 1
	.loc 1 97 1381 is_stmt 0
	sw	a5,0(s7)
	.loc 1 97 1386 is_stmt 1
	.loc 1 97 1403 is_stmt 0
	sw	zero,0(s6)
	.loc 1 97 1406 is_stmt 1
	.loc 1 97 1422 is_stmt 0
	sw	t5,0(s5)
	.loc 1 97 1462 is_stmt 1
	.loc 1 97 1478 is_stmt 0
	sw	a0,0(s10)
	.loc 1 97 1489 is_stmt 1
	.loc 1 97 1506 is_stmt 0
	li	a4,287
	sw	a4,0(s4)
	.loc 1 97 1511 is_stmt 1
	.loc 1 97 1547 is_stmt 0
	li	a5,536576
	.loc 1 97 1528
	sw	zero,0(s3)
	.loc 1 97 1531 is_stmt 1
	.loc 1 97 1547 is_stmt 0
	addi	a5,a5,40
	sw	a5,0(s2)
	.loc 1 97 1677 is_stmt 1
	.loc 1 97 1694 is_stmt 0
	lw	a6,52(sp)
.LBE294:
	.loc 1 97 1743
	li	a5,393216
	addi	a5,a5,1
.LBB295:
	.loc 1 97 1694
	sw	a6,0(t0)
.LBE295:
	.loc 1 97 1726 is_stmt 1
	.loc 1 97 1727
	.loc 1 97 1743 is_stmt 0
	sw	a5,0(s1)
	lw	a7,96(sp)
	sw	a7,44(sp)
.LVL256:
.L56:
	.loc 1 103 1 is_stmt 1
	.loc 1 103 2
	.loc 1 103 18 is_stmt 0
	li	a5,-2147483648
	addi	a3,a5,20
	sw	a3,24(sp)
	li	a5,88
	sw	a5,0(a3)
.LBB296:
	.loc 1 107 3 is_stmt 1
.LVL257:
	.loc 1 107 204
	.loc 1 107 220 is_stmt 0
	li	a4,-2147483648
	li	a3,96
	sw	a3,800(a4)
	.loc 1 107 305 is_stmt 1
	.loc 1 107 321 is_stmt 0
	li	a1,7
	sw	a1,0(t1)
	.loc 1 107 327 is_stmt 1
	.loc 1 107 344 is_stmt 0
	li	a5,-2147483648
	li	a2,767
	sw	a2,1440(a5)
	.loc 1 107 454 is_stmt 1
	.loc 1 107 471 is_stmt 0
	li	a0,-2147479552
	sw	a0,12(sp)
	sw	zero,-1248(a0)
	.loc 1 107 556 is_stmt 1
	.loc 1 107 573 is_stmt 0
	li	a7,-2147483648
	li	a0,16
	sw	a0,1696(a7)
	.loc 1 107 632 is_stmt 1
	.loc 1 107 649 is_stmt 0
	li	t3,-2147483648
	li	t4,5
	sw	t4,1824(t3)
	.loc 1 107 655 is_stmt 1
	.loc 1 107 672 is_stmt 0
	li	a6,-2147483648
	li	t5,95
	sw	t5,1952(a6)
	.loc 1 107 761 is_stmt 1
	.loc 1 107 778 is_stmt 0
	li	s1,-2147479552
	sw	s1,16(sp)
	sw	zero,-1120(s1)
	.loc 1 107 837 is_stmt 1
	.loc 1 107 854 is_stmt 0
	li	t2,-2147479552
	li	a3,4
	.loc 1 107 912
	li	s0,3
	.loc 1 107 854
	sw	a3,-2016(t2)
	.loc 1 107 895 is_stmt 1
	.loc 1 107 912 is_stmt 0
	li	t6,-2147479552
	sw	s0,-1888(t6)
	.loc 1 107 918 is_stmt 1
	.loc 1 107 935 is_stmt 0
	lw	s1,20(sp)
	li	a2,15
	.loc 1 107 1015
	li	s6,-2147479552
	.loc 1 107 935
	sw	a2,0(s1)
	.loc 1 107 998 is_stmt 1
	.loc 1 107 1015 is_stmt 0
	sw	zero,-992(s6)
	.loc 1 107 1056 is_stmt 1
	.loc 1 107 1072 is_stmt 0
	li	t5,1
	.loc 1 107 1099
	li	s5,-2147483648
	.loc 1 107 1072
	sw	t5,0(s10)
	.loc 1 107 1083 is_stmt 1
	.loc 1 107 1122 is_stmt 0
	li	s4,-2147483648
	.loc 1 107 1099
	sw	s0,672(s5)
	.loc 1 107 1105 is_stmt 1
	.loc 1 107 1180 is_stmt 0
	li	s3,-2147479552
	.loc 1 107 1122
	sw	s0,1568(s4)
	.loc 1 107 1163 is_stmt 1
	.loc 1 107 1406 is_stmt 0
	li	s2,-2147483648
	.loc 1 107 1180
	sw	zero,-864(s3)
	.loc 1 107 1189 is_stmt 1
.LVL258:
	.loc 1 107 1390
	.loc 1 107 1453 is_stmt 0
	li	a2,-2147479552
	.loc 1 107 1406
	sw	zero,544(s2)
	.loc 1 107 1435 is_stmt 1
	.loc 1 107 1436
	.loc 1 107 1453 is_stmt 0
	addi	a2,a2,-736
	.loc 1 107 1509
	li	ra,1036288
	.loc 1 107 1453
	sw	a2,28(sp)
	.loc 1 107 1509
	mv	s1,ra
	.loc 1 107 1453
	li	ra,768
	sw	ra,0(a2)
	.loc 1 107 1492 is_stmt 1
	.loc 1 107 1509 is_stmt 0
	addi	s1,s1,-1889
	li	t0,-2147479552
	sw	s1,72(sp)
	sw	s1,-1632(t0)
.LBE296:
.LBB297:
	.loc 1 107 1542 is_stmt 1
.LVL259:
	.loc 1 107 1782 is_stmt 0
	lw	a2,36(s8)
.LBE297:
.LBB298:
	.loc 1 107 2615
	li	a0,16384
.LBE298:
.LBB299:
	.loc 1 113 633
	li	s11,524288
.LBE299:
.LBB300:
	.loc 1 107 1782
	slli	a2,a2,2
	.loc 1 107 1751
	sw	a2,1696(a7)
.LVL260:
	.loc 1 107 1804
	sw	a1,1824(t3)
	.loc 1 107 1837
	lw	ra,116(sp)
	lw	a1,36(s8)
.LBE300:
.LBB301:
	.loc 1 113 633
	addi	s11,s11,56
.LBE301:
.LBB302:
	.loc 1 107 2260
	li	s7,-2147479552
	.loc 1 107 1837
	mul	a1,ra,a1
.LBE302:
	.loc 1 107 2411
	li	ra,393216
	addi	ra,ra,17
	mv	a3,ra
.LBB303:
	.loc 1 107 2615
	addi	ra,a0,-1
	.loc 1 107 3119
	li	a0,524288
	.loc 1 107 2615
	sw	ra,32(sp)
	.loc 1 107 3119
	addi	a0,a0,24
	.loc 1 107 3402
	li	ra,1032192
	addi	ra,ra,1183
.LBE303:
.LBB304:
	.loc 1 107 1837
	slli	a1,a1,2
	.loc 1 107 1868
	addi	a1,a1,-1
	.loc 1 107 1827
	sw	a1,1952(a6)
	.loc 1 107 1892
	lw	a1,36(s8)
.LBE304:
.LBB305:
	.loc 1 107 3119
	sw	a0,76(sp)
.LBE305:
.LBB306:
	.loc 1 107 1892
	lw	a0,68(sp)
.LBE306:
.LBB307:
	.loc 1 107 3402
	sw	ra,80(sp)
.LBE307:
.LBB308:
	.loc 1 107 0
	li	ra,1036288
.LBE308:
.LBB309:
	.loc 1 107 1892
	mul	a1,a0,a1
.LBE309:
.LBB310:
	.loc 1 107 0
	addi	ra,ra,-1891
	sw	ra,64(sp)
.LBE310:
.LBB311:
	.loc 1 113 946
	li	ra,1032192
	.loc 1 113 633
	sw	s11,84(sp)
	.loc 1 113 946
	addi	s11,ra,159
.LBE311:
.LBB312:
	.loc 1 107 1888
	lw	ra,16(sp)
.LBE312:
.LBB313:
	.loc 1 113 946
	sw	s11,48(sp)
.LBE313:
.LBB314:
	.loc 1 113 1726
	li	s11,1032192
	addi	s11,s11,157
.LBE314:
.LBB315:
	.loc 1 107 1892
	slli	a1,a1,2
	.loc 1 107 1888
	sw	a1,-1120(ra)
	.loc 1 107 1958
	lw	a1,36(s8)
	.loc 1 107 2362
	li	s9,1036288
	addi	s9,s9,157
	.loc 1 107 1941
	sw	a1,-2016(t2)
	.loc 1 107 1980
	sw	t4,-1888(t6)
	.loc 1 107 2003
	lw	a1,140(sp)
	lw	s1,20(sp)
.LBE315:
.LBB316:
	.loc 1 107 2563
	li	a2,4096
.LBE316:
.LBB317:
	.loc 1 113 86
	li	a0,2
.LBE317:
.LBB318:
	.loc 1 107 2003
	sw	a1,0(s1)
	.loc 1 107 2032
	sw	zero,-992(s6)
	.loc 1 107 2070
	sw	t5,0(s10)
	.loc 1 107 2097
	li	t5,15
	sw	t5,672(s5)
	.loc 1 107 2134
	lw	a1,36(s8)
	.loc 1 107 2136
	lw	s1,44(sp)
.LBE318:
.LBB319:
	.loc 1 113 1591
	li	t5,528384
	addi	t5,t5,24
.LBE319:
.LBB320:
	.loc 1 107 2134
	addi	a1,a1,-1
.LBE320:
.LBB321:
	.loc 1 113 1591
	sw	t5,88(sp)
.LBE321:
.LBB322:
	.loc 1 107 2136
	sub	a1,a1,s1
	.loc 1 107 2120
	sw	a1,1568(s4)
	.loc 1 107 2159
	sw	s1,-864(s3)
	.loc 1 107 2180
	lw	t5,68(sp)
	lw	a1,36(s8)
.LBE322:
.LBB323:
	.loc 1 113 1726
	sw	s11,52(sp)
.LBE323:
.LBB324:
	.loc 1 117 611
	li	s11,528384
.LBE324:
.LBB325:
	.loc 1 107 2180
	mul	a1,t5,a1
.LBE325:
.LBB326:
	.loc 1 117 611
	addi	s11,s11,16
	sw	s11,92(sp)
.LBE326:
.LBB327:
	.loc 1 117 1539
	li	s11,524288
	addi	s11,s11,48
	sw	s11,96(sp)
.LBE327:
	.loc 1 125 18
	li	s11,1015812096
	addi	s11,s11,516
	sw	s11,100(sp)
.LBB328:
	.loc 1 107 2289
	lw	s11,124(sp)
	.loc 1 107 2180
	slli	a1,a1,2
	.loc 1 107 2172
	add	a1,a1,s1
	sw	s1,44(sp)
	.loc 1 107 2289
	sub	s11,s11,a1
	.loc 1 107 2260
	sw	s11,-96(s7)
	.loc 1 107 2318
	lw	s7,120(sp)
.LBE328:
.LBB329:
	.loc 1 113 1091
	li	ra,12288
	addi	ra,ra,-1
.LBE329:
.LBB330:
	.loc 1 107 2318
	add	a1,a1,s7
	.loc 1 107 2313
	sw	a1,544(s2)
	.loc 1 107 2362
	sw	s9,-1632(t0)
.LBE330:
	.loc 1 107 2411
	lw	s11,24(sp)
	sw	a3,40(sp)
.LBB331:
	.loc 1 107 2996
	li	a1,7
.LBE331:
	.loc 1 107 2411
	sw	a3,0(s11)
.LBB332:
	.loc 1 107 2563
	sw	a2,-2016(t2)
	.loc 1 107 2592
	sw	s0,-1888(t6)
	.loc 1 107 2615
	lw	s9,32(sp)
	lw	s1,20(sp)
	.loc 1 107 2749
	li	a3,48
.LBE332:
.LBB333:
	.loc 1 107 3652
	li	s11,96
.LBE333:
.LBB334:
	.loc 1 107 2615
	sw	s9,0(s1)
	.loc 1 107 2660
	sw	zero,-992(s6)
	.loc 1 107 2689
	sw	t4,1824(t3)
	.loc 1 107 2749
	sw	a3,1696(a7)
	.loc 1 107 2812
	li	a3,287
	sw	a3,1952(a6)
	.loc 1 107 2834
	lw	s1,16(sp)
	.loc 1 107 2912
	li	a3,8
	.loc 1 107 3078
	li	t4,287
	.loc 1 107 2834
	sw	zero,-1120(s1)
	.loc 1 107 2853
	sw	s0,672(s5)
	.loc 1 107 2912
	sw	a3,0(s10)
	.loc 1 107 2955
	li	a3,287
	sw	a3,1568(s4)
	.loc 1 107 2977
	sw	zero,-864(s3)
	.loc 1 107 2996
	sw	a1,0(t1)
	mv	a3,a1
	.loc 1 107 3050
	li	a1,1
	sw	a1,800(a4)
	.loc 1 107 3078
	sw	t4,1440(a5)
	.loc 1 107 3100
	lw	t4,12(sp)
.LBE334:
	.loc 1 113 1775
	li	t5,393216
	addi	t5,t5,9
.LBB335:
	.loc 1 107 3100
	sw	zero,-1248(t4)
	.loc 1 107 3119
	lw	s7,76(sp)
	.loc 1 107 3254
	li	t4,768
.LBE335:
.LBB336:
	.loc 1 107 220
	addi	a4,a4,800
.LBE336:
.LBB337:
	.loc 1 107 3119
	sw	s7,544(s2)
	.loc 1 107 3254
	lw	s7,28(sp)
.LBE337:
.LBB338:
	.loc 1 107 344
	addi	a5,a5,1440
	.loc 1 107 649
	addi	t3,t3,1824
.LBE338:
.LBB339:
	.loc 1 107 3254
	sw	t4,0(s7)
	.loc 1 107 3402
	lw	s7,80(sp)
.LBE339:
.LBB340:
	.loc 1 107 573
	addi	a7,a7,1696
	.loc 1 107 672
	addi	a6,a6,1952
.LBE340:
.LBB341:
	.loc 1 107 3402
	sw	s7,-1632(t0)
.LBE341:
.LBB342:
	.loc 1 107 3652
	sw	s11,0(a4)
	.loc 1 107 3753
	sw	a3,0(t1)
	.loc 1 107 3776
	li	s11,767
	sw	s11,0(a5)
	.loc 1 107 3903
	lw	t4,12(sp)
	.loc 1 107 0
	li	s11,95
	.loc 1 107 3753
	mv	s7,a3
	.loc 1 107 3903
	sw	zero,-1248(t4)
	.loc 1 107 4005
	li	t4,16
	sw	t4,0(a7)
	.loc 1 107 4081
	li	t4,5
	sw	t4,0(t3)
	.loc 1 107 0
	sw	s11,0(a6)
	sw	s1,16(sp)
	sw	zero,-1120(s1)
	li	a3,4
	sw	a3,-2016(t2)
	sw	s0,-1888(t6)
	lw	s1,20(sp)
	li	a3,15
.LBE342:
.LBB343:
	.loc 1 107 912
	addi	t6,t6,-1888
.LBE343:
.LBB344:
	.loc 1 107 0
	sw	a3,0(s1)
	sw	zero,-992(s6)
	sw	a1,0(s10)
	sw	s0,672(s5)
	sw	s0,1568(s4)
	sw	zero,-864(s3)
	sw	zero,544(s2)
	lw	s11,64(sp)
.LBE344:
.LBB345:
	.loc 1 107 854
	addi	t2,t2,-2016
	.loc 1 107 1509
	addi	t0,t0,-1632
.LBE345:
.LBB346:
	.loc 1 107 0
	sw	s11,0(t0)
.LBE346:
	lw	a3,40(sp)
	lw	s11,24(sp)
.LBB347:
	.loc 1 107 1015
	addi	s6,s6,-992
	.loc 1 107 1099
	addi	s5,s5,672
.LBE347:
	.loc 1 107 0
	sw	a3,0(s11)
.LBB348:
	.loc 1 113 58
	sw	a2,0(a4)
	.loc 1 113 86
	sw	a0,0(t1)
	.loc 1 113 109
	sw	s9,32(sp)
	sw	s9,0(a5)
	.loc 1 113 154
	lw	s9,12(sp)
	.loc 1 113 245
	li	a3,48
	.loc 1 113 780
	li	s11,144
	.loc 1 113 154
	sw	zero,-1248(s9)
	.loc 1 113 183
	sw	t4,0(t3)
	.loc 1 113 245
	sw	a3,0(a7)
	.loc 1 113 308
	li	a3,287
	sw	a3,0(a6)
	.loc 1 113 330
	lw	t4,16(sp)
	.loc 1 113 424
	li	a3,8
	.loc 1 113 508
	mv	s9,s7
	.loc 1 113 330
	sw	zero,-1120(t4)
	.loc 1 113 350
	sw	zero,0(t6)
	.loc 1 113 424
	sw	a3,0(t2)
	.loc 1 113 467
	li	t4,287
	sw	t4,0(s1)
	.loc 1 113 489
	sw	zero,0(s6)
	.loc 1 113 508
	sw	s7,0(s5)
	.loc 1 113 564
	sw	a1,0(s10)
	.loc 1 113 592
	li	t4,287
	sw	t4,1568(s4)
	.loc 1 113 614
	sw	zero,-864(s3)
	.loc 1 113 633
	lw	s7,84(sp)
.LBE348:
.LBB349:
	.loc 1 107 1122
	addi	s4,s4,1568
	.loc 1 107 1180
	addi	s3,s3,-864
.LBE349:
.LBB350:
	.loc 1 113 633
	sw	s7,544(s2)
	.loc 1 113 780
	lw	s7,28(sp)
.LBE350:
.LBB351:
	.loc 1 107 1406
	addi	s2,s2,544
.LBE351:
.LBB352:
	.loc 1 113 780
	sw	s11,0(s7)
	.loc 1 113 946
	lw	s11,48(sp)
.LBE352:
.LBB353:
	.loc 1 113 1466
	mv	s7,s9
.LBE353:
.LBB354:
	.loc 1 113 946
	sw	s11,0(t0)
.LBE354:
.LBB355:
	.loc 1 113 1040
	sw	a2,0(a4)
	.loc 1 113 1068
	sw	a0,0(t1)
	.loc 1 113 1091
	sw	ra,0(a5)
	.loc 1 113 1136
	lw	t4,12(sp)
	sw	a2,-1248(t4)
	.loc 1 113 1165
	li	t4,5
	sw	t4,0(t3)
	.loc 1 113 1227
	li	t4,48
	sw	t4,0(a7)
	.loc 1 113 1290
	li	t4,287
	sw	t4,0(a6)
	.loc 1 113 1312
	lw	t4,16(sp)
	sw	zero,-1120(t4)
	.loc 1 113 1332
	sw	zero,0(t6)
	.loc 1 113 1382
	sw	a3,0(t2)
	.loc 1 113 1425
	li	t4,287
	sw	t4,0(s1)
	.loc 1 113 1447
	sw	zero,0(s6)
	.loc 1 113 1466
	sw	s9,0(s5)
	.loc 1 113 1522
	sw	a1,0(s10)
	.loc 1 113 1550
	li	t4,287
	sw	t4,0(s4)
	.loc 1 113 1572
	sw	zero,0(s3)
	.loc 1 113 1591
	lw	s9,88(sp)
	sw	s9,0(s2)
	.loc 1 113 1726
	lw	t4,52(sp)
	sw	t4,0(t0)
.LBE355:
	.loc 1 113 1775
	lw	t4,24(sp)
	sw	t5,0(t4)
.LBB356:
	.loc 1 117 64
	sw	a2,0(a4)
	.loc 1 117 92
	sw	a0,0(t1)
	.loc 1 117 115
	sw	ra,0(a5)
	.loc 1 117 160
	lw	ra,12(sp)
	.loc 1 117 189
	li	t4,5
	.loc 1 117 160
	sw	a2,-1248(ra)
	.loc 1 117 189
	sw	t4,0(t3)
	.loc 1 117 251
	li	ra,48
	sw	ra,0(a7)
	.loc 1 117 314
	li	ra,287
	sw	ra,0(a6)
	.loc 1 117 336
	lw	ra,16(sp)
	sw	zero,-1120(ra)
	.loc 1 117 356
	sw	zero,0(t6)
	.loc 1 117 402
	sw	a3,0(t2)
	.loc 1 117 445
	li	ra,287
	sw	ra,0(s1)
	.loc 1 117 467
	sw	zero,0(s6)
	.loc 1 117 486
	sw	s7,0(s5)
	.loc 1 117 542
	sw	a1,0(s10)
	.loc 1 117 486
	mv	ra,s7
	.loc 1 117 570
	li	s7,287
	sw	s7,0(s4)
	.loc 1 117 592
	sw	zero,0(s3)
	.loc 1 117 611
	lw	s9,92(sp)
	.loc 1 117 744
	li	s7,144
	.loc 1 117 611
	sw	s9,0(s2)
	.loc 1 117 744
	lw	s9,28(sp)
	sw	s7,0(s9)
	.loc 1 117 882
	sw	s11,48(sp)
	sw	s11,0(t0)
.LBE356:
.LBB357:
	.loc 1 117 970
	sw	a2,0(a4)
	sw	a4,112(sp)
	.loc 1 117 998
	sw	a0,0(t1)
	.loc 1 117 1021
	lw	s7,32(sp)
	.loc 1 117 998
	sw	t1,108(sp)
	.loc 1 117 1470
	mv	s9,a1
	.loc 1 117 1021
	sw	s7,0(a5)
	.loc 1 117 1066
	lw	a2,12(sp)
	.loc 1 117 1021
	sw	a5,104(sp)
	.loc 1 117 1157
	li	a5,48
	.loc 1 117 1066
	sw	zero,-1248(a2)
	.loc 1 117 1095
	sw	t4,0(t3)
	sw	t3,92(sp)
	.loc 1 117 1157
	sw	a5,0(a7)
	sw	a7,88(sp)
	.loc 1 117 1220
	li	a5,287
	sw	a5,0(a6)
	.loc 1 117 1242
	lw	a4,16(sp)
	.loc 1 117 1220
	sw	a6,84(sp)
	.loc 1 117 1373
	li	a5,287
	.loc 1 117 1242
	sw	zero,-1120(a4)
	.loc 1 117 1262
	sw	zero,0(t6)
	sw	t6,80(sp)
	.loc 1 117 1330
	sw	a3,0(t2)
	sw	t2,76(sp)
	.loc 1 117 1373
	sw	s1,20(sp)
	sw	a5,0(s1)
	.loc 1 117 1395
	sw	zero,0(s6)
	.loc 1 117 1414
	sw	ra,0(s5)
	.loc 1 117 1470
	sw	a1,0(s10)
	.loc 1 117 1498
	sw	a5,0(s4)
	.loc 1 117 1520
	sw	zero,0(s3)
	.loc 1 117 1539
	lw	a6,96(sp)
.LBE357:
	.loc 1 119 18
	li	a7,88
.LBB358:
	.loc 1 107 778
	addi	a4,a4,-1120
.LBE358:
.LBB359:
	.loc 1 117 1539
	sw	a6,0(s2)
	.loc 1 117 1682
	lw	a6,52(sp)
.LBE359:
.LBB360:
	.loc 1 107 778
	mv	s1,a4
	.loc 1 107 471
	addi	a4,a2,-1248
.LBE360:
.LBB361:
	.loc 1 117 1682
	sw	a6,0(t0)
.LBE361:
	.loc 1 117 1731
	lw	a5,24(sp)
.LBB362:
	.loc 1 117 1682
	sw	t0,32(sp)
.LBE362:
	.loc 1 117 1731
	sw	t5,0(a5)
.LVL261:
.LBB363:
	.loc 1 107 1734 is_stmt 1
	.loc 1 107 1787
	.loc 1 107 1810
	.loc 1 107 1871
	.loc 1 107 1924
	.loc 1 107 1963
	.loc 1 107 1986
	.loc 1 107 2015
	.loc 1 107 2054
	.loc 1 107 2081
	.loc 1 107 2103
	.loc 1 107 2142
	.loc 1 107 2168
	.loc 1 107 2243
	.loc 1 107 2296
	.loc 1 107 2297
	.loc 1 107 2344
	.loc 1 107 2345
.LBE363:
	.loc 1 107 2394
	.loc 1 107 2395
.LBB364:
	.loc 1 107 2501
	.loc 1 107 2546
	.loc 1 107 2575
	.loc 1 107 2598
	.loc 1 107 2643
	.loc 1 107 2672
	.loc 1 107 2732
	.loc 1 107 2795
	.loc 1 107 2817
	.loc 1 107 2837
	.loc 1 107 2896
	.loc 1 107 2938
	.loc 1 107 2960
	.loc 1 107 2980
	.loc 1 107 3034
	.loc 1 107 3061
	.loc 1 107 3083
	.loc 1 107 3103
	.loc 1 107 3237
	.loc 1 107 3385
.LBE364:
.LBB365:
	.loc 1 107 3435
	.loc 1 107 3636
	.loc 1 107 3737
	.loc 1 107 3759
	.loc 1 107 3886
	.loc 1 107 3988
	.loc 1 107 4064
	.loc 1 107 4087
	.loc 1 107 0
	.loc 1 107 0
	.loc 1 107 0
	.loc 1 107 0
	.loc 1 107 0
	.loc 1 107 0
	.loc 1 107 0
	.loc 1 107 0
	.loc 1 107 0
	.loc 1 107 0
	.loc 1 107 0
	.loc 1 107 0
	.loc 1 107 0
.LBE365:
	.loc 1 107 0
	.loc 1 107 0
.LBB366:
	.loc 1 113 3
	.loc 1 113 42
	.loc 1 113 70
	.loc 1 113 92
	.loc 1 113 137
	.loc 1 113 166
	.loc 1 113 228
	.loc 1 113 291
	.loc 1 113 313
	.loc 1 113 333
	.loc 1 113 407
	.loc 1 113 450
	.loc 1 113 472
	.loc 1 113 492
	.loc 1 113 548
	.loc 1 113 575
	.loc 1 113 597
	.loc 1 113 617
	.loc 1 113 763
	.loc 1 113 929
.LBE366:
.LBB367:
	.loc 1 113 979
	.loc 1 113 1024
	.loc 1 113 1052
	.loc 1 113 1074
	.loc 1 113 1119
	.loc 1 113 1148
	.loc 1 113 1210
	.loc 1 113 1273
	.loc 1 113 1295
	.loc 1 113 1315
	.loc 1 113 1365
	.loc 1 113 1408
	.loc 1 113 1430
	.loc 1 113 1450
	.loc 1 113 1506
	.loc 1 113 1533
	.loc 1 113 1555
	.loc 1 113 1575
	.loc 1 113 1709
.LBE367:
	.loc 1 113 1758
	.loc 1 113 1759
.LBB368:
	.loc 1 117 3
	.loc 1 117 48
	.loc 1 117 76
	.loc 1 117 98
	.loc 1 117 143
	.loc 1 117 172
	.loc 1 117 234
	.loc 1 117 297
	.loc 1 117 319
	.loc 1 117 339
	.loc 1 117 385
	.loc 1 117 428
	.loc 1 117 450
	.loc 1 117 470
	.loc 1 117 526
	.loc 1 117 553
	.loc 1 117 575
	.loc 1 117 595
	.loc 1 117 727
	.loc 1 117 865
.LBE368:
.LBB369:
	.loc 1 117 915
	.loc 1 117 954
	.loc 1 117 982
	.loc 1 117 1004
	.loc 1 117 1049
	.loc 1 117 1078
	.loc 1 117 1140
	.loc 1 117 1203
	.loc 1 117 1225
	.loc 1 117 1245
	.loc 1 117 1313
	.loc 1 117 1356
	.loc 1 117 1378
	.loc 1 117 1398
	.loc 1 117 1454
	.loc 1 117 1481
	.loc 1 117 1503
	.loc 1 117 1523
	.loc 1 117 1665
.LBE369:
	.loc 1 117 1714
	.loc 1 117 1715
	.loc 1 119 1
	.loc 1 119 2
	.loc 1 121 10
	.loc 1 125 1
	.loc 1 125 2
	.loc 1 127 10
	.loc 1 127 10
	.loc 1 119 18 is_stmt 0
	sw	a7,0(a5)
.LVL262:
	.loc 1 125 18
	lw	a7,100(sp)
	sw	a5,24(sp)
	sw	a7,0(a5)
	.loc 1 127 10
	li	a7,-2147483648
	sw	zero,36(a7)
	lw	s11,44(sp)
.LBB370:
	.loc 1 107 471
	sw	a4,12(sp)
	addi	a7,s11,15
	sw	a7,96(sp)
.LBE370:
	.loc 1 127 10
	call	_taskYield
.LVL263:
	.loc 1 127 24 is_stmt 1 discriminator 1
.LBB371:
	.loc 1 131 3
	.loc 1 131 186
	.loc 1 131 202 is_stmt 0
	lw	a4,112(sp)
	li	s11,64
	.loc 1 131 285
	li	t5,7
	.loc 1 131 202
	sw	s11,0(a4)
	.loc 1 131 269 is_stmt 1
	.loc 1 131 285 is_stmt 0
	lw	t1,108(sp)
	.loc 1 131 308
	li	a6,511
	.loc 1 131 501
	li	a0,16
	.loc 1 131 285
	sw	t5,0(t1)
	.loc 1 131 291 is_stmt 1
	.loc 1 131 308 is_stmt 0
	lw	a5,104(sp)
	.loc 1 131 588
	li	t0,63
	.loc 1 131 740
	li	t6,4
	.loc 1 131 308
	sw	a6,0(a5)
	.loc 1 131 400 is_stmt 1
	.loc 1 131 417 is_stmt 0
	lw	a2,12(sp)
	.loc 1 131 1305
	li	a1,1036288
	addi	a1,a1,-1921
	.loc 1 131 417
	sw	zero,0(a2)
	.loc 1 131 484 is_stmt 1
	.loc 1 131 501 is_stmt 0
	lw	a7,88(sp)
	.loc 1 131 809
	li	a2,15
	mv	t4,a2
	.loc 1 131 501
	sw	a0,0(a7)
	.loc 1 131 548 is_stmt 1
	.loc 1 131 565 is_stmt 0
	lw	t3,92(sp)
	sw	s0,0(t3)
	.loc 1 131 571 is_stmt 1
	.loc 1 131 588 is_stmt 0
	lw	a6,84(sp)
	sw	t0,0(a6)
	.loc 1 131 659 is_stmt 1
	.loc 1 131 676 is_stmt 0
	sw	s1,16(sp)
	sw	zero,0(s1)
	.loc 1 131 723 is_stmt 1
	.loc 1 131 740 is_stmt 0
	lw	t2,76(sp)
	sw	t6,0(t2)
	.loc 1 131 769 is_stmt 1
	.loc 1 131 786 is_stmt 0
	lw	t6,80(sp)
	sw	s0,0(t6)
	.loc 1 131 792 is_stmt 1
	.loc 1 131 809 is_stmt 0
	lw	s1,20(sp)
	sw	a2,0(s1)
	.loc 1 131 860 is_stmt 1
	.loc 1 131 877 is_stmt 0
	sw	zero,0(s6)
	.loc 1 131 906 is_stmt 1
	.loc 1 131 922 is_stmt 0
	sw	s9,0(s10)
	.loc 1 131 933 is_stmt 1
	.loc 1 131 949 is_stmt 0
	sw	s0,0(s5)
	.loc 1 131 955 is_stmt 1
	.loc 1 131 972 is_stmt 0
	sw	s0,0(s4)
	.loc 1 131 1001 is_stmt 1
	.loc 1 131 1018 is_stmt 0
	sw	zero,0(s3)
	.loc 1 131 1027 is_stmt 1
.LVL264:
	.loc 1 131 1186
	.loc 1 131 1202 is_stmt 0
	sw	zero,0(s2)
	.loc 1 131 1231 is_stmt 1
	.loc 1 131 1232
	.loc 1 131 1249 is_stmt 0
	lw	a0,28(sp)
	li	a2,512
	sw	a2,0(a0)
	.loc 1 131 1288 is_stmt 1
	.loc 1 131 1305 is_stmt 0
	lw	t0,32(sp)
.LBE371:
.LBB372:
	.loc 1 131 1400
	li	a2,4096
	.loc 1 131 1637
	li	a0,127
.LBE372:
.LBB373:
	.loc 1 131 1305
	sw	a1,0(t0)
.LBE373:
.LBB374:
	.loc 1 131 1338 is_stmt 1
.LVL265:
	.loc 1 131 1383
	.loc 1 131 1400 is_stmt 0
	sw	a2,0(t2)
	.loc 1 131 1412 is_stmt 1
	.loc 1 131 1429 is_stmt 0
	sw	s0,0(t6)
	.loc 1 131 1435 is_stmt 1
	.loc 1 131 1452 is_stmt 0
	sw	s7,32(sp)
	sw	s7,0(s1)
	.loc 1 131 1480 is_stmt 1
	.loc 1 131 1497 is_stmt 0
	sw	zero,0(s6)
	.loc 1 131 1509 is_stmt 1
	.loc 1 131 1526 is_stmt 0
	sw	s0,0(t3)
	.loc 1 131 1563 is_stmt 1
	.loc 1 131 1580 is_stmt 0
	li	s7,32
	sw	s7,0(a7)
	.loc 1 131 1620 is_stmt 1
	.loc 1 131 1637 is_stmt 0
	sw	a0,0(a6)
	.loc 1 131 1642 is_stmt 1
	.loc 1 131 1659 is_stmt 0
	lw	a1,16(sp)
	sw	zero,0(a1)
	.loc 1 131 1662 is_stmt 1
	.loc 1 131 1678 is_stmt 0
	sw	s0,0(s5)
	.loc 1 131 1715 is_stmt 1
	.loc 1 131 1731 is_stmt 0
	li	a1,8
	sw	a1,0(s10)
	.loc 1 131 1757 is_stmt 1
	.loc 1 131 1774 is_stmt 0
	sw	a0,0(s4)
	.loc 1 131 1779 is_stmt 1
	.loc 1 131 1796 is_stmt 0
	sw	zero,0(s3)
	.loc 1 131 1799 is_stmt 1
	.loc 1 131 1815 is_stmt 0
	sw	t5,0(t1)
	.loc 1 131 1853 is_stmt 1
	.loc 1 131 1869 is_stmt 0
	sw	s9,0(a4)
	.loc 1 131 1880 is_stmt 1
	.loc 1 131 1897 is_stmt 0
	sw	a0,0(a5)
	.loc 1 131 1902 is_stmt 1
	.loc 1 131 1919 is_stmt 0
	lw	s9,12(sp)
	.loc 1 131 1938
	li	t5,524288
	addi	t5,t5,304
	.loc 1 131 1919
	sw	zero,0(s9)
	.loc 1 131 1922 is_stmt 1
	.loc 1 131 2066 is_stmt 0
	li	a1,1032192
	.loc 1 131 1938
	sw	t5,0(s2)
	.loc 1 131 2049 is_stmt 1
	.loc 1 131 2066 is_stmt 0
	addi	a1,a1,1149
	sw	a1,0(t0)
.LBE374:
	.loc 1 131 2098 is_stmt 1
	.loc 1 131 2099
	.loc 1 131 2115 is_stmt 0
	lw	t5,40(sp)
	lw	a3,24(sp)
.LBB375:
	.loc 1 131 2750
	li	s9,1036288
	addi	s9,s9,127
.LBE375:
	.loc 1 131 2115
	sw	t5,0(a3)
.LBB376:
	.loc 1 131 2205 is_stmt 1
.LVL266:
	.loc 1 131 2362 is_stmt 0
	lw	a1,52(s8)
	.loc 1 131 2384
	li	t5,31
	.loc 1 131 2345
	sw	a1,0(t2)
.LVL267:
	.loc 1 131 2384
	sw	t5,0(t6)
	.loc 1 131 2421
	lw	a3,56(sp)
	lw	a1,56(s8)
	.loc 1 131 2426
	lw	t5,52(s8)
	.loc 1 131 2750
	sw	s9,20(sp)
	.loc 1 131 2421
	sub	a1,a1,a3
	.loc 1 131 2426
	mul	a1,a1,t5
.LBE376:
.LBB377:
	.loc 1 134 1938
	li	s9,524288
	addi	s9,s9,432
	sw	s9,44(sp)
	.loc 1 134 2066
	li	s9,1032192
	addi	s9,s9,1181
	sw	s9,76(sp)
.LBE377:
.LBB378:
	.loc 1 134 2746
	li	s9,1036288
	addi	s9,s9,159
	sw	s9,80(sp)
.LVL268:
.LBE378:
.LBB379:
	.loc 1 131 2328 is_stmt 1
	.loc 1 131 2367
	.loc 1 131 2390
	lw	s9,60(sp)
	.loc 1 131 2443 is_stmt 0
	addi	a1,a1,-1
.LBE379:
.LBB380:
	.loc 1 131 4029
	li	t5,1036288
	addi	s9,s9,1
	sw	s9,60(sp)
.LVL269:
.LBE380:
.LBB381:
	.loc 1 131 2407
	sw	a1,0(s1)
	.loc 1 131 2446 is_stmt 1
	.loc 1 131 2467 is_stmt 0
	lw	a1,52(s8)
	mv	s9,a3
.LVL270:
.LBE381:
.LBB382:
	.loc 1 131 4029
	addi	t5,t5,-1923
.LBE382:
.LBB383:
	.loc 1 131 2467
	mul	a1,a3,a1
	.loc 1 131 2463
	sw	a1,0(s6)
	.loc 1 131 2485 is_stmt 1
	.loc 1 131 2501 is_stmt 0
	li	a1,1
	sw	a1,0(s10)
	.loc 1 131 2512 is_stmt 1
	.loc 1 131 2528 is_stmt 0
	sw	t4,0(s5)
	.loc 1 131 2534 is_stmt 1
	.loc 1 131 2565 is_stmt 0
	lw	a1,52(s8)
	.loc 1 131 2567
	lw	a3,36(sp)
	.loc 1 131 2565
	addi	a1,a1,-1
	.loc 1 131 2567
	sub	a1,a1,a3
	.loc 1 131 2551
	sw	a1,0(s4)
	.loc 1 131 2573 is_stmt 1
	.loc 1 131 2590 is_stmt 0
	sw	a3,0(s3)
	.loc 1 131 2599 is_stmt 1
.LVL271:
	.loc 1 131 2639
	.loc 1 131 2611 is_stmt 0
	lw	a1,52(s8)
	sw	s9,56(sp)
	.loc 1 131 2603
	sw	a3,36(sp)
	.loc 1 131 2611
	mul	a1,s9,a1
	.loc 1 131 2660
	lw	s9,128(sp)
.LVL272:
	.loc 1 131 2603
	add	a1,a1,a3
.LVL273:
	.loc 1 131 2660
	add	a1,a1,s9
.LVL274:
	.loc 1 131 2655
	sw	a1,0(s2)
.LVL275:
	.loc 1 131 2690 is_stmt 1
	.loc 1 131 2691
	.loc 1 131 2708 is_stmt 0
	lw	t4,28(sp)
	li	a1,512
.LBE383:
.LBB384:
	.loc 1 131 3589
	li	a3,15
.LBE384:
.LBB385:
	.loc 1 131 2708
	sw	a1,0(t4)
	.loc 1 131 2733 is_stmt 1
	.loc 1 131 2750 is_stmt 0
	lw	s9,20(sp)
.LBE385:
.LBB386:
	.loc 1 131 3065
	li	t4,7
	.loc 1 131 3088
	li	a1,511
.LBE386:
.LBB387:
	.loc 1 131 2750
	sw	s9,0(t0)
.LBE387:
.LBB388:
	.loc 1 131 2783 is_stmt 1
.LVL276:
	.loc 1 131 2966
	.loc 1 131 2982 is_stmt 0
	sw	s11,0(a4)
	.loc 1 131 3049 is_stmt 1
	.loc 1 131 3065 is_stmt 0
	sw	t4,0(t1)
	.loc 1 131 3071 is_stmt 1
	.loc 1 131 3088 is_stmt 0
	sw	a1,0(a5)
	.loc 1 131 3180 is_stmt 1
	.loc 1 131 3197 is_stmt 0
	lw	s9,12(sp)
	.loc 1 131 3281
	li	a1,16
	.loc 1 131 3368
	li	t4,63
	.loc 1 131 3197
	sw	zero,0(s9)
	.loc 1 131 3264 is_stmt 1
	.loc 1 131 3281 is_stmt 0
	sw	a1,0(a7)
	.loc 1 131 3328 is_stmt 1
	.loc 1 131 3345 is_stmt 0
	sw	s0,0(t3)
	.loc 1 131 3351 is_stmt 1
	.loc 1 131 3368 is_stmt 0
	sw	t4,0(a6)
	.loc 1 131 3439 is_stmt 1
	.loc 1 131 3456 is_stmt 0
	lw	a1,16(sp)
	.loc 1 131 3589
	mv	t4,a3
	.loc 1 131 3456
	sw	zero,0(a1)
	.loc 1 131 3503 is_stmt 1
	.loc 1 131 3520 is_stmt 0
	li	a1,4
	sw	a1,0(t2)
	.loc 1 131 3549 is_stmt 1
	.loc 1 131 3566 is_stmt 0
	sw	s0,0(t6)
	.loc 1 131 3572 is_stmt 1
	.loc 1 131 3589 is_stmt 0
	sw	a3,0(s1)
	.loc 1 131 3640 is_stmt 1
	.loc 1 131 3702 is_stmt 0
	li	a1,1
	.loc 1 131 3657
	sw	zero,0(s6)
	.loc 1 131 3686 is_stmt 1
	.loc 1 131 3702 is_stmt 0
	sw	a1,0(s10)
	.loc 1 131 3713 is_stmt 1
	.loc 1 131 3729 is_stmt 0
	sw	s0,0(s5)
	.loc 1 131 3735 is_stmt 1
	.loc 1 131 3752 is_stmt 0
	sw	s0,0(s4)
	.loc 1 131 3781 is_stmt 1
	.loc 1 131 3798 is_stmt 0
	sw	zero,0(s3)
	.loc 1 131 3807 is_stmt 1
.LVL277:
	.loc 1 131 3966
	.loc 1 131 3982 is_stmt 0
	sw	zero,0(s2)
	.loc 1 131 4011 is_stmt 1
	.loc 1 131 4012
	.loc 1 131 4029 is_stmt 0
	sw	t5,0(t0)
.LBE388:
	.loc 1 131 4061 is_stmt 1
	.loc 1 131 4062
	.loc 1 131 4078 is_stmt 0
	lw	s9,40(sp)
	lw	a3,24(sp)
.LBB389:
	.loc 1 134 285
	li	t5,7
.LBE389:
	.loc 1 131 4078
	sw	s9,0(a3)
.LBB390:
	.loc 1 134 3 is_stmt 1
.LVL278:
	.loc 1 134 186
	.loc 1 134 202 is_stmt 0
	sw	s11,0(a4)
	.loc 1 134 269 is_stmt 1
	.loc 1 134 285 is_stmt 0
	sw	t5,0(t1)
	.loc 1 134 291 is_stmt 1
	.loc 1 134 308 is_stmt 0
	li	a3,511
	sw	a3,0(a5)
	.loc 1 134 400 is_stmt 1
	.loc 1 134 417 is_stmt 0
	lw	a3,12(sp)
	sw	zero,0(a3)
	.loc 1 134 484 is_stmt 1
	.loc 1 134 501 is_stmt 0
	li	a3,16
	sw	a3,0(a7)
	.loc 1 134 548 is_stmt 1
	.loc 1 134 565 is_stmt 0
	sw	s0,0(t3)
	.loc 1 134 571 is_stmt 1
	.loc 1 134 588 is_stmt 0
	li	a3,63
	sw	a3,0(a6)
	.loc 1 134 659 is_stmt 1
	.loc 1 134 676 is_stmt 0
	lw	a3,16(sp)
	sw	zero,0(a3)
	.loc 1 134 723 is_stmt 1
	.loc 1 134 740 is_stmt 0
	li	a3,4
	sw	a3,0(t2)
	.loc 1 134 769 is_stmt 1
	.loc 1 134 786 is_stmt 0
	sw	s0,0(t6)
	.loc 1 134 792 is_stmt 1
	.loc 1 134 809 is_stmt 0
	sw	s1,20(sp)
	sw	t4,0(s1)
	.loc 1 134 860 is_stmt 1
	.loc 1 134 877 is_stmt 0
	sw	zero,0(s6)
	.loc 1 134 906 is_stmt 1
	.loc 1 134 922 is_stmt 0
	sw	a1,0(s10)
	.loc 1 134 933 is_stmt 1
	.loc 1 134 949 is_stmt 0
	sw	s0,0(s5)
	.loc 1 134 955 is_stmt 1
	.loc 1 134 972 is_stmt 0
	sw	s0,0(s4)
	.loc 1 134 1001 is_stmt 1
	.loc 1 134 1018 is_stmt 0
	sw	zero,0(s3)
	.loc 1 134 1027 is_stmt 1
.LVL279:
	.loc 1 134 1186
	.loc 1 134 1202 is_stmt 0
	sw	zero,0(s2)
	.loc 1 134 1231 is_stmt 1
	.loc 1 134 1232
	.loc 1 134 1249 is_stmt 0
	lw	s1,28(sp)
	li	a3,512
	sw	a3,0(s1)
	.loc 1 134 1288 is_stmt 1
	.loc 1 134 1305 is_stmt 0
	lw	a3,72(sp)
	sw	a3,0(t0)
.LBE390:
.LBB391:
	.loc 1 134 1338 is_stmt 1
.LVL280:
	.loc 1 134 1383
	.loc 1 134 1400 is_stmt 0
	sw	a2,0(t2)
	.loc 1 134 1412 is_stmt 1
	.loc 1 134 1429 is_stmt 0
	sw	s0,0(t6)
	.loc 1 134 1435 is_stmt 1
	.loc 1 134 1452 is_stmt 0
	lw	a3,32(sp)
	lw	s1,20(sp)
	sw	a3,0(s1)
	.loc 1 134 1480 is_stmt 1
	.loc 1 134 1497 is_stmt 0
	sw	zero,0(s6)
	.loc 1 134 1509 is_stmt 1
	.loc 1 134 1526 is_stmt 0
	sw	s0,0(t3)
	.loc 1 134 1563 is_stmt 1
	.loc 1 134 1580 is_stmt 0
	sw	s7,0(a7)
	.loc 1 134 1620 is_stmt 1
	.loc 1 134 1637 is_stmt 0
	sw	a0,0(a6)
	.loc 1 134 1642 is_stmt 1
	.loc 1 134 1659 is_stmt 0
	lw	s7,16(sp)
	.loc 1 134 1731
	li	a3,8
	.loc 1 134 1659
	sw	zero,0(s7)
	.loc 1 134 1662 is_stmt 1
	.loc 1 134 1678 is_stmt 0
	sw	s0,0(s5)
	.loc 1 134 1715 is_stmt 1
	.loc 1 134 1731 is_stmt 0
	sw	a3,0(s10)
	.loc 1 134 1757 is_stmt 1
	.loc 1 134 1774 is_stmt 0
	sw	a0,0(s4)
	.loc 1 134 1779 is_stmt 1
	.loc 1 134 1796 is_stmt 0
	sw	zero,0(s3)
	.loc 1 134 1799 is_stmt 1
	.loc 1 134 1815 is_stmt 0
	sw	t5,0(t1)
	.loc 1 134 1853 is_stmt 1
	.loc 1 134 1869 is_stmt 0
	sw	a1,0(a4)
	.loc 1 134 1880 is_stmt 1
	.loc 1 134 1897 is_stmt 0
	sw	a0,0(a5)
	.loc 1 134 1902 is_stmt 1
	.loc 1 134 1869 is_stmt 0
	mv	t5,a1
	.loc 1 134 1919
	lw	a1,12(sp)
.LBE391:
.LBB392:
	.loc 1 134 2384
	li	s7,31
.LBE392:
.LBB393:
	.loc 1 134 1919
	sw	zero,0(a1)
	.loc 1 134 1922 is_stmt 1
	.loc 1 134 1938 is_stmt 0
	lw	a0,44(sp)
	sw	a0,0(s2)
	.loc 1 134 2049 is_stmt 1
	.loc 1 134 2066 is_stmt 0
	lw	a0,76(sp)
	sw	a0,0(t0)
.LBE393:
	.loc 1 134 2098 is_stmt 1
	.loc 1 134 2099
	.loc 1 134 2115 is_stmt 0
	lw	s1,24(sp)
	sw	s9,0(s1)
.LBB394:
	.loc 1 134 2205 is_stmt 1
.LVL281:
	.loc 1 134 2328
	.loc 1 134 2362 is_stmt 0
	lw	a1,52(s8)
	.loc 1 134 2345
	sw	a1,0(t2)
.LVL282:
	.loc 1 134 2367 is_stmt 1
	.loc 1 134 2384 is_stmt 0
	sw	s7,0(t6)
	.loc 1 134 2390 is_stmt 1
	.loc 1 134 2421 is_stmt 0
	lw	a1,56(s8)
	.loc 1 134 2426
	lw	a0,52(s8)
	.loc 1 134 2421
	lw	a3,56(sp)
	.loc 1 134 2407
	lw	s7,20(sp)
	.loc 1 134 2421
	sub	a1,a1,a3
	.loc 1 134 2426
	mul	a1,a1,a0
	.loc 1 134 2501
	mv	a0,t5
	.loc 1 134 2443
	addi	a1,a1,-1
	.loc 1 134 2407
	sw	a1,0(s7)
	.loc 1 134 2446 is_stmt 1
	.loc 1 134 2467 is_stmt 0
	lw	a1,52(s8)
	mv	s7,a3
	mul	a1,a3,a1
	.loc 1 134 2463
	sw	a1,0(s6)
	.loc 1 134 2485 is_stmt 1
	.loc 1 134 2501 is_stmt 0
	sw	t5,0(s10)
	.loc 1 134 2512 is_stmt 1
	.loc 1 134 2528 is_stmt 0
	sw	t4,0(s5)
	.loc 1 134 2534 is_stmt 1
	.loc 1 134 2565 is_stmt 0
	lw	a1,52(s8)
	.loc 1 134 2567
	lw	a3,36(sp)
	.loc 1 134 2528
	mv	t5,t4
	.loc 1 134 2565
	addi	a1,a1,-1
	.loc 1 134 2567
	sub	a1,a1,a3
	.loc 1 134 2551
	sw	a1,0(s4)
	.loc 1 134 2573 is_stmt 1
	.loc 1 134 2590 is_stmt 0
	sw	a3,0(s3)
	.loc 1 134 2599 is_stmt 1
.LVL283:
	.loc 1 134 2639
	.loc 1 134 2611 is_stmt 0
	lw	a1,52(s8)
	mul	a1,s7,a1
	.loc 1 134 2660
	lw	s7,136(sp)
.LVL284:
	.loc 1 134 2603
	add	a1,a1,a3
.LVL285:
	.loc 1 134 2660
	add	a1,a1,s7
.LVL286:
	.loc 1 134 2655
	sw	a1,0(s2)
	.loc 1 134 2686 is_stmt 1
	.loc 1 134 2687
	.loc 1 134 2704 is_stmt 0
	lw	t4,28(sp)
	li	a1,512
	sw	a1,0(t4)
	.loc 1 134 2729 is_stmt 1
	.loc 1 134 2746 is_stmt 0
	lw	s7,80(sp)
.LBE394:
.LBB395:
	.loc 1 134 3061
	li	a1,7
	.loc 1 134 3277
	li	t4,16
.LBE395:
.LBB396:
	.loc 1 134 2746
	sw	s7,0(t0)
.LBE396:
.LBB397:
	.loc 1 134 2779 is_stmt 1
.LVL287:
	.loc 1 134 2962
	.loc 1 134 2978 is_stmt 0
	sw	s11,0(a4)
	.loc 1 134 3045 is_stmt 1
	.loc 1 134 3061 is_stmt 0
	sw	a1,0(t1)
	.loc 1 134 3067 is_stmt 1
	.loc 1 134 3084 is_stmt 0
	li	s11,511
	sw	s11,0(a5)
	.loc 1 134 3176 is_stmt 1
	.loc 1 134 3193 is_stmt 0
	lw	s11,12(sp)
	sw	zero,0(s11)
	.loc 1 134 3260 is_stmt 1
	.loc 1 134 3277 is_stmt 0
	sw	t4,0(a7)
	.loc 1 134 3324 is_stmt 1
	.loc 1 134 3341 is_stmt 0
	sw	s0,0(t3)
	.loc 1 134 3347 is_stmt 1
	.loc 1 134 3364 is_stmt 0
	li	s11,63
	sw	s11,0(a6)
	.loc 1 134 3435 is_stmt 1
	.loc 1 134 3452 is_stmt 0
	lw	s11,16(sp)
	.loc 1 134 3516
	li	t4,4
	.loc 1 134 3452
	sw	zero,0(s11)
	.loc 1 134 3499 is_stmt 1
	.loc 1 134 3516 is_stmt 0
	sw	t4,0(t2)
	.loc 1 134 3545 is_stmt 1
	.loc 1 134 3562 is_stmt 0
	sw	s0,0(t6)
	.loc 1 134 3568 is_stmt 1
	.loc 1 134 3585 is_stmt 0
	lw	s7,20(sp)
	sw	t5,0(s7)
	.loc 1 134 3636 is_stmt 1
	.loc 1 134 3653 is_stmt 0
	sw	zero,0(s6)
	.loc 1 134 3682 is_stmt 1
	.loc 1 134 3698 is_stmt 0
	sw	a0,0(s10)
	.loc 1 134 3709 is_stmt 1
	.loc 1 134 3725 is_stmt 0
	sw	s0,0(s5)
	.loc 1 134 3731 is_stmt 1
	.loc 1 134 3748 is_stmt 0
	sw	s0,0(s4)
	.loc 1 134 3777 is_stmt 1
	.loc 1 134 3794 is_stmt 0
	sw	zero,0(s3)
	.loc 1 134 3803 is_stmt 1
.LVL288:
	.loc 1 134 3962
	.loc 1 134 3978 is_stmt 0
	sw	zero,0(s2)
	.loc 1 134 4007 is_stmt 1
	.loc 1 134 4008
	.loc 1 134 4025 is_stmt 0
	lw	s0,64(sp)
	sw	s0,0(t0)
.LBE397:
	.loc 1 134 4057 is_stmt 1
	.loc 1 134 4058
	.loc 1 134 4074 is_stmt 0
	sw	s9,0(s1)
	.loc 1 92 26 is_stmt 1 discriminator 2
.LVL289:
	.loc 1 92 17 discriminator 1
	addi	s0,a3,15
	sw	s0,36(sp)
	lw	s9,60(sp)
	lw	s0,132(sp)
	bgt	s0,s9,.L68
	lw	s0,156(sp)
	.loc 1 91 23 discriminator 2
	lw	s1,152(sp)
	lw	s2,144(sp)
	addi	s0,s0,1
.LVL290:
	.loc 1 91 17 discriminator 1
	lw	s3,148(sp)
	mv	t6,s8
	addi	s1,s1,-8
	bne	s2,s0,.L69
.LVL291:
.L64:
	lw	s4,200(sp)
	.cfi_restore 20
	lw	s7,188(sp)
	.cfi_restore 23
	lw	s8,184(sp)
	.cfi_restore 24
	lw	s9,180(sp)
	.cfi_restore 25
	lw	s10,176(sp)
	.cfi_restore 26
	lw	s11,172(sp)
	.cfi_restore 27
.LVL292:
.L50:
	.loc 1 137 1 is_stmt 0
	lw	ra,220(sp)
	.cfi_remember_state
	.cfi_restore 1
	lw	s0,216(sp)
	.cfi_restore 8
	lw	s1,212(sp)
	.cfi_restore 9
	lw	s2,208(sp)
	.cfi_restore 18
	lw	s3,204(sp)
	.cfi_restore 19
	lw	s5,196(sp)
	.cfi_restore 21
	lw	s6,192(sp)
	.cfi_restore 22
	addi	sp,sp,224
	.cfi_def_cfa_offset 0
	jr	ra
.LVL293:
.L51:
	.cfi_restore_state
	.loc 1 74 7 is_stmt 1
	.loc 1 74 9 is_stmt 0
	li	a5,32
	ble	s1,a5,.L50
	sw	s4,200(sp)
	.cfi_offset 20, -24
	.loc 1 76 7 is_stmt 1
	.loc 1 76 11 is_stmt 0
	srai	s0,a4,6
.LVL294:
	.loc 1 77 7 is_stmt 1
	j	.L52
.LVL295:
.L65:
	.loc 1 72 26 is_stmt 0 discriminator 1
	srai	s2,a4,6
.LVL296:
	j	.L52
.LVL297:
.L66:
	.cfi_offset 23, -36
	.cfi_offset 24, -40
	.cfi_offset 25, -44
	.cfi_offset 26, -48
	.cfi_offset 27, -52
.LBB398:
	.loc 1 131 2209
	slli	a5,s0,5
.LBE398:
.LBB399:
	.loc 1 107 1546
	sw	a4,68(sp)
.LBE399:
.LBB400:
	.loc 1 131 2209
	sw	a5,56(sp)
	j	.L58
.LVL298:
.L63:
	.cfi_restore 23
	.cfi_restore 24
	.cfi_restore 25
	.cfi_restore 26
	.cfi_restore 27
	lw	s4,200(sp)
	.cfi_restore 20
	j	.L50
.LBE400:
	.cfi_endproc
.LFE0:
	.size	canny_phase_0, .-canny_phase_0
	.align	2
	.globl	kernel_canny_exe
	.type	kernel_canny_exe, @function
kernel_canny_exe:
.LFB3:
	.loc 1 335 3 is_stmt 1
	.cfi_startproc
.LVL299:
	.loc 1 336 4
	.loc 1 338 4
	.loc 1 335 3 is_stmt 0
	addi	sp,sp,-112
	.cfi_def_cfa_offset 112
	sw	s0,104(sp)
	.cfi_offset 8, -8
	mv	s0,a0
	.loc 1 338 4
	lui	a0,%hi(zta_pcore_img)
.LVL300:
	addi	a0,a0,%lo(zta_pcore_img)
	.loc 1 335 3
	sw	ra,108(sp)
	sw	s1,100(sp)
	sw	s2,96(sp)
	sw	s3,92(sp)
	sw	s4,88(sp)
	sw	s5,84(sp)
	sw	s6,80(sp)
	sw	s7,76(sp)
	.cfi_offset 1, -4
	.cfi_offset 9, -12
	.cfi_offset 18, -16
	.cfi_offset 19, -20
	.cfi_offset 20, -24
	.cfi_offset 21, -28
	.cfi_offset 22, -32
	.cfi_offset 23, -36
	.loc 1 335 3
	mv	s6,a2
	mv	s5,a3
	mv	s4,a4
	mv	s2,a6
	mv	s1,a7
	mv	s7,a1
	mv	s3,a5
	.loc 1 338 4
	call	ztaInitPcore
.LVL301:
	.loc 1 339 4 is_stmt 1
	.loc 1 346 9 is_stmt 0
	lw	a5,112(sp)
	.loc 1 355 4
	lui	a0,%hi(canny_phase_0)
	addi	a1,sp,4
	.loc 1 346 9
	sw	a5,32(sp)
	.loc 1 347 9
	lw	a5,116(sp)
	.loc 1 355 4
	addi	a0,a0,%lo(canny_phase_0)
	.loc 1 339 13
	sw	s7,4(sp)
	.loc 1 340 4 is_stmt 1
	.loc 1 347 9 is_stmt 0
	sw	a5,36(sp)
	.loc 1 348 13
	lw	a5,120(sp)
	.loc 1 340 17
	sw	s6,8(sp)
	.loc 1 341 4 is_stmt 1
	.loc 1 341 13 is_stmt 0
	sw	s5,12(sp)
	.loc 1 342 4 is_stmt 1
	.loc 1 348 13 is_stmt 0
	sw	a5,40(sp)
	.loc 1 349 13
	lw	a5,124(sp)
	.loc 1 342 14
	sw	s4,16(sp)
	.loc 1 343 4 is_stmt 1
	.loc 1 343 14 is_stmt 0
	sw	s3,20(sp)
	.loc 1 344 4 is_stmt 1
	.loc 1 349 13 is_stmt 0
	sw	a5,44(sp)
	.loc 1 350 13
	lw	a5,128(sp)
	.loc 1 344 20
	sw	s2,24(sp)
	.loc 1 345 4 is_stmt 1
	.loc 1 345 20 is_stmt 0
	sw	s1,28(sp)
	.loc 1 346 4 is_stmt 1
	.loc 1 347 4
	.loc 1 348 4
	.loc 1 349 4
	.loc 1 350 4
	.loc 1 350 13 is_stmt 0
	sw	a5,48(sp)
	.loc 1 351 4 is_stmt 1
	.loc 1 351 13 is_stmt 0
	lw	a5,132(sp)
	sw	a5,52(sp)
	.loc 1 352 4 is_stmt 1
	.loc 1 352 13 is_stmt 0
	lw	a5,136(sp)
	sw	a5,56(sp)
	.loc 1 353 4 is_stmt 1
	.loc 1 353 13 is_stmt 0
	lw	a5,140(sp)
	sw	a5,60(sp)
	.loc 1 355 4 is_stmt 1
	call	ztaDualHartExecute
.LVL302:
	.loc 1 357 4
	lui	a0,%hi(canny_phase_1)
	addi	a1,sp,4
	addi	a0,a0,%lo(canny_phase_1)
	call	ztaDualHartExecute
.LVL303:
	.loc 1 359 4
	lui	a0,%hi(canny_phase_2)
	addi	a1,sp,4
	addi	a0,a0,%lo(canny_phase_2)
	call	ztaDualHartExecute
.LVL304:
	.loc 1 361 4
	mv	a0,s0
	call	ztaJobDone
.LVL305:
	.loc 1 362 1 is_stmt 0
	lw	ra,108(sp)
	.cfi_restore 1
	lw	s0,104(sp)
	.cfi_restore 8
.LVL306:
	lw	s1,100(sp)
	.cfi_restore 9
.LVL307:
	lw	s2,96(sp)
	.cfi_restore 18
.LVL308:
	lw	s3,92(sp)
	.cfi_restore 19
.LVL309:
	lw	s4,88(sp)
	.cfi_restore 20
.LVL310:
	lw	s5,84(sp)
	.cfi_restore 21
.LVL311:
	lw	s6,80(sp)
	.cfi_restore 22
.LVL312:
	lw	s7,76(sp)
	.cfi_restore 23
.LVL313:
	addi	sp,sp,112
	.cfi_def_cfa_offset 0
.LVL314:
	jr	ra
	.cfi_endproc
.LFE3:
	.size	kernel_canny_exe, .-kernel_canny_exe
	.data
	.align	2
	.type	zta_pcore_img, @object
	.size	zta_pcore_img, 2774
zta_pcore_img:
	.half	2752
	.half	72
	.half	2056
	.half	1044
	.half	32
	.half	3425
	.half	9112
	.half	0
	.half	0
	.half	72
	.half	2056
	.half	1044
	.half	96
	.half	14681
	.half	9128
	.half	0
	.half	-32756
	.half	72
	.half	2056
	.half	1044
	.half	32
	.half	10587
	.half	9144
	.half	0
	.half	-32760
	.half	72
	.half	2056
	.half	1044
	.half	160
	.half	7131
	.half	9160
	.half	0
	.half	-32744
	.half	72
	.half	2056
	.half	1044
	.half	160
	.half	2491
	.half	9176
	.half	0
	.half	-32768
	.half	72
	.half	2056
	.half	1044
	.half	160
	.half	3514
	.half	9192
	.half	0
	.half	16392
	.half	72
	.half	2056
	.half	1044
	.half	224
	.half	3474
	.half	9208
	.half	0
	.half	-16232
	.half	72
	.half	2056
	.half	1044
	.half	288
	.half	3475
	.half	9224
	.half	0
	.half	16600
	.half	72
	.half	2056
	.half	1044
	.half	224
	.half	3416
	.half	9240
	.half	0
	.half	12
	.half	72
	.half	2056
	.half	1044
	.half	32
	.half	0
	.half	8968
	.half	0
	.half	0
	.half	72
	.half	2056
	.half	1044
	.half	160
	.half	0
	.half	8984
	.half	0
	.half	0
	.half	72
	.half	2056
	.half	1044
	.half	224
	.half	0
	.half	9000
	.half	0
	.half	0
	.half	72
	.half	2056
	.half	1044
	.half	96
	.half	0
	.half	9016
	.half	0
	.half	0
	.half	72
	.half	2056
	.half	1044
	.half	160
	.half	0
	.half	9032
	.half	0
	.half	0
	.half	72
	.half	2056
	.half	1044
	.half	288
	.half	0
	.half	9048
	.half	0
	.half	0
	.half	72
	.half	2056
	.half	1044
	.half	32
	.half	0
	.half	9064
	.half	0
	.half	0
	.half	72
	.half	2056
	.half	1044
	.half	160
	.half	0
	.half	9080
	.half	0
	.half	0
	.half	72
	.half	2056
	.half	1044
	.half	224
	.half	0
	.half	9096
	.half	2048
	.half	0
	.half	72
	.half	3080
	.half	1045
	.half	160
	.half	3363
	.half	25
	.half	0
	.half	-32768
	.half	72
	.half	3080
	.half	1045
	.half	160
	.half	0
	.half	9
	.half	0
	.half	0
	.half	76
	.half	-13304
	.half	17937
	.half	1580
	.half	0
	.half	9
	.half	0
	.half	0
	.half	204
	.half	-13304
	.half	18225
	.half	1580
	.half	3035
	.half	25
	.half	0
	.half	-32764
	.half	76
	.half	-13304
	.half	17969
	.half	1580
	.half	0
	.half	9
	.half	0
	.half	0
	.half	204
	.half	-13304
	.half	18257
	.half	1580
	.half	3035
	.half	25
	.half	0
	.half	-32764
	.half	76
	.half	-13304
	.half	18001
	.half	1580
	.half	0
	.half	9
	.half	0
	.half	0
	.half	204
	.half	-13304
	.half	18289
	.half	1580
	.half	3035
	.half	25
	.half	0
	.half	-32764
	.half	72
	.half	8
	.half	0
	.half	0
	.half	2947
	.half	0
	.half	0
	.half	-32768
	.half	76
	.half	-13304
	.half	18033
	.half	1580
	.half	0
	.half	9
	.half	0
	.half	0
	.half	204
	.half	-13304
	.half	18321
	.half	1580
	.half	3035
	.half	25
	.half	0
	.half	-32764
	.half	76
	.half	-13304
	.half	18065
	.half	1580
	.half	0
	.half	9
	.half	0
	.half	0
	.half	204
	.half	-13304
	.half	18353
	.half	1580
	.half	3035
	.half	25
	.half	0
	.half	-32764
	.half	76
	.half	-13304
	.half	18097
	.half	1580
	.half	0
	.half	9
	.half	0
	.half	0
	.half	204
	.half	-13304
	.half	18385
	.half	1580
	.half	3035
	.half	25
	.half	0
	.half	-32764
	.half	72
	.half	8
	.half	0
	.half	0
	.half	2947
	.half	0
	.half	0
	.half	-32768
	.half	76
	.half	-13304
	.half	18129
	.half	1580
	.half	0
	.half	9
	.half	0
	.half	0
	.half	204
	.half	-13304
	.half	18417
	.half	1580
	.half	3035
	.half	25
	.half	0
	.half	-32764
	.half	76
	.half	-13304
	.half	18161
	.half	1580
	.half	0
	.half	9
	.half	0
	.half	0
	.half	204
	.half	-13304
	.half	18449
	.half	1580
	.half	3035
	.half	25
	.half	0
	.half	-32764
	.half	76
	.half	-13304
	.half	18193
	.half	1580
	.half	0
	.half	9
	.half	0
	.half	0
	.half	204
	.half	-13304
	.half	18481
	.half	1580
	.half	0
	.half	25
	.half	0
	.half	0
	.half	200
	.half	-20472
	.half	1045
	.half	160
	.half	3035
	.half	41
	.half	0
	.half	-32764
	.half	72
	.half	2056
	.half	1045
	.half	352
	.half	2947
	.half	267
	.half	0
	.half	-32768
	.half	72
	.half	-20472
	.half	1045
	.half	160
	.half	0
	.half	57
	.half	0
	.half	0
	.half	76
	.half	24584
	.half	83
	.half	230
	.half	0
	.half	9
	.half	0
	.half	0
	.half	76
	.half	18440
	.half	80
	.half	36
	.half	0
	.half	1034
	.half	0
	.half	0
	.half	72
	.half	8
	.half	0
	.half	0
	.half	0
	.half	0
	.half	0
	.half	0
	.half	72
	.half	2056
	.half	1045
	.half	288
	.half	3444
	.half	267
	.half	0
	.half	0
	.half	72
	.half	8
	.half	0
	.half	0
	.half	0
	.half	0
	.half	0
	.half	0
	.half	76
	.half	12296
	.half	80
	.half	228
	.half	3420
	.half	1034
	.half	0
	.half	32764
	.half	72
	.half	8
	.half	0
	.half	0
	.half	0
	.half	0
	.half	0
	.half	0
	.half	76
	.half	24584
	.half	17
	.half	228
	.half	3444
	.half	57
	.half	0
	.half	0
	.half	72
	.half	8
	.half	0
	.half	0
	.half	0
	.half	0
	.half	0
	.half	0
	.half	76
	.half	12296
	.half	80
	.half	164
	.half	3420
	.half	1034
	.half	0
	.half	32764
	.half	72
	.half	8
	.half	0
	.half	0
	.half	0
	.half	0
	.half	0
	.half	0
	.half	76
	.half	24584
	.half	17
	.half	164
	.half	3444
	.half	41
	.half	0
	.half	0
	.half	72
	.half	8
	.half	0
	.half	0
	.half	0
	.half	0
	.half	0
	.half	0
	.half	76
	.half	2056
	.half	1045
	.half	228
	.half	3420
	.half	9
	.half	0
	.half	32764
	.half	76
	.half	16392
	.half	82
	.half	230
	.half	0
	.half	1034
	.half	0
	.half	0
	.half	72
	.half	8
	.half	0
	.half	0
	.half	0
	.half	0
	.half	0
	.half	0
	.half	76
	.half	2056
	.half	1045
	.half	164
	.half	3444
	.half	9
	.half	0
	.half	0
	.half	72
	.half	8
	.half	0
	.half	0
	.half	0
	.half	0
	.half	0
	.half	0
	.half	76
	.half	2056
	.half	1045
	.half	228
	.half	3420
	.half	25
	.half	0
	.half	32764
	.half	76
	.half	16392
	.half	114
	.half	166
	.half	0
	.half	1034
	.half	0
	.half	0
	.half	72
	.half	8
	.half	0
	.half	0
	.half	0
	.half	0
	.half	0
	.half	0
	.half	76
	.half	2056
	.half	1045
	.half	164
	.half	3444
	.half	25
	.half	0
	.half	0
	.half	72
	.half	8
	.half	0
	.half	0
	.half	0
	.half	0
	.half	0
	.half	0
	.half	72
	.half	-22520
	.half	19
	.half	226
	.half	3420
	.half	9
	.half	0
	.half	32764
	.half	76
	.half	6152
	.half	19
	.half	102
	.half	0
	.half	139
	.half	0
	.half	0
	.half	76
	.half	25608
	.half	209
	.half	228
	.half	0
	.half	9
	.half	0
	.half	0
	.half	76
	.half	-10232
	.half	241
	.half	164
	.half	0
	.half	9
	.half	0
	.half	0
	.half	76
	.half	12296
	.half	80
	.half	36
	.half	0
	.half	1034
	.half	0
	.half	0
	.half	72
	.half	8
	.half	0
	.half	0
	.half	0
	.half	0
	.half	0
	.half	0
	.half	72
	.half	2056
	.half	1045
	.half	224
	.half	3444
	.half	267
	.half	0
	.half	0
	.half	72
	.half	8
	.half	0
	.half	0
	.half	0
	.half	0
	.half	0
	.half	0
	.half	76
	.half	25608
	.half	177
	.half	228
	.half	3420
	.half	9
	.half	0
	.half	32764
	.half	76
	.half	-10232
	.half	241
	.half	164
	.half	0
	.half	9
	.half	0
	.half	0
	.half	76
	.half	16392
	.half	80
	.half	36
	.half	0
	.half	1034
	.half	0
	.half	0
	.half	72
	.half	8
	.half	0
	.half	0
	.half	0
	.half	0
	.half	0
	.half	0
	.half	72
	.half	2056
	.half	1045
	.half	160
	.half	3444
	.half	267
	.half	0
	.half	0
	.half	72
	.half	8
	.half	0
	.half	0
	.half	3420
	.half	0
	.half	2048
	.half	32764
	.half	72
	.half	8
	.half	0
	.half	0
	.half	3425
	.half	0
	.half	0
	.half	0
	.half	72
	.half	8
	.half	0
	.half	0
	.half	14681
	.half	0
	.half	0
	.half	-32756
	.half	72
	.half	8
	.half	0
	.half	0
	.half	10587
	.half	0
	.half	0
	.half	-32760
	.half	72
	.half	8
	.half	0
	.half	0
	.half	7131
	.half	0
	.half	0
	.half	-32744
	.half	72
	.half	8
	.half	0
	.half	0
	.half	2491
	.half	0
	.half	0
	.half	-32768
	.half	72
	.half	8
	.half	0
	.half	0
	.half	3514
	.half	0
	.half	0
	.half	16392
	.half	72
	.half	8
	.half	0
	.half	0
	.half	3474
	.half	0
	.half	0
	.half	-16232
	.half	72
	.half	8
	.half	0
	.half	0
	.half	3475
	.half	0
	.half	2048
	.half	16600
	.half	76
	.half	2056
	.half	1045
	.half	492
	.half	0
	.half	9
	.half	0
	.half	0
	.half	76
	.half	2056
	.half	1045
	.half	36
	.half	0
	.half	267
	.half	0
	.half	0
	.half	76
	.half	20488
	.half	80
	.half	556
	.half	0
	.half	1034
	.half	0
	.half	0
	.half	76
	.half	18440
	.half	18
	.half	430
	.half	3443
	.half	1034
	.half	0
	.half	-32768
	.half	72
	.half	8
	.half	0
	.half	0
	.half	16188
	.half	0
	.half	0
	.half	0
	.half	72
	.half	2056
	.half	1045
	.half	160
	.half	3537
	.half	267
	.half	0
	.half	-32736
	.half	72
	.half	8
	.half	0
	.half	0
	.half	0
	.half	0
	.half	0
	.half	0
	.half	76
	.half	18440
	.half	18
	.half	62
	.half	3420
	.half	1034
	.half	0
	.half	32764
	.half	72
	.half	8
	.half	0
	.half	0
	.half	0
	.half	0
	.half	0
	.half	0
	.half	72
	.half	2056
	.half	1045
	.half	160
	.half	16188
	.half	267
	.half	0
	.half	0
	.half	72
	.half	8
	.half	0
	.half	0
	.half	0
	.half	0
	.half	0
	.half	0
	.half	76
	.half	20488
	.half	112
	.half	556
	.half	3420
	.half	1034
	.half	0
	.half	32764
	.half	76
	.half	18440
	.half	18
	.half	110
	.half	3443
	.half	1034
	.half	0
	.half	-32768
	.half	72
	.half	8
	.half	0
	.half	0
	.half	16188
	.half	0
	.half	0
	.half	0
	.half	72
	.half	2056
	.half	1045
	.half	160
	.half	3537
	.half	267
	.half	0
	.half	-32716
	.half	72
	.half	8
	.half	0
	.half	0
	.half	0
	.half	0
	.half	0
	.half	0
	.half	76
	.half	18440
	.half	18
	.half	62
	.half	3420
	.half	1034
	.half	0
	.half	32764
	.half	72
	.half	8
	.half	0
	.half	0
	.half	0
	.half	0
	.half	0
	.half	0
	.half	72
	.half	2056
	.half	1045
	.half	160
	.half	16188
	.half	267
	.half	0
	.half	0
	.half	72
	.half	8
	.half	0
	.half	0
	.half	0
	.half	0
	.half	0
	.half	0
	.half	76
	.half	20488
	.half	176
	.half	556
	.half	3420
	.half	1034
	.half	0
	.half	32764
	.half	76
	.half	18440
	.half	18
	.half	174
	.half	3443
	.half	1034
	.half	0
	.half	-32768
	.half	72
	.half	8
	.half	0
	.half	0
	.half	16188
	.half	0
	.half	0
	.half	0
	.half	72
	.half	2056
	.half	1045
	.half	160
	.half	3537
	.half	267
	.half	0
	.half	-32720
	.half	72
	.half	8
	.half	0
	.half	0
	.half	0
	.half	0
	.half	0
	.half	0
	.half	76
	.half	18440
	.half	18
	.half	62
	.half	3420
	.half	1034
	.half	0
	.half	32764
	.half	72
	.half	8
	.half	0
	.half	0
	.half	0
	.half	0
	.half	0
	.half	0
	.half	72
	.half	2056
	.half	1045
	.half	160
	.half	16188
	.half	267
	.half	0
	.half	0
	.half	72
	.half	8
	.half	0
	.half	0
	.half	0
	.half	0
	.half	0
	.half	0
	.half	76
	.half	20488
	.half	144
	.half	556
	.half	3420
	.half	1034
	.half	0
	.half	32764
	.half	76
	.half	18440
	.half	18
	.half	46
	.half	3443
	.half	1034
	.half	0
	.half	-32768
	.half	72
	.half	8
	.half	0
	.half	0
	.half	16188
	.half	0
	.half	0
	.half	0
	.half	72
	.half	2056
	.half	1045
	.half	160
	.half	3537
	.half	267
	.half	0
	.half	-32712
	.half	72
	.half	8
	.half	0
	.half	0
	.half	0
	.half	0
	.half	0
	.half	0
	.half	76
	.half	18440
	.half	18
	.half	62
	.half	3420
	.half	1034
	.half	0
	.half	32764
	.half	72
	.half	8
	.half	0
	.half	0
	.half	0
	.half	0
	.half	0
	.half	0
	.half	72
	.half	2056
	.half	1045
	.half	160
	.half	16188
	.half	267
	.half	0
	.half	0
	.half	72
	.half	8
	.half	0
	.half	0
	.half	3420
	.half	0
	.half	2048
	.half	32764
	.half	72
	.half	8
	.half	0
	.half	0
	.half	3425
	.half	0
	.half	0
	.half	-32768
	.half	72
	.half	8
	.half	0
	.half	0
	.half	14811
	.half	0
	.half	0
	.half	12
	.half	72
	.half	8
	.half	0
	.half	0
	.half	10715
	.half	0
	.half	0
	.half	-32760
	.half	72
	.half	8
	.half	0
	.half	0
	.half	7131
	.half	0
	.half	0
	.half	-32744
	.half	72
	.half	8
	.half	0
	.half	0
	.half	2875
	.half	0
	.half	0
	.half	-32768
	.half	72
	.half	8
	.half	0
	.half	0
	.half	3514
	.half	0
	.half	0
	.half	16392
	.half	72
	.half	8
	.half	0
	.half	0
	.half	3482
	.half	0
	.half	2048
	.half	-16232
	.half	72
	.half	2056
	.half	1045
	.half	160
	.half	0
	.half	139
	.half	0
	.half	0
	.half	76
	.half	2056
	.half	1045
	.half	492
	.half	0
	.half	9
	.half	0
	.half	0
	.half	76
	.half	18440
	.half	13872
	.half	36
	.half	0
	.half	1034
	.half	0
	.half	0
	.half	72
	.half	8
	.half	0
	.half	0
	.half	0
	.half	0
	.half	0
	.half	0
	.half	72
	.half	2056
	.half	1045
	.half	544
	.half	3444
	.half	139
	.half	0
	.half	0
	.half	72
	.half	8
	.half	0
	.half	0
	.half	0
	.half	0
	.half	0
	.half	0
	.half	76
	.half	18440
	.half	13840
	.half	36
	.half	3420
	.half	1034
	.half	0
	.half	32764
	.half	76
	.half	18440
	.half	13872
	.half	44
	.half	3443
	.half	1034
	.half	0
	.half	-32768
	.half	72
	.half	8
	.half	0
	.half	0
	.half	0
	.half	0
	.half	0
	.half	0
	.half	72
	.half	2056
	.half	1045
	.half	544
	.half	16188
	.half	139
	.half	0
	.half	0
	.half	72
	.half	8
	.half	0
	.half	0
	.half	0
	.half	0
	.half	0
	.half	0
	.half	76
	.half	18440
	.half	13872
	.half	108
	.half	3420
	.half	1034
	.half	0
	.half	32764
	.half	72
	.half	8
	.half	0
	.half	0
	.half	0
	.half	0
	.half	0
	.half	0
	.half	72
	.half	2056
	.half	1045
	.half	544
	.half	16188
	.half	139
	.half	0
	.half	0
	.half	72
	.half	8
	.half	0
	.half	0
	.half	0
	.half	0
	.half	0
	.half	0
	.half	76
	.half	18440
	.half	13872
	.half	172
	.half	3420
	.half	1034
	.half	0
	.half	32764
	.half	72
	.half	8
	.half	0
	.half	0
	.half	0
	.half	0
	.half	0
	.half	0
	.half	72
	.half	2056
	.half	1045
	.half	544
	.half	16188
	.half	139
	.half	0
	.half	0
	.half	72
	.half	8
	.half	0
	.half	0
	.half	0
	.half	0
	.half	0
	.half	0
	.half	76
	.half	18440
	.half	13872
	.half	428
	.half	3420
	.half	1034
	.half	0
	.half	32764
	.half	72
	.half	8
	.half	0
	.half	0
	.half	16188
	.half	0
	.half	0
	.half	0
	.half	72
	.half	2056
	.half	1045
	.half	544
	.half	3537
	.half	139
	.half	0
	.half	-32736
	.half	72
	.half	8
	.half	0
	.half	0
	.half	0
	.half	0
	.half	0
	.half	0
	.half	76
	.half	18440
	.half	13872
	.half	60
	.half	3420
	.half	1034
	.half	0
	.half	32764
	.half	72
	.half	8
	.half	0
	.half	0
	.half	16188
	.half	0
	.half	0
	.half	0
	.half	72
	.half	2056
	.half	1045
	.half	544
	.half	3537
	.half	139
	.half	0
	.half	-32720
	.half	72
	.half	8
	.half	0
	.half	0
	.half	0
	.half	0
	.half	0
	.half	0
	.half	76
	.half	18440
	.half	13872
	.half	60
	.half	3420
	.half	1034
	.half	0
	.half	32764
	.half	72
	.half	8
	.half	0
	.half	0
	.half	16188
	.half	0
	.half	0
	.half	0
	.half	72
	.half	2056
	.half	1045
	.half	544
	.half	3537
	.half	139
	.half	0
	.half	-32716
	.half	72
	.half	8
	.half	0
	.half	0
	.half	0
	.half	0
	.half	0
	.half	0
	.half	76
	.half	18440
	.half	13872
	.half	60
	.half	3420
	.half	1034
	.half	0
	.half	32764
	.half	72
	.half	8
	.half	0
	.half	0
	.half	16188
	.half	0
	.half	0
	.half	0
	.half	72
	.half	2056
	.half	1045
	.half	544
	.half	3537
	.half	139
	.half	0
	.half	-32712
	.half	72
	.half	8
	.half	0
	.half	0
	.half	0
	.half	0
	.half	0
	.half	0
	.half	76
	.half	18440
	.half	13872
	.half	60
	.half	3420
	.half	1034
	.half	0
	.half	32764
	.half	72
	.half	8
	.half	0
	.half	0
	.half	0
	.half	0
	.half	0
	.half	0
	.half	72
	.half	2056
	.half	1045
	.half	544
	.half	16188
	.half	139
	.half	0
	.half	0
	.half	72
	.half	8
	.half	0
	.half	0
	.half	3420
	.half	0
	.half	2048
	.half	32764
	.half	18
	.half	-1
	.half	-2
	.half	0
	.half	1
	.half	2
	.half	3
	.half	19
	.half	8
	.half	255
	.text
.Letext0:
	.file 2 "/opt/riscv-xpack/riscv-none-elf/include/machine/_default_types.h"
	.file 3 "/opt/riscv-xpack/riscv-none-elf/include/sys/_stdint.h"
	.file 4 "apps/canny/kernels/../../../base/ztalib.h"
	.file 5 "apps/canny/kernels/canny.p.img"